ARM GAS  /tmp/ccEyHRx1.s 			page 1


   1              		.cpu cortex-m4
   2              		.eabi_attribute 27, 1
   3              		.eabi_attribute 28, 1
   4              		.eabi_attribute 20, 1
   5              		.eabi_attribute 21, 1
   6              		.eabi_attribute 23, 3
   7              		.eabi_attribute 24, 1
   8              		.eabi_attribute 25, 1
   9              		.eabi_attribute 26, 1
  10              		.eabi_attribute 30, 1
  11              		.eabi_attribute 34, 1
  12              		.eabi_attribute 18, 4
  13              		.file	"stm32f4xx_hal_msp.c"
  14              		.text
  15              	.Ltext0:
  16              		.cfi_sections	.debug_frame
  17              		.section	.text.HAL_MspInit,"ax",%progbits
  18              		.align	1
  19              		.global	HAL_MspInit
  20              		.syntax unified
  21              		.thumb
  22              		.thumb_func
  23              		.fpu fpv4-sp-d16
  25              	HAL_MspInit:
  26              	.LFB130:
  27              		.file 1 "Core/Src/stm32f4xx_hal_msp.c"
   1:Core/Src/stm32f4xx_hal_msp.c **** /* USER CODE BEGIN Header */
   2:Core/Src/stm32f4xx_hal_msp.c **** /**
   3:Core/Src/stm32f4xx_hal_msp.c ****   ******************************************************************************
   4:Core/Src/stm32f4xx_hal_msp.c ****   * File Name          : stm32f4xx_hal_msp.c
   5:Core/Src/stm32f4xx_hal_msp.c ****   * Description        : This file provides code for the MSP Initialization 
   6:Core/Src/stm32f4xx_hal_msp.c ****   *                      and de-Initialization codes.
   7:Core/Src/stm32f4xx_hal_msp.c ****   ******************************************************************************
   8:Core/Src/stm32f4xx_hal_msp.c ****   * @attention
   9:Core/Src/stm32f4xx_hal_msp.c ****   *
  10:Core/Src/stm32f4xx_hal_msp.c ****   * <h2><center>&copy; Copyright (c) 2019 STMicroelectronics.
  11:Core/Src/stm32f4xx_hal_msp.c ****   * All rights reserved.</center></h2>
  12:Core/Src/stm32f4xx_hal_msp.c ****   *
  13:Core/Src/stm32f4xx_hal_msp.c ****   * This software component is licensed by ST under BSD 3-Clause license,
  14:Core/Src/stm32f4xx_hal_msp.c ****   * the "License"; You may not use this file except in compliance with the
  15:Core/Src/stm32f4xx_hal_msp.c ****   * License. You may obtain a copy of the License at:
  16:Core/Src/stm32f4xx_hal_msp.c ****   *                        opensource.org/licenses/BSD-3-Clause
  17:Core/Src/stm32f4xx_hal_msp.c ****   *
  18:Core/Src/stm32f4xx_hal_msp.c ****   ******************************************************************************
  19:Core/Src/stm32f4xx_hal_msp.c ****   */
  20:Core/Src/stm32f4xx_hal_msp.c **** /* USER CODE END Header */
  21:Core/Src/stm32f4xx_hal_msp.c **** 
  22:Core/Src/stm32f4xx_hal_msp.c **** /* Includes ------------------------------------------------------------------*/
  23:Core/Src/stm32f4xx_hal_msp.c **** #include "main.h"
  24:Core/Src/stm32f4xx_hal_msp.c **** /* USER CODE BEGIN Includes */
  25:Core/Src/stm32f4xx_hal_msp.c **** 
  26:Core/Src/stm32f4xx_hal_msp.c **** /* USER CODE END Includes */
  27:Core/Src/stm32f4xx_hal_msp.c **** 
  28:Core/Src/stm32f4xx_hal_msp.c **** /* Private typedef -----------------------------------------------------------*/
  29:Core/Src/stm32f4xx_hal_msp.c **** /* USER CODE BEGIN TD */
  30:Core/Src/stm32f4xx_hal_msp.c **** 
  31:Core/Src/stm32f4xx_hal_msp.c **** /* USER CODE END TD */
ARM GAS  /tmp/ccEyHRx1.s 			page 2


  32:Core/Src/stm32f4xx_hal_msp.c **** 
  33:Core/Src/stm32f4xx_hal_msp.c **** /* Private define ------------------------------------------------------------*/
  34:Core/Src/stm32f4xx_hal_msp.c **** /* USER CODE BEGIN Define */
  35:Core/Src/stm32f4xx_hal_msp.c ****  
  36:Core/Src/stm32f4xx_hal_msp.c **** /* USER CODE END Define */
  37:Core/Src/stm32f4xx_hal_msp.c **** 
  38:Core/Src/stm32f4xx_hal_msp.c **** /* Private macro -------------------------------------------------------------*/
  39:Core/Src/stm32f4xx_hal_msp.c **** /* USER CODE BEGIN Macro */
  40:Core/Src/stm32f4xx_hal_msp.c **** 
  41:Core/Src/stm32f4xx_hal_msp.c **** /* USER CODE END Macro */
  42:Core/Src/stm32f4xx_hal_msp.c **** 
  43:Core/Src/stm32f4xx_hal_msp.c **** /* Private variables ---------------------------------------------------------*/
  44:Core/Src/stm32f4xx_hal_msp.c **** /* USER CODE BEGIN PV */
  45:Core/Src/stm32f4xx_hal_msp.c **** 
  46:Core/Src/stm32f4xx_hal_msp.c **** /* USER CODE END PV */
  47:Core/Src/stm32f4xx_hal_msp.c **** 
  48:Core/Src/stm32f4xx_hal_msp.c **** /* Private function prototypes -----------------------------------------------*/
  49:Core/Src/stm32f4xx_hal_msp.c **** /* USER CODE BEGIN PFP */
  50:Core/Src/stm32f4xx_hal_msp.c **** 
  51:Core/Src/stm32f4xx_hal_msp.c **** /* USER CODE END PFP */
  52:Core/Src/stm32f4xx_hal_msp.c **** 
  53:Core/Src/stm32f4xx_hal_msp.c **** /* External functions --------------------------------------------------------*/
  54:Core/Src/stm32f4xx_hal_msp.c **** /* USER CODE BEGIN ExternalFunctions */
  55:Core/Src/stm32f4xx_hal_msp.c **** 
  56:Core/Src/stm32f4xx_hal_msp.c **** /* USER CODE END ExternalFunctions */
  57:Core/Src/stm32f4xx_hal_msp.c **** 
  58:Core/Src/stm32f4xx_hal_msp.c **** /* USER CODE BEGIN 0 */
  59:Core/Src/stm32f4xx_hal_msp.c **** 
  60:Core/Src/stm32f4xx_hal_msp.c **** /* USER CODE END 0 */
  61:Core/Src/stm32f4xx_hal_msp.c **** /**
  62:Core/Src/stm32f4xx_hal_msp.c ****   * Initializes the Global MSP.
  63:Core/Src/stm32f4xx_hal_msp.c ****   */
  64:Core/Src/stm32f4xx_hal_msp.c **** void HAL_MspInit(void)
  65:Core/Src/stm32f4xx_hal_msp.c **** {
  28              		.loc 1 65 0
  29              		.cfi_startproc
  30              		@ args = 0, pretend = 0, frame = 8
  31              		@ frame_needed = 0, uses_anonymous_args = 0
  32              		@ link register save eliminated.
  33 0000 82B0     		sub	sp, sp, #8
  34              	.LCFI0:
  35              		.cfi_def_cfa_offset 8
  36              	.LBB2:
  66:Core/Src/stm32f4xx_hal_msp.c ****   /* USER CODE BEGIN MspInit 0 */
  67:Core/Src/stm32f4xx_hal_msp.c **** 
  68:Core/Src/stm32f4xx_hal_msp.c ****   /* USER CODE END MspInit 0 */
  69:Core/Src/stm32f4xx_hal_msp.c **** 
  70:Core/Src/stm32f4xx_hal_msp.c ****   __HAL_RCC_SYSCFG_CLK_ENABLE();
  37              		.loc 1 70 0
  38 0002 0021     		movs	r1, #0
  39 0004 0091     		str	r1, [sp]
  40 0006 0B4B     		ldr	r3, .L3
  41 0008 5A6C     		ldr	r2, [r3, #68]
  42 000a 42F48042 		orr	r2, r2, #16384
  43 000e 5A64     		str	r2, [r3, #68]
  44 0010 5A6C     		ldr	r2, [r3, #68]
  45 0012 02F48042 		and	r2, r2, #16384
ARM GAS  /tmp/ccEyHRx1.s 			page 3


  46 0016 0092     		str	r2, [sp]
  47 0018 009A     		ldr	r2, [sp]
  48              	.LBE2:
  49              	.LBB3:
  71:Core/Src/stm32f4xx_hal_msp.c ****   __HAL_RCC_PWR_CLK_ENABLE();
  50              		.loc 1 71 0
  51 001a 0191     		str	r1, [sp, #4]
  52 001c 1A6C     		ldr	r2, [r3, #64]
  53 001e 42F08052 		orr	r2, r2, #268435456
  54 0022 1A64     		str	r2, [r3, #64]
  55 0024 1B6C     		ldr	r3, [r3, #64]
  56 0026 03F08053 		and	r3, r3, #268435456
  57 002a 0193     		str	r3, [sp, #4]
  58 002c 019B     		ldr	r3, [sp, #4]
  59              	.LBE3:
  72:Core/Src/stm32f4xx_hal_msp.c **** 
  73:Core/Src/stm32f4xx_hal_msp.c ****   /* System interrupt init*/
  74:Core/Src/stm32f4xx_hal_msp.c **** 
  75:Core/Src/stm32f4xx_hal_msp.c ****   /* USER CODE BEGIN MspInit 1 */
  76:Core/Src/stm32f4xx_hal_msp.c **** 
  77:Core/Src/stm32f4xx_hal_msp.c ****   /* USER CODE END MspInit 1 */
  78:Core/Src/stm32f4xx_hal_msp.c **** }
  60              		.loc 1 78 0
  61 002e 02B0     		add	sp, sp, #8
  62              	.LCFI1:
  63              		.cfi_def_cfa_offset 0
  64              		@ sp needed
  65 0030 7047     		bx	lr
  66              	.L4:
  67 0032 00BF     		.align	2
  68              	.L3:
  69 0034 00380240 		.word	1073887232
  70              		.cfi_endproc
  71              	.LFE130:
  73              		.section	.text.HAL_UART_MspInit,"ax",%progbits
  74              		.align	1
  75              		.global	HAL_UART_MspInit
  76              		.syntax unified
  77              		.thumb
  78              		.thumb_func
  79              		.fpu fpv4-sp-d16
  81              	HAL_UART_MspInit:
  82              	.LFB131:
  79:Core/Src/stm32f4xx_hal_msp.c **** 
  80:Core/Src/stm32f4xx_hal_msp.c **** /**
  81:Core/Src/stm32f4xx_hal_msp.c **** * @brief UART MSP Initialization
  82:Core/Src/stm32f4xx_hal_msp.c **** * This function configures the hardware resources used in this example
  83:Core/Src/stm32f4xx_hal_msp.c **** * @param huart: UART handle pointer
  84:Core/Src/stm32f4xx_hal_msp.c **** * @retval None
  85:Core/Src/stm32f4xx_hal_msp.c **** */
  86:Core/Src/stm32f4xx_hal_msp.c **** void HAL_UART_MspInit(UART_HandleTypeDef* huart)
  87:Core/Src/stm32f4xx_hal_msp.c **** {
  83              		.loc 1 87 0
  84              		.cfi_startproc
  85              		@ args = 0, pretend = 0, frame = 32
  86              		@ frame_needed = 0, uses_anonymous_args = 0
  87              	.LVL0:
ARM GAS  /tmp/ccEyHRx1.s 			page 4


  88 0000 00B5     		push	{lr}
  89              	.LCFI2:
  90              		.cfi_def_cfa_offset 4
  91              		.cfi_offset 14, -4
  92 0002 89B0     		sub	sp, sp, #36
  93              	.LCFI3:
  94              		.cfi_def_cfa_offset 40
  88:Core/Src/stm32f4xx_hal_msp.c ****   GPIO_InitTypeDef GPIO_InitStruct = {0};
  95              		.loc 1 88 0
  96 0004 0023     		movs	r3, #0
  97 0006 0393     		str	r3, [sp, #12]
  98 0008 0493     		str	r3, [sp, #16]
  99 000a 0593     		str	r3, [sp, #20]
 100 000c 0693     		str	r3, [sp, #24]
 101 000e 0793     		str	r3, [sp, #28]
  89:Core/Src/stm32f4xx_hal_msp.c ****   if(huart->Instance==USART3)
 102              		.loc 1 89 0
 103 0010 0268     		ldr	r2, [r0]
 104 0012 164B     		ldr	r3, .L9
 105 0014 9A42     		cmp	r2, r3
 106 0016 02D0     		beq	.L8
 107              	.LVL1:
 108              	.L5:
  90:Core/Src/stm32f4xx_hal_msp.c ****   {
  91:Core/Src/stm32f4xx_hal_msp.c ****   /* USER CODE BEGIN USART3_MspInit 0 */
  92:Core/Src/stm32f4xx_hal_msp.c **** 
  93:Core/Src/stm32f4xx_hal_msp.c ****   /* USER CODE END USART3_MspInit 0 */
  94:Core/Src/stm32f4xx_hal_msp.c ****     /* Peripheral clock enable */
  95:Core/Src/stm32f4xx_hal_msp.c ****     __HAL_RCC_USART3_CLK_ENABLE();
  96:Core/Src/stm32f4xx_hal_msp.c ****   
  97:Core/Src/stm32f4xx_hal_msp.c ****     __HAL_RCC_GPIOD_CLK_ENABLE();
  98:Core/Src/stm32f4xx_hal_msp.c ****     /**USART3 GPIO Configuration    
  99:Core/Src/stm32f4xx_hal_msp.c ****     PD8     ------> USART3_TX
 100:Core/Src/stm32f4xx_hal_msp.c ****     PD9     ------> USART3_RX 
 101:Core/Src/stm32f4xx_hal_msp.c ****     */
 102:Core/Src/stm32f4xx_hal_msp.c ****     GPIO_InitStruct.Pin = STLK_RX_Pin|STLK_TX_Pin;
 103:Core/Src/stm32f4xx_hal_msp.c ****     GPIO_InitStruct.Mode = GPIO_MODE_AF_PP;
 104:Core/Src/stm32f4xx_hal_msp.c ****     GPIO_InitStruct.Pull = GPIO_PULLUP;
 105:Core/Src/stm32f4xx_hal_msp.c ****     GPIO_InitStruct.Speed = GPIO_SPEED_FREQ_VERY_HIGH;
 106:Core/Src/stm32f4xx_hal_msp.c ****     GPIO_InitStruct.Alternate = GPIO_AF7_USART3;
 107:Core/Src/stm32f4xx_hal_msp.c ****     HAL_GPIO_Init(GPIOD, &GPIO_InitStruct);
 108:Core/Src/stm32f4xx_hal_msp.c **** 
 109:Core/Src/stm32f4xx_hal_msp.c ****   /* USER CODE BEGIN USART3_MspInit 1 */
 110:Core/Src/stm32f4xx_hal_msp.c **** 
 111:Core/Src/stm32f4xx_hal_msp.c ****   /* USER CODE END USART3_MspInit 1 */
 112:Core/Src/stm32f4xx_hal_msp.c ****   }
 113:Core/Src/stm32f4xx_hal_msp.c **** 
 114:Core/Src/stm32f4xx_hal_msp.c **** }
 109              		.loc 1 114 0
 110 0018 09B0     		add	sp, sp, #36
 111              	.LCFI4:
 112              		.cfi_remember_state
 113              		.cfi_def_cfa_offset 4
 114              		@ sp needed
 115 001a 5DF804FB 		ldr	pc, [sp], #4
 116              	.LVL2:
 117              	.L8:
ARM GAS  /tmp/ccEyHRx1.s 			page 5


 118              	.LCFI5:
 119              		.cfi_restore_state
 120              	.LBB4:
  95:Core/Src/stm32f4xx_hal_msp.c ****   
 121              		.loc 1 95 0
 122 001e 0021     		movs	r1, #0
 123 0020 0191     		str	r1, [sp, #4]
 124 0022 03F5F833 		add	r3, r3, #126976
 125 0026 1A6C     		ldr	r2, [r3, #64]
 126 0028 42F48022 		orr	r2, r2, #262144
 127 002c 1A64     		str	r2, [r3, #64]
 128 002e 1A6C     		ldr	r2, [r3, #64]
 129 0030 02F48022 		and	r2, r2, #262144
 130 0034 0192     		str	r2, [sp, #4]
 131 0036 019A     		ldr	r2, [sp, #4]
 132              	.LBE4:
 133              	.LBB5:
  97:Core/Src/stm32f4xx_hal_msp.c ****     /**USART3 GPIO Configuration    
 134              		.loc 1 97 0
 135 0038 0291     		str	r1, [sp, #8]
 136 003a 1A6B     		ldr	r2, [r3, #48]
 137 003c 42F00802 		orr	r2, r2, #8
 138 0040 1A63     		str	r2, [r3, #48]
 139 0042 1B6B     		ldr	r3, [r3, #48]
 140 0044 03F00803 		and	r3, r3, #8
 141 0048 0293     		str	r3, [sp, #8]
 142 004a 029B     		ldr	r3, [sp, #8]
 143              	.LBE5:
 102:Core/Src/stm32f4xx_hal_msp.c ****     GPIO_InitStruct.Mode = GPIO_MODE_AF_PP;
 144              		.loc 1 102 0
 145 004c 4FF44073 		mov	r3, #768
 146 0050 0393     		str	r3, [sp, #12]
 103:Core/Src/stm32f4xx_hal_msp.c ****     GPIO_InitStruct.Pull = GPIO_PULLUP;
 147              		.loc 1 103 0
 148 0052 0223     		movs	r3, #2
 149 0054 0493     		str	r3, [sp, #16]
 104:Core/Src/stm32f4xx_hal_msp.c ****     GPIO_InitStruct.Speed = GPIO_SPEED_FREQ_VERY_HIGH;
 150              		.loc 1 104 0
 151 0056 0123     		movs	r3, #1
 152 0058 0593     		str	r3, [sp, #20]
 105:Core/Src/stm32f4xx_hal_msp.c ****     GPIO_InitStruct.Alternate = GPIO_AF7_USART3;
 153              		.loc 1 105 0
 154 005a 0323     		movs	r3, #3
 155 005c 0693     		str	r3, [sp, #24]
 106:Core/Src/stm32f4xx_hal_msp.c ****     HAL_GPIO_Init(GPIOD, &GPIO_InitStruct);
 156              		.loc 1 106 0
 157 005e 0723     		movs	r3, #7
 158 0060 0793     		str	r3, [sp, #28]
 107:Core/Src/stm32f4xx_hal_msp.c **** 
 159              		.loc 1 107 0
 160 0062 03A9     		add	r1, sp, #12
 161 0064 0248     		ldr	r0, .L9+4
 162              	.LVL3:
 163 0066 FFF7FEFF 		bl	HAL_GPIO_Init
 164              	.LVL4:
 165              		.loc 1 114 0
 166 006a D5E7     		b	.L5
ARM GAS  /tmp/ccEyHRx1.s 			page 6


 167              	.L10:
 168              		.align	2
 169              	.L9:
 170 006c 00480040 		.word	1073760256
 171 0070 000C0240 		.word	1073875968
 172              		.cfi_endproc
 173              	.LFE131:
 175              		.section	.text.HAL_UART_MspDeInit,"ax",%progbits
 176              		.align	1
 177              		.global	HAL_UART_MspDeInit
 178              		.syntax unified
 179              		.thumb
 180              		.thumb_func
 181              		.fpu fpv4-sp-d16
 183              	HAL_UART_MspDeInit:
 184              	.LFB132:
 115:Core/Src/stm32f4xx_hal_msp.c **** 
 116:Core/Src/stm32f4xx_hal_msp.c **** /**
 117:Core/Src/stm32f4xx_hal_msp.c **** * @brief UART MSP De-Initialization
 118:Core/Src/stm32f4xx_hal_msp.c **** * This function freeze the hardware resources used in this example
 119:Core/Src/stm32f4xx_hal_msp.c **** * @param huart: UART handle pointer
 120:Core/Src/stm32f4xx_hal_msp.c **** * @retval None
 121:Core/Src/stm32f4xx_hal_msp.c **** */
 122:Core/Src/stm32f4xx_hal_msp.c **** void HAL_UART_MspDeInit(UART_HandleTypeDef* huart)
 123:Core/Src/stm32f4xx_hal_msp.c **** {
 185              		.loc 1 123 0
 186              		.cfi_startproc
 187              		@ args = 0, pretend = 0, frame = 0
 188              		@ frame_needed = 0, uses_anonymous_args = 0
 189              	.LVL5:
 190 0000 08B5     		push	{r3, lr}
 191              	.LCFI6:
 192              		.cfi_def_cfa_offset 8
 193              		.cfi_offset 3, -8
 194              		.cfi_offset 14, -4
 124:Core/Src/stm32f4xx_hal_msp.c ****   if(huart->Instance==USART3)
 195              		.loc 1 124 0
 196 0002 0268     		ldr	r2, [r0]
 197 0004 074B     		ldr	r3, .L15
 198 0006 9A42     		cmp	r2, r3
 199 0008 00D0     		beq	.L14
 200              	.LVL6:
 201              	.L11:
 125:Core/Src/stm32f4xx_hal_msp.c ****   {
 126:Core/Src/stm32f4xx_hal_msp.c ****   /* USER CODE BEGIN USART3_MspDeInit 0 */
 127:Core/Src/stm32f4xx_hal_msp.c **** 
 128:Core/Src/stm32f4xx_hal_msp.c ****   /* USER CODE END USART3_MspDeInit 0 */
 129:Core/Src/stm32f4xx_hal_msp.c ****     /* Peripheral clock disable */
 130:Core/Src/stm32f4xx_hal_msp.c ****     __HAL_RCC_USART3_CLK_DISABLE();
 131:Core/Src/stm32f4xx_hal_msp.c ****   
 132:Core/Src/stm32f4xx_hal_msp.c ****     /**USART3 GPIO Configuration    
 133:Core/Src/stm32f4xx_hal_msp.c ****     PD8     ------> USART3_TX
 134:Core/Src/stm32f4xx_hal_msp.c ****     PD9     ------> USART3_RX 
 135:Core/Src/stm32f4xx_hal_msp.c ****     */
 136:Core/Src/stm32f4xx_hal_msp.c ****     HAL_GPIO_DeInit(GPIOD, STLK_RX_Pin|STLK_TX_Pin);
 137:Core/Src/stm32f4xx_hal_msp.c **** 
 138:Core/Src/stm32f4xx_hal_msp.c ****   /* USER CODE BEGIN USART3_MspDeInit 1 */
ARM GAS  /tmp/ccEyHRx1.s 			page 7


 139:Core/Src/stm32f4xx_hal_msp.c **** 
 140:Core/Src/stm32f4xx_hal_msp.c ****   /* USER CODE END USART3_MspDeInit 1 */
 141:Core/Src/stm32f4xx_hal_msp.c ****   }
 142:Core/Src/stm32f4xx_hal_msp.c **** 
 143:Core/Src/stm32f4xx_hal_msp.c **** }
 202              		.loc 1 143 0
 203 000a 08BD     		pop	{r3, pc}
 204              	.LVL7:
 205              	.L14:
 130:Core/Src/stm32f4xx_hal_msp.c ****   
 206              		.loc 1 130 0
 207 000c 064A     		ldr	r2, .L15+4
 208 000e 136C     		ldr	r3, [r2, #64]
 209 0010 23F48023 		bic	r3, r3, #262144
 210 0014 1364     		str	r3, [r2, #64]
 136:Core/Src/stm32f4xx_hal_msp.c **** 
 211              		.loc 1 136 0
 212 0016 4FF44071 		mov	r1, #768
 213 001a 0448     		ldr	r0, .L15+8
 214              	.LVL8:
 215 001c FFF7FEFF 		bl	HAL_GPIO_DeInit
 216              	.LVL9:
 217              		.loc 1 143 0
 218 0020 F3E7     		b	.L11
 219              	.L16:
 220 0022 00BF     		.align	2
 221              	.L15:
 222 0024 00480040 		.word	1073760256
 223 0028 00380240 		.word	1073887232
 224 002c 000C0240 		.word	1073875968
 225              		.cfi_endproc
 226              	.LFE132:
 228              		.section	.text.HAL_PCD_MspInit,"ax",%progbits
 229              		.align	1
 230              		.global	HAL_PCD_MspInit
 231              		.syntax unified
 232              		.thumb
 233              		.thumb_func
 234              		.fpu fpv4-sp-d16
 236              	HAL_PCD_MspInit:
 237              	.LFB133:
 144:Core/Src/stm32f4xx_hal_msp.c **** 
 145:Core/Src/stm32f4xx_hal_msp.c **** /**
 146:Core/Src/stm32f4xx_hal_msp.c **** * @brief PCD MSP Initialization
 147:Core/Src/stm32f4xx_hal_msp.c **** * This function configures the hardware resources used in this example
 148:Core/Src/stm32f4xx_hal_msp.c **** * @param hpcd: PCD handle pointer
 149:Core/Src/stm32f4xx_hal_msp.c **** * @retval None
 150:Core/Src/stm32f4xx_hal_msp.c **** */
 151:Core/Src/stm32f4xx_hal_msp.c **** void HAL_PCD_MspInit(PCD_HandleTypeDef* hpcd)
 152:Core/Src/stm32f4xx_hal_msp.c **** {
 238              		.loc 1 152 0
 239              		.cfi_startproc
 240              		@ args = 0, pretend = 0, frame = 32
 241              		@ frame_needed = 0, uses_anonymous_args = 0
 242              	.LVL10:
 243 0000 70B5     		push	{r4, r5, r6, lr}
 244              	.LCFI7:
ARM GAS  /tmp/ccEyHRx1.s 			page 8


 245              		.cfi_def_cfa_offset 16
 246              		.cfi_offset 4, -16
 247              		.cfi_offset 5, -12
 248              		.cfi_offset 6, -8
 249              		.cfi_offset 14, -4
 250 0002 88B0     		sub	sp, sp, #32
 251              	.LCFI8:
 252              		.cfi_def_cfa_offset 48
 153:Core/Src/stm32f4xx_hal_msp.c ****   GPIO_InitTypeDef GPIO_InitStruct = {0};
 253              		.loc 1 153 0
 254 0004 0023     		movs	r3, #0
 255 0006 0393     		str	r3, [sp, #12]
 256 0008 0493     		str	r3, [sp, #16]
 257 000a 0593     		str	r3, [sp, #20]
 258 000c 0693     		str	r3, [sp, #24]
 259 000e 0793     		str	r3, [sp, #28]
 154:Core/Src/stm32f4xx_hal_msp.c ****   if(hpcd->Instance==USB_OTG_FS)
 260              		.loc 1 154 0
 261 0010 0368     		ldr	r3, [r0]
 262 0012 B3F1A04F 		cmp	r3, #1342177280
 263 0016 01D0     		beq	.L20
 264              	.LVL11:
 265              	.L17:
 155:Core/Src/stm32f4xx_hal_msp.c ****   {
 156:Core/Src/stm32f4xx_hal_msp.c ****   /* USER CODE BEGIN USB_OTG_FS_MspInit 0 */
 157:Core/Src/stm32f4xx_hal_msp.c **** 
 158:Core/Src/stm32f4xx_hal_msp.c ****   /* USER CODE END USB_OTG_FS_MspInit 0 */
 159:Core/Src/stm32f4xx_hal_msp.c ****   
 160:Core/Src/stm32f4xx_hal_msp.c ****     __HAL_RCC_GPIOA_CLK_ENABLE();
 161:Core/Src/stm32f4xx_hal_msp.c ****     /**USB_OTG_FS GPIO Configuration    
 162:Core/Src/stm32f4xx_hal_msp.c ****     PA8     ------> USB_OTG_FS_SOF
 163:Core/Src/stm32f4xx_hal_msp.c ****     PA9     ------> USB_OTG_FS_VBUS
 164:Core/Src/stm32f4xx_hal_msp.c ****     PA10     ------> USB_OTG_FS_ID
 165:Core/Src/stm32f4xx_hal_msp.c ****     PA11     ------> USB_OTG_FS_DM
 166:Core/Src/stm32f4xx_hal_msp.c ****     PA12     ------> USB_OTG_FS_DP 
 167:Core/Src/stm32f4xx_hal_msp.c ****     */
 168:Core/Src/stm32f4xx_hal_msp.c ****     GPIO_InitStruct.Pin = USB_SOF_Pin|USB_ID_Pin|USB_DM_Pin|USB_DP_Pin;
 169:Core/Src/stm32f4xx_hal_msp.c ****     GPIO_InitStruct.Mode = GPIO_MODE_AF_PP;
 170:Core/Src/stm32f4xx_hal_msp.c ****     GPIO_InitStruct.Pull = GPIO_NOPULL;
 171:Core/Src/stm32f4xx_hal_msp.c ****     GPIO_InitStruct.Speed = GPIO_SPEED_FREQ_VERY_HIGH;
 172:Core/Src/stm32f4xx_hal_msp.c ****     GPIO_InitStruct.Alternate = GPIO_AF10_OTG_FS;
 173:Core/Src/stm32f4xx_hal_msp.c ****     HAL_GPIO_Init(GPIOA, &GPIO_InitStruct);
 174:Core/Src/stm32f4xx_hal_msp.c **** 
 175:Core/Src/stm32f4xx_hal_msp.c ****     GPIO_InitStruct.Pin = USB_VBUS_Pin;
 176:Core/Src/stm32f4xx_hal_msp.c ****     GPIO_InitStruct.Mode = GPIO_MODE_INPUT;
 177:Core/Src/stm32f4xx_hal_msp.c ****     GPIO_InitStruct.Pull = GPIO_NOPULL;
 178:Core/Src/stm32f4xx_hal_msp.c ****     HAL_GPIO_Init(USB_VBUS_GPIO_Port, &GPIO_InitStruct);
 179:Core/Src/stm32f4xx_hal_msp.c **** 
 180:Core/Src/stm32f4xx_hal_msp.c ****     /* Peripheral clock enable */
 181:Core/Src/stm32f4xx_hal_msp.c ****     __HAL_RCC_USB_OTG_FS_CLK_ENABLE();
 182:Core/Src/stm32f4xx_hal_msp.c ****   /* USER CODE BEGIN USB_OTG_FS_MspInit 1 */
 183:Core/Src/stm32f4xx_hal_msp.c **** 
 184:Core/Src/stm32f4xx_hal_msp.c ****   /* USER CODE END USB_OTG_FS_MspInit 1 */
 185:Core/Src/stm32f4xx_hal_msp.c ****   }
 186:Core/Src/stm32f4xx_hal_msp.c **** 
 187:Core/Src/stm32f4xx_hal_msp.c **** }
 266              		.loc 1 187 0
ARM GAS  /tmp/ccEyHRx1.s 			page 9


 267 0018 08B0     		add	sp, sp, #32
 268              	.LCFI9:
 269              		.cfi_remember_state
 270              		.cfi_def_cfa_offset 16
 271              		@ sp needed
 272 001a 70BD     		pop	{r4, r5, r6, pc}
 273              	.LVL12:
 274              	.L20:
 275              	.LCFI10:
 276              		.cfi_restore_state
 277              	.LBB6:
 160:Core/Src/stm32f4xx_hal_msp.c ****     /**USB_OTG_FS GPIO Configuration    
 278              		.loc 1 160 0
 279 001c 0025     		movs	r5, #0
 280 001e 0195     		str	r5, [sp, #4]
 281 0020 174C     		ldr	r4, .L21
 282 0022 236B     		ldr	r3, [r4, #48]
 283 0024 43F00103 		orr	r3, r3, #1
 284 0028 2363     		str	r3, [r4, #48]
 285 002a 236B     		ldr	r3, [r4, #48]
 286 002c 03F00103 		and	r3, r3, #1
 287 0030 0193     		str	r3, [sp, #4]
 288 0032 019B     		ldr	r3, [sp, #4]
 289              	.LBE6:
 168:Core/Src/stm32f4xx_hal_msp.c ****     GPIO_InitStruct.Mode = GPIO_MODE_AF_PP;
 290              		.loc 1 168 0
 291 0034 4FF4E853 		mov	r3, #7424
 292 0038 0393     		str	r3, [sp, #12]
 169:Core/Src/stm32f4xx_hal_msp.c ****     GPIO_InitStruct.Pull = GPIO_NOPULL;
 293              		.loc 1 169 0
 294 003a 0223     		movs	r3, #2
 295 003c 0493     		str	r3, [sp, #16]
 171:Core/Src/stm32f4xx_hal_msp.c ****     GPIO_InitStruct.Alternate = GPIO_AF10_OTG_FS;
 296              		.loc 1 171 0
 297 003e 0323     		movs	r3, #3
 298 0040 0693     		str	r3, [sp, #24]
 172:Core/Src/stm32f4xx_hal_msp.c ****     HAL_GPIO_Init(GPIOA, &GPIO_InitStruct);
 299              		.loc 1 172 0
 300 0042 0A23     		movs	r3, #10
 301 0044 0793     		str	r3, [sp, #28]
 173:Core/Src/stm32f4xx_hal_msp.c **** 
 302              		.loc 1 173 0
 303 0046 0F4E     		ldr	r6, .L21+4
 304 0048 03A9     		add	r1, sp, #12
 305 004a 3046     		mov	r0, r6
 306              	.LVL13:
 307 004c FFF7FEFF 		bl	HAL_GPIO_Init
 308              	.LVL14:
 175:Core/Src/stm32f4xx_hal_msp.c ****     GPIO_InitStruct.Mode = GPIO_MODE_INPUT;
 309              		.loc 1 175 0
 310 0050 4FF40073 		mov	r3, #512
 311 0054 0393     		str	r3, [sp, #12]
 176:Core/Src/stm32f4xx_hal_msp.c ****     GPIO_InitStruct.Pull = GPIO_NOPULL;
 312              		.loc 1 176 0
 313 0056 0495     		str	r5, [sp, #16]
 177:Core/Src/stm32f4xx_hal_msp.c ****     HAL_GPIO_Init(USB_VBUS_GPIO_Port, &GPIO_InitStruct);
 314              		.loc 1 177 0
ARM GAS  /tmp/ccEyHRx1.s 			page 10


 315 0058 0595     		str	r5, [sp, #20]
 178:Core/Src/stm32f4xx_hal_msp.c **** 
 316              		.loc 1 178 0
 317 005a 03A9     		add	r1, sp, #12
 318 005c 3046     		mov	r0, r6
 319 005e FFF7FEFF 		bl	HAL_GPIO_Init
 320              	.LVL15:
 181:Core/Src/stm32f4xx_hal_msp.c ****   /* USER CODE BEGIN USB_OTG_FS_MspInit 1 */
 321              		.loc 1 181 0
 322 0062 636B     		ldr	r3, [r4, #52]
 323 0064 43F08003 		orr	r3, r3, #128
 324 0068 6363     		str	r3, [r4, #52]
 325              	.LBB7:
 326 006a 0295     		str	r5, [sp, #8]
 327 006c 636C     		ldr	r3, [r4, #68]
 328 006e 43F48043 		orr	r3, r3, #16384
 329 0072 6364     		str	r3, [r4, #68]
 330 0074 636C     		ldr	r3, [r4, #68]
 331 0076 03F48043 		and	r3, r3, #16384
 332 007a 0293     		str	r3, [sp, #8]
 333 007c 029B     		ldr	r3, [sp, #8]
 334              	.LBE7:
 335              		.loc 1 187 0
 336 007e CBE7     		b	.L17
 337              	.L22:
 338              		.align	2
 339              	.L21:
 340 0080 00380240 		.word	1073887232
 341 0084 00000240 		.word	1073872896
 342              		.cfi_endproc
 343              	.LFE133:
 345              		.section	.text.HAL_PCD_MspDeInit,"ax",%progbits
 346              		.align	1
 347              		.global	HAL_PCD_MspDeInit
 348              		.syntax unified
 349              		.thumb
 350              		.thumb_func
 351              		.fpu fpv4-sp-d16
 353              	HAL_PCD_MspDeInit:
 354              	.LFB134:
 188:Core/Src/stm32f4xx_hal_msp.c **** 
 189:Core/Src/stm32f4xx_hal_msp.c **** /**
 190:Core/Src/stm32f4xx_hal_msp.c **** * @brief PCD MSP De-Initialization
 191:Core/Src/stm32f4xx_hal_msp.c **** * This function freeze the hardware resources used in this example
 192:Core/Src/stm32f4xx_hal_msp.c **** * @param hpcd: PCD handle pointer
 193:Core/Src/stm32f4xx_hal_msp.c **** * @retval None
 194:Core/Src/stm32f4xx_hal_msp.c **** */
 195:Core/Src/stm32f4xx_hal_msp.c **** void HAL_PCD_MspDeInit(PCD_HandleTypeDef* hpcd)
 196:Core/Src/stm32f4xx_hal_msp.c **** {
 355              		.loc 1 196 0
 356              		.cfi_startproc
 357              		@ args = 0, pretend = 0, frame = 0
 358              		@ frame_needed = 0, uses_anonymous_args = 0
 359              	.LVL16:
 360 0000 08B5     		push	{r3, lr}
 361              	.LCFI11:
 362              		.cfi_def_cfa_offset 8
ARM GAS  /tmp/ccEyHRx1.s 			page 11


 363              		.cfi_offset 3, -8
 364              		.cfi_offset 14, -4
 197:Core/Src/stm32f4xx_hal_msp.c ****   if(hpcd->Instance==USB_OTG_FS)
 365              		.loc 1 197 0
 366 0002 0368     		ldr	r3, [r0]
 367 0004 B3F1A04F 		cmp	r3, #1342177280
 368 0008 00D0     		beq	.L26
 369              	.LVL17:
 370              	.L23:
 198:Core/Src/stm32f4xx_hal_msp.c ****   {
 199:Core/Src/stm32f4xx_hal_msp.c ****   /* USER CODE BEGIN USB_OTG_FS_MspDeInit 0 */
 200:Core/Src/stm32f4xx_hal_msp.c **** 
 201:Core/Src/stm32f4xx_hal_msp.c ****   /* USER CODE END USB_OTG_FS_MspDeInit 0 */
 202:Core/Src/stm32f4xx_hal_msp.c ****     /* Peripheral clock disable */
 203:Core/Src/stm32f4xx_hal_msp.c ****     __HAL_RCC_USB_OTG_FS_CLK_DISABLE();
 204:Core/Src/stm32f4xx_hal_msp.c ****   
 205:Core/Src/stm32f4xx_hal_msp.c ****     /**USB_OTG_FS GPIO Configuration    
 206:Core/Src/stm32f4xx_hal_msp.c ****     PA8     ------> USB_OTG_FS_SOF
 207:Core/Src/stm32f4xx_hal_msp.c ****     PA9     ------> USB_OTG_FS_VBUS
 208:Core/Src/stm32f4xx_hal_msp.c ****     PA10     ------> USB_OTG_FS_ID
 209:Core/Src/stm32f4xx_hal_msp.c ****     PA11     ------> USB_OTG_FS_DM
 210:Core/Src/stm32f4xx_hal_msp.c ****     PA12     ------> USB_OTG_FS_DP 
 211:Core/Src/stm32f4xx_hal_msp.c ****     */
 212:Core/Src/stm32f4xx_hal_msp.c ****     HAL_GPIO_DeInit(GPIOA, USB_SOF_Pin|USB_VBUS_Pin|USB_ID_Pin|USB_DM_Pin 
 213:Core/Src/stm32f4xx_hal_msp.c ****                           |USB_DP_Pin);
 214:Core/Src/stm32f4xx_hal_msp.c **** 
 215:Core/Src/stm32f4xx_hal_msp.c ****   /* USER CODE BEGIN USB_OTG_FS_MspDeInit 1 */
 216:Core/Src/stm32f4xx_hal_msp.c **** 
 217:Core/Src/stm32f4xx_hal_msp.c ****   /* USER CODE END USB_OTG_FS_MspDeInit 1 */
 218:Core/Src/stm32f4xx_hal_msp.c ****   }
 219:Core/Src/stm32f4xx_hal_msp.c **** 
 220:Core/Src/stm32f4xx_hal_msp.c **** }
 371              		.loc 1 220 0
 372 000a 08BD     		pop	{r3, pc}
 373              	.LVL18:
 374              	.L26:
 203:Core/Src/stm32f4xx_hal_msp.c ****   
 375              		.loc 1 203 0
 376 000c 054A     		ldr	r2, .L27
 377 000e 536B     		ldr	r3, [r2, #52]
 378 0010 23F08003 		bic	r3, r3, #128
 379 0014 5363     		str	r3, [r2, #52]
 212:Core/Src/stm32f4xx_hal_msp.c ****                           |USB_DP_Pin);
 380              		.loc 1 212 0
 381 0016 4FF4F851 		mov	r1, #7936
 382 001a 0348     		ldr	r0, .L27+4
 383              	.LVL19:
 384 001c FFF7FEFF 		bl	HAL_GPIO_DeInit
 385              	.LVL20:
 386              		.loc 1 220 0
 387 0020 F3E7     		b	.L23
 388              	.L28:
 389 0022 00BF     		.align	2
 390              	.L27:
 391 0024 00380240 		.word	1073887232
 392 0028 00000240 		.word	1073872896
 393              		.cfi_endproc
ARM GAS  /tmp/ccEyHRx1.s 			page 12


 394              	.LFE134:
 396              		.text
 397              	.Letext0:
 398              		.file 2 "/home/zht/stm32tools/arm-gcc/arm-none-eabi/include/machine/_default_types.h"
 399              		.file 3 "/home/zht/stm32tools/arm-gcc/arm-none-eabi/include/sys/_stdint.h"
 400              		.file 4 "Drivers/CMSIS/Include/core_cm4.h"
 401              		.file 5 "Drivers/CMSIS/Device/ST/STM32F4xx/Include/system_stm32f4xx.h"
 402              		.file 6 "Drivers/CMSIS/Device/ST/STM32F4xx/Include/stm32f446xx.h"
 403              		.file 7 "Drivers/STM32F4xx_HAL_Driver/Inc/stm32f4xx_hal_def.h"
 404              		.file 8 "Drivers/STM32F4xx_HAL_Driver/Inc/stm32f4xx_hal_gpio.h"
 405              		.file 9 "Drivers/STM32F4xx_HAL_Driver/Inc/stm32f4xx_hal_dma.h"
 406              		.file 10 "Drivers/STM32F4xx_HAL_Driver/Inc/stm32f4xx_hal_uart.h"
 407              		.file 11 "Drivers/STM32F4xx_HAL_Driver/Inc/stm32f4xx_ll_usb.h"
 408              		.file 12 "Drivers/STM32F4xx_HAL_Driver/Inc/stm32f4xx_hal_pcd.h"
 409              		.file 13 "Drivers/STM32F4xx_HAL_Driver/Inc/stm32f4xx_hal.h"
ARM GAS  /tmp/ccEyHRx1.s 			page 13

