ARM GAS  /tmp/ccB5BhZs.s 			page 1


   1              		.cpu cortex-m4
   2              		.eabi_attribute 27, 1
   3              		.eabi_attribute 28, 1
   4              		.eabi_attribute 20, 1
   5              		.eabi_attribute 21, 1
   6              		.eabi_attribute 23, 3
   7              		.eabi_attribute 24, 1
   8              		.eabi_attribute 25, 1
   9              		.eabi_attribute 26, 1
  10              		.eabi_attribute 30, 6
  11              		.eabi_attribute 34, 1
  12              		.eabi_attribute 18, 4
  13              		.file	"cmsis_os2.c"
  14              		.text
  15              	.Ltext0:
  16              		.cfi_sections	.debug_frame
  17              		.section	.bss.KernelState,"aw",%nobits
  18              		.align	2
  21              	KernelState:
  22 0000 00000000 		.space	4
  23              		.section	.text.osKernelInitialize,"ax",%progbits
  24              		.align	1
  25              		.global	osKernelInitialize
  26              		.syntax unified
  27              		.thumb
  28              		.thumb_func
  29              		.fpu fpv4-sp-d16
  31              	osKernelInitialize:
  32              	.LFB106:
  33              		.file 1 "Firmware/Middlewares/Third_Party/FreeRTOS/Source/CMSIS_RTOS_V2/cmsis_os2.c"
   1:Firmware/Middlewares/Third_Party/FreeRTOS/Source/CMSIS_RTOS_V2/cmsis_os2.c **** /* --------------------------------------------------------------------------
   2:Firmware/Middlewares/Third_Party/FreeRTOS/Source/CMSIS_RTOS_V2/cmsis_os2.c ****  * Portions Copyright © 2017 STMicroelectronics International N.V. All rights reserved.
   3:Firmware/Middlewares/Third_Party/FreeRTOS/Source/CMSIS_RTOS_V2/cmsis_os2.c ****  * Portions Copyright (c) 2013-2017 ARM Limited. All rights reserved.
   4:Firmware/Middlewares/Third_Party/FreeRTOS/Source/CMSIS_RTOS_V2/cmsis_os2.c ****  * --------------------------------------------------------------------------
   5:Firmware/Middlewares/Third_Party/FreeRTOS/Source/CMSIS_RTOS_V2/cmsis_os2.c ****  *
   6:Firmware/Middlewares/Third_Party/FreeRTOS/Source/CMSIS_RTOS_V2/cmsis_os2.c ****  * SPDX-License-Identifier: Apache-2.0
   7:Firmware/Middlewares/Third_Party/FreeRTOS/Source/CMSIS_RTOS_V2/cmsis_os2.c ****  *
   8:Firmware/Middlewares/Third_Party/FreeRTOS/Source/CMSIS_RTOS_V2/cmsis_os2.c ****  * Licensed under the Apache License, Version 2.0 (the License); you may
   9:Firmware/Middlewares/Third_Party/FreeRTOS/Source/CMSIS_RTOS_V2/cmsis_os2.c ****  * not use this file except in compliance with the License.
  10:Firmware/Middlewares/Third_Party/FreeRTOS/Source/CMSIS_RTOS_V2/cmsis_os2.c ****  * You may obtain a copy of the License at
  11:Firmware/Middlewares/Third_Party/FreeRTOS/Source/CMSIS_RTOS_V2/cmsis_os2.c ****  *
  12:Firmware/Middlewares/Third_Party/FreeRTOS/Source/CMSIS_RTOS_V2/cmsis_os2.c ****  * www.apache.org/licenses/LICENSE-2.0
  13:Firmware/Middlewares/Third_Party/FreeRTOS/Source/CMSIS_RTOS_V2/cmsis_os2.c ****  *
  14:Firmware/Middlewares/Third_Party/FreeRTOS/Source/CMSIS_RTOS_V2/cmsis_os2.c ****  * Unless required by applicable law or agreed to in writing, software
  15:Firmware/Middlewares/Third_Party/FreeRTOS/Source/CMSIS_RTOS_V2/cmsis_os2.c ****  * distributed under the License is distributed on an AS IS BASIS, WITHOUT
  16:Firmware/Middlewares/Third_Party/FreeRTOS/Source/CMSIS_RTOS_V2/cmsis_os2.c ****  * WARRANTIES OR CONDITIONS OF ANY KIND, either express or implied.
  17:Firmware/Middlewares/Third_Party/FreeRTOS/Source/CMSIS_RTOS_V2/cmsis_os2.c ****  * See the License for the specific language governing permissions and
  18:Firmware/Middlewares/Third_Party/FreeRTOS/Source/CMSIS_RTOS_V2/cmsis_os2.c ****  * limitations under the License.
  19:Firmware/Middlewares/Third_Party/FreeRTOS/Source/CMSIS_RTOS_V2/cmsis_os2.c ****  *
  20:Firmware/Middlewares/Third_Party/FreeRTOS/Source/CMSIS_RTOS_V2/cmsis_os2.c ****  *      Name:    cmsis_os2.c
  21:Firmware/Middlewares/Third_Party/FreeRTOS/Source/CMSIS_RTOS_V2/cmsis_os2.c ****  *      Purpose: CMSIS RTOS2 wrapper for FreeRTOS
  22:Firmware/Middlewares/Third_Party/FreeRTOS/Source/CMSIS_RTOS_V2/cmsis_os2.c ****  *
  23:Firmware/Middlewares/Third_Party/FreeRTOS/Source/CMSIS_RTOS_V2/cmsis_os2.c ****  *---------------------------------------------------------------------------*/
  24:Firmware/Middlewares/Third_Party/FreeRTOS/Source/CMSIS_RTOS_V2/cmsis_os2.c **** 
  25:Firmware/Middlewares/Third_Party/FreeRTOS/Source/CMSIS_RTOS_V2/cmsis_os2.c ****  /**
  26:Firmware/Middlewares/Third_Party/FreeRTOS/Source/CMSIS_RTOS_V2/cmsis_os2.c ****   ******************************************************************************
  27:Firmware/Middlewares/Third_Party/FreeRTOS/Source/CMSIS_RTOS_V2/cmsis_os2.c ****   * @attention
ARM GAS  /tmp/ccB5BhZs.s 			page 2


  28:Firmware/Middlewares/Third_Party/FreeRTOS/Source/CMSIS_RTOS_V2/cmsis_os2.c ****   *
  29:Firmware/Middlewares/Third_Party/FreeRTOS/Source/CMSIS_RTOS_V2/cmsis_os2.c ****   * Redistribution and use in source and binary forms, with or without
  30:Firmware/Middlewares/Third_Party/FreeRTOS/Source/CMSIS_RTOS_V2/cmsis_os2.c ****   * modification, are permitted, provided that the following conditions are met:
  31:Firmware/Middlewares/Third_Party/FreeRTOS/Source/CMSIS_RTOS_V2/cmsis_os2.c ****   *
  32:Firmware/Middlewares/Third_Party/FreeRTOS/Source/CMSIS_RTOS_V2/cmsis_os2.c ****   * 1. Redistribution of source code must retain the above copyright notice,
  33:Firmware/Middlewares/Third_Party/FreeRTOS/Source/CMSIS_RTOS_V2/cmsis_os2.c ****   *    this list of conditions and the following disclaimer.
  34:Firmware/Middlewares/Third_Party/FreeRTOS/Source/CMSIS_RTOS_V2/cmsis_os2.c ****   * 2. Redistributions in binary form must reproduce the above copyright notice,
  35:Firmware/Middlewares/Third_Party/FreeRTOS/Source/CMSIS_RTOS_V2/cmsis_os2.c ****   *    this list of conditions and the following disclaimer in the documentation
  36:Firmware/Middlewares/Third_Party/FreeRTOS/Source/CMSIS_RTOS_V2/cmsis_os2.c ****   *    and/or other materials provided with the distribution.
  37:Firmware/Middlewares/Third_Party/FreeRTOS/Source/CMSIS_RTOS_V2/cmsis_os2.c ****   * 3. Neither the name of STMicroelectronics nor the names of other
  38:Firmware/Middlewares/Third_Party/FreeRTOS/Source/CMSIS_RTOS_V2/cmsis_os2.c ****   *    contributors to this software may be used to endorse or promote products
  39:Firmware/Middlewares/Third_Party/FreeRTOS/Source/CMSIS_RTOS_V2/cmsis_os2.c ****   *    derived from this software without specific written permission.
  40:Firmware/Middlewares/Third_Party/FreeRTOS/Source/CMSIS_RTOS_V2/cmsis_os2.c ****   * 4. This software, including modifications and/or derivative works of this
  41:Firmware/Middlewares/Third_Party/FreeRTOS/Source/CMSIS_RTOS_V2/cmsis_os2.c ****   *    software, must execute solely and exclusively on microcontroller or
  42:Firmware/Middlewares/Third_Party/FreeRTOS/Source/CMSIS_RTOS_V2/cmsis_os2.c ****   *    microprocessor devices manufactured by or for STMicroelectronics.
  43:Firmware/Middlewares/Third_Party/FreeRTOS/Source/CMSIS_RTOS_V2/cmsis_os2.c ****   * 5. Redistribution and use of this software other than as permitted under
  44:Firmware/Middlewares/Third_Party/FreeRTOS/Source/CMSIS_RTOS_V2/cmsis_os2.c ****   *    this license is void and will automatically terminate your rights under
  45:Firmware/Middlewares/Third_Party/FreeRTOS/Source/CMSIS_RTOS_V2/cmsis_os2.c ****   *    this license.
  46:Firmware/Middlewares/Third_Party/FreeRTOS/Source/CMSIS_RTOS_V2/cmsis_os2.c ****   *
  47:Firmware/Middlewares/Third_Party/FreeRTOS/Source/CMSIS_RTOS_V2/cmsis_os2.c ****   * THIS SOFTWARE IS PROVIDED BY STMICROELECTRONICS AND CONTRIBUTORS "AS IS"
  48:Firmware/Middlewares/Third_Party/FreeRTOS/Source/CMSIS_RTOS_V2/cmsis_os2.c ****   * AND ANY EXPRESS, IMPLIED OR STATUTORY WARRANTIES, INCLUDING, BUT NOT
  49:Firmware/Middlewares/Third_Party/FreeRTOS/Source/CMSIS_RTOS_V2/cmsis_os2.c ****   * LIMITED TO, THE IMPLIED WARRANTIES OF MERCHANTABILITY, FITNESS FOR A
  50:Firmware/Middlewares/Third_Party/FreeRTOS/Source/CMSIS_RTOS_V2/cmsis_os2.c ****   * PARTICULAR PURPOSE AND NON-INFRINGEMENT OF THIRD PARTY INTELLECTUAL PROPERTY
  51:Firmware/Middlewares/Third_Party/FreeRTOS/Source/CMSIS_RTOS_V2/cmsis_os2.c ****   * RIGHTS ARE DISCLAIMED TO THE FULLEST EXTENT PERMITTED BY LAW. IN NO EVENT
  52:Firmware/Middlewares/Third_Party/FreeRTOS/Source/CMSIS_RTOS_V2/cmsis_os2.c ****   * SHALL STMICROELECTRONICS OR CONTRIBUTORS BE LIABLE FOR ANY DIRECT, INDIRECT,
  53:Firmware/Middlewares/Third_Party/FreeRTOS/Source/CMSIS_RTOS_V2/cmsis_os2.c ****   * INCIDENTAL, SPECIAL, EXEMPLARY, OR CONSEQUENTIAL DAMAGES (INCLUDING, BUT NOT
  54:Firmware/Middlewares/Third_Party/FreeRTOS/Source/CMSIS_RTOS_V2/cmsis_os2.c ****   * LIMITED TO, PROCUREMENT OF SUBSTITUTE GOODS OR SERVICES; LOSS OF USE, DATA,
  55:Firmware/Middlewares/Third_Party/FreeRTOS/Source/CMSIS_RTOS_V2/cmsis_os2.c ****   * OR PROFITS; OR BUSINESS INTERRUPTION) HOWEVER CAUSED AND ON ANY THEORY OF
  56:Firmware/Middlewares/Third_Party/FreeRTOS/Source/CMSIS_RTOS_V2/cmsis_os2.c ****   * LIABILITY, WHETHER IN CONTRACT, STRICT LIABILITY, OR TORT (INCLUDING
  57:Firmware/Middlewares/Third_Party/FreeRTOS/Source/CMSIS_RTOS_V2/cmsis_os2.c ****   * NEGLIGENCE OR OTHERWISE) ARISING IN ANY WAY OUT OF THE USE OF THIS SOFTWARE,
  58:Firmware/Middlewares/Third_Party/FreeRTOS/Source/CMSIS_RTOS_V2/cmsis_os2.c ****   * EVEN IF ADVISED OF THE POSSIBILITY OF SUCH DAMAGE.
  59:Firmware/Middlewares/Third_Party/FreeRTOS/Source/CMSIS_RTOS_V2/cmsis_os2.c ****   *
  60:Firmware/Middlewares/Third_Party/FreeRTOS/Source/CMSIS_RTOS_V2/cmsis_os2.c ****   ******************************************************************************
  61:Firmware/Middlewares/Third_Party/FreeRTOS/Source/CMSIS_RTOS_V2/cmsis_os2.c ****   */
  62:Firmware/Middlewares/Third_Party/FreeRTOS/Source/CMSIS_RTOS_V2/cmsis_os2.c **** 
  63:Firmware/Middlewares/Third_Party/FreeRTOS/Source/CMSIS_RTOS_V2/cmsis_os2.c **** 
  64:Firmware/Middlewares/Third_Party/FreeRTOS/Source/CMSIS_RTOS_V2/cmsis_os2.c **** #include <string.h>
  65:Firmware/Middlewares/Third_Party/FreeRTOS/Source/CMSIS_RTOS_V2/cmsis_os2.c **** 
  66:Firmware/Middlewares/Third_Party/FreeRTOS/Source/CMSIS_RTOS_V2/cmsis_os2.c **** #include "cmsis_os2.h"                  // ::CMSIS:RTOS2
  67:Firmware/Middlewares/Third_Party/FreeRTOS/Source/CMSIS_RTOS_V2/cmsis_os2.c **** #include "cmsis_compiler.h"
  68:Firmware/Middlewares/Third_Party/FreeRTOS/Source/CMSIS_RTOS_V2/cmsis_os2.c **** 
  69:Firmware/Middlewares/Third_Party/FreeRTOS/Source/CMSIS_RTOS_V2/cmsis_os2.c **** #include "FreeRTOS.h"                   // ARM.FreeRTOS::RTOS:Core
  70:Firmware/Middlewares/Third_Party/FreeRTOS/Source/CMSIS_RTOS_V2/cmsis_os2.c **** #include "task.h"                       // ARM.FreeRTOS::RTOS:Core
  71:Firmware/Middlewares/Third_Party/FreeRTOS/Source/CMSIS_RTOS_V2/cmsis_os2.c **** #include "event_groups.h"               // ARM.FreeRTOS::RTOS:Event Groups
  72:Firmware/Middlewares/Third_Party/FreeRTOS/Source/CMSIS_RTOS_V2/cmsis_os2.c **** #include "semphr.h"                     // ARM.FreeRTOS::RTOS:Core
  73:Firmware/Middlewares/Third_Party/FreeRTOS/Source/CMSIS_RTOS_V2/cmsis_os2.c **** 
  74:Firmware/Middlewares/Third_Party/FreeRTOS/Source/CMSIS_RTOS_V2/cmsis_os2.c **** /*---------------------------------------------------------------------------*/
  75:Firmware/Middlewares/Third_Party/FreeRTOS/Source/CMSIS_RTOS_V2/cmsis_os2.c **** #ifndef __ARM_ARCH_6M__
  76:Firmware/Middlewares/Third_Party/FreeRTOS/Source/CMSIS_RTOS_V2/cmsis_os2.c ****   #define __ARM_ARCH_6M__         0
  77:Firmware/Middlewares/Third_Party/FreeRTOS/Source/CMSIS_RTOS_V2/cmsis_os2.c **** #endif
  78:Firmware/Middlewares/Third_Party/FreeRTOS/Source/CMSIS_RTOS_V2/cmsis_os2.c **** #ifndef __ARM_ARCH_7M__
  79:Firmware/Middlewares/Third_Party/FreeRTOS/Source/CMSIS_RTOS_V2/cmsis_os2.c ****   #define __ARM_ARCH_7M__         0
  80:Firmware/Middlewares/Third_Party/FreeRTOS/Source/CMSIS_RTOS_V2/cmsis_os2.c **** #endif
  81:Firmware/Middlewares/Third_Party/FreeRTOS/Source/CMSIS_RTOS_V2/cmsis_os2.c **** #ifndef __ARM_ARCH_7EM__
  82:Firmware/Middlewares/Third_Party/FreeRTOS/Source/CMSIS_RTOS_V2/cmsis_os2.c ****   #define __ARM_ARCH_7EM__        0
  83:Firmware/Middlewares/Third_Party/FreeRTOS/Source/CMSIS_RTOS_V2/cmsis_os2.c **** #endif
  84:Firmware/Middlewares/Third_Party/FreeRTOS/Source/CMSIS_RTOS_V2/cmsis_os2.c **** #ifndef __ARM_ARCH_8M_MAIN__
ARM GAS  /tmp/ccB5BhZs.s 			page 3


  85:Firmware/Middlewares/Third_Party/FreeRTOS/Source/CMSIS_RTOS_V2/cmsis_os2.c ****   #define __ARM_ARCH_8M_MAIN__    0
  86:Firmware/Middlewares/Third_Party/FreeRTOS/Source/CMSIS_RTOS_V2/cmsis_os2.c **** #endif
  87:Firmware/Middlewares/Third_Party/FreeRTOS/Source/CMSIS_RTOS_V2/cmsis_os2.c **** #ifndef __ARM_ARCH_7A__
  88:Firmware/Middlewares/Third_Party/FreeRTOS/Source/CMSIS_RTOS_V2/cmsis_os2.c ****   #define __ARM_ARCH_7A__         0
  89:Firmware/Middlewares/Third_Party/FreeRTOS/Source/CMSIS_RTOS_V2/cmsis_os2.c **** #endif
  90:Firmware/Middlewares/Third_Party/FreeRTOS/Source/CMSIS_RTOS_V2/cmsis_os2.c **** 
  91:Firmware/Middlewares/Third_Party/FreeRTOS/Source/CMSIS_RTOS_V2/cmsis_os2.c **** #if   ((__ARM_ARCH_7M__      == 1U) || \
  92:Firmware/Middlewares/Third_Party/FreeRTOS/Source/CMSIS_RTOS_V2/cmsis_os2.c ****        (__ARM_ARCH_7EM__     == 1U) || \
  93:Firmware/Middlewares/Third_Party/FreeRTOS/Source/CMSIS_RTOS_V2/cmsis_os2.c ****        (__ARM_ARCH_8M_MAIN__ == 1U))
  94:Firmware/Middlewares/Third_Party/FreeRTOS/Source/CMSIS_RTOS_V2/cmsis_os2.c **** #define IS_IRQ_MASKED()           ((__get_PRIMASK() != 0U) || ((KernelState == osKernelRunning) && 
  95:Firmware/Middlewares/Third_Party/FreeRTOS/Source/CMSIS_RTOS_V2/cmsis_os2.c **** #elif  (__ARM_ARCH_6M__      == 1U)
  96:Firmware/Middlewares/Third_Party/FreeRTOS/Source/CMSIS_RTOS_V2/cmsis_os2.c **** #define IS_IRQ_MASKED()           ((__get_PRIMASK() != 0U) &&  (KernelState == osKernelRunning))
  97:Firmware/Middlewares/Third_Party/FreeRTOS/Source/CMSIS_RTOS_V2/cmsis_os2.c **** #elif (__ARM_ARCH_7A__       == 1)
  98:Firmware/Middlewares/Third_Party/FreeRTOS/Source/CMSIS_RTOS_V2/cmsis_os2.c **** #define IS_IRQ_MASKED()           (0U)
  99:Firmware/Middlewares/Third_Party/FreeRTOS/Source/CMSIS_RTOS_V2/cmsis_os2.c **** #else
 100:Firmware/Middlewares/Third_Party/FreeRTOS/Source/CMSIS_RTOS_V2/cmsis_os2.c **** #define IS_IRQ_MASKED()           (__get_PRIMASK() != 0U)
 101:Firmware/Middlewares/Third_Party/FreeRTOS/Source/CMSIS_RTOS_V2/cmsis_os2.c **** #endif
 102:Firmware/Middlewares/Third_Party/FreeRTOS/Source/CMSIS_RTOS_V2/cmsis_os2.c **** 
 103:Firmware/Middlewares/Third_Party/FreeRTOS/Source/CMSIS_RTOS_V2/cmsis_os2.c **** #if    (__ARM_ARCH_7A__      == 1U)
 104:Firmware/Middlewares/Third_Party/FreeRTOS/Source/CMSIS_RTOS_V2/cmsis_os2.c **** /* CPSR mode bitmasks */
 105:Firmware/Middlewares/Third_Party/FreeRTOS/Source/CMSIS_RTOS_V2/cmsis_os2.c **** #define CPSR_MODE_USER            0x10U
 106:Firmware/Middlewares/Third_Party/FreeRTOS/Source/CMSIS_RTOS_V2/cmsis_os2.c **** #define CPSR_MODE_SYSTEM          0x1FU
 107:Firmware/Middlewares/Third_Party/FreeRTOS/Source/CMSIS_RTOS_V2/cmsis_os2.c **** 
 108:Firmware/Middlewares/Third_Party/FreeRTOS/Source/CMSIS_RTOS_V2/cmsis_os2.c **** #define IS_IRQ_MODE()             ((__get_mode() != CPSR_MODE_USER) && (__get_mode() != CPSR_MODE_S
 109:Firmware/Middlewares/Third_Party/FreeRTOS/Source/CMSIS_RTOS_V2/cmsis_os2.c **** #else
 110:Firmware/Middlewares/Third_Party/FreeRTOS/Source/CMSIS_RTOS_V2/cmsis_os2.c **** #define IS_IRQ_MODE()             (__get_IPSR() != 0U)
 111:Firmware/Middlewares/Third_Party/FreeRTOS/Source/CMSIS_RTOS_V2/cmsis_os2.c **** #endif
 112:Firmware/Middlewares/Third_Party/FreeRTOS/Source/CMSIS_RTOS_V2/cmsis_os2.c **** 
 113:Firmware/Middlewares/Third_Party/FreeRTOS/Source/CMSIS_RTOS_V2/cmsis_os2.c **** #define IS_IRQ()                  (IS_IRQ_MODE() || IS_IRQ_MASKED())
 114:Firmware/Middlewares/Third_Party/FreeRTOS/Source/CMSIS_RTOS_V2/cmsis_os2.c **** 
 115:Firmware/Middlewares/Third_Party/FreeRTOS/Source/CMSIS_RTOS_V2/cmsis_os2.c **** /* Limits */
 116:Firmware/Middlewares/Third_Party/FreeRTOS/Source/CMSIS_RTOS_V2/cmsis_os2.c **** #define MAX_BITS_TASK_NOTIFY      31U
 117:Firmware/Middlewares/Third_Party/FreeRTOS/Source/CMSIS_RTOS_V2/cmsis_os2.c **** #define MAX_BITS_EVENT_GROUPS     24U
 118:Firmware/Middlewares/Third_Party/FreeRTOS/Source/CMSIS_RTOS_V2/cmsis_os2.c **** 
 119:Firmware/Middlewares/Third_Party/FreeRTOS/Source/CMSIS_RTOS_V2/cmsis_os2.c **** #define THREAD_FLAGS_INVALID_BITS (~((1UL << MAX_BITS_TASK_NOTIFY)  - 1U))
 120:Firmware/Middlewares/Third_Party/FreeRTOS/Source/CMSIS_RTOS_V2/cmsis_os2.c **** #define EVENT_FLAGS_INVALID_BITS  (~((1UL << MAX_BITS_EVENT_GROUPS) - 1U))
 121:Firmware/Middlewares/Third_Party/FreeRTOS/Source/CMSIS_RTOS_V2/cmsis_os2.c **** 
 122:Firmware/Middlewares/Third_Party/FreeRTOS/Source/CMSIS_RTOS_V2/cmsis_os2.c **** /* Kernel version and identification string definition */
 123:Firmware/Middlewares/Third_Party/FreeRTOS/Source/CMSIS_RTOS_V2/cmsis_os2.c **** #define KERNEL_VERSION            (((uint32_t)tskKERNEL_VERSION_MAJOR * 10000000UL) | \
 124:Firmware/Middlewares/Third_Party/FreeRTOS/Source/CMSIS_RTOS_V2/cmsis_os2.c ****                                    ((uint32_t)tskKERNEL_VERSION_MINOR *    10000UL) | \
 125:Firmware/Middlewares/Third_Party/FreeRTOS/Source/CMSIS_RTOS_V2/cmsis_os2.c ****                                    ((uint32_t)tskKERNEL_VERSION_BUILD *        1UL))
 126:Firmware/Middlewares/Third_Party/FreeRTOS/Source/CMSIS_RTOS_V2/cmsis_os2.c **** 
 127:Firmware/Middlewares/Third_Party/FreeRTOS/Source/CMSIS_RTOS_V2/cmsis_os2.c **** #define KERNEL_ID                 "FreeRTOS V10.0.1"
 128:Firmware/Middlewares/Third_Party/FreeRTOS/Source/CMSIS_RTOS_V2/cmsis_os2.c **** 
 129:Firmware/Middlewares/Third_Party/FreeRTOS/Source/CMSIS_RTOS_V2/cmsis_os2.c **** /* Timer callback information structure definition */
 130:Firmware/Middlewares/Third_Party/FreeRTOS/Source/CMSIS_RTOS_V2/cmsis_os2.c **** typedef struct {
 131:Firmware/Middlewares/Third_Party/FreeRTOS/Source/CMSIS_RTOS_V2/cmsis_os2.c ****   osTimerFunc_t func;
 132:Firmware/Middlewares/Third_Party/FreeRTOS/Source/CMSIS_RTOS_V2/cmsis_os2.c ****   void         *arg;
 133:Firmware/Middlewares/Third_Party/FreeRTOS/Source/CMSIS_RTOS_V2/cmsis_os2.c **** } TimerCallback_t;
 134:Firmware/Middlewares/Third_Party/FreeRTOS/Source/CMSIS_RTOS_V2/cmsis_os2.c **** 
 135:Firmware/Middlewares/Third_Party/FreeRTOS/Source/CMSIS_RTOS_V2/cmsis_os2.c **** /* Kernel initialization state */
 136:Firmware/Middlewares/Third_Party/FreeRTOS/Source/CMSIS_RTOS_V2/cmsis_os2.c **** static osKernelState_t KernelState;
 137:Firmware/Middlewares/Third_Party/FreeRTOS/Source/CMSIS_RTOS_V2/cmsis_os2.c **** 
 138:Firmware/Middlewares/Third_Party/FreeRTOS/Source/CMSIS_RTOS_V2/cmsis_os2.c **** /* Heap region definition used by heap_5 variant */
 139:Firmware/Middlewares/Third_Party/FreeRTOS/Source/CMSIS_RTOS_V2/cmsis_os2.c **** #if defined(USE_FreeRTOS_HEAP_5)
 140:Firmware/Middlewares/Third_Party/FreeRTOS/Source/CMSIS_RTOS_V2/cmsis_os2.c **** #if (configAPPLICATION_ALLOCATED_HEAP == 1)
 141:Firmware/Middlewares/Third_Party/FreeRTOS/Source/CMSIS_RTOS_V2/cmsis_os2.c **** /*
ARM GAS  /tmp/ccB5BhZs.s 			page 4


 142:Firmware/Middlewares/Third_Party/FreeRTOS/Source/CMSIS_RTOS_V2/cmsis_os2.c ****   The application writer has already defined the array used for the RTOS
 143:Firmware/Middlewares/Third_Party/FreeRTOS/Source/CMSIS_RTOS_V2/cmsis_os2.c ****   heap - probably so it can be placed in a special segment or address.
 144:Firmware/Middlewares/Third_Party/FreeRTOS/Source/CMSIS_RTOS_V2/cmsis_os2.c **** */
 145:Firmware/Middlewares/Third_Party/FreeRTOS/Source/CMSIS_RTOS_V2/cmsis_os2.c ****   extern uint8_t ucHeap[configTOTAL_HEAP_SIZE];
 146:Firmware/Middlewares/Third_Party/FreeRTOS/Source/CMSIS_RTOS_V2/cmsis_os2.c **** #else
 147:Firmware/Middlewares/Third_Party/FreeRTOS/Source/CMSIS_RTOS_V2/cmsis_os2.c ****   static uint8_t ucHeap[configTOTAL_HEAP_SIZE];
 148:Firmware/Middlewares/Third_Party/FreeRTOS/Source/CMSIS_RTOS_V2/cmsis_os2.c **** #endif /* configAPPLICATION_ALLOCATED_HEAP */
 149:Firmware/Middlewares/Third_Party/FreeRTOS/Source/CMSIS_RTOS_V2/cmsis_os2.c **** 
 150:Firmware/Middlewares/Third_Party/FreeRTOS/Source/CMSIS_RTOS_V2/cmsis_os2.c **** static HeapRegion_t xHeapRegions[] = {
 151:Firmware/Middlewares/Third_Party/FreeRTOS/Source/CMSIS_RTOS_V2/cmsis_os2.c ****   { ucHeap, configTOTAL_HEAP_SIZE },
 152:Firmware/Middlewares/Third_Party/FreeRTOS/Source/CMSIS_RTOS_V2/cmsis_os2.c ****   { NULL,   0                     }
 153:Firmware/Middlewares/Third_Party/FreeRTOS/Source/CMSIS_RTOS_V2/cmsis_os2.c **** };
 154:Firmware/Middlewares/Third_Party/FreeRTOS/Source/CMSIS_RTOS_V2/cmsis_os2.c **** #endif /* USE_FreeRTOS_HEAP_5 */
 155:Firmware/Middlewares/Third_Party/FreeRTOS/Source/CMSIS_RTOS_V2/cmsis_os2.c **** 
 156:Firmware/Middlewares/Third_Party/FreeRTOS/Source/CMSIS_RTOS_V2/cmsis_os2.c **** #if defined(SysTick)
 157:Firmware/Middlewares/Third_Party/FreeRTOS/Source/CMSIS_RTOS_V2/cmsis_os2.c **** /* FreeRTOS tick timer interrupt handler prototype */
 158:Firmware/Middlewares/Third_Party/FreeRTOS/Source/CMSIS_RTOS_V2/cmsis_os2.c **** extern void xPortSysTickHandler (void);
 159:Firmware/Middlewares/Third_Party/FreeRTOS/Source/CMSIS_RTOS_V2/cmsis_os2.c **** 
 160:Firmware/Middlewares/Third_Party/FreeRTOS/Source/CMSIS_RTOS_V2/cmsis_os2.c **** /*
 161:Firmware/Middlewares/Third_Party/FreeRTOS/Source/CMSIS_RTOS_V2/cmsis_os2.c ****   SysTick handler implementation that also clears overflow flag.
 162:Firmware/Middlewares/Third_Party/FreeRTOS/Source/CMSIS_RTOS_V2/cmsis_os2.c **** */
 163:Firmware/Middlewares/Third_Party/FreeRTOS/Source/CMSIS_RTOS_V2/cmsis_os2.c **** void SysTick_Handler (void) {
 164:Firmware/Middlewares/Third_Party/FreeRTOS/Source/CMSIS_RTOS_V2/cmsis_os2.c ****   /* Clear overflow flag */
 165:Firmware/Middlewares/Third_Party/FreeRTOS/Source/CMSIS_RTOS_V2/cmsis_os2.c ****   SysTick->CTRL;
 166:Firmware/Middlewares/Third_Party/FreeRTOS/Source/CMSIS_RTOS_V2/cmsis_os2.c **** 
 167:Firmware/Middlewares/Third_Party/FreeRTOS/Source/CMSIS_RTOS_V2/cmsis_os2.c ****   /* Call tick handler */
 168:Firmware/Middlewares/Third_Party/FreeRTOS/Source/CMSIS_RTOS_V2/cmsis_os2.c ****   xPortSysTickHandler();
 169:Firmware/Middlewares/Third_Party/FreeRTOS/Source/CMSIS_RTOS_V2/cmsis_os2.c **** }
 170:Firmware/Middlewares/Third_Party/FreeRTOS/Source/CMSIS_RTOS_V2/cmsis_os2.c **** #endif /* SysTick */
 171:Firmware/Middlewares/Third_Party/FreeRTOS/Source/CMSIS_RTOS_V2/cmsis_os2.c **** 
 172:Firmware/Middlewares/Third_Party/FreeRTOS/Source/CMSIS_RTOS_V2/cmsis_os2.c **** /*---------------------------------------------------------------------------*/
 173:Firmware/Middlewares/Third_Party/FreeRTOS/Source/CMSIS_RTOS_V2/cmsis_os2.c **** 
 174:Firmware/Middlewares/Third_Party/FreeRTOS/Source/CMSIS_RTOS_V2/cmsis_os2.c **** osStatus_t osKernelInitialize (void) {
  34              		.loc 1 174 0
  35              		.cfi_startproc
  36              		@ args = 0, pretend = 0, frame = 16
  37              		@ frame_needed = 1, uses_anonymous_args = 0
  38              		@ link register save eliminated.
  39 0000 80B4     		push	{r7}
  40              	.LCFI0:
  41              		.cfi_def_cfa_offset 4
  42              		.cfi_offset 7, -4
  43 0002 85B0     		sub	sp, sp, #20
  44              	.LCFI1:
  45              		.cfi_def_cfa_offset 24
  46 0004 00AF     		add	r7, sp, #0
  47              	.LCFI2:
  48              		.cfi_def_cfa_register 7
  49              	.LBB334:
  50              	.LBB335:
  51              		.file 2 "Firmware/Drivers/CMSIS/Include/cmsis_gcc.h"
   1:Firmware/Drivers/CMSIS/Include/cmsis_gcc.h **** /**************************************************************************//**
   2:Firmware/Drivers/CMSIS/Include/cmsis_gcc.h ****  * @file     cmsis_gcc.h
   3:Firmware/Drivers/CMSIS/Include/cmsis_gcc.h ****  * @brief    CMSIS compiler GCC header file
   4:Firmware/Drivers/CMSIS/Include/cmsis_gcc.h ****  * @version  V5.0.4
   5:Firmware/Drivers/CMSIS/Include/cmsis_gcc.h ****  * @date     09. April 2018
   6:Firmware/Drivers/CMSIS/Include/cmsis_gcc.h ****  ******************************************************************************/
ARM GAS  /tmp/ccB5BhZs.s 			page 5


   7:Firmware/Drivers/CMSIS/Include/cmsis_gcc.h **** /*
   8:Firmware/Drivers/CMSIS/Include/cmsis_gcc.h ****  * Copyright (c) 2009-2018 Arm Limited. All rights reserved.
   9:Firmware/Drivers/CMSIS/Include/cmsis_gcc.h ****  *
  10:Firmware/Drivers/CMSIS/Include/cmsis_gcc.h ****  * SPDX-License-Identifier: Apache-2.0
  11:Firmware/Drivers/CMSIS/Include/cmsis_gcc.h ****  *
  12:Firmware/Drivers/CMSIS/Include/cmsis_gcc.h ****  * Licensed under the Apache License, Version 2.0 (the License); you may
  13:Firmware/Drivers/CMSIS/Include/cmsis_gcc.h ****  * not use this file except in compliance with the License.
  14:Firmware/Drivers/CMSIS/Include/cmsis_gcc.h ****  * You may obtain a copy of the License at
  15:Firmware/Drivers/CMSIS/Include/cmsis_gcc.h ****  *
  16:Firmware/Drivers/CMSIS/Include/cmsis_gcc.h ****  * www.apache.org/licenses/LICENSE-2.0
  17:Firmware/Drivers/CMSIS/Include/cmsis_gcc.h ****  *
  18:Firmware/Drivers/CMSIS/Include/cmsis_gcc.h ****  * Unless required by applicable law or agreed to in writing, software
  19:Firmware/Drivers/CMSIS/Include/cmsis_gcc.h ****  * distributed under the License is distributed on an AS IS BASIS, WITHOUT
  20:Firmware/Drivers/CMSIS/Include/cmsis_gcc.h ****  * WARRANTIES OR CONDITIONS OF ANY KIND, either express or implied.
  21:Firmware/Drivers/CMSIS/Include/cmsis_gcc.h ****  * See the License for the specific language governing permissions and
  22:Firmware/Drivers/CMSIS/Include/cmsis_gcc.h ****  * limitations under the License.
  23:Firmware/Drivers/CMSIS/Include/cmsis_gcc.h ****  */
  24:Firmware/Drivers/CMSIS/Include/cmsis_gcc.h **** 
  25:Firmware/Drivers/CMSIS/Include/cmsis_gcc.h **** #ifndef __CMSIS_GCC_H
  26:Firmware/Drivers/CMSIS/Include/cmsis_gcc.h **** #define __CMSIS_GCC_H
  27:Firmware/Drivers/CMSIS/Include/cmsis_gcc.h **** 
  28:Firmware/Drivers/CMSIS/Include/cmsis_gcc.h **** /* ignore some GCC warnings */
  29:Firmware/Drivers/CMSIS/Include/cmsis_gcc.h **** #pragma GCC diagnostic push
  30:Firmware/Drivers/CMSIS/Include/cmsis_gcc.h **** #pragma GCC diagnostic ignored "-Wsign-conversion"
  31:Firmware/Drivers/CMSIS/Include/cmsis_gcc.h **** #pragma GCC diagnostic ignored "-Wconversion"
  32:Firmware/Drivers/CMSIS/Include/cmsis_gcc.h **** #pragma GCC diagnostic ignored "-Wunused-parameter"
  33:Firmware/Drivers/CMSIS/Include/cmsis_gcc.h **** 
  34:Firmware/Drivers/CMSIS/Include/cmsis_gcc.h **** /* Fallback for __has_builtin */
  35:Firmware/Drivers/CMSIS/Include/cmsis_gcc.h **** #ifndef __has_builtin
  36:Firmware/Drivers/CMSIS/Include/cmsis_gcc.h ****   #define __has_builtin(x) (0)
  37:Firmware/Drivers/CMSIS/Include/cmsis_gcc.h **** #endif
  38:Firmware/Drivers/CMSIS/Include/cmsis_gcc.h **** 
  39:Firmware/Drivers/CMSIS/Include/cmsis_gcc.h **** /* CMSIS compiler specific defines */
  40:Firmware/Drivers/CMSIS/Include/cmsis_gcc.h **** #ifndef   __ASM
  41:Firmware/Drivers/CMSIS/Include/cmsis_gcc.h ****   #define __ASM                                  __asm
  42:Firmware/Drivers/CMSIS/Include/cmsis_gcc.h **** #endif
  43:Firmware/Drivers/CMSIS/Include/cmsis_gcc.h **** #ifndef   __INLINE
  44:Firmware/Drivers/CMSIS/Include/cmsis_gcc.h ****   #define __INLINE                               inline
  45:Firmware/Drivers/CMSIS/Include/cmsis_gcc.h **** #endif
  46:Firmware/Drivers/CMSIS/Include/cmsis_gcc.h **** #ifndef   __STATIC_INLINE
  47:Firmware/Drivers/CMSIS/Include/cmsis_gcc.h ****   #define __STATIC_INLINE                        static inline
  48:Firmware/Drivers/CMSIS/Include/cmsis_gcc.h **** #endif
  49:Firmware/Drivers/CMSIS/Include/cmsis_gcc.h **** #ifndef   __STATIC_FORCEINLINE                 
  50:Firmware/Drivers/CMSIS/Include/cmsis_gcc.h ****   #define __STATIC_FORCEINLINE                   __attribute__((always_inline)) static inline
  51:Firmware/Drivers/CMSIS/Include/cmsis_gcc.h **** #endif                                           
  52:Firmware/Drivers/CMSIS/Include/cmsis_gcc.h **** #ifndef   __NO_RETURN
  53:Firmware/Drivers/CMSIS/Include/cmsis_gcc.h ****   #define __NO_RETURN                            __attribute__((__noreturn__))
  54:Firmware/Drivers/CMSIS/Include/cmsis_gcc.h **** #endif
  55:Firmware/Drivers/CMSIS/Include/cmsis_gcc.h **** #ifndef   __USED
  56:Firmware/Drivers/CMSIS/Include/cmsis_gcc.h ****   #define __USED                                 __attribute__((used))
  57:Firmware/Drivers/CMSIS/Include/cmsis_gcc.h **** #endif
  58:Firmware/Drivers/CMSIS/Include/cmsis_gcc.h **** #ifndef   __WEAK
  59:Firmware/Drivers/CMSIS/Include/cmsis_gcc.h ****   #define __WEAK                                 __attribute__((weak))
  60:Firmware/Drivers/CMSIS/Include/cmsis_gcc.h **** #endif
  61:Firmware/Drivers/CMSIS/Include/cmsis_gcc.h **** #ifndef   __PACKED
  62:Firmware/Drivers/CMSIS/Include/cmsis_gcc.h ****   #define __PACKED                               __attribute__((packed, aligned(1)))
  63:Firmware/Drivers/CMSIS/Include/cmsis_gcc.h **** #endif
ARM GAS  /tmp/ccB5BhZs.s 			page 6


  64:Firmware/Drivers/CMSIS/Include/cmsis_gcc.h **** #ifndef   __PACKED_STRUCT
  65:Firmware/Drivers/CMSIS/Include/cmsis_gcc.h ****   #define __PACKED_STRUCT                        struct __attribute__((packed, aligned(1)))
  66:Firmware/Drivers/CMSIS/Include/cmsis_gcc.h **** #endif
  67:Firmware/Drivers/CMSIS/Include/cmsis_gcc.h **** #ifndef   __PACKED_UNION
  68:Firmware/Drivers/CMSIS/Include/cmsis_gcc.h ****   #define __PACKED_UNION                         union __attribute__((packed, aligned(1)))
  69:Firmware/Drivers/CMSIS/Include/cmsis_gcc.h **** #endif
  70:Firmware/Drivers/CMSIS/Include/cmsis_gcc.h **** #ifndef   __UNALIGNED_UINT32        /* deprecated */
  71:Firmware/Drivers/CMSIS/Include/cmsis_gcc.h ****   #pragma GCC diagnostic push
  72:Firmware/Drivers/CMSIS/Include/cmsis_gcc.h ****   #pragma GCC diagnostic ignored "-Wpacked"
  73:Firmware/Drivers/CMSIS/Include/cmsis_gcc.h ****   #pragma GCC diagnostic ignored "-Wattributes"
  74:Firmware/Drivers/CMSIS/Include/cmsis_gcc.h ****   struct __attribute__((packed)) T_UINT32 { uint32_t v; };
  75:Firmware/Drivers/CMSIS/Include/cmsis_gcc.h ****   #pragma GCC diagnostic pop
  76:Firmware/Drivers/CMSIS/Include/cmsis_gcc.h ****   #define __UNALIGNED_UINT32(x)                  (((struct T_UINT32 *)(x))->v)
  77:Firmware/Drivers/CMSIS/Include/cmsis_gcc.h **** #endif
  78:Firmware/Drivers/CMSIS/Include/cmsis_gcc.h **** #ifndef   __UNALIGNED_UINT16_WRITE
  79:Firmware/Drivers/CMSIS/Include/cmsis_gcc.h ****   #pragma GCC diagnostic push
  80:Firmware/Drivers/CMSIS/Include/cmsis_gcc.h ****   #pragma GCC diagnostic ignored "-Wpacked"
  81:Firmware/Drivers/CMSIS/Include/cmsis_gcc.h ****   #pragma GCC diagnostic ignored "-Wattributes"
  82:Firmware/Drivers/CMSIS/Include/cmsis_gcc.h ****   __PACKED_STRUCT T_UINT16_WRITE { uint16_t v; };
  83:Firmware/Drivers/CMSIS/Include/cmsis_gcc.h ****   #pragma GCC diagnostic pop
  84:Firmware/Drivers/CMSIS/Include/cmsis_gcc.h ****   #define __UNALIGNED_UINT16_WRITE(addr, val)    (void)((((struct T_UINT16_WRITE *)(void *)(addr))-
  85:Firmware/Drivers/CMSIS/Include/cmsis_gcc.h **** #endif
  86:Firmware/Drivers/CMSIS/Include/cmsis_gcc.h **** #ifndef   __UNALIGNED_UINT16_READ
  87:Firmware/Drivers/CMSIS/Include/cmsis_gcc.h ****   #pragma GCC diagnostic push
  88:Firmware/Drivers/CMSIS/Include/cmsis_gcc.h ****   #pragma GCC diagnostic ignored "-Wpacked"
  89:Firmware/Drivers/CMSIS/Include/cmsis_gcc.h ****   #pragma GCC diagnostic ignored "-Wattributes"
  90:Firmware/Drivers/CMSIS/Include/cmsis_gcc.h ****   __PACKED_STRUCT T_UINT16_READ { uint16_t v; };
  91:Firmware/Drivers/CMSIS/Include/cmsis_gcc.h ****   #pragma GCC diagnostic pop
  92:Firmware/Drivers/CMSIS/Include/cmsis_gcc.h ****   #define __UNALIGNED_UINT16_READ(addr)          (((const struct T_UINT16_READ *)(const void *)(add
  93:Firmware/Drivers/CMSIS/Include/cmsis_gcc.h **** #endif
  94:Firmware/Drivers/CMSIS/Include/cmsis_gcc.h **** #ifndef   __UNALIGNED_UINT32_WRITE
  95:Firmware/Drivers/CMSIS/Include/cmsis_gcc.h ****   #pragma GCC diagnostic push
  96:Firmware/Drivers/CMSIS/Include/cmsis_gcc.h ****   #pragma GCC diagnostic ignored "-Wpacked"
  97:Firmware/Drivers/CMSIS/Include/cmsis_gcc.h ****   #pragma GCC diagnostic ignored "-Wattributes"
  98:Firmware/Drivers/CMSIS/Include/cmsis_gcc.h ****   __PACKED_STRUCT T_UINT32_WRITE { uint32_t v; };
  99:Firmware/Drivers/CMSIS/Include/cmsis_gcc.h ****   #pragma GCC diagnostic pop
 100:Firmware/Drivers/CMSIS/Include/cmsis_gcc.h ****   #define __UNALIGNED_UINT32_WRITE(addr, val)    (void)((((struct T_UINT32_WRITE *)(void *)(addr))-
 101:Firmware/Drivers/CMSIS/Include/cmsis_gcc.h **** #endif
 102:Firmware/Drivers/CMSIS/Include/cmsis_gcc.h **** #ifndef   __UNALIGNED_UINT32_READ
 103:Firmware/Drivers/CMSIS/Include/cmsis_gcc.h ****   #pragma GCC diagnostic push
 104:Firmware/Drivers/CMSIS/Include/cmsis_gcc.h ****   #pragma GCC diagnostic ignored "-Wpacked"
 105:Firmware/Drivers/CMSIS/Include/cmsis_gcc.h ****   #pragma GCC diagnostic ignored "-Wattributes"
 106:Firmware/Drivers/CMSIS/Include/cmsis_gcc.h ****   __PACKED_STRUCT T_UINT32_READ { uint32_t v; };
 107:Firmware/Drivers/CMSIS/Include/cmsis_gcc.h ****   #pragma GCC diagnostic pop
 108:Firmware/Drivers/CMSIS/Include/cmsis_gcc.h ****   #define __UNALIGNED_UINT32_READ(addr)          (((const struct T_UINT32_READ *)(const void *)(add
 109:Firmware/Drivers/CMSIS/Include/cmsis_gcc.h **** #endif
 110:Firmware/Drivers/CMSIS/Include/cmsis_gcc.h **** #ifndef   __ALIGNED
 111:Firmware/Drivers/CMSIS/Include/cmsis_gcc.h ****   #define __ALIGNED(x)                           __attribute__((aligned(x)))
 112:Firmware/Drivers/CMSIS/Include/cmsis_gcc.h **** #endif
 113:Firmware/Drivers/CMSIS/Include/cmsis_gcc.h **** #ifndef   __RESTRICT
 114:Firmware/Drivers/CMSIS/Include/cmsis_gcc.h ****   #define __RESTRICT                             __restrict
 115:Firmware/Drivers/CMSIS/Include/cmsis_gcc.h **** #endif
 116:Firmware/Drivers/CMSIS/Include/cmsis_gcc.h **** 
 117:Firmware/Drivers/CMSIS/Include/cmsis_gcc.h **** 
 118:Firmware/Drivers/CMSIS/Include/cmsis_gcc.h **** /* ###########################  Core Function Access  ########################### */
 119:Firmware/Drivers/CMSIS/Include/cmsis_gcc.h **** /** \ingroup  CMSIS_Core_FunctionInterface
 120:Firmware/Drivers/CMSIS/Include/cmsis_gcc.h ****     \defgroup CMSIS_Core_RegAccFunctions CMSIS Core Register Access Functions
ARM GAS  /tmp/ccB5BhZs.s 			page 7


 121:Firmware/Drivers/CMSIS/Include/cmsis_gcc.h ****   @{
 122:Firmware/Drivers/CMSIS/Include/cmsis_gcc.h ****  */
 123:Firmware/Drivers/CMSIS/Include/cmsis_gcc.h **** 
 124:Firmware/Drivers/CMSIS/Include/cmsis_gcc.h **** /**
 125:Firmware/Drivers/CMSIS/Include/cmsis_gcc.h ****   \brief   Enable IRQ Interrupts
 126:Firmware/Drivers/CMSIS/Include/cmsis_gcc.h ****   \details Enables IRQ interrupts by clearing the I-bit in the CPSR.
 127:Firmware/Drivers/CMSIS/Include/cmsis_gcc.h ****            Can only be executed in Privileged modes.
 128:Firmware/Drivers/CMSIS/Include/cmsis_gcc.h ****  */
 129:Firmware/Drivers/CMSIS/Include/cmsis_gcc.h **** __STATIC_FORCEINLINE void __enable_irq(void)
 130:Firmware/Drivers/CMSIS/Include/cmsis_gcc.h **** {
 131:Firmware/Drivers/CMSIS/Include/cmsis_gcc.h ****   __ASM volatile ("cpsie i" : : : "memory");
 132:Firmware/Drivers/CMSIS/Include/cmsis_gcc.h **** }
 133:Firmware/Drivers/CMSIS/Include/cmsis_gcc.h **** 
 134:Firmware/Drivers/CMSIS/Include/cmsis_gcc.h **** 
 135:Firmware/Drivers/CMSIS/Include/cmsis_gcc.h **** /**
 136:Firmware/Drivers/CMSIS/Include/cmsis_gcc.h ****   \brief   Disable IRQ Interrupts
 137:Firmware/Drivers/CMSIS/Include/cmsis_gcc.h ****   \details Disables IRQ interrupts by setting the I-bit in the CPSR.
 138:Firmware/Drivers/CMSIS/Include/cmsis_gcc.h ****            Can only be executed in Privileged modes.
 139:Firmware/Drivers/CMSIS/Include/cmsis_gcc.h ****  */
 140:Firmware/Drivers/CMSIS/Include/cmsis_gcc.h **** __STATIC_FORCEINLINE void __disable_irq(void)
 141:Firmware/Drivers/CMSIS/Include/cmsis_gcc.h **** {
 142:Firmware/Drivers/CMSIS/Include/cmsis_gcc.h ****   __ASM volatile ("cpsid i" : : : "memory");
 143:Firmware/Drivers/CMSIS/Include/cmsis_gcc.h **** }
 144:Firmware/Drivers/CMSIS/Include/cmsis_gcc.h **** 
 145:Firmware/Drivers/CMSIS/Include/cmsis_gcc.h **** 
 146:Firmware/Drivers/CMSIS/Include/cmsis_gcc.h **** /**
 147:Firmware/Drivers/CMSIS/Include/cmsis_gcc.h ****   \brief   Get Control Register
 148:Firmware/Drivers/CMSIS/Include/cmsis_gcc.h ****   \details Returns the content of the Control Register.
 149:Firmware/Drivers/CMSIS/Include/cmsis_gcc.h ****   \return               Control Register value
 150:Firmware/Drivers/CMSIS/Include/cmsis_gcc.h ****  */
 151:Firmware/Drivers/CMSIS/Include/cmsis_gcc.h **** __STATIC_FORCEINLINE uint32_t __get_CONTROL(void)
 152:Firmware/Drivers/CMSIS/Include/cmsis_gcc.h **** {
 153:Firmware/Drivers/CMSIS/Include/cmsis_gcc.h ****   uint32_t result;
 154:Firmware/Drivers/CMSIS/Include/cmsis_gcc.h **** 
 155:Firmware/Drivers/CMSIS/Include/cmsis_gcc.h ****   __ASM volatile ("MRS %0, control" : "=r" (result) );
 156:Firmware/Drivers/CMSIS/Include/cmsis_gcc.h ****   return(result);
 157:Firmware/Drivers/CMSIS/Include/cmsis_gcc.h **** }
 158:Firmware/Drivers/CMSIS/Include/cmsis_gcc.h **** 
 159:Firmware/Drivers/CMSIS/Include/cmsis_gcc.h **** 
 160:Firmware/Drivers/CMSIS/Include/cmsis_gcc.h **** #if (defined (__ARM_FEATURE_CMSE ) && (__ARM_FEATURE_CMSE == 3))
 161:Firmware/Drivers/CMSIS/Include/cmsis_gcc.h **** /**
 162:Firmware/Drivers/CMSIS/Include/cmsis_gcc.h ****   \brief   Get Control Register (non-secure)
 163:Firmware/Drivers/CMSIS/Include/cmsis_gcc.h ****   \details Returns the content of the non-secure Control Register when in secure mode.
 164:Firmware/Drivers/CMSIS/Include/cmsis_gcc.h ****   \return               non-secure Control Register value
 165:Firmware/Drivers/CMSIS/Include/cmsis_gcc.h ****  */
 166:Firmware/Drivers/CMSIS/Include/cmsis_gcc.h **** __STATIC_FORCEINLINE uint32_t __TZ_get_CONTROL_NS(void)
 167:Firmware/Drivers/CMSIS/Include/cmsis_gcc.h **** {
 168:Firmware/Drivers/CMSIS/Include/cmsis_gcc.h ****   uint32_t result;
 169:Firmware/Drivers/CMSIS/Include/cmsis_gcc.h **** 
 170:Firmware/Drivers/CMSIS/Include/cmsis_gcc.h ****   __ASM volatile ("MRS %0, control_ns" : "=r" (result) );
 171:Firmware/Drivers/CMSIS/Include/cmsis_gcc.h ****   return(result);
 172:Firmware/Drivers/CMSIS/Include/cmsis_gcc.h **** }
 173:Firmware/Drivers/CMSIS/Include/cmsis_gcc.h **** #endif
 174:Firmware/Drivers/CMSIS/Include/cmsis_gcc.h **** 
 175:Firmware/Drivers/CMSIS/Include/cmsis_gcc.h **** 
 176:Firmware/Drivers/CMSIS/Include/cmsis_gcc.h **** /**
 177:Firmware/Drivers/CMSIS/Include/cmsis_gcc.h ****   \brief   Set Control Register
ARM GAS  /tmp/ccB5BhZs.s 			page 8


 178:Firmware/Drivers/CMSIS/Include/cmsis_gcc.h ****   \details Writes the given value to the Control Register.
 179:Firmware/Drivers/CMSIS/Include/cmsis_gcc.h ****   \param [in]    control  Control Register value to set
 180:Firmware/Drivers/CMSIS/Include/cmsis_gcc.h ****  */
 181:Firmware/Drivers/CMSIS/Include/cmsis_gcc.h **** __STATIC_FORCEINLINE void __set_CONTROL(uint32_t control)
 182:Firmware/Drivers/CMSIS/Include/cmsis_gcc.h **** {
 183:Firmware/Drivers/CMSIS/Include/cmsis_gcc.h ****   __ASM volatile ("MSR control, %0" : : "r" (control) : "memory");
 184:Firmware/Drivers/CMSIS/Include/cmsis_gcc.h **** }
 185:Firmware/Drivers/CMSIS/Include/cmsis_gcc.h **** 
 186:Firmware/Drivers/CMSIS/Include/cmsis_gcc.h **** 
 187:Firmware/Drivers/CMSIS/Include/cmsis_gcc.h **** #if (defined (__ARM_FEATURE_CMSE ) && (__ARM_FEATURE_CMSE == 3))
 188:Firmware/Drivers/CMSIS/Include/cmsis_gcc.h **** /**
 189:Firmware/Drivers/CMSIS/Include/cmsis_gcc.h ****   \brief   Set Control Register (non-secure)
 190:Firmware/Drivers/CMSIS/Include/cmsis_gcc.h ****   \details Writes the given value to the non-secure Control Register when in secure state.
 191:Firmware/Drivers/CMSIS/Include/cmsis_gcc.h ****   \param [in]    control  Control Register value to set
 192:Firmware/Drivers/CMSIS/Include/cmsis_gcc.h ****  */
 193:Firmware/Drivers/CMSIS/Include/cmsis_gcc.h **** __STATIC_FORCEINLINE void __TZ_set_CONTROL_NS(uint32_t control)
 194:Firmware/Drivers/CMSIS/Include/cmsis_gcc.h **** {
 195:Firmware/Drivers/CMSIS/Include/cmsis_gcc.h ****   __ASM volatile ("MSR control_ns, %0" : : "r" (control) : "memory");
 196:Firmware/Drivers/CMSIS/Include/cmsis_gcc.h **** }
 197:Firmware/Drivers/CMSIS/Include/cmsis_gcc.h **** #endif
 198:Firmware/Drivers/CMSIS/Include/cmsis_gcc.h **** 
 199:Firmware/Drivers/CMSIS/Include/cmsis_gcc.h **** 
 200:Firmware/Drivers/CMSIS/Include/cmsis_gcc.h **** /**
 201:Firmware/Drivers/CMSIS/Include/cmsis_gcc.h ****   \brief   Get IPSR Register
 202:Firmware/Drivers/CMSIS/Include/cmsis_gcc.h ****   \details Returns the content of the IPSR Register.
 203:Firmware/Drivers/CMSIS/Include/cmsis_gcc.h ****   \return               IPSR Register value
 204:Firmware/Drivers/CMSIS/Include/cmsis_gcc.h ****  */
 205:Firmware/Drivers/CMSIS/Include/cmsis_gcc.h **** __STATIC_FORCEINLINE uint32_t __get_IPSR(void)
 206:Firmware/Drivers/CMSIS/Include/cmsis_gcc.h **** {
 207:Firmware/Drivers/CMSIS/Include/cmsis_gcc.h ****   uint32_t result;
 208:Firmware/Drivers/CMSIS/Include/cmsis_gcc.h **** 
 209:Firmware/Drivers/CMSIS/Include/cmsis_gcc.h ****   __ASM volatile ("MRS %0, ipsr" : "=r" (result) );
  52              		.loc 2 209 0
  53              		.syntax unified
  54              	@ 209 "Firmware/Drivers/CMSIS/Include/cmsis_gcc.h" 1
  55 0006 EFF30583 		MRS r3, ipsr
  56              	@ 0 "" 2
  57              		.thumb
  58              		.syntax unified
  59 000a BB60     		str	r3, [r7, #8]
 210:Firmware/Drivers/CMSIS/Include/cmsis_gcc.h ****   return(result);
  60              		.loc 2 210 0
  61 000c BB68     		ldr	r3, [r7, #8]
  62              	.LBE335:
  63              	.LBE334:
 175:Firmware/Middlewares/Third_Party/FreeRTOS/Source/CMSIS_RTOS_V2/cmsis_os2.c ****   osStatus_t stat;
 176:Firmware/Middlewares/Third_Party/FreeRTOS/Source/CMSIS_RTOS_V2/cmsis_os2.c **** 
 177:Firmware/Middlewares/Third_Party/FreeRTOS/Source/CMSIS_RTOS_V2/cmsis_os2.c ****   if (IS_IRQ()) {
  64              		.loc 1 177 0
  65 000e 002B     		cmp	r3, #0
  66 0010 0FD1     		bne	.L3
  67              	.LBB336:
  68              	.LBB337:
 211:Firmware/Drivers/CMSIS/Include/cmsis_gcc.h **** }
 212:Firmware/Drivers/CMSIS/Include/cmsis_gcc.h **** 
 213:Firmware/Drivers/CMSIS/Include/cmsis_gcc.h **** 
 214:Firmware/Drivers/CMSIS/Include/cmsis_gcc.h **** /**
ARM GAS  /tmp/ccB5BhZs.s 			page 9


 215:Firmware/Drivers/CMSIS/Include/cmsis_gcc.h ****   \brief   Get APSR Register
 216:Firmware/Drivers/CMSIS/Include/cmsis_gcc.h ****   \details Returns the content of the APSR Register.
 217:Firmware/Drivers/CMSIS/Include/cmsis_gcc.h ****   \return               APSR Register value
 218:Firmware/Drivers/CMSIS/Include/cmsis_gcc.h ****  */
 219:Firmware/Drivers/CMSIS/Include/cmsis_gcc.h **** __STATIC_FORCEINLINE uint32_t __get_APSR(void)
 220:Firmware/Drivers/CMSIS/Include/cmsis_gcc.h **** {
 221:Firmware/Drivers/CMSIS/Include/cmsis_gcc.h ****   uint32_t result;
 222:Firmware/Drivers/CMSIS/Include/cmsis_gcc.h **** 
 223:Firmware/Drivers/CMSIS/Include/cmsis_gcc.h ****   __ASM volatile ("MRS %0, apsr" : "=r" (result) );
 224:Firmware/Drivers/CMSIS/Include/cmsis_gcc.h ****   return(result);
 225:Firmware/Drivers/CMSIS/Include/cmsis_gcc.h **** }
 226:Firmware/Drivers/CMSIS/Include/cmsis_gcc.h **** 
 227:Firmware/Drivers/CMSIS/Include/cmsis_gcc.h **** 
 228:Firmware/Drivers/CMSIS/Include/cmsis_gcc.h **** /**
 229:Firmware/Drivers/CMSIS/Include/cmsis_gcc.h ****   \brief   Get xPSR Register
 230:Firmware/Drivers/CMSIS/Include/cmsis_gcc.h ****   \details Returns the content of the xPSR Register.
 231:Firmware/Drivers/CMSIS/Include/cmsis_gcc.h ****   \return               xPSR Register value
 232:Firmware/Drivers/CMSIS/Include/cmsis_gcc.h ****  */
 233:Firmware/Drivers/CMSIS/Include/cmsis_gcc.h **** __STATIC_FORCEINLINE uint32_t __get_xPSR(void)
 234:Firmware/Drivers/CMSIS/Include/cmsis_gcc.h **** {
 235:Firmware/Drivers/CMSIS/Include/cmsis_gcc.h ****   uint32_t result;
 236:Firmware/Drivers/CMSIS/Include/cmsis_gcc.h **** 
 237:Firmware/Drivers/CMSIS/Include/cmsis_gcc.h ****   __ASM volatile ("MRS %0, xpsr" : "=r" (result) );
 238:Firmware/Drivers/CMSIS/Include/cmsis_gcc.h ****   return(result);
 239:Firmware/Drivers/CMSIS/Include/cmsis_gcc.h **** }
 240:Firmware/Drivers/CMSIS/Include/cmsis_gcc.h **** 
 241:Firmware/Drivers/CMSIS/Include/cmsis_gcc.h **** 
 242:Firmware/Drivers/CMSIS/Include/cmsis_gcc.h **** /**
 243:Firmware/Drivers/CMSIS/Include/cmsis_gcc.h ****   \brief   Get Process Stack Pointer
 244:Firmware/Drivers/CMSIS/Include/cmsis_gcc.h ****   \details Returns the current value of the Process Stack Pointer (PSP).
 245:Firmware/Drivers/CMSIS/Include/cmsis_gcc.h ****   \return               PSP Register value
 246:Firmware/Drivers/CMSIS/Include/cmsis_gcc.h ****  */
 247:Firmware/Drivers/CMSIS/Include/cmsis_gcc.h **** __STATIC_FORCEINLINE uint32_t __get_PSP(void)
 248:Firmware/Drivers/CMSIS/Include/cmsis_gcc.h **** {
 249:Firmware/Drivers/CMSIS/Include/cmsis_gcc.h ****   uint32_t result;
 250:Firmware/Drivers/CMSIS/Include/cmsis_gcc.h **** 
 251:Firmware/Drivers/CMSIS/Include/cmsis_gcc.h ****   __ASM volatile ("MRS %0, psp"  : "=r" (result) );
 252:Firmware/Drivers/CMSIS/Include/cmsis_gcc.h ****   return(result);
 253:Firmware/Drivers/CMSIS/Include/cmsis_gcc.h **** }
 254:Firmware/Drivers/CMSIS/Include/cmsis_gcc.h **** 
 255:Firmware/Drivers/CMSIS/Include/cmsis_gcc.h **** 
 256:Firmware/Drivers/CMSIS/Include/cmsis_gcc.h **** #if (defined (__ARM_FEATURE_CMSE ) && (__ARM_FEATURE_CMSE == 3))
 257:Firmware/Drivers/CMSIS/Include/cmsis_gcc.h **** /**
 258:Firmware/Drivers/CMSIS/Include/cmsis_gcc.h ****   \brief   Get Process Stack Pointer (non-secure)
 259:Firmware/Drivers/CMSIS/Include/cmsis_gcc.h ****   \details Returns the current value of the non-secure Process Stack Pointer (PSP) when in secure s
 260:Firmware/Drivers/CMSIS/Include/cmsis_gcc.h ****   \return               PSP Register value
 261:Firmware/Drivers/CMSIS/Include/cmsis_gcc.h ****  */
 262:Firmware/Drivers/CMSIS/Include/cmsis_gcc.h **** __STATIC_FORCEINLINE uint32_t __TZ_get_PSP_NS(void)
 263:Firmware/Drivers/CMSIS/Include/cmsis_gcc.h **** {
 264:Firmware/Drivers/CMSIS/Include/cmsis_gcc.h ****   uint32_t result;
 265:Firmware/Drivers/CMSIS/Include/cmsis_gcc.h **** 
 266:Firmware/Drivers/CMSIS/Include/cmsis_gcc.h ****   __ASM volatile ("MRS %0, psp_ns"  : "=r" (result) );
 267:Firmware/Drivers/CMSIS/Include/cmsis_gcc.h ****   return(result);
 268:Firmware/Drivers/CMSIS/Include/cmsis_gcc.h **** }
 269:Firmware/Drivers/CMSIS/Include/cmsis_gcc.h **** #endif
 270:Firmware/Drivers/CMSIS/Include/cmsis_gcc.h **** 
 271:Firmware/Drivers/CMSIS/Include/cmsis_gcc.h **** 
ARM GAS  /tmp/ccB5BhZs.s 			page 10


 272:Firmware/Drivers/CMSIS/Include/cmsis_gcc.h **** /**
 273:Firmware/Drivers/CMSIS/Include/cmsis_gcc.h ****   \brief   Set Process Stack Pointer
 274:Firmware/Drivers/CMSIS/Include/cmsis_gcc.h ****   \details Assigns the given value to the Process Stack Pointer (PSP).
 275:Firmware/Drivers/CMSIS/Include/cmsis_gcc.h ****   \param [in]    topOfProcStack  Process Stack Pointer value to set
 276:Firmware/Drivers/CMSIS/Include/cmsis_gcc.h ****  */
 277:Firmware/Drivers/CMSIS/Include/cmsis_gcc.h **** __STATIC_FORCEINLINE void __set_PSP(uint32_t topOfProcStack)
 278:Firmware/Drivers/CMSIS/Include/cmsis_gcc.h **** {
 279:Firmware/Drivers/CMSIS/Include/cmsis_gcc.h ****   __ASM volatile ("MSR psp, %0" : : "r" (topOfProcStack) : );
 280:Firmware/Drivers/CMSIS/Include/cmsis_gcc.h **** }
 281:Firmware/Drivers/CMSIS/Include/cmsis_gcc.h **** 
 282:Firmware/Drivers/CMSIS/Include/cmsis_gcc.h **** 
 283:Firmware/Drivers/CMSIS/Include/cmsis_gcc.h **** #if (defined (__ARM_FEATURE_CMSE ) && (__ARM_FEATURE_CMSE == 3))
 284:Firmware/Drivers/CMSIS/Include/cmsis_gcc.h **** /**
 285:Firmware/Drivers/CMSIS/Include/cmsis_gcc.h ****   \brief   Set Process Stack Pointer (non-secure)
 286:Firmware/Drivers/CMSIS/Include/cmsis_gcc.h ****   \details Assigns the given value to the non-secure Process Stack Pointer (PSP) when in secure sta
 287:Firmware/Drivers/CMSIS/Include/cmsis_gcc.h ****   \param [in]    topOfProcStack  Process Stack Pointer value to set
 288:Firmware/Drivers/CMSIS/Include/cmsis_gcc.h ****  */
 289:Firmware/Drivers/CMSIS/Include/cmsis_gcc.h **** __STATIC_FORCEINLINE void __TZ_set_PSP_NS(uint32_t topOfProcStack)
 290:Firmware/Drivers/CMSIS/Include/cmsis_gcc.h **** {
 291:Firmware/Drivers/CMSIS/Include/cmsis_gcc.h ****   __ASM volatile ("MSR psp_ns, %0" : : "r" (topOfProcStack) : );
 292:Firmware/Drivers/CMSIS/Include/cmsis_gcc.h **** }
 293:Firmware/Drivers/CMSIS/Include/cmsis_gcc.h **** #endif
 294:Firmware/Drivers/CMSIS/Include/cmsis_gcc.h **** 
 295:Firmware/Drivers/CMSIS/Include/cmsis_gcc.h **** 
 296:Firmware/Drivers/CMSIS/Include/cmsis_gcc.h **** /**
 297:Firmware/Drivers/CMSIS/Include/cmsis_gcc.h ****   \brief   Get Main Stack Pointer
 298:Firmware/Drivers/CMSIS/Include/cmsis_gcc.h ****   \details Returns the current value of the Main Stack Pointer (MSP).
 299:Firmware/Drivers/CMSIS/Include/cmsis_gcc.h ****   \return               MSP Register value
 300:Firmware/Drivers/CMSIS/Include/cmsis_gcc.h ****  */
 301:Firmware/Drivers/CMSIS/Include/cmsis_gcc.h **** __STATIC_FORCEINLINE uint32_t __get_MSP(void)
 302:Firmware/Drivers/CMSIS/Include/cmsis_gcc.h **** {
 303:Firmware/Drivers/CMSIS/Include/cmsis_gcc.h ****   uint32_t result;
 304:Firmware/Drivers/CMSIS/Include/cmsis_gcc.h **** 
 305:Firmware/Drivers/CMSIS/Include/cmsis_gcc.h ****   __ASM volatile ("MRS %0, msp" : "=r" (result) );
 306:Firmware/Drivers/CMSIS/Include/cmsis_gcc.h ****   return(result);
 307:Firmware/Drivers/CMSIS/Include/cmsis_gcc.h **** }
 308:Firmware/Drivers/CMSIS/Include/cmsis_gcc.h **** 
 309:Firmware/Drivers/CMSIS/Include/cmsis_gcc.h **** 
 310:Firmware/Drivers/CMSIS/Include/cmsis_gcc.h **** #if (defined (__ARM_FEATURE_CMSE ) && (__ARM_FEATURE_CMSE == 3))
 311:Firmware/Drivers/CMSIS/Include/cmsis_gcc.h **** /**
 312:Firmware/Drivers/CMSIS/Include/cmsis_gcc.h ****   \brief   Get Main Stack Pointer (non-secure)
 313:Firmware/Drivers/CMSIS/Include/cmsis_gcc.h ****   \details Returns the current value of the non-secure Main Stack Pointer (MSP) when in secure stat
 314:Firmware/Drivers/CMSIS/Include/cmsis_gcc.h ****   \return               MSP Register value
 315:Firmware/Drivers/CMSIS/Include/cmsis_gcc.h ****  */
 316:Firmware/Drivers/CMSIS/Include/cmsis_gcc.h **** __STATIC_FORCEINLINE uint32_t __TZ_get_MSP_NS(void)
 317:Firmware/Drivers/CMSIS/Include/cmsis_gcc.h **** {
 318:Firmware/Drivers/CMSIS/Include/cmsis_gcc.h ****   uint32_t result;
 319:Firmware/Drivers/CMSIS/Include/cmsis_gcc.h **** 
 320:Firmware/Drivers/CMSIS/Include/cmsis_gcc.h ****   __ASM volatile ("MRS %0, msp_ns" : "=r" (result) );
 321:Firmware/Drivers/CMSIS/Include/cmsis_gcc.h ****   return(result);
 322:Firmware/Drivers/CMSIS/Include/cmsis_gcc.h **** }
 323:Firmware/Drivers/CMSIS/Include/cmsis_gcc.h **** #endif
 324:Firmware/Drivers/CMSIS/Include/cmsis_gcc.h **** 
 325:Firmware/Drivers/CMSIS/Include/cmsis_gcc.h **** 
 326:Firmware/Drivers/CMSIS/Include/cmsis_gcc.h **** /**
 327:Firmware/Drivers/CMSIS/Include/cmsis_gcc.h ****   \brief   Set Main Stack Pointer
 328:Firmware/Drivers/CMSIS/Include/cmsis_gcc.h ****   \details Assigns the given value to the Main Stack Pointer (MSP).
ARM GAS  /tmp/ccB5BhZs.s 			page 11


 329:Firmware/Drivers/CMSIS/Include/cmsis_gcc.h ****   \param [in]    topOfMainStack  Main Stack Pointer value to set
 330:Firmware/Drivers/CMSIS/Include/cmsis_gcc.h ****  */
 331:Firmware/Drivers/CMSIS/Include/cmsis_gcc.h **** __STATIC_FORCEINLINE void __set_MSP(uint32_t topOfMainStack)
 332:Firmware/Drivers/CMSIS/Include/cmsis_gcc.h **** {
 333:Firmware/Drivers/CMSIS/Include/cmsis_gcc.h ****   __ASM volatile ("MSR msp, %0" : : "r" (topOfMainStack) : );
 334:Firmware/Drivers/CMSIS/Include/cmsis_gcc.h **** }
 335:Firmware/Drivers/CMSIS/Include/cmsis_gcc.h **** 
 336:Firmware/Drivers/CMSIS/Include/cmsis_gcc.h **** 
 337:Firmware/Drivers/CMSIS/Include/cmsis_gcc.h **** #if (defined (__ARM_FEATURE_CMSE ) && (__ARM_FEATURE_CMSE == 3))
 338:Firmware/Drivers/CMSIS/Include/cmsis_gcc.h **** /**
 339:Firmware/Drivers/CMSIS/Include/cmsis_gcc.h ****   \brief   Set Main Stack Pointer (non-secure)
 340:Firmware/Drivers/CMSIS/Include/cmsis_gcc.h ****   \details Assigns the given value to the non-secure Main Stack Pointer (MSP) when in secure state.
 341:Firmware/Drivers/CMSIS/Include/cmsis_gcc.h ****   \param [in]    topOfMainStack  Main Stack Pointer value to set
 342:Firmware/Drivers/CMSIS/Include/cmsis_gcc.h ****  */
 343:Firmware/Drivers/CMSIS/Include/cmsis_gcc.h **** __STATIC_FORCEINLINE void __TZ_set_MSP_NS(uint32_t topOfMainStack)
 344:Firmware/Drivers/CMSIS/Include/cmsis_gcc.h **** {
 345:Firmware/Drivers/CMSIS/Include/cmsis_gcc.h ****   __ASM volatile ("MSR msp_ns, %0" : : "r" (topOfMainStack) : );
 346:Firmware/Drivers/CMSIS/Include/cmsis_gcc.h **** }
 347:Firmware/Drivers/CMSIS/Include/cmsis_gcc.h **** #endif
 348:Firmware/Drivers/CMSIS/Include/cmsis_gcc.h **** 
 349:Firmware/Drivers/CMSIS/Include/cmsis_gcc.h **** 
 350:Firmware/Drivers/CMSIS/Include/cmsis_gcc.h **** #if (defined (__ARM_FEATURE_CMSE ) && (__ARM_FEATURE_CMSE == 3))
 351:Firmware/Drivers/CMSIS/Include/cmsis_gcc.h **** /**
 352:Firmware/Drivers/CMSIS/Include/cmsis_gcc.h ****   \brief   Get Stack Pointer (non-secure)
 353:Firmware/Drivers/CMSIS/Include/cmsis_gcc.h ****   \details Returns the current value of the non-secure Stack Pointer (SP) when in secure state.
 354:Firmware/Drivers/CMSIS/Include/cmsis_gcc.h ****   \return               SP Register value
 355:Firmware/Drivers/CMSIS/Include/cmsis_gcc.h ****  */
 356:Firmware/Drivers/CMSIS/Include/cmsis_gcc.h **** __STATIC_FORCEINLINE uint32_t __TZ_get_SP_NS(void)
 357:Firmware/Drivers/CMSIS/Include/cmsis_gcc.h **** {
 358:Firmware/Drivers/CMSIS/Include/cmsis_gcc.h ****   uint32_t result;
 359:Firmware/Drivers/CMSIS/Include/cmsis_gcc.h **** 
 360:Firmware/Drivers/CMSIS/Include/cmsis_gcc.h ****   __ASM volatile ("MRS %0, sp_ns" : "=r" (result) );
 361:Firmware/Drivers/CMSIS/Include/cmsis_gcc.h ****   return(result);
 362:Firmware/Drivers/CMSIS/Include/cmsis_gcc.h **** }
 363:Firmware/Drivers/CMSIS/Include/cmsis_gcc.h **** 
 364:Firmware/Drivers/CMSIS/Include/cmsis_gcc.h **** 
 365:Firmware/Drivers/CMSIS/Include/cmsis_gcc.h **** /**
 366:Firmware/Drivers/CMSIS/Include/cmsis_gcc.h ****   \brief   Set Stack Pointer (non-secure)
 367:Firmware/Drivers/CMSIS/Include/cmsis_gcc.h ****   \details Assigns the given value to the non-secure Stack Pointer (SP) when in secure state.
 368:Firmware/Drivers/CMSIS/Include/cmsis_gcc.h ****   \param [in]    topOfStack  Stack Pointer value to set
 369:Firmware/Drivers/CMSIS/Include/cmsis_gcc.h ****  */
 370:Firmware/Drivers/CMSIS/Include/cmsis_gcc.h **** __STATIC_FORCEINLINE void __TZ_set_SP_NS(uint32_t topOfStack)
 371:Firmware/Drivers/CMSIS/Include/cmsis_gcc.h **** {
 372:Firmware/Drivers/CMSIS/Include/cmsis_gcc.h ****   __ASM volatile ("MSR sp_ns, %0" : : "r" (topOfStack) : );
 373:Firmware/Drivers/CMSIS/Include/cmsis_gcc.h **** }
 374:Firmware/Drivers/CMSIS/Include/cmsis_gcc.h **** #endif
 375:Firmware/Drivers/CMSIS/Include/cmsis_gcc.h **** 
 376:Firmware/Drivers/CMSIS/Include/cmsis_gcc.h **** 
 377:Firmware/Drivers/CMSIS/Include/cmsis_gcc.h **** /**
 378:Firmware/Drivers/CMSIS/Include/cmsis_gcc.h ****   \brief   Get Priority Mask
 379:Firmware/Drivers/CMSIS/Include/cmsis_gcc.h ****   \details Returns the current state of the priority mask bit from the Priority Mask Register.
 380:Firmware/Drivers/CMSIS/Include/cmsis_gcc.h ****   \return               Priority Mask value
 381:Firmware/Drivers/CMSIS/Include/cmsis_gcc.h ****  */
 382:Firmware/Drivers/CMSIS/Include/cmsis_gcc.h **** __STATIC_FORCEINLINE uint32_t __get_PRIMASK(void)
 383:Firmware/Drivers/CMSIS/Include/cmsis_gcc.h **** {
 384:Firmware/Drivers/CMSIS/Include/cmsis_gcc.h ****   uint32_t result;
 385:Firmware/Drivers/CMSIS/Include/cmsis_gcc.h **** 
ARM GAS  /tmp/ccB5BhZs.s 			page 12


 386:Firmware/Drivers/CMSIS/Include/cmsis_gcc.h ****   __ASM volatile ("MRS %0, primask" : "=r" (result) :: "memory");
  69              		.loc 2 386 0 discriminator 1
  70              		.syntax unified
  71              	@ 386 "Firmware/Drivers/CMSIS/Include/cmsis_gcc.h" 1
  72 0012 EFF31083 		MRS r3, primask
  73              	@ 0 "" 2
  74              		.thumb
  75              		.syntax unified
  76 0016 7B60     		str	r3, [r7, #4]
 387:Firmware/Drivers/CMSIS/Include/cmsis_gcc.h ****   return(result);
  77              		.loc 2 387 0 discriminator 1
  78 0018 7B68     		ldr	r3, [r7, #4]
  79              	.LBE337:
  80              	.LBE336:
  81              		.loc 1 177 0 discriminator 1
  82 001a 002B     		cmp	r3, #0
  83 001c 09D1     		bne	.L3
  84              		.loc 1 177 0 is_stmt 0 discriminator 2
  85 001e 114B     		ldr	r3, .L10
  86 0020 1B68     		ldr	r3, [r3]
  87 0022 022B     		cmp	r3, #2
  88 0024 09D1     		bne	.L5
  89              	.LBB338:
  90              	.LBB339:
 388:Firmware/Drivers/CMSIS/Include/cmsis_gcc.h **** }
 389:Firmware/Drivers/CMSIS/Include/cmsis_gcc.h **** 
 390:Firmware/Drivers/CMSIS/Include/cmsis_gcc.h **** 
 391:Firmware/Drivers/CMSIS/Include/cmsis_gcc.h **** #if (defined (__ARM_FEATURE_CMSE ) && (__ARM_FEATURE_CMSE == 3))
 392:Firmware/Drivers/CMSIS/Include/cmsis_gcc.h **** /**
 393:Firmware/Drivers/CMSIS/Include/cmsis_gcc.h ****   \brief   Get Priority Mask (non-secure)
 394:Firmware/Drivers/CMSIS/Include/cmsis_gcc.h ****   \details Returns the current state of the non-secure priority mask bit from the Priority Mask Reg
 395:Firmware/Drivers/CMSIS/Include/cmsis_gcc.h ****   \return               Priority Mask value
 396:Firmware/Drivers/CMSIS/Include/cmsis_gcc.h ****  */
 397:Firmware/Drivers/CMSIS/Include/cmsis_gcc.h **** __STATIC_FORCEINLINE uint32_t __TZ_get_PRIMASK_NS(void)
 398:Firmware/Drivers/CMSIS/Include/cmsis_gcc.h **** {
 399:Firmware/Drivers/CMSIS/Include/cmsis_gcc.h ****   uint32_t result;
 400:Firmware/Drivers/CMSIS/Include/cmsis_gcc.h **** 
 401:Firmware/Drivers/CMSIS/Include/cmsis_gcc.h ****   __ASM volatile ("MRS %0, primask_ns" : "=r" (result) :: "memory");
 402:Firmware/Drivers/CMSIS/Include/cmsis_gcc.h ****   return(result);
 403:Firmware/Drivers/CMSIS/Include/cmsis_gcc.h **** }
 404:Firmware/Drivers/CMSIS/Include/cmsis_gcc.h **** #endif
 405:Firmware/Drivers/CMSIS/Include/cmsis_gcc.h **** 
 406:Firmware/Drivers/CMSIS/Include/cmsis_gcc.h **** 
 407:Firmware/Drivers/CMSIS/Include/cmsis_gcc.h **** /**
 408:Firmware/Drivers/CMSIS/Include/cmsis_gcc.h ****   \brief   Set Priority Mask
 409:Firmware/Drivers/CMSIS/Include/cmsis_gcc.h ****   \details Assigns the given value to the Priority Mask Register.
 410:Firmware/Drivers/CMSIS/Include/cmsis_gcc.h ****   \param [in]    priMask  Priority Mask
 411:Firmware/Drivers/CMSIS/Include/cmsis_gcc.h ****  */
 412:Firmware/Drivers/CMSIS/Include/cmsis_gcc.h **** __STATIC_FORCEINLINE void __set_PRIMASK(uint32_t priMask)
 413:Firmware/Drivers/CMSIS/Include/cmsis_gcc.h **** {
 414:Firmware/Drivers/CMSIS/Include/cmsis_gcc.h ****   __ASM volatile ("MSR primask, %0" : : "r" (priMask) : "memory");
 415:Firmware/Drivers/CMSIS/Include/cmsis_gcc.h **** }
 416:Firmware/Drivers/CMSIS/Include/cmsis_gcc.h **** 
 417:Firmware/Drivers/CMSIS/Include/cmsis_gcc.h **** 
 418:Firmware/Drivers/CMSIS/Include/cmsis_gcc.h **** #if (defined (__ARM_FEATURE_CMSE ) && (__ARM_FEATURE_CMSE == 3))
 419:Firmware/Drivers/CMSIS/Include/cmsis_gcc.h **** /**
 420:Firmware/Drivers/CMSIS/Include/cmsis_gcc.h ****   \brief   Set Priority Mask (non-secure)
ARM GAS  /tmp/ccB5BhZs.s 			page 13


 421:Firmware/Drivers/CMSIS/Include/cmsis_gcc.h ****   \details Assigns the given value to the non-secure Priority Mask Register when in secure state.
 422:Firmware/Drivers/CMSIS/Include/cmsis_gcc.h ****   \param [in]    priMask  Priority Mask
 423:Firmware/Drivers/CMSIS/Include/cmsis_gcc.h ****  */
 424:Firmware/Drivers/CMSIS/Include/cmsis_gcc.h **** __STATIC_FORCEINLINE void __TZ_set_PRIMASK_NS(uint32_t priMask)
 425:Firmware/Drivers/CMSIS/Include/cmsis_gcc.h **** {
 426:Firmware/Drivers/CMSIS/Include/cmsis_gcc.h ****   __ASM volatile ("MSR primask_ns, %0" : : "r" (priMask) : "memory");
 427:Firmware/Drivers/CMSIS/Include/cmsis_gcc.h **** }
 428:Firmware/Drivers/CMSIS/Include/cmsis_gcc.h **** #endif
 429:Firmware/Drivers/CMSIS/Include/cmsis_gcc.h **** 
 430:Firmware/Drivers/CMSIS/Include/cmsis_gcc.h **** 
 431:Firmware/Drivers/CMSIS/Include/cmsis_gcc.h **** #if ((defined (__ARM_ARCH_7M__      ) && (__ARM_ARCH_7M__      == 1)) || \
 432:Firmware/Drivers/CMSIS/Include/cmsis_gcc.h ****      (defined (__ARM_ARCH_7EM__     ) && (__ARM_ARCH_7EM__     == 1)) || \
 433:Firmware/Drivers/CMSIS/Include/cmsis_gcc.h ****      (defined (__ARM_ARCH_8M_MAIN__ ) && (__ARM_ARCH_8M_MAIN__ == 1))    )
 434:Firmware/Drivers/CMSIS/Include/cmsis_gcc.h **** /**
 435:Firmware/Drivers/CMSIS/Include/cmsis_gcc.h ****   \brief   Enable FIQ
 436:Firmware/Drivers/CMSIS/Include/cmsis_gcc.h ****   \details Enables FIQ interrupts by clearing the F-bit in the CPSR.
 437:Firmware/Drivers/CMSIS/Include/cmsis_gcc.h ****            Can only be executed in Privileged modes.
 438:Firmware/Drivers/CMSIS/Include/cmsis_gcc.h ****  */
 439:Firmware/Drivers/CMSIS/Include/cmsis_gcc.h **** __STATIC_FORCEINLINE void __enable_fault_irq(void)
 440:Firmware/Drivers/CMSIS/Include/cmsis_gcc.h **** {
 441:Firmware/Drivers/CMSIS/Include/cmsis_gcc.h ****   __ASM volatile ("cpsie f" : : : "memory");
 442:Firmware/Drivers/CMSIS/Include/cmsis_gcc.h **** }
 443:Firmware/Drivers/CMSIS/Include/cmsis_gcc.h **** 
 444:Firmware/Drivers/CMSIS/Include/cmsis_gcc.h **** 
 445:Firmware/Drivers/CMSIS/Include/cmsis_gcc.h **** /**
 446:Firmware/Drivers/CMSIS/Include/cmsis_gcc.h ****   \brief   Disable FIQ
 447:Firmware/Drivers/CMSIS/Include/cmsis_gcc.h ****   \details Disables FIQ interrupts by setting the F-bit in the CPSR.
 448:Firmware/Drivers/CMSIS/Include/cmsis_gcc.h ****            Can only be executed in Privileged modes.
 449:Firmware/Drivers/CMSIS/Include/cmsis_gcc.h ****  */
 450:Firmware/Drivers/CMSIS/Include/cmsis_gcc.h **** __STATIC_FORCEINLINE void __disable_fault_irq(void)
 451:Firmware/Drivers/CMSIS/Include/cmsis_gcc.h **** {
 452:Firmware/Drivers/CMSIS/Include/cmsis_gcc.h ****   __ASM volatile ("cpsid f" : : : "memory");
 453:Firmware/Drivers/CMSIS/Include/cmsis_gcc.h **** }
 454:Firmware/Drivers/CMSIS/Include/cmsis_gcc.h **** 
 455:Firmware/Drivers/CMSIS/Include/cmsis_gcc.h **** 
 456:Firmware/Drivers/CMSIS/Include/cmsis_gcc.h **** /**
 457:Firmware/Drivers/CMSIS/Include/cmsis_gcc.h ****   \brief   Get Base Priority
 458:Firmware/Drivers/CMSIS/Include/cmsis_gcc.h ****   \details Returns the current value of the Base Priority register.
 459:Firmware/Drivers/CMSIS/Include/cmsis_gcc.h ****   \return               Base Priority register value
 460:Firmware/Drivers/CMSIS/Include/cmsis_gcc.h ****  */
 461:Firmware/Drivers/CMSIS/Include/cmsis_gcc.h **** __STATIC_FORCEINLINE uint32_t __get_BASEPRI(void)
 462:Firmware/Drivers/CMSIS/Include/cmsis_gcc.h **** {
 463:Firmware/Drivers/CMSIS/Include/cmsis_gcc.h ****   uint32_t result;
 464:Firmware/Drivers/CMSIS/Include/cmsis_gcc.h **** 
 465:Firmware/Drivers/CMSIS/Include/cmsis_gcc.h ****   __ASM volatile ("MRS %0, basepri" : "=r" (result) );
  91              		.loc 2 465 0 is_stmt 1 discriminator 3
  92              		.syntax unified
  93              	@ 465 "Firmware/Drivers/CMSIS/Include/cmsis_gcc.h" 1
  94 0026 EFF31183 		MRS r3, basepri
  95              	@ 0 "" 2
  96              		.thumb
  97              		.syntax unified
  98 002a 3B60     		str	r3, [r7]
 466:Firmware/Drivers/CMSIS/Include/cmsis_gcc.h ****   return(result);
  99              		.loc 2 466 0 discriminator 3
 100 002c 3B68     		ldr	r3, [r7]
 101              	.LBE339:
ARM GAS  /tmp/ccB5BhZs.s 			page 14


 102              	.LBE338:
 103              		.loc 1 177 0 discriminator 3
 104 002e 002B     		cmp	r3, #0
 105 0030 03D0     		beq	.L5
 106              	.L3:
 178:Firmware/Middlewares/Third_Party/FreeRTOS/Source/CMSIS_RTOS_V2/cmsis_os2.c ****     stat = osErrorISR;
 107              		.loc 1 178 0
 108 0032 6FF00503 		mvn	r3, #5
 109 0036 FB60     		str	r3, [r7, #12]
 110 0038 0CE0     		b	.L7
 111              	.L5:
 179:Firmware/Middlewares/Third_Party/FreeRTOS/Source/CMSIS_RTOS_V2/cmsis_os2.c ****   }
 180:Firmware/Middlewares/Third_Party/FreeRTOS/Source/CMSIS_RTOS_V2/cmsis_os2.c ****   else {
 181:Firmware/Middlewares/Third_Party/FreeRTOS/Source/CMSIS_RTOS_V2/cmsis_os2.c ****     if (KernelState == osKernelInactive) {
 112              		.loc 1 181 0
 113 003a 0A4B     		ldr	r3, .L10
 114 003c 1B68     		ldr	r3, [r3]
 115 003e 002B     		cmp	r3, #0
 116 0040 05D1     		bne	.L8
 182:Firmware/Middlewares/Third_Party/FreeRTOS/Source/CMSIS_RTOS_V2/cmsis_os2.c ****       #if defined(USE_FreeRTOS_HEAP_5)
 183:Firmware/Middlewares/Third_Party/FreeRTOS/Source/CMSIS_RTOS_V2/cmsis_os2.c ****         vPortDefineHeapRegions (xHeapRegions);
 184:Firmware/Middlewares/Third_Party/FreeRTOS/Source/CMSIS_RTOS_V2/cmsis_os2.c ****       #endif
 185:Firmware/Middlewares/Third_Party/FreeRTOS/Source/CMSIS_RTOS_V2/cmsis_os2.c ****       KernelState = osKernelReady;
 117              		.loc 1 185 0
 118 0042 084B     		ldr	r3, .L10
 119 0044 0122     		movs	r2, #1
 120 0046 1A60     		str	r2, [r3]
 186:Firmware/Middlewares/Third_Party/FreeRTOS/Source/CMSIS_RTOS_V2/cmsis_os2.c ****       stat = osOK;
 121              		.loc 1 186 0
 122 0048 0023     		movs	r3, #0
 123 004a FB60     		str	r3, [r7, #12]
 124 004c 02E0     		b	.L7
 125              	.L8:
 187:Firmware/Middlewares/Third_Party/FreeRTOS/Source/CMSIS_RTOS_V2/cmsis_os2.c ****     } else {
 188:Firmware/Middlewares/Third_Party/FreeRTOS/Source/CMSIS_RTOS_V2/cmsis_os2.c ****       stat = osError;
 126              		.loc 1 188 0
 127 004e 4FF0FF33 		mov	r3, #-1
 128 0052 FB60     		str	r3, [r7, #12]
 129              	.L7:
 189:Firmware/Middlewares/Third_Party/FreeRTOS/Source/CMSIS_RTOS_V2/cmsis_os2.c ****     }
 190:Firmware/Middlewares/Third_Party/FreeRTOS/Source/CMSIS_RTOS_V2/cmsis_os2.c ****   }
 191:Firmware/Middlewares/Third_Party/FreeRTOS/Source/CMSIS_RTOS_V2/cmsis_os2.c **** 
 192:Firmware/Middlewares/Third_Party/FreeRTOS/Source/CMSIS_RTOS_V2/cmsis_os2.c ****   return (stat);
 130              		.loc 1 192 0
 131 0054 FB68     		ldr	r3, [r7, #12]
 193:Firmware/Middlewares/Third_Party/FreeRTOS/Source/CMSIS_RTOS_V2/cmsis_os2.c **** }
 132              		.loc 1 193 0
 133 0056 1846     		mov	r0, r3
 134 0058 1437     		adds	r7, r7, #20
 135              	.LCFI3:
 136              		.cfi_def_cfa_offset 4
 137 005a BD46     		mov	sp, r7
 138              	.LCFI4:
 139              		.cfi_def_cfa_register 13
 140              		@ sp needed
 141 005c 5DF8047B 		ldr	r7, [sp], #4
 142              	.LCFI5:
ARM GAS  /tmp/ccB5BhZs.s 			page 15


 143              		.cfi_restore 7
 144              		.cfi_def_cfa_offset 0
 145 0060 7047     		bx	lr
 146              	.L11:
 147 0062 00BF     		.align	2
 148              	.L10:
 149 0064 00000000 		.word	KernelState
 150              		.cfi_endproc
 151              	.LFE106:
 153              		.section	.rodata
 154              		.align	2
 155              	.LC0:
 156 0000 46726565 		.ascii	"FreeRTOS V10.0.1\000"
 156      52544F53 
 156      20563130 
 156      2E302E31 
 156      00
 157              		.section	.text.osKernelGetInfo,"ax",%progbits
 158              		.align	1
 159              		.global	osKernelGetInfo
 160              		.syntax unified
 161              		.thumb
 162              		.thumb_func
 163              		.fpu fpv4-sp-d16
 165              	osKernelGetInfo:
 166              	.LFB107:
 194:Firmware/Middlewares/Third_Party/FreeRTOS/Source/CMSIS_RTOS_V2/cmsis_os2.c **** 
 195:Firmware/Middlewares/Third_Party/FreeRTOS/Source/CMSIS_RTOS_V2/cmsis_os2.c **** osStatus_t osKernelGetInfo (osVersion_t *version, char *id_buf, uint32_t id_size) {
 167              		.loc 1 195 0
 168              		.cfi_startproc
 169              		@ args = 0, pretend = 0, frame = 16
 170              		@ frame_needed = 1, uses_anonymous_args = 0
 171 0000 80B5     		push	{r7, lr}
 172              	.LCFI6:
 173              		.cfi_def_cfa_offset 8
 174              		.cfi_offset 7, -8
 175              		.cfi_offset 14, -4
 176 0002 84B0     		sub	sp, sp, #16
 177              	.LCFI7:
 178              		.cfi_def_cfa_offset 24
 179 0004 00AF     		add	r7, sp, #0
 180              	.LCFI8:
 181              		.cfi_def_cfa_register 7
 182 0006 F860     		str	r0, [r7, #12]
 183 0008 B960     		str	r1, [r7, #8]
 184 000a 7A60     		str	r2, [r7, #4]
 196:Firmware/Middlewares/Third_Party/FreeRTOS/Source/CMSIS_RTOS_V2/cmsis_os2.c **** 
 197:Firmware/Middlewares/Third_Party/FreeRTOS/Source/CMSIS_RTOS_V2/cmsis_os2.c ****   if (version != NULL) {
 185              		.loc 1 197 0
 186 000c FB68     		ldr	r3, [r7, #12]
 187 000e 002B     		cmp	r3, #0
 188 0010 05D0     		beq	.L13
 198:Firmware/Middlewares/Third_Party/FreeRTOS/Source/CMSIS_RTOS_V2/cmsis_os2.c ****     version->api    = KERNEL_VERSION;
 189              		.loc 1 198 0
 190 0012 FB68     		ldr	r3, [r7, #12]
 191 0014 0C4A     		ldr	r2, .L17
 192 0016 1A60     		str	r2, [r3]
ARM GAS  /tmp/ccB5BhZs.s 			page 16


 199:Firmware/Middlewares/Third_Party/FreeRTOS/Source/CMSIS_RTOS_V2/cmsis_os2.c ****     version->kernel = KERNEL_VERSION;
 193              		.loc 1 199 0
 194 0018 FB68     		ldr	r3, [r7, #12]
 195 001a 0B4A     		ldr	r2, .L17
 196 001c 5A60     		str	r2, [r3, #4]
 197              	.L13:
 200:Firmware/Middlewares/Third_Party/FreeRTOS/Source/CMSIS_RTOS_V2/cmsis_os2.c ****   }
 201:Firmware/Middlewares/Third_Party/FreeRTOS/Source/CMSIS_RTOS_V2/cmsis_os2.c **** 
 202:Firmware/Middlewares/Third_Party/FreeRTOS/Source/CMSIS_RTOS_V2/cmsis_os2.c ****   if ((id_buf != NULL) && (id_size != 0U)) {
 198              		.loc 1 202 0
 199 001e BB68     		ldr	r3, [r7, #8]
 200 0020 002B     		cmp	r3, #0
 201 0022 0CD0     		beq	.L14
 202              		.loc 1 202 0 is_stmt 0 discriminator 1
 203 0024 7B68     		ldr	r3, [r7, #4]
 204 0026 002B     		cmp	r3, #0
 205 0028 09D0     		beq	.L14
 203:Firmware/Middlewares/Third_Party/FreeRTOS/Source/CMSIS_RTOS_V2/cmsis_os2.c ****     if (id_size > sizeof(KERNEL_ID)) {
 206              		.loc 1 203 0 is_stmt 1
 207 002a 7B68     		ldr	r3, [r7, #4]
 208 002c 112B     		cmp	r3, #17
 209 002e 01D9     		bls	.L15
 204:Firmware/Middlewares/Third_Party/FreeRTOS/Source/CMSIS_RTOS_V2/cmsis_os2.c ****       id_size = sizeof(KERNEL_ID);
 210              		.loc 1 204 0
 211 0030 1123     		movs	r3, #17
 212 0032 7B60     		str	r3, [r7, #4]
 213              	.L15:
 205:Firmware/Middlewares/Third_Party/FreeRTOS/Source/CMSIS_RTOS_V2/cmsis_os2.c ****     }
 206:Firmware/Middlewares/Third_Party/FreeRTOS/Source/CMSIS_RTOS_V2/cmsis_os2.c ****     memcpy(id_buf, KERNEL_ID, id_size);
 214              		.loc 1 206 0
 215 0034 7A68     		ldr	r2, [r7, #4]
 216 0036 0549     		ldr	r1, .L17+4
 217 0038 B868     		ldr	r0, [r7, #8]
 218 003a FFF7FEFF 		bl	memcpy
 219              	.L14:
 207:Firmware/Middlewares/Third_Party/FreeRTOS/Source/CMSIS_RTOS_V2/cmsis_os2.c ****   }
 208:Firmware/Middlewares/Third_Party/FreeRTOS/Source/CMSIS_RTOS_V2/cmsis_os2.c **** 
 209:Firmware/Middlewares/Third_Party/FreeRTOS/Source/CMSIS_RTOS_V2/cmsis_os2.c ****   return (osOK);
 220              		.loc 1 209 0
 221 003e 0023     		movs	r3, #0
 210:Firmware/Middlewares/Third_Party/FreeRTOS/Source/CMSIS_RTOS_V2/cmsis_os2.c **** }
 222              		.loc 1 210 0
 223 0040 1846     		mov	r0, r3
 224 0042 1037     		adds	r7, r7, #16
 225              	.LCFI9:
 226              		.cfi_def_cfa_offset 8
 227 0044 BD46     		mov	sp, r7
 228              	.LCFI10:
 229              		.cfi_def_cfa_register 13
 230              		@ sp needed
 231 0046 80BD     		pop	{r7, pc}
 232              	.L18:
 233              		.align	2
 234              	.L17:
 235 0048 01E1F505 		.word	100000001
 236 004c 00000000 		.word	.LC0
 237              		.cfi_endproc
ARM GAS  /tmp/ccB5BhZs.s 			page 17


 238              	.LFE107:
 240              		.section	.text.osKernelGetState,"ax",%progbits
 241              		.align	1
 242              		.global	osKernelGetState
 243              		.syntax unified
 244              		.thumb
 245              		.thumb_func
 246              		.fpu fpv4-sp-d16
 248              	osKernelGetState:
 249              	.LFB108:
 211:Firmware/Middlewares/Third_Party/FreeRTOS/Source/CMSIS_RTOS_V2/cmsis_os2.c **** 
 212:Firmware/Middlewares/Third_Party/FreeRTOS/Source/CMSIS_RTOS_V2/cmsis_os2.c **** osKernelState_t osKernelGetState (void) {
 250              		.loc 1 212 0
 251              		.cfi_startproc
 252              		@ args = 0, pretend = 0, frame = 8
 253              		@ frame_needed = 1, uses_anonymous_args = 0
 254 0000 80B5     		push	{r7, lr}
 255              	.LCFI11:
 256              		.cfi_def_cfa_offset 8
 257              		.cfi_offset 7, -8
 258              		.cfi_offset 14, -4
 259 0002 82B0     		sub	sp, sp, #8
 260              	.LCFI12:
 261              		.cfi_def_cfa_offset 16
 262 0004 00AF     		add	r7, sp, #0
 263              	.LCFI13:
 264              		.cfi_def_cfa_register 7
 213:Firmware/Middlewares/Third_Party/FreeRTOS/Source/CMSIS_RTOS_V2/cmsis_os2.c ****   osKernelState_t state;
 214:Firmware/Middlewares/Third_Party/FreeRTOS/Source/CMSIS_RTOS_V2/cmsis_os2.c **** 
 215:Firmware/Middlewares/Third_Party/FreeRTOS/Source/CMSIS_RTOS_V2/cmsis_os2.c ****   switch (xTaskGetSchedulerState()) {
 265              		.loc 1 215 0
 266 0006 FFF7FEFF 		bl	xTaskGetSchedulerState
 267 000a 0346     		mov	r3, r0
 268 000c 002B     		cmp	r3, #0
 269 000e 04D0     		beq	.L21
 270 0010 022B     		cmp	r3, #2
 271 0012 05D1     		bne	.L27
 216:Firmware/Middlewares/Third_Party/FreeRTOS/Source/CMSIS_RTOS_V2/cmsis_os2.c ****     case taskSCHEDULER_RUNNING:
 217:Firmware/Middlewares/Third_Party/FreeRTOS/Source/CMSIS_RTOS_V2/cmsis_os2.c ****       state = osKernelRunning;
 272              		.loc 1 217 0
 273 0014 0223     		movs	r3, #2
 274 0016 7B60     		str	r3, [r7, #4]
 218:Firmware/Middlewares/Third_Party/FreeRTOS/Source/CMSIS_RTOS_V2/cmsis_os2.c ****       break;
 275              		.loc 1 218 0
 276 0018 0CE0     		b	.L23
 277              	.L21:
 219:Firmware/Middlewares/Third_Party/FreeRTOS/Source/CMSIS_RTOS_V2/cmsis_os2.c **** 
 220:Firmware/Middlewares/Third_Party/FreeRTOS/Source/CMSIS_RTOS_V2/cmsis_os2.c ****     case taskSCHEDULER_SUSPENDED:
 221:Firmware/Middlewares/Third_Party/FreeRTOS/Source/CMSIS_RTOS_V2/cmsis_os2.c ****       state = osKernelLocked;
 278              		.loc 1 221 0
 279 001a 0323     		movs	r3, #3
 280 001c 7B60     		str	r3, [r7, #4]
 222:Firmware/Middlewares/Third_Party/FreeRTOS/Source/CMSIS_RTOS_V2/cmsis_os2.c ****       break;
 281              		.loc 1 222 0
 282 001e 09E0     		b	.L23
 283              	.L27:
 223:Firmware/Middlewares/Third_Party/FreeRTOS/Source/CMSIS_RTOS_V2/cmsis_os2.c **** 
ARM GAS  /tmp/ccB5BhZs.s 			page 18


 224:Firmware/Middlewares/Third_Party/FreeRTOS/Source/CMSIS_RTOS_V2/cmsis_os2.c ****     case taskSCHEDULER_NOT_STARTED:
 225:Firmware/Middlewares/Third_Party/FreeRTOS/Source/CMSIS_RTOS_V2/cmsis_os2.c ****     default:
 226:Firmware/Middlewares/Third_Party/FreeRTOS/Source/CMSIS_RTOS_V2/cmsis_os2.c ****       if (KernelState == osKernelReady) {
 284              		.loc 1 226 0
 285 0020 074B     		ldr	r3, .L29
 286 0022 1B68     		ldr	r3, [r3]
 287 0024 012B     		cmp	r3, #1
 288 0026 02D1     		bne	.L24
 227:Firmware/Middlewares/Third_Party/FreeRTOS/Source/CMSIS_RTOS_V2/cmsis_os2.c ****         state = osKernelReady;
 289              		.loc 1 227 0
 290 0028 0123     		movs	r3, #1
 291 002a 7B60     		str	r3, [r7, #4]
 228:Firmware/Middlewares/Third_Party/FreeRTOS/Source/CMSIS_RTOS_V2/cmsis_os2.c ****       } else {
 229:Firmware/Middlewares/Third_Party/FreeRTOS/Source/CMSIS_RTOS_V2/cmsis_os2.c ****         state = osKernelInactive;
 230:Firmware/Middlewares/Third_Party/FreeRTOS/Source/CMSIS_RTOS_V2/cmsis_os2.c ****       }
 231:Firmware/Middlewares/Third_Party/FreeRTOS/Source/CMSIS_RTOS_V2/cmsis_os2.c ****       break;
 292              		.loc 1 231 0
 293 002c 01E0     		b	.L28
 294              	.L24:
 229:Firmware/Middlewares/Third_Party/FreeRTOS/Source/CMSIS_RTOS_V2/cmsis_os2.c ****       }
 295              		.loc 1 229 0
 296 002e 0023     		movs	r3, #0
 297 0030 7B60     		str	r3, [r7, #4]
 298              	.L28:
 299              		.loc 1 231 0
 300 0032 00BF     		nop
 301              	.L23:
 232:Firmware/Middlewares/Third_Party/FreeRTOS/Source/CMSIS_RTOS_V2/cmsis_os2.c ****   }
 233:Firmware/Middlewares/Third_Party/FreeRTOS/Source/CMSIS_RTOS_V2/cmsis_os2.c **** 
 234:Firmware/Middlewares/Third_Party/FreeRTOS/Source/CMSIS_RTOS_V2/cmsis_os2.c ****   return (state);
 302              		.loc 1 234 0
 303 0034 7B68     		ldr	r3, [r7, #4]
 235:Firmware/Middlewares/Third_Party/FreeRTOS/Source/CMSIS_RTOS_V2/cmsis_os2.c **** }
 304              		.loc 1 235 0
 305 0036 1846     		mov	r0, r3
 306 0038 0837     		adds	r7, r7, #8
 307              	.LCFI14:
 308              		.cfi_def_cfa_offset 8
 309 003a BD46     		mov	sp, r7
 310              	.LCFI15:
 311              		.cfi_def_cfa_register 13
 312              		@ sp needed
 313 003c 80BD     		pop	{r7, pc}
 314              	.L30:
 315 003e 00BF     		.align	2
 316              	.L29:
 317 0040 00000000 		.word	KernelState
 318              		.cfi_endproc
 319              	.LFE108:
 321              		.section	.text.osKernelStart,"ax",%progbits
 322              		.align	1
 323              		.global	osKernelStart
 324              		.syntax unified
 325              		.thumb
 326              		.thumb_func
 327              		.fpu fpv4-sp-d16
 329              	osKernelStart:
ARM GAS  /tmp/ccB5BhZs.s 			page 19


 330              	.LFB109:
 236:Firmware/Middlewares/Third_Party/FreeRTOS/Source/CMSIS_RTOS_V2/cmsis_os2.c **** 
 237:Firmware/Middlewares/Third_Party/FreeRTOS/Source/CMSIS_RTOS_V2/cmsis_os2.c **** osStatus_t osKernelStart (void) {
 331              		.loc 1 237 0
 332              		.cfi_startproc
 333              		@ args = 0, pretend = 0, frame = 16
 334              		@ frame_needed = 1, uses_anonymous_args = 0
 335 0000 80B5     		push	{r7, lr}
 336              	.LCFI16:
 337              		.cfi_def_cfa_offset 8
 338              		.cfi_offset 7, -8
 339              		.cfi_offset 14, -4
 340 0002 84B0     		sub	sp, sp, #16
 341              	.LCFI17:
 342              		.cfi_def_cfa_offset 24
 343 0004 00AF     		add	r7, sp, #0
 344              	.LCFI18:
 345              		.cfi_def_cfa_register 7
 346              	.LBB340:
 347              	.LBB341:
 209:Firmware/Drivers/CMSIS/Include/cmsis_gcc.h ****   return(result);
 348              		.loc 2 209 0
 349              		.syntax unified
 350              	@ 209 "Firmware/Drivers/CMSIS/Include/cmsis_gcc.h" 1
 351 0006 EFF30583 		MRS r3, ipsr
 352              	@ 0 "" 2
 353              		.thumb
 354              		.syntax unified
 355 000a BB60     		str	r3, [r7, #8]
 210:Firmware/Drivers/CMSIS/Include/cmsis_gcc.h **** }
 356              		.loc 2 210 0
 357 000c BB68     		ldr	r3, [r7, #8]
 358              	.LBE341:
 359              	.LBE340:
 238:Firmware/Middlewares/Third_Party/FreeRTOS/Source/CMSIS_RTOS_V2/cmsis_os2.c ****   osStatus_t stat;
 239:Firmware/Middlewares/Third_Party/FreeRTOS/Source/CMSIS_RTOS_V2/cmsis_os2.c **** 
 240:Firmware/Middlewares/Third_Party/FreeRTOS/Source/CMSIS_RTOS_V2/cmsis_os2.c ****   if (IS_IRQ()) {
 360              		.loc 1 240 0
 361 000e 002B     		cmp	r3, #0
 362 0010 0FD1     		bne	.L33
 363              	.LBB342:
 364              	.LBB343:
 386:Firmware/Drivers/CMSIS/Include/cmsis_gcc.h ****   return(result);
 365              		.loc 2 386 0 discriminator 1
 366              		.syntax unified
 367              	@ 386 "Firmware/Drivers/CMSIS/Include/cmsis_gcc.h" 1
 368 0012 EFF31083 		MRS r3, primask
 369              	@ 0 "" 2
 370              		.thumb
 371              		.syntax unified
 372 0016 7B60     		str	r3, [r7, #4]
 387:Firmware/Drivers/CMSIS/Include/cmsis_gcc.h **** }
 373              		.loc 2 387 0 discriminator 1
 374 0018 7B68     		ldr	r3, [r7, #4]
 375              	.LBE343:
 376              	.LBE342:
 377              		.loc 1 240 0 discriminator 1
ARM GAS  /tmp/ccB5BhZs.s 			page 20


 378 001a 002B     		cmp	r3, #0
 379 001c 09D1     		bne	.L33
 380              		.loc 1 240 0 is_stmt 0 discriminator 2
 381 001e 114B     		ldr	r3, .L40
 382 0020 1B68     		ldr	r3, [r3]
 383 0022 022B     		cmp	r3, #2
 384 0024 09D1     		bne	.L35
 385              	.LBB344:
 386              	.LBB345:
 465:Firmware/Drivers/CMSIS/Include/cmsis_gcc.h ****   return(result);
 387              		.loc 2 465 0 is_stmt 1 discriminator 3
 388              		.syntax unified
 389              	@ 465 "Firmware/Drivers/CMSIS/Include/cmsis_gcc.h" 1
 390 0026 EFF31183 		MRS r3, basepri
 391              	@ 0 "" 2
 392              		.thumb
 393              		.syntax unified
 394 002a 3B60     		str	r3, [r7]
 395              		.loc 2 466 0 discriminator 3
 396 002c 3B68     		ldr	r3, [r7]
 397              	.LBE345:
 398              	.LBE344:
 399              		.loc 1 240 0 discriminator 3
 400 002e 002B     		cmp	r3, #0
 401 0030 03D0     		beq	.L35
 402              	.L33:
 241:Firmware/Middlewares/Third_Party/FreeRTOS/Source/CMSIS_RTOS_V2/cmsis_os2.c ****     stat = osErrorISR;
 403              		.loc 1 241 0
 404 0032 6FF00503 		mvn	r3, #5
 405 0036 FB60     		str	r3, [r7, #12]
 406 0038 0EE0     		b	.L37
 407              	.L35:
 242:Firmware/Middlewares/Third_Party/FreeRTOS/Source/CMSIS_RTOS_V2/cmsis_os2.c ****   }
 243:Firmware/Middlewares/Third_Party/FreeRTOS/Source/CMSIS_RTOS_V2/cmsis_os2.c ****   else {
 244:Firmware/Middlewares/Third_Party/FreeRTOS/Source/CMSIS_RTOS_V2/cmsis_os2.c ****     if (KernelState == osKernelReady) {
 408              		.loc 1 244 0
 409 003a 0A4B     		ldr	r3, .L40
 410 003c 1B68     		ldr	r3, [r3]
 411 003e 012B     		cmp	r3, #1
 412 0040 07D1     		bne	.L38
 245:Firmware/Middlewares/Third_Party/FreeRTOS/Source/CMSIS_RTOS_V2/cmsis_os2.c ****       KernelState = osKernelRunning;
 413              		.loc 1 245 0
 414 0042 084B     		ldr	r3, .L40
 415 0044 0222     		movs	r2, #2
 416 0046 1A60     		str	r2, [r3]
 246:Firmware/Middlewares/Third_Party/FreeRTOS/Source/CMSIS_RTOS_V2/cmsis_os2.c ****       vTaskStartScheduler();
 417              		.loc 1 246 0
 418 0048 FFF7FEFF 		bl	vTaskStartScheduler
 247:Firmware/Middlewares/Third_Party/FreeRTOS/Source/CMSIS_RTOS_V2/cmsis_os2.c ****       stat = osOK;
 419              		.loc 1 247 0
 420 004c 0023     		movs	r3, #0
 421 004e FB60     		str	r3, [r7, #12]
 422 0050 02E0     		b	.L37
 423              	.L38:
 248:Firmware/Middlewares/Third_Party/FreeRTOS/Source/CMSIS_RTOS_V2/cmsis_os2.c ****     } else {
 249:Firmware/Middlewares/Third_Party/FreeRTOS/Source/CMSIS_RTOS_V2/cmsis_os2.c ****       stat = osError;
 424              		.loc 1 249 0
ARM GAS  /tmp/ccB5BhZs.s 			page 21


 425 0052 4FF0FF33 		mov	r3, #-1
 426 0056 FB60     		str	r3, [r7, #12]
 427              	.L37:
 250:Firmware/Middlewares/Third_Party/FreeRTOS/Source/CMSIS_RTOS_V2/cmsis_os2.c ****     }
 251:Firmware/Middlewares/Third_Party/FreeRTOS/Source/CMSIS_RTOS_V2/cmsis_os2.c ****   }
 252:Firmware/Middlewares/Third_Party/FreeRTOS/Source/CMSIS_RTOS_V2/cmsis_os2.c **** 
 253:Firmware/Middlewares/Third_Party/FreeRTOS/Source/CMSIS_RTOS_V2/cmsis_os2.c ****   return (stat);
 428              		.loc 1 253 0
 429 0058 FB68     		ldr	r3, [r7, #12]
 254:Firmware/Middlewares/Third_Party/FreeRTOS/Source/CMSIS_RTOS_V2/cmsis_os2.c **** }
 430              		.loc 1 254 0
 431 005a 1846     		mov	r0, r3
 432 005c 1037     		adds	r7, r7, #16
 433              	.LCFI19:
 434              		.cfi_def_cfa_offset 8
 435 005e BD46     		mov	sp, r7
 436              	.LCFI20:
 437              		.cfi_def_cfa_register 13
 438              		@ sp needed
 439 0060 80BD     		pop	{r7, pc}
 440              	.L41:
 441 0062 00BF     		.align	2
 442              	.L40:
 443 0064 00000000 		.word	KernelState
 444              		.cfi_endproc
 445              	.LFE109:
 447              		.section	.text.osKernelLock,"ax",%progbits
 448              		.align	1
 449              		.global	osKernelLock
 450              		.syntax unified
 451              		.thumb
 452              		.thumb_func
 453              		.fpu fpv4-sp-d16
 455              	osKernelLock:
 456              	.LFB110:
 255:Firmware/Middlewares/Third_Party/FreeRTOS/Source/CMSIS_RTOS_V2/cmsis_os2.c **** 
 256:Firmware/Middlewares/Third_Party/FreeRTOS/Source/CMSIS_RTOS_V2/cmsis_os2.c **** int32_t osKernelLock (void) {
 457              		.loc 1 256 0
 458              		.cfi_startproc
 459              		@ args = 0, pretend = 0, frame = 16
 460              		@ frame_needed = 1, uses_anonymous_args = 0
 461 0000 80B5     		push	{r7, lr}
 462              	.LCFI21:
 463              		.cfi_def_cfa_offset 8
 464              		.cfi_offset 7, -8
 465              		.cfi_offset 14, -4
 466 0002 84B0     		sub	sp, sp, #16
 467              	.LCFI22:
 468              		.cfi_def_cfa_offset 24
 469 0004 00AF     		add	r7, sp, #0
 470              	.LCFI23:
 471              		.cfi_def_cfa_register 7
 472              	.LBB346:
 473              	.LBB347:
 209:Firmware/Drivers/CMSIS/Include/cmsis_gcc.h ****   return(result);
 474              		.loc 2 209 0
 475              		.syntax unified
ARM GAS  /tmp/ccB5BhZs.s 			page 22


 476              	@ 209 "Firmware/Drivers/CMSIS/Include/cmsis_gcc.h" 1
 477 0006 EFF30583 		MRS r3, ipsr
 478              	@ 0 "" 2
 479              		.thumb
 480              		.syntax unified
 481 000a BB60     		str	r3, [r7, #8]
 210:Firmware/Drivers/CMSIS/Include/cmsis_gcc.h **** }
 482              		.loc 2 210 0
 483 000c BB68     		ldr	r3, [r7, #8]
 484              	.LBE347:
 485              	.LBE346:
 257:Firmware/Middlewares/Third_Party/FreeRTOS/Source/CMSIS_RTOS_V2/cmsis_os2.c ****   int32_t lock;
 258:Firmware/Middlewares/Third_Party/FreeRTOS/Source/CMSIS_RTOS_V2/cmsis_os2.c **** 
 259:Firmware/Middlewares/Third_Party/FreeRTOS/Source/CMSIS_RTOS_V2/cmsis_os2.c ****   if (IS_IRQ()) {
 486              		.loc 1 259 0
 487 000e 002B     		cmp	r3, #0
 488 0010 0FD1     		bne	.L44
 489              	.LBB348:
 490              	.LBB349:
 386:Firmware/Drivers/CMSIS/Include/cmsis_gcc.h ****   return(result);
 491              		.loc 2 386 0 discriminator 1
 492              		.syntax unified
 493              	@ 386 "Firmware/Drivers/CMSIS/Include/cmsis_gcc.h" 1
 494 0012 EFF31083 		MRS r3, primask
 495              	@ 0 "" 2
 496              		.thumb
 497              		.syntax unified
 498 0016 7B60     		str	r3, [r7, #4]
 387:Firmware/Drivers/CMSIS/Include/cmsis_gcc.h **** }
 499              		.loc 2 387 0 discriminator 1
 500 0018 7B68     		ldr	r3, [r7, #4]
 501              	.LBE349:
 502              	.LBE348:
 503              		.loc 1 259 0 discriminator 1
 504 001a 002B     		cmp	r3, #0
 505 001c 09D1     		bne	.L44
 506              		.loc 1 259 0 is_stmt 0 discriminator 2
 507 001e 134B     		ldr	r3, .L54
 508 0020 1B68     		ldr	r3, [r3]
 509 0022 022B     		cmp	r3, #2
 510 0024 09D1     		bne	.L46
 511              	.LBB350:
 512              	.LBB351:
 465:Firmware/Drivers/CMSIS/Include/cmsis_gcc.h ****   return(result);
 513              		.loc 2 465 0 is_stmt 1 discriminator 3
 514              		.syntax unified
 515              	@ 465 "Firmware/Drivers/CMSIS/Include/cmsis_gcc.h" 1
 516 0026 EFF31183 		MRS r3, basepri
 517              	@ 0 "" 2
 518              		.thumb
 519              		.syntax unified
 520 002a 3B60     		str	r3, [r7]
 521              		.loc 2 466 0 discriminator 3
 522 002c 3B68     		ldr	r3, [r7]
 523              	.LBE351:
 524              	.LBE350:
 525              		.loc 1 259 0 discriminator 3
ARM GAS  /tmp/ccB5BhZs.s 			page 23


 526 002e 002B     		cmp	r3, #0
 527 0030 03D0     		beq	.L46
 528              	.L44:
 260:Firmware/Middlewares/Third_Party/FreeRTOS/Source/CMSIS_RTOS_V2/cmsis_os2.c ****     lock = (int32_t)osErrorISR;
 529              		.loc 1 260 0
 530 0032 6FF00503 		mvn	r3, #5
 531 0036 FB60     		str	r3, [r7, #12]
 532 0038 13E0     		b	.L48
 533              	.L46:
 261:Firmware/Middlewares/Third_Party/FreeRTOS/Source/CMSIS_RTOS_V2/cmsis_os2.c ****   }
 262:Firmware/Middlewares/Third_Party/FreeRTOS/Source/CMSIS_RTOS_V2/cmsis_os2.c ****   else {
 263:Firmware/Middlewares/Third_Party/FreeRTOS/Source/CMSIS_RTOS_V2/cmsis_os2.c ****     switch (xTaskGetSchedulerState()) {
 534              		.loc 1 263 0
 535 003a FFF7FEFF 		bl	xTaskGetSchedulerState
 536 003e 0346     		mov	r3, r0
 537 0040 002B     		cmp	r3, #0
 538 0042 02D0     		beq	.L50
 539 0044 022B     		cmp	r3, #2
 540 0046 03D0     		beq	.L51
 541 0048 07E0     		b	.L53
 542              	.L50:
 264:Firmware/Middlewares/Third_Party/FreeRTOS/Source/CMSIS_RTOS_V2/cmsis_os2.c ****       case taskSCHEDULER_SUSPENDED:
 265:Firmware/Middlewares/Third_Party/FreeRTOS/Source/CMSIS_RTOS_V2/cmsis_os2.c ****         lock = 1;
 543              		.loc 1 265 0
 544 004a 0123     		movs	r3, #1
 545 004c FB60     		str	r3, [r7, #12]
 266:Firmware/Middlewares/Third_Party/FreeRTOS/Source/CMSIS_RTOS_V2/cmsis_os2.c ****         break;
 546              		.loc 1 266 0
 547 004e 08E0     		b	.L48
 548              	.L51:
 267:Firmware/Middlewares/Third_Party/FreeRTOS/Source/CMSIS_RTOS_V2/cmsis_os2.c **** 
 268:Firmware/Middlewares/Third_Party/FreeRTOS/Source/CMSIS_RTOS_V2/cmsis_os2.c ****       case taskSCHEDULER_RUNNING:
 269:Firmware/Middlewares/Third_Party/FreeRTOS/Source/CMSIS_RTOS_V2/cmsis_os2.c ****         vTaskSuspendAll();
 549              		.loc 1 269 0
 550 0050 FFF7FEFF 		bl	vTaskSuspendAll
 270:Firmware/Middlewares/Third_Party/FreeRTOS/Source/CMSIS_RTOS_V2/cmsis_os2.c ****         lock = 0;
 551              		.loc 1 270 0
 552 0054 0023     		movs	r3, #0
 553 0056 FB60     		str	r3, [r7, #12]
 271:Firmware/Middlewares/Third_Party/FreeRTOS/Source/CMSIS_RTOS_V2/cmsis_os2.c ****         break;
 554              		.loc 1 271 0
 555 0058 03E0     		b	.L48
 556              	.L53:
 272:Firmware/Middlewares/Third_Party/FreeRTOS/Source/CMSIS_RTOS_V2/cmsis_os2.c **** 
 273:Firmware/Middlewares/Third_Party/FreeRTOS/Source/CMSIS_RTOS_V2/cmsis_os2.c ****       case taskSCHEDULER_NOT_STARTED:
 274:Firmware/Middlewares/Third_Party/FreeRTOS/Source/CMSIS_RTOS_V2/cmsis_os2.c ****       default:
 275:Firmware/Middlewares/Third_Party/FreeRTOS/Source/CMSIS_RTOS_V2/cmsis_os2.c ****         lock = (int32_t)osError;
 557              		.loc 1 275 0
 558 005a 4FF0FF33 		mov	r3, #-1
 559 005e FB60     		str	r3, [r7, #12]
 276:Firmware/Middlewares/Third_Party/FreeRTOS/Source/CMSIS_RTOS_V2/cmsis_os2.c ****         break;
 560              		.loc 1 276 0
 561 0060 00BF     		nop
 562              	.L48:
 277:Firmware/Middlewares/Third_Party/FreeRTOS/Source/CMSIS_RTOS_V2/cmsis_os2.c ****     }
 278:Firmware/Middlewares/Third_Party/FreeRTOS/Source/CMSIS_RTOS_V2/cmsis_os2.c ****   }
 279:Firmware/Middlewares/Third_Party/FreeRTOS/Source/CMSIS_RTOS_V2/cmsis_os2.c **** 
ARM GAS  /tmp/ccB5BhZs.s 			page 24


 280:Firmware/Middlewares/Third_Party/FreeRTOS/Source/CMSIS_RTOS_V2/cmsis_os2.c ****   return (lock);
 563              		.loc 1 280 0
 564 0062 FB68     		ldr	r3, [r7, #12]
 281:Firmware/Middlewares/Third_Party/FreeRTOS/Source/CMSIS_RTOS_V2/cmsis_os2.c **** }
 565              		.loc 1 281 0
 566 0064 1846     		mov	r0, r3
 567 0066 1037     		adds	r7, r7, #16
 568              	.LCFI24:
 569              		.cfi_def_cfa_offset 8
 570 0068 BD46     		mov	sp, r7
 571              	.LCFI25:
 572              		.cfi_def_cfa_register 13
 573              		@ sp needed
 574 006a 80BD     		pop	{r7, pc}
 575              	.L55:
 576              		.align	2
 577              	.L54:
 578 006c 00000000 		.word	KernelState
 579              		.cfi_endproc
 580              	.LFE110:
 582              		.section	.text.osKernelUnlock,"ax",%progbits
 583              		.align	1
 584              		.global	osKernelUnlock
 585              		.syntax unified
 586              		.thumb
 587              		.thumb_func
 588              		.fpu fpv4-sp-d16
 590              	osKernelUnlock:
 591              	.LFB111:
 282:Firmware/Middlewares/Third_Party/FreeRTOS/Source/CMSIS_RTOS_V2/cmsis_os2.c **** 
 283:Firmware/Middlewares/Third_Party/FreeRTOS/Source/CMSIS_RTOS_V2/cmsis_os2.c **** int32_t osKernelUnlock (void) {
 592              		.loc 1 283 0
 593              		.cfi_startproc
 594              		@ args = 0, pretend = 0, frame = 16
 595              		@ frame_needed = 1, uses_anonymous_args = 0
 596 0000 80B5     		push	{r7, lr}
 597              	.LCFI26:
 598              		.cfi_def_cfa_offset 8
 599              		.cfi_offset 7, -8
 600              		.cfi_offset 14, -4
 601 0002 84B0     		sub	sp, sp, #16
 602              	.LCFI27:
 603              		.cfi_def_cfa_offset 24
 604 0004 00AF     		add	r7, sp, #0
 605              	.LCFI28:
 606              		.cfi_def_cfa_register 7
 607              	.LBB352:
 608              	.LBB353:
 209:Firmware/Drivers/CMSIS/Include/cmsis_gcc.h ****   return(result);
 609              		.loc 2 209 0
 610              		.syntax unified
 611              	@ 209 "Firmware/Drivers/CMSIS/Include/cmsis_gcc.h" 1
 612 0006 EFF30583 		MRS r3, ipsr
 613              	@ 0 "" 2
 614              		.thumb
 615              		.syntax unified
 616 000a BB60     		str	r3, [r7, #8]
ARM GAS  /tmp/ccB5BhZs.s 			page 25


 210:Firmware/Drivers/CMSIS/Include/cmsis_gcc.h **** }
 617              		.loc 2 210 0
 618 000c BB68     		ldr	r3, [r7, #8]
 619              	.LBE353:
 620              	.LBE352:
 284:Firmware/Middlewares/Third_Party/FreeRTOS/Source/CMSIS_RTOS_V2/cmsis_os2.c ****   int32_t lock;
 285:Firmware/Middlewares/Third_Party/FreeRTOS/Source/CMSIS_RTOS_V2/cmsis_os2.c **** 
 286:Firmware/Middlewares/Third_Party/FreeRTOS/Source/CMSIS_RTOS_V2/cmsis_os2.c ****   if (IS_IRQ()) {
 621              		.loc 1 286 0
 622 000e 002B     		cmp	r3, #0
 623 0010 0FD1     		bne	.L58
 624              	.LBB354:
 625              	.LBB355:
 386:Firmware/Drivers/CMSIS/Include/cmsis_gcc.h ****   return(result);
 626              		.loc 2 386 0 discriminator 1
 627              		.syntax unified
 628              	@ 386 "Firmware/Drivers/CMSIS/Include/cmsis_gcc.h" 1
 629 0012 EFF31083 		MRS r3, primask
 630              	@ 0 "" 2
 631              		.thumb
 632              		.syntax unified
 633 0016 7B60     		str	r3, [r7, #4]
 387:Firmware/Drivers/CMSIS/Include/cmsis_gcc.h **** }
 634              		.loc 2 387 0 discriminator 1
 635 0018 7B68     		ldr	r3, [r7, #4]
 636              	.LBE355:
 637              	.LBE354:
 638              		.loc 1 286 0 discriminator 1
 639 001a 002B     		cmp	r3, #0
 640 001c 09D1     		bne	.L58
 641              		.loc 1 286 0 is_stmt 0 discriminator 2
 642 001e 194B     		ldr	r3, .L70
 643 0020 1B68     		ldr	r3, [r3]
 644 0022 022B     		cmp	r3, #2
 645 0024 09D1     		bne	.L60
 646              	.LBB356:
 647              	.LBB357:
 465:Firmware/Drivers/CMSIS/Include/cmsis_gcc.h ****   return(result);
 648              		.loc 2 465 0 is_stmt 1 discriminator 3
 649              		.syntax unified
 650              	@ 465 "Firmware/Drivers/CMSIS/Include/cmsis_gcc.h" 1
 651 0026 EFF31183 		MRS r3, basepri
 652              	@ 0 "" 2
 653              		.thumb
 654              		.syntax unified
 655 002a 3B60     		str	r3, [r7]
 656              		.loc 2 466 0 discriminator 3
 657 002c 3B68     		ldr	r3, [r7]
 658              	.LBE357:
 659              	.LBE356:
 660              		.loc 1 286 0 discriminator 3
 661 002e 002B     		cmp	r3, #0
 662 0030 03D0     		beq	.L60
 663              	.L58:
 287:Firmware/Middlewares/Third_Party/FreeRTOS/Source/CMSIS_RTOS_V2/cmsis_os2.c ****     lock = (int32_t)osErrorISR;
 664              		.loc 1 287 0
 665 0032 6FF00503 		mvn	r3, #5
ARM GAS  /tmp/ccB5BhZs.s 			page 26


 666 0036 FB60     		str	r3, [r7, #12]
 667 0038 1FE0     		b	.L62
 668              	.L60:
 288:Firmware/Middlewares/Third_Party/FreeRTOS/Source/CMSIS_RTOS_V2/cmsis_os2.c ****   }
 289:Firmware/Middlewares/Third_Party/FreeRTOS/Source/CMSIS_RTOS_V2/cmsis_os2.c ****   else {
 290:Firmware/Middlewares/Third_Party/FreeRTOS/Source/CMSIS_RTOS_V2/cmsis_os2.c ****     switch (xTaskGetSchedulerState()) {
 669              		.loc 1 290 0
 670 003a FFF7FEFF 		bl	xTaskGetSchedulerState
 671 003e 0346     		mov	r3, r0
 672 0040 002B     		cmp	r3, #0
 673 0042 02D0     		beq	.L64
 674 0044 022B     		cmp	r3, #2
 675 0046 10D0     		beq	.L65
 676 0048 12E0     		b	.L68
 677              	.L64:
 291:Firmware/Middlewares/Third_Party/FreeRTOS/Source/CMSIS_RTOS_V2/cmsis_os2.c ****       case taskSCHEDULER_SUSPENDED:
 292:Firmware/Middlewares/Third_Party/FreeRTOS/Source/CMSIS_RTOS_V2/cmsis_os2.c ****         lock = 1;
 678              		.loc 1 292 0
 679 004a 0123     		movs	r3, #1
 680 004c FB60     		str	r3, [r7, #12]
 293:Firmware/Middlewares/Third_Party/FreeRTOS/Source/CMSIS_RTOS_V2/cmsis_os2.c **** 
 294:Firmware/Middlewares/Third_Party/FreeRTOS/Source/CMSIS_RTOS_V2/cmsis_os2.c ****         if (xTaskResumeAll() != pdTRUE) {
 681              		.loc 1 294 0
 682 004e FFF7FEFF 		bl	xTaskResumeAll
 683 0052 0346     		mov	r3, r0
 684 0054 012B     		cmp	r3, #1
 685 0056 0FD0     		beq	.L69
 295:Firmware/Middlewares/Third_Party/FreeRTOS/Source/CMSIS_RTOS_V2/cmsis_os2.c ****           if (xTaskGetSchedulerState() == taskSCHEDULER_SUSPENDED) {
 686              		.loc 1 295 0
 687 0058 FFF7FEFF 		bl	xTaskGetSchedulerState
 688 005c 0346     		mov	r3, r0
 689 005e 002B     		cmp	r3, #0
 690 0060 0AD1     		bne	.L69
 296:Firmware/Middlewares/Third_Party/FreeRTOS/Source/CMSIS_RTOS_V2/cmsis_os2.c ****             lock = (int32_t)osError;
 691              		.loc 1 296 0
 692 0062 4FF0FF33 		mov	r3, #-1
 693 0066 FB60     		str	r3, [r7, #12]
 297:Firmware/Middlewares/Third_Party/FreeRTOS/Source/CMSIS_RTOS_V2/cmsis_os2.c ****           }
 298:Firmware/Middlewares/Third_Party/FreeRTOS/Source/CMSIS_RTOS_V2/cmsis_os2.c ****         }
 299:Firmware/Middlewares/Third_Party/FreeRTOS/Source/CMSIS_RTOS_V2/cmsis_os2.c ****         break;
 694              		.loc 1 299 0
 695 0068 06E0     		b	.L69
 696              	.L65:
 300:Firmware/Middlewares/Third_Party/FreeRTOS/Source/CMSIS_RTOS_V2/cmsis_os2.c **** 
 301:Firmware/Middlewares/Third_Party/FreeRTOS/Source/CMSIS_RTOS_V2/cmsis_os2.c ****       case taskSCHEDULER_RUNNING:
 302:Firmware/Middlewares/Third_Party/FreeRTOS/Source/CMSIS_RTOS_V2/cmsis_os2.c ****         lock = 0;
 697              		.loc 1 302 0
 698 006a 0023     		movs	r3, #0
 699 006c FB60     		str	r3, [r7, #12]
 303:Firmware/Middlewares/Third_Party/FreeRTOS/Source/CMSIS_RTOS_V2/cmsis_os2.c ****         break;
 700              		.loc 1 303 0
 701 006e 04E0     		b	.L62
 702              	.L68:
 304:Firmware/Middlewares/Third_Party/FreeRTOS/Source/CMSIS_RTOS_V2/cmsis_os2.c **** 
 305:Firmware/Middlewares/Third_Party/FreeRTOS/Source/CMSIS_RTOS_V2/cmsis_os2.c ****       case taskSCHEDULER_NOT_STARTED:
 306:Firmware/Middlewares/Third_Party/FreeRTOS/Source/CMSIS_RTOS_V2/cmsis_os2.c ****       default:
 307:Firmware/Middlewares/Third_Party/FreeRTOS/Source/CMSIS_RTOS_V2/cmsis_os2.c ****         lock = (int32_t)osError;
ARM GAS  /tmp/ccB5BhZs.s 			page 27


 703              		.loc 1 307 0
 704 0070 4FF0FF33 		mov	r3, #-1
 705 0074 FB60     		str	r3, [r7, #12]
 308:Firmware/Middlewares/Third_Party/FreeRTOS/Source/CMSIS_RTOS_V2/cmsis_os2.c ****         break;
 706              		.loc 1 308 0
 707 0076 00E0     		b	.L62
 708              	.L69:
 299:Firmware/Middlewares/Third_Party/FreeRTOS/Source/CMSIS_RTOS_V2/cmsis_os2.c **** 
 709              		.loc 1 299 0
 710 0078 00BF     		nop
 711              	.L62:
 309:Firmware/Middlewares/Third_Party/FreeRTOS/Source/CMSIS_RTOS_V2/cmsis_os2.c ****     }
 310:Firmware/Middlewares/Third_Party/FreeRTOS/Source/CMSIS_RTOS_V2/cmsis_os2.c ****   }
 311:Firmware/Middlewares/Third_Party/FreeRTOS/Source/CMSIS_RTOS_V2/cmsis_os2.c **** 
 312:Firmware/Middlewares/Third_Party/FreeRTOS/Source/CMSIS_RTOS_V2/cmsis_os2.c ****   return (lock);
 712              		.loc 1 312 0
 713 007a FB68     		ldr	r3, [r7, #12]
 313:Firmware/Middlewares/Third_Party/FreeRTOS/Source/CMSIS_RTOS_V2/cmsis_os2.c **** }
 714              		.loc 1 313 0
 715 007c 1846     		mov	r0, r3
 716 007e 1037     		adds	r7, r7, #16
 717              	.LCFI29:
 718              		.cfi_def_cfa_offset 8
 719 0080 BD46     		mov	sp, r7
 720              	.LCFI30:
 721              		.cfi_def_cfa_register 13
 722              		@ sp needed
 723 0082 80BD     		pop	{r7, pc}
 724              	.L71:
 725              		.align	2
 726              	.L70:
 727 0084 00000000 		.word	KernelState
 728              		.cfi_endproc
 729              	.LFE111:
 731              		.section	.text.osKernelRestoreLock,"ax",%progbits
 732              		.align	1
 733              		.global	osKernelRestoreLock
 734              		.syntax unified
 735              		.thumb
 736              		.thumb_func
 737              		.fpu fpv4-sp-d16
 739              	osKernelRestoreLock:
 740              	.LFB112:
 314:Firmware/Middlewares/Third_Party/FreeRTOS/Source/CMSIS_RTOS_V2/cmsis_os2.c **** 
 315:Firmware/Middlewares/Third_Party/FreeRTOS/Source/CMSIS_RTOS_V2/cmsis_os2.c **** int32_t osKernelRestoreLock (int32_t lock) {
 741              		.loc 1 315 0
 742              		.cfi_startproc
 743              		@ args = 0, pretend = 0, frame = 24
 744              		@ frame_needed = 1, uses_anonymous_args = 0
 745 0000 80B5     		push	{r7, lr}
 746              	.LCFI31:
 747              		.cfi_def_cfa_offset 8
 748              		.cfi_offset 7, -8
 749              		.cfi_offset 14, -4
 750 0002 86B0     		sub	sp, sp, #24
 751              	.LCFI32:
 752              		.cfi_def_cfa_offset 32
ARM GAS  /tmp/ccB5BhZs.s 			page 28


 753 0004 00AF     		add	r7, sp, #0
 754              	.LCFI33:
 755              		.cfi_def_cfa_register 7
 756 0006 7860     		str	r0, [r7, #4]
 757              	.LBB358:
 758              	.LBB359:
 209:Firmware/Drivers/CMSIS/Include/cmsis_gcc.h ****   return(result);
 759              		.loc 2 209 0
 760              		.syntax unified
 761              	@ 209 "Firmware/Drivers/CMSIS/Include/cmsis_gcc.h" 1
 762 0008 EFF30583 		MRS r3, ipsr
 763              	@ 0 "" 2
 764              		.thumb
 765              		.syntax unified
 766 000c 7B61     		str	r3, [r7, #20]
 210:Firmware/Drivers/CMSIS/Include/cmsis_gcc.h **** }
 767              		.loc 2 210 0
 768 000e 7B69     		ldr	r3, [r7, #20]
 769              	.LBE359:
 770              	.LBE358:
 316:Firmware/Middlewares/Third_Party/FreeRTOS/Source/CMSIS_RTOS_V2/cmsis_os2.c **** 
 317:Firmware/Middlewares/Third_Party/FreeRTOS/Source/CMSIS_RTOS_V2/cmsis_os2.c ****   if (IS_IRQ()) {
 771              		.loc 1 317 0
 772 0010 002B     		cmp	r3, #0
 773 0012 0FD1     		bne	.L74
 774              	.LBB360:
 775              	.LBB361:
 386:Firmware/Drivers/CMSIS/Include/cmsis_gcc.h ****   return(result);
 776              		.loc 2 386 0 discriminator 1
 777              		.syntax unified
 778              	@ 386 "Firmware/Drivers/CMSIS/Include/cmsis_gcc.h" 1
 779 0014 EFF31083 		MRS r3, primask
 780              	@ 0 "" 2
 781              		.thumb
 782              		.syntax unified
 783 0018 3B61     		str	r3, [r7, #16]
 387:Firmware/Drivers/CMSIS/Include/cmsis_gcc.h **** }
 784              		.loc 2 387 0 discriminator 1
 785 001a 3B69     		ldr	r3, [r7, #16]
 786              	.LBE361:
 787              	.LBE360:
 788              		.loc 1 317 0 discriminator 1
 789 001c 002B     		cmp	r3, #0
 790 001e 09D1     		bne	.L74
 791              		.loc 1 317 0 is_stmt 0 discriminator 2
 792 0020 1C4B     		ldr	r3, .L87
 793 0022 1B68     		ldr	r3, [r3]
 794 0024 022B     		cmp	r3, #2
 795 0026 09D1     		bne	.L76
 796              	.LBB362:
 797              	.LBB363:
 465:Firmware/Drivers/CMSIS/Include/cmsis_gcc.h ****   return(result);
 798              		.loc 2 465 0 is_stmt 1 discriminator 3
 799              		.syntax unified
 800              	@ 465 "Firmware/Drivers/CMSIS/Include/cmsis_gcc.h" 1
 801 0028 EFF31183 		MRS r3, basepri
 802              	@ 0 "" 2
ARM GAS  /tmp/ccB5BhZs.s 			page 29


 803              		.thumb
 804              		.syntax unified
 805 002c FB60     		str	r3, [r7, #12]
 806              		.loc 2 466 0 discriminator 3
 807 002e FB68     		ldr	r3, [r7, #12]
 808              	.LBE363:
 809              	.LBE362:
 810              		.loc 1 317 0 discriminator 3
 811 0030 002B     		cmp	r3, #0
 812 0032 03D0     		beq	.L76
 813              	.L74:
 318:Firmware/Middlewares/Third_Party/FreeRTOS/Source/CMSIS_RTOS_V2/cmsis_os2.c ****     lock = (int32_t)osErrorISR;
 814              		.loc 1 318 0
 815 0034 6FF00503 		mvn	r3, #5
 816 0038 7B60     		str	r3, [r7, #4]
 817 003a 26E0     		b	.L78
 818              	.L76:
 319:Firmware/Middlewares/Third_Party/FreeRTOS/Source/CMSIS_RTOS_V2/cmsis_os2.c ****   }
 320:Firmware/Middlewares/Third_Party/FreeRTOS/Source/CMSIS_RTOS_V2/cmsis_os2.c ****   else {
 321:Firmware/Middlewares/Third_Party/FreeRTOS/Source/CMSIS_RTOS_V2/cmsis_os2.c ****     switch (xTaskGetSchedulerState()) {
 819              		.loc 1 321 0
 820 003c FFF7FEFF 		bl	xTaskGetSchedulerState
 821 0040 0346     		mov	r3, r0
 822 0042 002B     		cmp	r3, #0
 823 0044 01D0     		beq	.L80
 824 0046 022B     		cmp	r3, #2
 825 0048 1AD1     		bne	.L85
 826              	.L80:
 322:Firmware/Middlewares/Third_Party/FreeRTOS/Source/CMSIS_RTOS_V2/cmsis_os2.c ****       case taskSCHEDULER_SUSPENDED:
 323:Firmware/Middlewares/Third_Party/FreeRTOS/Source/CMSIS_RTOS_V2/cmsis_os2.c ****       case taskSCHEDULER_RUNNING:
 324:Firmware/Middlewares/Third_Party/FreeRTOS/Source/CMSIS_RTOS_V2/cmsis_os2.c ****         if (lock == 1) {
 827              		.loc 1 324 0
 828 004a 7B68     		ldr	r3, [r7, #4]
 829 004c 012B     		cmp	r3, #1
 830 004e 02D1     		bne	.L81
 325:Firmware/Middlewares/Third_Party/FreeRTOS/Source/CMSIS_RTOS_V2/cmsis_os2.c ****           vTaskSuspendAll();
 831              		.loc 1 325 0
 832 0050 FFF7FEFF 		bl	vTaskSuspendAll
 326:Firmware/Middlewares/Third_Party/FreeRTOS/Source/CMSIS_RTOS_V2/cmsis_os2.c ****         }
 327:Firmware/Middlewares/Third_Party/FreeRTOS/Source/CMSIS_RTOS_V2/cmsis_os2.c ****         else {
 328:Firmware/Middlewares/Third_Party/FreeRTOS/Source/CMSIS_RTOS_V2/cmsis_os2.c ****           if (lock != 0) {
 329:Firmware/Middlewares/Third_Party/FreeRTOS/Source/CMSIS_RTOS_V2/cmsis_os2.c ****             lock = (int32_t)osError;
 330:Firmware/Middlewares/Third_Party/FreeRTOS/Source/CMSIS_RTOS_V2/cmsis_os2.c ****           }
 331:Firmware/Middlewares/Third_Party/FreeRTOS/Source/CMSIS_RTOS_V2/cmsis_os2.c ****           else {
 332:Firmware/Middlewares/Third_Party/FreeRTOS/Source/CMSIS_RTOS_V2/cmsis_os2.c ****             if (xTaskResumeAll() != pdTRUE) {
 333:Firmware/Middlewares/Third_Party/FreeRTOS/Source/CMSIS_RTOS_V2/cmsis_os2.c ****               if (xTaskGetSchedulerState() != taskSCHEDULER_RUNNING) {
 334:Firmware/Middlewares/Third_Party/FreeRTOS/Source/CMSIS_RTOS_V2/cmsis_os2.c ****                 lock = (int32_t)osError;
 335:Firmware/Middlewares/Third_Party/FreeRTOS/Source/CMSIS_RTOS_V2/cmsis_os2.c ****               }
 336:Firmware/Middlewares/Third_Party/FreeRTOS/Source/CMSIS_RTOS_V2/cmsis_os2.c ****             }
 337:Firmware/Middlewares/Third_Party/FreeRTOS/Source/CMSIS_RTOS_V2/cmsis_os2.c ****           }
 338:Firmware/Middlewares/Third_Party/FreeRTOS/Source/CMSIS_RTOS_V2/cmsis_os2.c ****         }
 339:Firmware/Middlewares/Third_Party/FreeRTOS/Source/CMSIS_RTOS_V2/cmsis_os2.c ****         break;
 833              		.loc 1 339 0
 834 0054 18E0     		b	.L86
 835              	.L81:
 328:Firmware/Middlewares/Third_Party/FreeRTOS/Source/CMSIS_RTOS_V2/cmsis_os2.c ****             lock = (int32_t)osError;
 836              		.loc 1 328 0
ARM GAS  /tmp/ccB5BhZs.s 			page 30


 837 0056 7B68     		ldr	r3, [r7, #4]
 838 0058 002B     		cmp	r3, #0
 839 005a 03D0     		beq	.L83
 329:Firmware/Middlewares/Third_Party/FreeRTOS/Source/CMSIS_RTOS_V2/cmsis_os2.c ****           }
 840              		.loc 1 329 0
 841 005c 4FF0FF33 		mov	r3, #-1
 842 0060 7B60     		str	r3, [r7, #4]
 843              		.loc 1 339 0
 844 0062 11E0     		b	.L86
 845              	.L83:
 332:Firmware/Middlewares/Third_Party/FreeRTOS/Source/CMSIS_RTOS_V2/cmsis_os2.c ****               if (xTaskGetSchedulerState() != taskSCHEDULER_RUNNING) {
 846              		.loc 1 332 0
 847 0064 FFF7FEFF 		bl	xTaskResumeAll
 848 0068 0346     		mov	r3, r0
 849 006a 012B     		cmp	r3, #1
 850 006c 0CD0     		beq	.L86
 333:Firmware/Middlewares/Third_Party/FreeRTOS/Source/CMSIS_RTOS_V2/cmsis_os2.c ****                 lock = (int32_t)osError;
 851              		.loc 1 333 0
 852 006e FFF7FEFF 		bl	xTaskGetSchedulerState
 853 0072 0346     		mov	r3, r0
 854 0074 022B     		cmp	r3, #2
 855 0076 07D0     		beq	.L86
 334:Firmware/Middlewares/Third_Party/FreeRTOS/Source/CMSIS_RTOS_V2/cmsis_os2.c ****               }
 856              		.loc 1 334 0
 857 0078 4FF0FF33 		mov	r3, #-1
 858 007c 7B60     		str	r3, [r7, #4]
 859              		.loc 1 339 0
 860 007e 03E0     		b	.L86
 861              	.L85:
 340:Firmware/Middlewares/Third_Party/FreeRTOS/Source/CMSIS_RTOS_V2/cmsis_os2.c **** 
 341:Firmware/Middlewares/Third_Party/FreeRTOS/Source/CMSIS_RTOS_V2/cmsis_os2.c ****       case taskSCHEDULER_NOT_STARTED:
 342:Firmware/Middlewares/Third_Party/FreeRTOS/Source/CMSIS_RTOS_V2/cmsis_os2.c ****       default:
 343:Firmware/Middlewares/Third_Party/FreeRTOS/Source/CMSIS_RTOS_V2/cmsis_os2.c ****         lock = (int32_t)osError;
 862              		.loc 1 343 0
 863 0080 4FF0FF33 		mov	r3, #-1
 864 0084 7B60     		str	r3, [r7, #4]
 344:Firmware/Middlewares/Third_Party/FreeRTOS/Source/CMSIS_RTOS_V2/cmsis_os2.c ****         break;
 865              		.loc 1 344 0
 866 0086 00E0     		b	.L78
 867              	.L86:
 339:Firmware/Middlewares/Third_Party/FreeRTOS/Source/CMSIS_RTOS_V2/cmsis_os2.c **** 
 868              		.loc 1 339 0
 869 0088 00BF     		nop
 870              	.L78:
 345:Firmware/Middlewares/Third_Party/FreeRTOS/Source/CMSIS_RTOS_V2/cmsis_os2.c ****     }
 346:Firmware/Middlewares/Third_Party/FreeRTOS/Source/CMSIS_RTOS_V2/cmsis_os2.c ****   }
 347:Firmware/Middlewares/Third_Party/FreeRTOS/Source/CMSIS_RTOS_V2/cmsis_os2.c **** 
 348:Firmware/Middlewares/Third_Party/FreeRTOS/Source/CMSIS_RTOS_V2/cmsis_os2.c ****   return (lock);
 871              		.loc 1 348 0
 872 008a 7B68     		ldr	r3, [r7, #4]
 349:Firmware/Middlewares/Third_Party/FreeRTOS/Source/CMSIS_RTOS_V2/cmsis_os2.c **** }
 873              		.loc 1 349 0
 874 008c 1846     		mov	r0, r3
 875 008e 1837     		adds	r7, r7, #24
 876              	.LCFI34:
 877              		.cfi_def_cfa_offset 8
 878 0090 BD46     		mov	sp, r7
ARM GAS  /tmp/ccB5BhZs.s 			page 31


 879              	.LCFI35:
 880              		.cfi_def_cfa_register 13
 881              		@ sp needed
 882 0092 80BD     		pop	{r7, pc}
 883              	.L88:
 884              		.align	2
 885              	.L87:
 886 0094 00000000 		.word	KernelState
 887              		.cfi_endproc
 888              	.LFE112:
 890              		.section	.text.osKernelGetTickCount,"ax",%progbits
 891              		.align	1
 892              		.global	osKernelGetTickCount
 893              		.syntax unified
 894              		.thumb
 895              		.thumb_func
 896              		.fpu fpv4-sp-d16
 898              	osKernelGetTickCount:
 899              	.LFB113:
 350:Firmware/Middlewares/Third_Party/FreeRTOS/Source/CMSIS_RTOS_V2/cmsis_os2.c **** 
 351:Firmware/Middlewares/Third_Party/FreeRTOS/Source/CMSIS_RTOS_V2/cmsis_os2.c **** uint32_t osKernelGetTickCount (void) {
 900              		.loc 1 351 0
 901              		.cfi_startproc
 902              		@ args = 0, pretend = 0, frame = 16
 903              		@ frame_needed = 1, uses_anonymous_args = 0
 904 0000 80B5     		push	{r7, lr}
 905              	.LCFI36:
 906              		.cfi_def_cfa_offset 8
 907              		.cfi_offset 7, -8
 908              		.cfi_offset 14, -4
 909 0002 84B0     		sub	sp, sp, #16
 910              	.LCFI37:
 911              		.cfi_def_cfa_offset 24
 912 0004 00AF     		add	r7, sp, #0
 913              	.LCFI38:
 914              		.cfi_def_cfa_register 7
 915              	.LBB364:
 916              	.LBB365:
 209:Firmware/Drivers/CMSIS/Include/cmsis_gcc.h ****   return(result);
 917              		.loc 2 209 0
 918              		.syntax unified
 919              	@ 209 "Firmware/Drivers/CMSIS/Include/cmsis_gcc.h" 1
 920 0006 EFF30583 		MRS r3, ipsr
 921              	@ 0 "" 2
 922              		.thumb
 923              		.syntax unified
 924 000a BB60     		str	r3, [r7, #8]
 210:Firmware/Drivers/CMSIS/Include/cmsis_gcc.h **** }
 925              		.loc 2 210 0
 926 000c BB68     		ldr	r3, [r7, #8]
 927              	.LBE365:
 928              	.LBE364:
 352:Firmware/Middlewares/Third_Party/FreeRTOS/Source/CMSIS_RTOS_V2/cmsis_os2.c ****   TickType_t ticks;
 353:Firmware/Middlewares/Third_Party/FreeRTOS/Source/CMSIS_RTOS_V2/cmsis_os2.c **** 
 354:Firmware/Middlewares/Third_Party/FreeRTOS/Source/CMSIS_RTOS_V2/cmsis_os2.c ****   if (IS_IRQ()) {
 929              		.loc 1 354 0
 930 000e 002B     		cmp	r3, #0
ARM GAS  /tmp/ccB5BhZs.s 			page 32


 931 0010 0FD1     		bne	.L91
 932              	.LBB366:
 933              	.LBB367:
 386:Firmware/Drivers/CMSIS/Include/cmsis_gcc.h ****   return(result);
 934              		.loc 2 386 0 discriminator 1
 935              		.syntax unified
 936              	@ 386 "Firmware/Drivers/CMSIS/Include/cmsis_gcc.h" 1
 937 0012 EFF31083 		MRS r3, primask
 938              	@ 0 "" 2
 939              		.thumb
 940              		.syntax unified
 941 0016 7B60     		str	r3, [r7, #4]
 387:Firmware/Drivers/CMSIS/Include/cmsis_gcc.h **** }
 942              		.loc 2 387 0 discriminator 1
 943 0018 7B68     		ldr	r3, [r7, #4]
 944              	.LBE367:
 945              	.LBE366:
 946              		.loc 1 354 0 discriminator 1
 947 001a 002B     		cmp	r3, #0
 948 001c 09D1     		bne	.L91
 949              		.loc 1 354 0 is_stmt 0 discriminator 2
 950 001e 0B4B     		ldr	r3, .L97
 951 0020 1B68     		ldr	r3, [r3]
 952 0022 022B     		cmp	r3, #2
 953 0024 09D1     		bne	.L93
 954              	.LBB368:
 955              	.LBB369:
 465:Firmware/Drivers/CMSIS/Include/cmsis_gcc.h ****   return(result);
 956              		.loc 2 465 0 is_stmt 1 discriminator 3
 957              		.syntax unified
 958              	@ 465 "Firmware/Drivers/CMSIS/Include/cmsis_gcc.h" 1
 959 0026 EFF31183 		MRS r3, basepri
 960              	@ 0 "" 2
 961              		.thumb
 962              		.syntax unified
 963 002a 3B60     		str	r3, [r7]
 964              		.loc 2 466 0 discriminator 3
 965 002c 3B68     		ldr	r3, [r7]
 966              	.LBE369:
 967              	.LBE368:
 968              		.loc 1 354 0 discriminator 3
 969 002e 002B     		cmp	r3, #0
 970 0030 03D0     		beq	.L93
 971              	.L91:
 355:Firmware/Middlewares/Third_Party/FreeRTOS/Source/CMSIS_RTOS_V2/cmsis_os2.c ****     ticks = xTaskGetTickCountFromISR();
 972              		.loc 1 355 0
 973 0032 FFF7FEFF 		bl	xTaskGetTickCountFromISR
 974 0036 F860     		str	r0, [r7, #12]
 975 0038 02E0     		b	.L95
 976              	.L93:
 356:Firmware/Middlewares/Third_Party/FreeRTOS/Source/CMSIS_RTOS_V2/cmsis_os2.c ****   } else {
 357:Firmware/Middlewares/Third_Party/FreeRTOS/Source/CMSIS_RTOS_V2/cmsis_os2.c ****     ticks = xTaskGetTickCount();
 977              		.loc 1 357 0
 978 003a FFF7FEFF 		bl	xTaskGetTickCount
 979 003e F860     		str	r0, [r7, #12]
 980              	.L95:
 358:Firmware/Middlewares/Third_Party/FreeRTOS/Source/CMSIS_RTOS_V2/cmsis_os2.c ****   }
ARM GAS  /tmp/ccB5BhZs.s 			page 33


 359:Firmware/Middlewares/Third_Party/FreeRTOS/Source/CMSIS_RTOS_V2/cmsis_os2.c **** 
 360:Firmware/Middlewares/Third_Party/FreeRTOS/Source/CMSIS_RTOS_V2/cmsis_os2.c ****   return (ticks);
 981              		.loc 1 360 0
 982 0040 FB68     		ldr	r3, [r7, #12]
 361:Firmware/Middlewares/Third_Party/FreeRTOS/Source/CMSIS_RTOS_V2/cmsis_os2.c **** }
 983              		.loc 1 361 0
 984 0042 1846     		mov	r0, r3
 985 0044 1037     		adds	r7, r7, #16
 986              	.LCFI39:
 987              		.cfi_def_cfa_offset 8
 988 0046 BD46     		mov	sp, r7
 989              	.LCFI40:
 990              		.cfi_def_cfa_register 13
 991              		@ sp needed
 992 0048 80BD     		pop	{r7, pc}
 993              	.L98:
 994 004a 00BF     		.align	2
 995              	.L97:
 996 004c 00000000 		.word	KernelState
 997              		.cfi_endproc
 998              	.LFE113:
 1000              		.section	.text.osKernelGetTickFreq,"ax",%progbits
 1001              		.align	1
 1002              		.global	osKernelGetTickFreq
 1003              		.syntax unified
 1004              		.thumb
 1005              		.thumb_func
 1006              		.fpu fpv4-sp-d16
 1008              	osKernelGetTickFreq:
 1009              	.LFB114:
 362:Firmware/Middlewares/Third_Party/FreeRTOS/Source/CMSIS_RTOS_V2/cmsis_os2.c **** 
 363:Firmware/Middlewares/Third_Party/FreeRTOS/Source/CMSIS_RTOS_V2/cmsis_os2.c **** uint32_t osKernelGetTickFreq (void) {
 1010              		.loc 1 363 0
 1011              		.cfi_startproc
 1012              		@ args = 0, pretend = 0, frame = 0
 1013              		@ frame_needed = 1, uses_anonymous_args = 0
 1014              		@ link register save eliminated.
 1015 0000 80B4     		push	{r7}
 1016              	.LCFI41:
 1017              		.cfi_def_cfa_offset 4
 1018              		.cfi_offset 7, -4
 1019 0002 00AF     		add	r7, sp, #0
 1020              	.LCFI42:
 1021              		.cfi_def_cfa_register 7
 364:Firmware/Middlewares/Third_Party/FreeRTOS/Source/CMSIS_RTOS_V2/cmsis_os2.c ****   return (configTICK_RATE_HZ);
 1022              		.loc 1 364 0
 1023 0004 4FF47A73 		mov	r3, #1000
 365:Firmware/Middlewares/Third_Party/FreeRTOS/Source/CMSIS_RTOS_V2/cmsis_os2.c **** }
 1024              		.loc 1 365 0
 1025 0008 1846     		mov	r0, r3
 1026 000a BD46     		mov	sp, r7
 1027              	.LCFI43:
 1028              		.cfi_def_cfa_register 13
 1029              		@ sp needed
 1030 000c 5DF8047B 		ldr	r7, [sp], #4
 1031              	.LCFI44:
 1032              		.cfi_restore 7
ARM GAS  /tmp/ccB5BhZs.s 			page 34


 1033              		.cfi_def_cfa_offset 0
 1034 0010 7047     		bx	lr
 1035              		.cfi_endproc
 1036              	.LFE114:
 1038              		.section	.text.osKernelGetSysTimerCount,"ax",%progbits
 1039              		.align	1
 1040              		.global	osKernelGetSysTimerCount
 1041              		.syntax unified
 1042              		.thumb
 1043              		.thumb_func
 1044              		.fpu fpv4-sp-d16
 1046              	osKernelGetSysTimerCount:
 1047              	.LFB115:
 366:Firmware/Middlewares/Third_Party/FreeRTOS/Source/CMSIS_RTOS_V2/cmsis_os2.c **** 
 367:Firmware/Middlewares/Third_Party/FreeRTOS/Source/CMSIS_RTOS_V2/cmsis_os2.c **** uint32_t osKernelGetSysTimerCount (void) {
 1048              		.loc 1 367 0
 1049              		.cfi_startproc
 1050              		@ args = 0, pretend = 0, frame = 16
 1051              		@ frame_needed = 1, uses_anonymous_args = 0
 1052 0000 80B5     		push	{r7, lr}
 1053              	.LCFI45:
 1054              		.cfi_def_cfa_offset 8
 1055              		.cfi_offset 7, -8
 1056              		.cfi_offset 14, -4
 1057 0002 84B0     		sub	sp, sp, #16
 1058              	.LCFI46:
 1059              		.cfi_def_cfa_offset 24
 1060 0004 00AF     		add	r7, sp, #0
 1061              	.LCFI47:
 1062              		.cfi_def_cfa_register 7
 1063              	.LBB370:
 1064              	.LBB371:
 1065              		.file 3 "Firmware/Middlewares/Third_Party/FreeRTOS/Source/portable/GCC/ARM_CM4F/portmacro.h"
   1:Firmware/Middlewares/Third_Party/FreeRTOS/Source/portable/GCC/ARM_CM4F/portmacro.h **** /*
   2:Firmware/Middlewares/Third_Party/FreeRTOS/Source/portable/GCC/ARM_CM4F/portmacro.h ****  * FreeRTOS Kernel V10.0.1
   3:Firmware/Middlewares/Third_Party/FreeRTOS/Source/portable/GCC/ARM_CM4F/portmacro.h ****  * Copyright (C) 2017 Amazon.com, Inc. or its affiliates.  All Rights Reserved.
   4:Firmware/Middlewares/Third_Party/FreeRTOS/Source/portable/GCC/ARM_CM4F/portmacro.h ****  *
   5:Firmware/Middlewares/Third_Party/FreeRTOS/Source/portable/GCC/ARM_CM4F/portmacro.h ****  * Permission is hereby granted, free of charge, to any person obtaining a copy of
   6:Firmware/Middlewares/Third_Party/FreeRTOS/Source/portable/GCC/ARM_CM4F/portmacro.h ****  * this software and associated documentation files (the "Software"), to deal in
   7:Firmware/Middlewares/Third_Party/FreeRTOS/Source/portable/GCC/ARM_CM4F/portmacro.h ****  * the Software without restriction, including without limitation the rights to
   8:Firmware/Middlewares/Third_Party/FreeRTOS/Source/portable/GCC/ARM_CM4F/portmacro.h ****  * use, copy, modify, merge, publish, distribute, sublicense, and/or sell copies of
   9:Firmware/Middlewares/Third_Party/FreeRTOS/Source/portable/GCC/ARM_CM4F/portmacro.h ****  * the Software, and to permit persons to whom the Software is furnished to do so,
  10:Firmware/Middlewares/Third_Party/FreeRTOS/Source/portable/GCC/ARM_CM4F/portmacro.h ****  * subject to the following conditions:
  11:Firmware/Middlewares/Third_Party/FreeRTOS/Source/portable/GCC/ARM_CM4F/portmacro.h ****  *
  12:Firmware/Middlewares/Third_Party/FreeRTOS/Source/portable/GCC/ARM_CM4F/portmacro.h ****  * The above copyright notice and this permission notice shall be included in all
  13:Firmware/Middlewares/Third_Party/FreeRTOS/Source/portable/GCC/ARM_CM4F/portmacro.h ****  * copies or substantial portions of the Software.
  14:Firmware/Middlewares/Third_Party/FreeRTOS/Source/portable/GCC/ARM_CM4F/portmacro.h ****  *
  15:Firmware/Middlewares/Third_Party/FreeRTOS/Source/portable/GCC/ARM_CM4F/portmacro.h ****  * THE SOFTWARE IS PROVIDED "AS IS", WITHOUT WARRANTY OF ANY KIND, EXPRESS OR
  16:Firmware/Middlewares/Third_Party/FreeRTOS/Source/portable/GCC/ARM_CM4F/portmacro.h ****  * IMPLIED, INCLUDING BUT NOT LIMITED TO THE WARRANTIES OF MERCHANTABILITY, FITNESS
  17:Firmware/Middlewares/Third_Party/FreeRTOS/Source/portable/GCC/ARM_CM4F/portmacro.h ****  * FOR A PARTICULAR PURPOSE AND NONINFRINGEMENT. IN NO EVENT SHALL THE AUTHORS OR
  18:Firmware/Middlewares/Third_Party/FreeRTOS/Source/portable/GCC/ARM_CM4F/portmacro.h ****  * COPYRIGHT HOLDERS BE LIABLE FOR ANY CLAIM, DAMAGES OR OTHER LIABILITY, WHETHER
  19:Firmware/Middlewares/Third_Party/FreeRTOS/Source/portable/GCC/ARM_CM4F/portmacro.h ****  * IN AN ACTION OF CONTRACT, TORT OR OTHERWISE, ARISING FROM, OUT OF OR IN
  20:Firmware/Middlewares/Third_Party/FreeRTOS/Source/portable/GCC/ARM_CM4F/portmacro.h ****  * CONNECTION WITH THE SOFTWARE OR THE USE OR OTHER DEALINGS IN THE SOFTWARE.
  21:Firmware/Middlewares/Third_Party/FreeRTOS/Source/portable/GCC/ARM_CM4F/portmacro.h ****  *
  22:Firmware/Middlewares/Third_Party/FreeRTOS/Source/portable/GCC/ARM_CM4F/portmacro.h ****  * http://www.FreeRTOS.org
  23:Firmware/Middlewares/Third_Party/FreeRTOS/Source/portable/GCC/ARM_CM4F/portmacro.h ****  * http://aws.amazon.com/freertos
  24:Firmware/Middlewares/Third_Party/FreeRTOS/Source/portable/GCC/ARM_CM4F/portmacro.h ****  *
ARM GAS  /tmp/ccB5BhZs.s 			page 35


  25:Firmware/Middlewares/Third_Party/FreeRTOS/Source/portable/GCC/ARM_CM4F/portmacro.h ****  * 1 tab == 4 spaces!
  26:Firmware/Middlewares/Third_Party/FreeRTOS/Source/portable/GCC/ARM_CM4F/portmacro.h ****  */
  27:Firmware/Middlewares/Third_Party/FreeRTOS/Source/portable/GCC/ARM_CM4F/portmacro.h **** 
  28:Firmware/Middlewares/Third_Party/FreeRTOS/Source/portable/GCC/ARM_CM4F/portmacro.h **** 
  29:Firmware/Middlewares/Third_Party/FreeRTOS/Source/portable/GCC/ARM_CM4F/portmacro.h **** #ifndef PORTMACRO_H
  30:Firmware/Middlewares/Third_Party/FreeRTOS/Source/portable/GCC/ARM_CM4F/portmacro.h **** #define PORTMACRO_H
  31:Firmware/Middlewares/Third_Party/FreeRTOS/Source/portable/GCC/ARM_CM4F/portmacro.h **** 
  32:Firmware/Middlewares/Third_Party/FreeRTOS/Source/portable/GCC/ARM_CM4F/portmacro.h **** #ifdef __cplusplus
  33:Firmware/Middlewares/Third_Party/FreeRTOS/Source/portable/GCC/ARM_CM4F/portmacro.h **** extern "C" {
  34:Firmware/Middlewares/Third_Party/FreeRTOS/Source/portable/GCC/ARM_CM4F/portmacro.h **** #endif
  35:Firmware/Middlewares/Third_Party/FreeRTOS/Source/portable/GCC/ARM_CM4F/portmacro.h **** 
  36:Firmware/Middlewares/Third_Party/FreeRTOS/Source/portable/GCC/ARM_CM4F/portmacro.h **** /*-----------------------------------------------------------
  37:Firmware/Middlewares/Third_Party/FreeRTOS/Source/portable/GCC/ARM_CM4F/portmacro.h ****  * Port specific definitions.
  38:Firmware/Middlewares/Third_Party/FreeRTOS/Source/portable/GCC/ARM_CM4F/portmacro.h ****  *
  39:Firmware/Middlewares/Third_Party/FreeRTOS/Source/portable/GCC/ARM_CM4F/portmacro.h ****  * The settings in this file configure FreeRTOS correctly for the
  40:Firmware/Middlewares/Third_Party/FreeRTOS/Source/portable/GCC/ARM_CM4F/portmacro.h ****  * given hardware and compiler.
  41:Firmware/Middlewares/Third_Party/FreeRTOS/Source/portable/GCC/ARM_CM4F/portmacro.h ****  *
  42:Firmware/Middlewares/Third_Party/FreeRTOS/Source/portable/GCC/ARM_CM4F/portmacro.h ****  * These settings should not be altered.
  43:Firmware/Middlewares/Third_Party/FreeRTOS/Source/portable/GCC/ARM_CM4F/portmacro.h ****  *-----------------------------------------------------------
  44:Firmware/Middlewares/Third_Party/FreeRTOS/Source/portable/GCC/ARM_CM4F/portmacro.h ****  */
  45:Firmware/Middlewares/Third_Party/FreeRTOS/Source/portable/GCC/ARM_CM4F/portmacro.h **** 
  46:Firmware/Middlewares/Third_Party/FreeRTOS/Source/portable/GCC/ARM_CM4F/portmacro.h **** /* Type definitions. */
  47:Firmware/Middlewares/Third_Party/FreeRTOS/Source/portable/GCC/ARM_CM4F/portmacro.h **** #define portCHAR		char
  48:Firmware/Middlewares/Third_Party/FreeRTOS/Source/portable/GCC/ARM_CM4F/portmacro.h **** #define portFLOAT		float
  49:Firmware/Middlewares/Third_Party/FreeRTOS/Source/portable/GCC/ARM_CM4F/portmacro.h **** #define portDOUBLE		double
  50:Firmware/Middlewares/Third_Party/FreeRTOS/Source/portable/GCC/ARM_CM4F/portmacro.h **** #define portLONG		long
  51:Firmware/Middlewares/Third_Party/FreeRTOS/Source/portable/GCC/ARM_CM4F/portmacro.h **** #define portSHORT		short
  52:Firmware/Middlewares/Third_Party/FreeRTOS/Source/portable/GCC/ARM_CM4F/portmacro.h **** #define portSTACK_TYPE	uint32_t
  53:Firmware/Middlewares/Third_Party/FreeRTOS/Source/portable/GCC/ARM_CM4F/portmacro.h **** #define portBASE_TYPE	long
  54:Firmware/Middlewares/Third_Party/FreeRTOS/Source/portable/GCC/ARM_CM4F/portmacro.h **** 
  55:Firmware/Middlewares/Third_Party/FreeRTOS/Source/portable/GCC/ARM_CM4F/portmacro.h **** typedef portSTACK_TYPE StackType_t;
  56:Firmware/Middlewares/Third_Party/FreeRTOS/Source/portable/GCC/ARM_CM4F/portmacro.h **** typedef long BaseType_t;
  57:Firmware/Middlewares/Third_Party/FreeRTOS/Source/portable/GCC/ARM_CM4F/portmacro.h **** typedef unsigned long UBaseType_t;
  58:Firmware/Middlewares/Third_Party/FreeRTOS/Source/portable/GCC/ARM_CM4F/portmacro.h **** 
  59:Firmware/Middlewares/Third_Party/FreeRTOS/Source/portable/GCC/ARM_CM4F/portmacro.h **** #if( configUSE_16_BIT_TICKS == 1 )
  60:Firmware/Middlewares/Third_Party/FreeRTOS/Source/portable/GCC/ARM_CM4F/portmacro.h **** 	typedef uint16_t TickType_t;
  61:Firmware/Middlewares/Third_Party/FreeRTOS/Source/portable/GCC/ARM_CM4F/portmacro.h **** 	#define portMAX_DELAY ( TickType_t ) 0xffff
  62:Firmware/Middlewares/Third_Party/FreeRTOS/Source/portable/GCC/ARM_CM4F/portmacro.h **** #else
  63:Firmware/Middlewares/Third_Party/FreeRTOS/Source/portable/GCC/ARM_CM4F/portmacro.h **** 	typedef uint32_t TickType_t;
  64:Firmware/Middlewares/Third_Party/FreeRTOS/Source/portable/GCC/ARM_CM4F/portmacro.h **** 	#define portMAX_DELAY ( TickType_t ) 0xffffffffUL
  65:Firmware/Middlewares/Third_Party/FreeRTOS/Source/portable/GCC/ARM_CM4F/portmacro.h **** 
  66:Firmware/Middlewares/Third_Party/FreeRTOS/Source/portable/GCC/ARM_CM4F/portmacro.h **** 	/* 32-bit tick type on a 32-bit architecture, so reads of the tick count do
  67:Firmware/Middlewares/Third_Party/FreeRTOS/Source/portable/GCC/ARM_CM4F/portmacro.h **** 	not need to be guarded with a critical section. */
  68:Firmware/Middlewares/Third_Party/FreeRTOS/Source/portable/GCC/ARM_CM4F/portmacro.h **** 	#define portTICK_TYPE_IS_ATOMIC 1
  69:Firmware/Middlewares/Third_Party/FreeRTOS/Source/portable/GCC/ARM_CM4F/portmacro.h **** #endif
  70:Firmware/Middlewares/Third_Party/FreeRTOS/Source/portable/GCC/ARM_CM4F/portmacro.h **** /*-----------------------------------------------------------*/
  71:Firmware/Middlewares/Third_Party/FreeRTOS/Source/portable/GCC/ARM_CM4F/portmacro.h **** 
  72:Firmware/Middlewares/Third_Party/FreeRTOS/Source/portable/GCC/ARM_CM4F/portmacro.h **** /* Architecture specifics. */
  73:Firmware/Middlewares/Third_Party/FreeRTOS/Source/portable/GCC/ARM_CM4F/portmacro.h **** #define portSTACK_GROWTH			( -1 )
  74:Firmware/Middlewares/Third_Party/FreeRTOS/Source/portable/GCC/ARM_CM4F/portmacro.h **** #define portTICK_PERIOD_MS			( ( TickType_t ) 1000 / configTICK_RATE_HZ )
  75:Firmware/Middlewares/Third_Party/FreeRTOS/Source/portable/GCC/ARM_CM4F/portmacro.h **** #define portBYTE_ALIGNMENT			8
  76:Firmware/Middlewares/Third_Party/FreeRTOS/Source/portable/GCC/ARM_CM4F/portmacro.h **** /*-----------------------------------------------------------*/
  77:Firmware/Middlewares/Third_Party/FreeRTOS/Source/portable/GCC/ARM_CM4F/portmacro.h **** 
  78:Firmware/Middlewares/Third_Party/FreeRTOS/Source/portable/GCC/ARM_CM4F/portmacro.h **** /* Scheduler utilities. */
  79:Firmware/Middlewares/Third_Party/FreeRTOS/Source/portable/GCC/ARM_CM4F/portmacro.h **** #define portYIELD() 															\
  80:Firmware/Middlewares/Third_Party/FreeRTOS/Source/portable/GCC/ARM_CM4F/portmacro.h **** {																				\
  81:Firmware/Middlewares/Third_Party/FreeRTOS/Source/portable/GCC/ARM_CM4F/portmacro.h **** 	/* Set a PendSV to request a context switch. */								\
ARM GAS  /tmp/ccB5BhZs.s 			page 36


  82:Firmware/Middlewares/Third_Party/FreeRTOS/Source/portable/GCC/ARM_CM4F/portmacro.h **** 	portNVIC_INT_CTRL_REG = portNVIC_PENDSVSET_BIT;								\
  83:Firmware/Middlewares/Third_Party/FreeRTOS/Source/portable/GCC/ARM_CM4F/portmacro.h **** 																				\
  84:Firmware/Middlewares/Third_Party/FreeRTOS/Source/portable/GCC/ARM_CM4F/portmacro.h **** 	/* Barriers are normally not required but do ensure the code is completely	\
  85:Firmware/Middlewares/Third_Party/FreeRTOS/Source/portable/GCC/ARM_CM4F/portmacro.h **** 	within the specified behaviour for the architecture. */						\
  86:Firmware/Middlewares/Third_Party/FreeRTOS/Source/portable/GCC/ARM_CM4F/portmacro.h **** 	__asm volatile( "dsb" ::: "memory" );										\
  87:Firmware/Middlewares/Third_Party/FreeRTOS/Source/portable/GCC/ARM_CM4F/portmacro.h **** 	__asm volatile( "isb" );													\
  88:Firmware/Middlewares/Third_Party/FreeRTOS/Source/portable/GCC/ARM_CM4F/portmacro.h **** }
  89:Firmware/Middlewares/Third_Party/FreeRTOS/Source/portable/GCC/ARM_CM4F/portmacro.h **** 
  90:Firmware/Middlewares/Third_Party/FreeRTOS/Source/portable/GCC/ARM_CM4F/portmacro.h **** #define portNVIC_INT_CTRL_REG		( * ( ( volatile uint32_t * ) 0xe000ed04 ) )
  91:Firmware/Middlewares/Third_Party/FreeRTOS/Source/portable/GCC/ARM_CM4F/portmacro.h **** #define portNVIC_PENDSVSET_BIT		( 1UL << 28UL )
  92:Firmware/Middlewares/Third_Party/FreeRTOS/Source/portable/GCC/ARM_CM4F/portmacro.h **** #define portEND_SWITCHING_ISR( xSwitchRequired ) if( xSwitchRequired != pdFALSE ) portYIELD()
  93:Firmware/Middlewares/Third_Party/FreeRTOS/Source/portable/GCC/ARM_CM4F/portmacro.h **** #define portYIELD_FROM_ISR( x ) portEND_SWITCHING_ISR( x )
  94:Firmware/Middlewares/Third_Party/FreeRTOS/Source/portable/GCC/ARM_CM4F/portmacro.h **** /*-----------------------------------------------------------*/
  95:Firmware/Middlewares/Third_Party/FreeRTOS/Source/portable/GCC/ARM_CM4F/portmacro.h **** 
  96:Firmware/Middlewares/Third_Party/FreeRTOS/Source/portable/GCC/ARM_CM4F/portmacro.h **** /* Critical section management. */
  97:Firmware/Middlewares/Third_Party/FreeRTOS/Source/portable/GCC/ARM_CM4F/portmacro.h **** extern void vPortEnterCritical( void );
  98:Firmware/Middlewares/Third_Party/FreeRTOS/Source/portable/GCC/ARM_CM4F/portmacro.h **** extern void vPortExitCritical( void );
  99:Firmware/Middlewares/Third_Party/FreeRTOS/Source/portable/GCC/ARM_CM4F/portmacro.h **** #define portSET_INTERRUPT_MASK_FROM_ISR()		ulPortRaiseBASEPRI()
 100:Firmware/Middlewares/Third_Party/FreeRTOS/Source/portable/GCC/ARM_CM4F/portmacro.h **** #define portCLEAR_INTERRUPT_MASK_FROM_ISR(x)	vPortSetBASEPRI(x)
 101:Firmware/Middlewares/Third_Party/FreeRTOS/Source/portable/GCC/ARM_CM4F/portmacro.h **** #define portDISABLE_INTERRUPTS()				vPortRaiseBASEPRI()
 102:Firmware/Middlewares/Third_Party/FreeRTOS/Source/portable/GCC/ARM_CM4F/portmacro.h **** #define portENABLE_INTERRUPTS()					vPortSetBASEPRI(0)
 103:Firmware/Middlewares/Third_Party/FreeRTOS/Source/portable/GCC/ARM_CM4F/portmacro.h **** #define portENTER_CRITICAL()					vPortEnterCritical()
 104:Firmware/Middlewares/Third_Party/FreeRTOS/Source/portable/GCC/ARM_CM4F/portmacro.h **** #define portEXIT_CRITICAL()						vPortExitCritical()
 105:Firmware/Middlewares/Third_Party/FreeRTOS/Source/portable/GCC/ARM_CM4F/portmacro.h **** 
 106:Firmware/Middlewares/Third_Party/FreeRTOS/Source/portable/GCC/ARM_CM4F/portmacro.h **** /*-----------------------------------------------------------*/
 107:Firmware/Middlewares/Third_Party/FreeRTOS/Source/portable/GCC/ARM_CM4F/portmacro.h **** 
 108:Firmware/Middlewares/Third_Party/FreeRTOS/Source/portable/GCC/ARM_CM4F/portmacro.h **** /* Task function macros as described on the FreeRTOS.org WEB site.  These are
 109:Firmware/Middlewares/Third_Party/FreeRTOS/Source/portable/GCC/ARM_CM4F/portmacro.h **** not necessary for to use this port.  They are defined so the common demo files
 110:Firmware/Middlewares/Third_Party/FreeRTOS/Source/portable/GCC/ARM_CM4F/portmacro.h **** (which build with all the ports) will build. */
 111:Firmware/Middlewares/Third_Party/FreeRTOS/Source/portable/GCC/ARM_CM4F/portmacro.h **** #define portTASK_FUNCTION_PROTO( vFunction, pvParameters ) void vFunction( void *pvParameters )
 112:Firmware/Middlewares/Third_Party/FreeRTOS/Source/portable/GCC/ARM_CM4F/portmacro.h **** #define portTASK_FUNCTION( vFunction, pvParameters ) void vFunction( void *pvParameters )
 113:Firmware/Middlewares/Third_Party/FreeRTOS/Source/portable/GCC/ARM_CM4F/portmacro.h **** /*-----------------------------------------------------------*/
 114:Firmware/Middlewares/Third_Party/FreeRTOS/Source/portable/GCC/ARM_CM4F/portmacro.h **** 
 115:Firmware/Middlewares/Third_Party/FreeRTOS/Source/portable/GCC/ARM_CM4F/portmacro.h **** /* Tickless idle/low power functionality. */
 116:Firmware/Middlewares/Third_Party/FreeRTOS/Source/portable/GCC/ARM_CM4F/portmacro.h **** #ifndef portSUPPRESS_TICKS_AND_SLEEP
 117:Firmware/Middlewares/Third_Party/FreeRTOS/Source/portable/GCC/ARM_CM4F/portmacro.h **** 	extern void vPortSuppressTicksAndSleep( TickType_t xExpectedIdleTime );
 118:Firmware/Middlewares/Third_Party/FreeRTOS/Source/portable/GCC/ARM_CM4F/portmacro.h **** 	#define portSUPPRESS_TICKS_AND_SLEEP( xExpectedIdleTime ) vPortSuppressTicksAndSleep( xExpectedIdl
 119:Firmware/Middlewares/Third_Party/FreeRTOS/Source/portable/GCC/ARM_CM4F/portmacro.h **** #endif
 120:Firmware/Middlewares/Third_Party/FreeRTOS/Source/portable/GCC/ARM_CM4F/portmacro.h **** /*-----------------------------------------------------------*/
 121:Firmware/Middlewares/Third_Party/FreeRTOS/Source/portable/GCC/ARM_CM4F/portmacro.h **** 
 122:Firmware/Middlewares/Third_Party/FreeRTOS/Source/portable/GCC/ARM_CM4F/portmacro.h **** /* Architecture specific optimisations. */
 123:Firmware/Middlewares/Third_Party/FreeRTOS/Source/portable/GCC/ARM_CM4F/portmacro.h **** #ifndef configUSE_PORT_OPTIMISED_TASK_SELECTION
 124:Firmware/Middlewares/Third_Party/FreeRTOS/Source/portable/GCC/ARM_CM4F/portmacro.h **** 	#define configUSE_PORT_OPTIMISED_TASK_SELECTION 1
 125:Firmware/Middlewares/Third_Party/FreeRTOS/Source/portable/GCC/ARM_CM4F/portmacro.h **** #endif
 126:Firmware/Middlewares/Third_Party/FreeRTOS/Source/portable/GCC/ARM_CM4F/portmacro.h **** 
 127:Firmware/Middlewares/Third_Party/FreeRTOS/Source/portable/GCC/ARM_CM4F/portmacro.h **** #if configUSE_PORT_OPTIMISED_TASK_SELECTION == 1
 128:Firmware/Middlewares/Third_Party/FreeRTOS/Source/portable/GCC/ARM_CM4F/portmacro.h **** 
 129:Firmware/Middlewares/Third_Party/FreeRTOS/Source/portable/GCC/ARM_CM4F/portmacro.h **** 	/* Generic helper function. */
 130:Firmware/Middlewares/Third_Party/FreeRTOS/Source/portable/GCC/ARM_CM4F/portmacro.h **** 	__attribute__( ( always_inline ) ) static inline uint8_t ucPortCountLeadingZeros( uint32_t ulBitma
 131:Firmware/Middlewares/Third_Party/FreeRTOS/Source/portable/GCC/ARM_CM4F/portmacro.h **** 	{
 132:Firmware/Middlewares/Third_Party/FreeRTOS/Source/portable/GCC/ARM_CM4F/portmacro.h **** 	uint8_t ucReturn;
 133:Firmware/Middlewares/Third_Party/FreeRTOS/Source/portable/GCC/ARM_CM4F/portmacro.h **** 
 134:Firmware/Middlewares/Third_Party/FreeRTOS/Source/portable/GCC/ARM_CM4F/portmacro.h **** 		__asm volatile ( "clz %0, %1" : "=r" ( ucReturn ) : "r" ( ulBitmap ) : "memory" );
 135:Firmware/Middlewares/Third_Party/FreeRTOS/Source/portable/GCC/ARM_CM4F/portmacro.h **** 		return ucReturn;
 136:Firmware/Middlewares/Third_Party/FreeRTOS/Source/portable/GCC/ARM_CM4F/portmacro.h **** 	}
 137:Firmware/Middlewares/Third_Party/FreeRTOS/Source/portable/GCC/ARM_CM4F/portmacro.h **** 
 138:Firmware/Middlewares/Third_Party/FreeRTOS/Source/portable/GCC/ARM_CM4F/portmacro.h **** 	/* Check the configuration. */
ARM GAS  /tmp/ccB5BhZs.s 			page 37


 139:Firmware/Middlewares/Third_Party/FreeRTOS/Source/portable/GCC/ARM_CM4F/portmacro.h **** 	#if( configMAX_PRIORITIES > 32 )
 140:Firmware/Middlewares/Third_Party/FreeRTOS/Source/portable/GCC/ARM_CM4F/portmacro.h **** 		#error configUSE_PORT_OPTIMISED_TASK_SELECTION can only be set to 1 when configMAX_PRIORITIES is 
 141:Firmware/Middlewares/Third_Party/FreeRTOS/Source/portable/GCC/ARM_CM4F/portmacro.h **** 	#endif
 142:Firmware/Middlewares/Third_Party/FreeRTOS/Source/portable/GCC/ARM_CM4F/portmacro.h **** 
 143:Firmware/Middlewares/Third_Party/FreeRTOS/Source/portable/GCC/ARM_CM4F/portmacro.h **** 	/* Store/clear the ready priorities in a bit map. */
 144:Firmware/Middlewares/Third_Party/FreeRTOS/Source/portable/GCC/ARM_CM4F/portmacro.h **** 	#define portRECORD_READY_PRIORITY( uxPriority, uxReadyPriorities ) ( uxReadyPriorities ) |= ( 1UL 
 145:Firmware/Middlewares/Third_Party/FreeRTOS/Source/portable/GCC/ARM_CM4F/portmacro.h **** 	#define portRESET_READY_PRIORITY( uxPriority, uxReadyPriorities ) ( uxReadyPriorities ) &= ~( 1UL 
 146:Firmware/Middlewares/Third_Party/FreeRTOS/Source/portable/GCC/ARM_CM4F/portmacro.h **** 
 147:Firmware/Middlewares/Third_Party/FreeRTOS/Source/portable/GCC/ARM_CM4F/portmacro.h **** 	/*-----------------------------------------------------------*/
 148:Firmware/Middlewares/Third_Party/FreeRTOS/Source/portable/GCC/ARM_CM4F/portmacro.h **** 
 149:Firmware/Middlewares/Third_Party/FreeRTOS/Source/portable/GCC/ARM_CM4F/portmacro.h **** 	#define portGET_HIGHEST_PRIORITY( uxTopPriority, uxReadyPriorities ) uxTopPriority = ( 31UL - ( ui
 150:Firmware/Middlewares/Third_Party/FreeRTOS/Source/portable/GCC/ARM_CM4F/portmacro.h **** 
 151:Firmware/Middlewares/Third_Party/FreeRTOS/Source/portable/GCC/ARM_CM4F/portmacro.h **** #endif /* configUSE_PORT_OPTIMISED_TASK_SELECTION */
 152:Firmware/Middlewares/Third_Party/FreeRTOS/Source/portable/GCC/ARM_CM4F/portmacro.h **** 
 153:Firmware/Middlewares/Third_Party/FreeRTOS/Source/portable/GCC/ARM_CM4F/portmacro.h **** /*-----------------------------------------------------------*/
 154:Firmware/Middlewares/Third_Party/FreeRTOS/Source/portable/GCC/ARM_CM4F/portmacro.h **** 
 155:Firmware/Middlewares/Third_Party/FreeRTOS/Source/portable/GCC/ARM_CM4F/portmacro.h **** #ifdef configASSERT
 156:Firmware/Middlewares/Third_Party/FreeRTOS/Source/portable/GCC/ARM_CM4F/portmacro.h **** 	void vPortValidateInterruptPriority( void );
 157:Firmware/Middlewares/Third_Party/FreeRTOS/Source/portable/GCC/ARM_CM4F/portmacro.h **** 	#define portASSERT_IF_INTERRUPT_PRIORITY_INVALID() 	vPortValidateInterruptPriority()
 158:Firmware/Middlewares/Third_Party/FreeRTOS/Source/portable/GCC/ARM_CM4F/portmacro.h **** #endif
 159:Firmware/Middlewares/Third_Party/FreeRTOS/Source/portable/GCC/ARM_CM4F/portmacro.h **** 
 160:Firmware/Middlewares/Third_Party/FreeRTOS/Source/portable/GCC/ARM_CM4F/portmacro.h **** /* portNOP() is not required by this port. */
 161:Firmware/Middlewares/Third_Party/FreeRTOS/Source/portable/GCC/ARM_CM4F/portmacro.h **** #define portNOP()
 162:Firmware/Middlewares/Third_Party/FreeRTOS/Source/portable/GCC/ARM_CM4F/portmacro.h **** 
 163:Firmware/Middlewares/Third_Party/FreeRTOS/Source/portable/GCC/ARM_CM4F/portmacro.h **** #define portINLINE	__inline
 164:Firmware/Middlewares/Third_Party/FreeRTOS/Source/portable/GCC/ARM_CM4F/portmacro.h **** 
 165:Firmware/Middlewares/Third_Party/FreeRTOS/Source/portable/GCC/ARM_CM4F/portmacro.h **** #ifndef portFORCE_INLINE
 166:Firmware/Middlewares/Third_Party/FreeRTOS/Source/portable/GCC/ARM_CM4F/portmacro.h **** 	#define portFORCE_INLINE inline __attribute__(( always_inline))
 167:Firmware/Middlewares/Third_Party/FreeRTOS/Source/portable/GCC/ARM_CM4F/portmacro.h **** #endif
 168:Firmware/Middlewares/Third_Party/FreeRTOS/Source/portable/GCC/ARM_CM4F/portmacro.h **** 
 169:Firmware/Middlewares/Third_Party/FreeRTOS/Source/portable/GCC/ARM_CM4F/portmacro.h **** portFORCE_INLINE static BaseType_t xPortIsInsideInterrupt( void )
 170:Firmware/Middlewares/Third_Party/FreeRTOS/Source/portable/GCC/ARM_CM4F/portmacro.h **** {
 171:Firmware/Middlewares/Third_Party/FreeRTOS/Source/portable/GCC/ARM_CM4F/portmacro.h **** uint32_t ulCurrentInterrupt;
 172:Firmware/Middlewares/Third_Party/FreeRTOS/Source/portable/GCC/ARM_CM4F/portmacro.h **** BaseType_t xReturn;
 173:Firmware/Middlewares/Third_Party/FreeRTOS/Source/portable/GCC/ARM_CM4F/portmacro.h **** 
 174:Firmware/Middlewares/Third_Party/FreeRTOS/Source/portable/GCC/ARM_CM4F/portmacro.h **** 	/* Obtain the number of the currently executing interrupt. */
 175:Firmware/Middlewares/Third_Party/FreeRTOS/Source/portable/GCC/ARM_CM4F/portmacro.h **** 	__asm volatile( "mrs %0, ipsr" : "=r"( ulCurrentInterrupt ) :: "memory" );
 176:Firmware/Middlewares/Third_Party/FreeRTOS/Source/portable/GCC/ARM_CM4F/portmacro.h **** 
 177:Firmware/Middlewares/Third_Party/FreeRTOS/Source/portable/GCC/ARM_CM4F/portmacro.h **** 	if( ulCurrentInterrupt == 0 )
 178:Firmware/Middlewares/Third_Party/FreeRTOS/Source/portable/GCC/ARM_CM4F/portmacro.h **** 	{
 179:Firmware/Middlewares/Third_Party/FreeRTOS/Source/portable/GCC/ARM_CM4F/portmacro.h **** 		xReturn = pdFALSE;
 180:Firmware/Middlewares/Third_Party/FreeRTOS/Source/portable/GCC/ARM_CM4F/portmacro.h **** 	}
 181:Firmware/Middlewares/Third_Party/FreeRTOS/Source/portable/GCC/ARM_CM4F/portmacro.h **** 	else
 182:Firmware/Middlewares/Third_Party/FreeRTOS/Source/portable/GCC/ARM_CM4F/portmacro.h **** 	{
 183:Firmware/Middlewares/Third_Party/FreeRTOS/Source/portable/GCC/ARM_CM4F/portmacro.h **** 		xReturn = pdTRUE;
 184:Firmware/Middlewares/Third_Party/FreeRTOS/Source/portable/GCC/ARM_CM4F/portmacro.h **** 	}
 185:Firmware/Middlewares/Third_Party/FreeRTOS/Source/portable/GCC/ARM_CM4F/portmacro.h **** 
 186:Firmware/Middlewares/Third_Party/FreeRTOS/Source/portable/GCC/ARM_CM4F/portmacro.h **** 	return xReturn;
 187:Firmware/Middlewares/Third_Party/FreeRTOS/Source/portable/GCC/ARM_CM4F/portmacro.h **** }
 188:Firmware/Middlewares/Third_Party/FreeRTOS/Source/portable/GCC/ARM_CM4F/portmacro.h **** 
 189:Firmware/Middlewares/Third_Party/FreeRTOS/Source/portable/GCC/ARM_CM4F/portmacro.h **** /*-----------------------------------------------------------*/
 190:Firmware/Middlewares/Third_Party/FreeRTOS/Source/portable/GCC/ARM_CM4F/portmacro.h **** 
 191:Firmware/Middlewares/Third_Party/FreeRTOS/Source/portable/GCC/ARM_CM4F/portmacro.h **** portFORCE_INLINE static void vPortRaiseBASEPRI( void )
 192:Firmware/Middlewares/Third_Party/FreeRTOS/Source/portable/GCC/ARM_CM4F/portmacro.h **** {
 193:Firmware/Middlewares/Third_Party/FreeRTOS/Source/portable/GCC/ARM_CM4F/portmacro.h **** uint32_t ulNewBASEPRI;
 194:Firmware/Middlewares/Third_Party/FreeRTOS/Source/portable/GCC/ARM_CM4F/portmacro.h **** 
 195:Firmware/Middlewares/Third_Party/FreeRTOS/Source/portable/GCC/ARM_CM4F/portmacro.h **** 	__asm volatile
ARM GAS  /tmp/ccB5BhZs.s 			page 38


 1066              		.loc 3 195 0
 1067              		.syntax unified
 1068              	@ 195 "Firmware/Middlewares/Third_Party/FreeRTOS/Source/portable/GCC/ARM_CM4F/portmacro.h" 1
 1069 0006 4FF05003 			mov r3, #80												
 1070 000a 83F31188 		msr basepri, r3											
 1071 000e BFF36F8F 		isb														
 1072 0012 BFF34F8F 		dsb														
 1073              	
 1074              	@ 0 "" 2
 1075              		.thumb
 1076              		.syntax unified
 1077 0016 3B60     		str	r3, [r7]
 1078              	.LBE371:
 1079              	.LBE370:
 368:Firmware/Middlewares/Third_Party/FreeRTOS/Source/CMSIS_RTOS_V2/cmsis_os2.c ****   TickType_t ticks;
 369:Firmware/Middlewares/Third_Party/FreeRTOS/Source/CMSIS_RTOS_V2/cmsis_os2.c ****   uint32_t val;
 370:Firmware/Middlewares/Third_Party/FreeRTOS/Source/CMSIS_RTOS_V2/cmsis_os2.c **** 
 371:Firmware/Middlewares/Third_Party/FreeRTOS/Source/CMSIS_RTOS_V2/cmsis_os2.c ****   portDISABLE_INTERRUPTS();
 372:Firmware/Middlewares/Third_Party/FreeRTOS/Source/CMSIS_RTOS_V2/cmsis_os2.c **** 
 373:Firmware/Middlewares/Third_Party/FreeRTOS/Source/CMSIS_RTOS_V2/cmsis_os2.c ****   ticks = xTaskGetTickCount();
 1080              		.loc 1 373 0
 1081 0018 FFF7FEFF 		bl	xTaskGetTickCount
 1082 001c F860     		str	r0, [r7, #12]
 374:Firmware/Middlewares/Third_Party/FreeRTOS/Source/CMSIS_RTOS_V2/cmsis_os2.c **** 
 375:Firmware/Middlewares/Third_Party/FreeRTOS/Source/CMSIS_RTOS_V2/cmsis_os2.c ****   val = ticks * ( configCPU_CLOCK_HZ / configTICK_RATE_HZ );
 1083              		.loc 1 375 0
 1084 001e 0A4B     		ldr	r3, .L103
 1085 0020 1B68     		ldr	r3, [r3]
 1086 0022 0A4A     		ldr	r2, .L103+4
 1087 0024 A2FB0323 		umull	r2, r3, r2, r3
 1088 0028 9A09     		lsrs	r2, r3, #6
 1089 002a FB68     		ldr	r3, [r7, #12]
 1090 002c 02FB03F3 		mul	r3, r2, r3
 1091 0030 BB60     		str	r3, [r7, #8]
 1092 0032 0023     		movs	r3, #0
 1093 0034 7B60     		str	r3, [r7, #4]
 1094              	.LBB372:
 1095              	.LBB373:
 196:Firmware/Middlewares/Third_Party/FreeRTOS/Source/portable/GCC/ARM_CM4F/portmacro.h **** 	(
 197:Firmware/Middlewares/Third_Party/FreeRTOS/Source/portable/GCC/ARM_CM4F/portmacro.h **** 		"	mov %0, %1												\n"	\
 198:Firmware/Middlewares/Third_Party/FreeRTOS/Source/portable/GCC/ARM_CM4F/portmacro.h **** 		"	msr basepri, %0											\n" \
 199:Firmware/Middlewares/Third_Party/FreeRTOS/Source/portable/GCC/ARM_CM4F/portmacro.h **** 		"	isb														\n" \
 200:Firmware/Middlewares/Third_Party/FreeRTOS/Source/portable/GCC/ARM_CM4F/portmacro.h **** 		"	dsb														\n" \
 201:Firmware/Middlewares/Third_Party/FreeRTOS/Source/portable/GCC/ARM_CM4F/portmacro.h **** 		:"=r" (ulNewBASEPRI) : "i" ( configMAX_SYSCALL_INTERRUPT_PRIORITY ) : "memory"
 202:Firmware/Middlewares/Third_Party/FreeRTOS/Source/portable/GCC/ARM_CM4F/portmacro.h **** 	);
 203:Firmware/Middlewares/Third_Party/FreeRTOS/Source/portable/GCC/ARM_CM4F/portmacro.h **** }
 204:Firmware/Middlewares/Third_Party/FreeRTOS/Source/portable/GCC/ARM_CM4F/portmacro.h **** 
 205:Firmware/Middlewares/Third_Party/FreeRTOS/Source/portable/GCC/ARM_CM4F/portmacro.h **** /*-----------------------------------------------------------*/
 206:Firmware/Middlewares/Third_Party/FreeRTOS/Source/portable/GCC/ARM_CM4F/portmacro.h **** 
 207:Firmware/Middlewares/Third_Party/FreeRTOS/Source/portable/GCC/ARM_CM4F/portmacro.h **** portFORCE_INLINE static uint32_t ulPortRaiseBASEPRI( void )
 208:Firmware/Middlewares/Third_Party/FreeRTOS/Source/portable/GCC/ARM_CM4F/portmacro.h **** {
 209:Firmware/Middlewares/Third_Party/FreeRTOS/Source/portable/GCC/ARM_CM4F/portmacro.h **** uint32_t ulOriginalBASEPRI, ulNewBASEPRI;
 210:Firmware/Middlewares/Third_Party/FreeRTOS/Source/portable/GCC/ARM_CM4F/portmacro.h **** 
 211:Firmware/Middlewares/Third_Party/FreeRTOS/Source/portable/GCC/ARM_CM4F/portmacro.h **** 	__asm volatile
 212:Firmware/Middlewares/Third_Party/FreeRTOS/Source/portable/GCC/ARM_CM4F/portmacro.h **** 	(
 213:Firmware/Middlewares/Third_Party/FreeRTOS/Source/portable/GCC/ARM_CM4F/portmacro.h **** 		"	mrs %0, basepri											\n" \
 214:Firmware/Middlewares/Third_Party/FreeRTOS/Source/portable/GCC/ARM_CM4F/portmacro.h **** 		"	mov %1, %2												\n"	\
ARM GAS  /tmp/ccB5BhZs.s 			page 39


 215:Firmware/Middlewares/Third_Party/FreeRTOS/Source/portable/GCC/ARM_CM4F/portmacro.h **** 		"	msr basepri, %1											\n" \
 216:Firmware/Middlewares/Third_Party/FreeRTOS/Source/portable/GCC/ARM_CM4F/portmacro.h **** 		"	isb														\n" \
 217:Firmware/Middlewares/Third_Party/FreeRTOS/Source/portable/GCC/ARM_CM4F/portmacro.h **** 		"	dsb														\n" \
 218:Firmware/Middlewares/Third_Party/FreeRTOS/Source/portable/GCC/ARM_CM4F/portmacro.h **** 		:"=r" (ulOriginalBASEPRI), "=r" (ulNewBASEPRI) : "i" ( configMAX_SYSCALL_INTERRUPT_PRIORITY ) : "
 219:Firmware/Middlewares/Third_Party/FreeRTOS/Source/portable/GCC/ARM_CM4F/portmacro.h **** 	);
 220:Firmware/Middlewares/Third_Party/FreeRTOS/Source/portable/GCC/ARM_CM4F/portmacro.h **** 
 221:Firmware/Middlewares/Third_Party/FreeRTOS/Source/portable/GCC/ARM_CM4F/portmacro.h **** 	/* This return will not be reached but is necessary to prevent compiler
 222:Firmware/Middlewares/Third_Party/FreeRTOS/Source/portable/GCC/ARM_CM4F/portmacro.h **** 	warnings. */
 223:Firmware/Middlewares/Third_Party/FreeRTOS/Source/portable/GCC/ARM_CM4F/portmacro.h **** 	return ulOriginalBASEPRI;
 224:Firmware/Middlewares/Third_Party/FreeRTOS/Source/portable/GCC/ARM_CM4F/portmacro.h **** }
 225:Firmware/Middlewares/Third_Party/FreeRTOS/Source/portable/GCC/ARM_CM4F/portmacro.h **** /*-----------------------------------------------------------*/
 226:Firmware/Middlewares/Third_Party/FreeRTOS/Source/portable/GCC/ARM_CM4F/portmacro.h **** 
 227:Firmware/Middlewares/Third_Party/FreeRTOS/Source/portable/GCC/ARM_CM4F/portmacro.h **** portFORCE_INLINE static void vPortSetBASEPRI( uint32_t ulNewMaskValue )
 228:Firmware/Middlewares/Third_Party/FreeRTOS/Source/portable/GCC/ARM_CM4F/portmacro.h **** {
 229:Firmware/Middlewares/Third_Party/FreeRTOS/Source/portable/GCC/ARM_CM4F/portmacro.h **** 	__asm volatile
 1096              		.loc 3 229 0
 1097 0036 7B68     		ldr	r3, [r7, #4]
 1098              		.syntax unified
 1099              	@ 229 "Firmware/Middlewares/Third_Party/FreeRTOS/Source/portable/GCC/ARM_CM4F/portmacro.h" 1
 1100 0038 83F31188 			msr basepri, r3	
 1101              	@ 0 "" 2
 1102              		.thumb
 1103              		.syntax unified
 1104              	.LBE373:
 1105              	.LBE372:
 376:Firmware/Middlewares/Third_Party/FreeRTOS/Source/CMSIS_RTOS_V2/cmsis_os2.c ****   portENABLE_INTERRUPTS();
 377:Firmware/Middlewares/Third_Party/FreeRTOS/Source/CMSIS_RTOS_V2/cmsis_os2.c **** 
 378:Firmware/Middlewares/Third_Party/FreeRTOS/Source/CMSIS_RTOS_V2/cmsis_os2.c ****   return (val);
 1106              		.loc 1 378 0
 1107 003c BB68     		ldr	r3, [r7, #8]
 379:Firmware/Middlewares/Third_Party/FreeRTOS/Source/CMSIS_RTOS_V2/cmsis_os2.c **** }
 1108              		.loc 1 379 0
 1109 003e 1846     		mov	r0, r3
 1110 0040 1037     		adds	r7, r7, #16
 1111              	.LCFI48:
 1112              		.cfi_def_cfa_offset 8
 1113 0042 BD46     		mov	sp, r7
 1114              	.LCFI49:
 1115              		.cfi_def_cfa_register 13
 1116              		@ sp needed
 1117 0044 80BD     		pop	{r7, pc}
 1118              	.L104:
 1119 0046 00BF     		.align	2
 1120              	.L103:
 1121 0048 00000000 		.word	SystemCoreClock
 1122 004c D34D6210 		.word	274877907
 1123              		.cfi_endproc
 1124              	.LFE115:
 1126              		.section	.text.osKernelGetSysTimerFreq,"ax",%progbits
 1127              		.align	1
 1128              		.global	osKernelGetSysTimerFreq
 1129              		.syntax unified
 1130              		.thumb
 1131              		.thumb_func
 1132              		.fpu fpv4-sp-d16
 1134              	osKernelGetSysTimerFreq:
 1135              	.LFB116:
ARM GAS  /tmp/ccB5BhZs.s 			page 40


 380:Firmware/Middlewares/Third_Party/FreeRTOS/Source/CMSIS_RTOS_V2/cmsis_os2.c **** 
 381:Firmware/Middlewares/Third_Party/FreeRTOS/Source/CMSIS_RTOS_V2/cmsis_os2.c **** uint32_t osKernelGetSysTimerFreq (void) {
 1136              		.loc 1 381 0
 1137              		.cfi_startproc
 1138              		@ args = 0, pretend = 0, frame = 0
 1139              		@ frame_needed = 1, uses_anonymous_args = 0
 1140              		@ link register save eliminated.
 1141 0000 80B4     		push	{r7}
 1142              	.LCFI50:
 1143              		.cfi_def_cfa_offset 4
 1144              		.cfi_offset 7, -4
 1145 0002 00AF     		add	r7, sp, #0
 1146              	.LCFI51:
 1147              		.cfi_def_cfa_register 7
 382:Firmware/Middlewares/Third_Party/FreeRTOS/Source/CMSIS_RTOS_V2/cmsis_os2.c ****   return (configCPU_CLOCK_HZ);
 1148              		.loc 1 382 0
 1149 0004 034B     		ldr	r3, .L107
 1150 0006 1B68     		ldr	r3, [r3]
 383:Firmware/Middlewares/Third_Party/FreeRTOS/Source/CMSIS_RTOS_V2/cmsis_os2.c **** }
 1151              		.loc 1 383 0
 1152 0008 1846     		mov	r0, r3
 1153 000a BD46     		mov	sp, r7
 1154              	.LCFI52:
 1155              		.cfi_def_cfa_register 13
 1156              		@ sp needed
 1157 000c 5DF8047B 		ldr	r7, [sp], #4
 1158              	.LCFI53:
 1159              		.cfi_restore 7
 1160              		.cfi_def_cfa_offset 0
 1161 0010 7047     		bx	lr
 1162              	.L108:
 1163 0012 00BF     		.align	2
 1164              	.L107:
 1165 0014 00000000 		.word	SystemCoreClock
 1166              		.cfi_endproc
 1167              	.LFE116:
 1169              		.section	.text.osThreadNew,"ax",%progbits
 1170              		.align	1
 1171              		.global	osThreadNew
 1172              		.syntax unified
 1173              		.thumb
 1174              		.thumb_func
 1175              		.fpu fpv4-sp-d16
 1177              	osThreadNew:
 1178              	.LFB117:
 384:Firmware/Middlewares/Third_Party/FreeRTOS/Source/CMSIS_RTOS_V2/cmsis_os2.c **** 
 385:Firmware/Middlewares/Third_Party/FreeRTOS/Source/CMSIS_RTOS_V2/cmsis_os2.c **** /*---------------------------------------------------------------------------*/
 386:Firmware/Middlewares/Third_Party/FreeRTOS/Source/CMSIS_RTOS_V2/cmsis_os2.c **** 
 387:Firmware/Middlewares/Third_Party/FreeRTOS/Source/CMSIS_RTOS_V2/cmsis_os2.c **** osThreadId_t osThreadNew (osThreadFunc_t func, void *argument, const osThreadAttr_t *attr) {
 1179              		.loc 1 387 0
 1180              		.cfi_startproc
 1181              		@ args = 0, pretend = 0, frame = 56
 1182              		@ frame_needed = 1, uses_anonymous_args = 0
 1183 0000 80B5     		push	{r7, lr}
 1184              	.LCFI54:
 1185              		.cfi_def_cfa_offset 8
 1186              		.cfi_offset 7, -8
ARM GAS  /tmp/ccB5BhZs.s 			page 41


 1187              		.cfi_offset 14, -4
 1188 0002 92B0     		sub	sp, sp, #72
 1189              	.LCFI55:
 1190              		.cfi_def_cfa_offset 80
 1191 0004 04AF     		add	r7, sp, #16
 1192              	.LCFI56:
 1193              		.cfi_def_cfa 7, 64
 1194 0006 F860     		str	r0, [r7, #12]
 1195 0008 B960     		str	r1, [r7, #8]
 1196 000a 7A60     		str	r2, [r7, #4]
 388:Firmware/Middlewares/Third_Party/FreeRTOS/Source/CMSIS_RTOS_V2/cmsis_os2.c ****   char empty;
 389:Firmware/Middlewares/Third_Party/FreeRTOS/Source/CMSIS_RTOS_V2/cmsis_os2.c ****   const char *name;
 390:Firmware/Middlewares/Third_Party/FreeRTOS/Source/CMSIS_RTOS_V2/cmsis_os2.c ****   uint32_t stack;
 391:Firmware/Middlewares/Third_Party/FreeRTOS/Source/CMSIS_RTOS_V2/cmsis_os2.c ****   TaskHandle_t hTask;
 392:Firmware/Middlewares/Third_Party/FreeRTOS/Source/CMSIS_RTOS_V2/cmsis_os2.c ****   UBaseType_t prio;
 393:Firmware/Middlewares/Third_Party/FreeRTOS/Source/CMSIS_RTOS_V2/cmsis_os2.c ****   int32_t mem;
 394:Firmware/Middlewares/Third_Party/FreeRTOS/Source/CMSIS_RTOS_V2/cmsis_os2.c **** 
 395:Firmware/Middlewares/Third_Party/FreeRTOS/Source/CMSIS_RTOS_V2/cmsis_os2.c ****   hTask = NULL;
 1197              		.loc 1 395 0
 1198 000c 0023     		movs	r3, #0
 1199 000e 7B61     		str	r3, [r7, #20]
 1200              	.LBB374:
 1201              	.LBB375:
 209:Firmware/Drivers/CMSIS/Include/cmsis_gcc.h ****   return(result);
 1202              		.loc 2 209 0
 1203              		.syntax unified
 1204              	@ 209 "Firmware/Drivers/CMSIS/Include/cmsis_gcc.h" 1
 1205 0010 EFF30583 		MRS r3, ipsr
 1206              	@ 0 "" 2
 1207              		.thumb
 1208              		.syntax unified
 1209 0014 7B62     		str	r3, [r7, #36]
 210:Firmware/Drivers/CMSIS/Include/cmsis_gcc.h **** }
 1210              		.loc 2 210 0
 1211 0016 7B6A     		ldr	r3, [r7, #36]
 1212              	.LBE375:
 1213              	.LBE374:
 396:Firmware/Middlewares/Third_Party/FreeRTOS/Source/CMSIS_RTOS_V2/cmsis_os2.c **** 
 397:Firmware/Middlewares/Third_Party/FreeRTOS/Source/CMSIS_RTOS_V2/cmsis_os2.c ****   if (!IS_IRQ() && (func != NULL)) {
 1214              		.loc 1 397 0
 1215 0018 002B     		cmp	r3, #0
 1216 001a 40F09480 		bne	.L111
 1217              	.LBB376:
 1218              	.LBB377:
 386:Firmware/Drivers/CMSIS/Include/cmsis_gcc.h ****   return(result);
 1219              		.loc 2 386 0 discriminator 1
 1220              		.syntax unified
 1221              	@ 386 "Firmware/Drivers/CMSIS/Include/cmsis_gcc.h" 1
 1222 001e EFF31083 		MRS r3, primask
 1223              	@ 0 "" 2
 1224              		.thumb
 1225              		.syntax unified
 1226 0022 3B62     		str	r3, [r7, #32]
 387:Firmware/Drivers/CMSIS/Include/cmsis_gcc.h **** }
 1227              		.loc 2 387 0 discriminator 1
 1228 0024 3B6A     		ldr	r3, [r7, #32]
 1229              	.LBE377:
ARM GAS  /tmp/ccB5BhZs.s 			page 42


 1230              	.LBE376:
 1231              		.loc 1 397 0 discriminator 1
 1232 0026 002B     		cmp	r3, #0
 1233 0028 40F08D80 		bne	.L111
 1234              		.loc 1 397 0 is_stmt 0 discriminator 2
 1235 002c 484B     		ldr	r3, .L127
 1236 002e 1B68     		ldr	r3, [r3]
 1237 0030 022B     		cmp	r3, #2
 1238 0032 06D1     		bne	.L113
 1239              	.LBB378:
 1240              	.LBB379:
 465:Firmware/Drivers/CMSIS/Include/cmsis_gcc.h ****   return(result);
 1241              		.loc 2 465 0 is_stmt 1 discriminator 4
 1242              		.syntax unified
 1243              	@ 465 "Firmware/Drivers/CMSIS/Include/cmsis_gcc.h" 1
 1244 0034 EFF31183 		MRS r3, basepri
 1245              	@ 0 "" 2
 1246              		.thumb
 1247              		.syntax unified
 1248 0038 FB61     		str	r3, [r7, #28]
 1249              		.loc 2 466 0 discriminator 4
 1250 003a FB69     		ldr	r3, [r7, #28]
 1251              	.LBE379:
 1252              	.LBE378:
 1253              		.loc 1 397 0 discriminator 4
 1254 003c 002B     		cmp	r3, #0
 1255 003e 40F08280 		bne	.L111
 1256              	.L113:
 1257              		.loc 1 397 0 is_stmt 0 discriminator 5
 1258 0042 FB68     		ldr	r3, [r7, #12]
 1259 0044 002B     		cmp	r3, #0
 1260 0046 7ED0     		beq	.L111
 398:Firmware/Middlewares/Third_Party/FreeRTOS/Source/CMSIS_RTOS_V2/cmsis_os2.c ****     stack = configMINIMAL_STACK_SIZE;
 1261              		.loc 1 398 0 is_stmt 1
 1262 0048 8023     		movs	r3, #128
 1263 004a 3B63     		str	r3, [r7, #48]
 399:Firmware/Middlewares/Third_Party/FreeRTOS/Source/CMSIS_RTOS_V2/cmsis_os2.c ****     prio  = (UBaseType_t)osPriorityNormal;
 1264              		.loc 1 399 0
 1265 004c 1823     		movs	r3, #24
 1266 004e FB62     		str	r3, [r7, #44]
 400:Firmware/Middlewares/Third_Party/FreeRTOS/Source/CMSIS_RTOS_V2/cmsis_os2.c **** 
 401:Firmware/Middlewares/Third_Party/FreeRTOS/Source/CMSIS_RTOS_V2/cmsis_os2.c ****     empty = '\0';
 1267              		.loc 1 401 0
 1268 0050 0023     		movs	r3, #0
 1269 0052 FB76     		strb	r3, [r7, #27]
 402:Firmware/Middlewares/Third_Party/FreeRTOS/Source/CMSIS_RTOS_V2/cmsis_os2.c ****     name  = &empty;
 1270              		.loc 1 402 0
 1271 0054 07F11B03 		add	r3, r7, #27
 1272 0058 7B63     		str	r3, [r7, #52]
 403:Firmware/Middlewares/Third_Party/FreeRTOS/Source/CMSIS_RTOS_V2/cmsis_os2.c ****     mem   = -1;
 1273              		.loc 1 403 0
 1274 005a 4FF0FF33 		mov	r3, #-1
 1275 005e BB62     		str	r3, [r7, #40]
 404:Firmware/Middlewares/Third_Party/FreeRTOS/Source/CMSIS_RTOS_V2/cmsis_os2.c **** 
 405:Firmware/Middlewares/Third_Party/FreeRTOS/Source/CMSIS_RTOS_V2/cmsis_os2.c ****     if (attr != NULL) {
 1276              		.loc 1 405 0
 1277 0060 7B68     		ldr	r3, [r7, #4]
ARM GAS  /tmp/ccB5BhZs.s 			page 43


 1278 0062 002B     		cmp	r3, #0
 1279 0064 45D0     		beq	.L115
 406:Firmware/Middlewares/Third_Party/FreeRTOS/Source/CMSIS_RTOS_V2/cmsis_os2.c ****       if (attr->name != NULL) {
 1280              		.loc 1 406 0
 1281 0066 7B68     		ldr	r3, [r7, #4]
 1282 0068 1B68     		ldr	r3, [r3]
 1283 006a 002B     		cmp	r3, #0
 1284 006c 02D0     		beq	.L116
 407:Firmware/Middlewares/Third_Party/FreeRTOS/Source/CMSIS_RTOS_V2/cmsis_os2.c ****         name = attr->name;
 1285              		.loc 1 407 0
 1286 006e 7B68     		ldr	r3, [r7, #4]
 1287 0070 1B68     		ldr	r3, [r3]
 1288 0072 7B63     		str	r3, [r7, #52]
 1289              	.L116:
 408:Firmware/Middlewares/Third_Party/FreeRTOS/Source/CMSIS_RTOS_V2/cmsis_os2.c ****       }
 409:Firmware/Middlewares/Third_Party/FreeRTOS/Source/CMSIS_RTOS_V2/cmsis_os2.c ****       if (attr->priority != osPriorityNone) {
 1290              		.loc 1 409 0
 1291 0074 7B68     		ldr	r3, [r7, #4]
 1292 0076 9B69     		ldr	r3, [r3, #24]
 1293 0078 002B     		cmp	r3, #0
 1294 007a 02D0     		beq	.L117
 410:Firmware/Middlewares/Third_Party/FreeRTOS/Source/CMSIS_RTOS_V2/cmsis_os2.c ****         prio = (UBaseType_t)attr->priority;
 1295              		.loc 1 410 0
 1296 007c 7B68     		ldr	r3, [r7, #4]
 1297 007e 9B69     		ldr	r3, [r3, #24]
 1298 0080 FB62     		str	r3, [r7, #44]
 1299              	.L117:
 411:Firmware/Middlewares/Third_Party/FreeRTOS/Source/CMSIS_RTOS_V2/cmsis_os2.c ****       }
 412:Firmware/Middlewares/Third_Party/FreeRTOS/Source/CMSIS_RTOS_V2/cmsis_os2.c **** 
 413:Firmware/Middlewares/Third_Party/FreeRTOS/Source/CMSIS_RTOS_V2/cmsis_os2.c ****       if ((prio < osPriorityIdle) || (prio > osPriorityISR) || ((attr->attr_bits & osThreadJoinable
 1300              		.loc 1 413 0
 1301 0082 FB6A     		ldr	r3, [r7, #44]
 1302 0084 002B     		cmp	r3, #0
 1303 0086 08D0     		beq	.L118
 1304              		.loc 1 413 0 is_stmt 0 discriminator 1
 1305 0088 FB6A     		ldr	r3, [r7, #44]
 1306 008a 382B     		cmp	r3, #56
 1307 008c 05D8     		bhi	.L118
 1308              		.loc 1 413 0 discriminator 2
 1309 008e 7B68     		ldr	r3, [r7, #4]
 1310 0090 5B68     		ldr	r3, [r3, #4]
 1311 0092 03F00103 		and	r3, r3, #1
 1312 0096 002B     		cmp	r3, #0
 1313 0098 01D0     		beq	.L119
 1314              	.L118:
 414:Firmware/Middlewares/Third_Party/FreeRTOS/Source/CMSIS_RTOS_V2/cmsis_os2.c ****         return (NULL);
 1315              		.loc 1 414 0 is_stmt 1
 1316 009a 0023     		movs	r3, #0
 1317 009c 54E0     		b	.L126
 1318              	.L119:
 415:Firmware/Middlewares/Third_Party/FreeRTOS/Source/CMSIS_RTOS_V2/cmsis_os2.c ****       }
 416:Firmware/Middlewares/Third_Party/FreeRTOS/Source/CMSIS_RTOS_V2/cmsis_os2.c **** 
 417:Firmware/Middlewares/Third_Party/FreeRTOS/Source/CMSIS_RTOS_V2/cmsis_os2.c ****       if (attr->stack_size > 0U) {
 1319              		.loc 1 417 0
 1320 009e 7B68     		ldr	r3, [r7, #4]
 1321 00a0 5B69     		ldr	r3, [r3, #20]
 1322 00a2 002B     		cmp	r3, #0
ARM GAS  /tmp/ccB5BhZs.s 			page 44


 1323 00a4 03D0     		beq	.L121
 418:Firmware/Middlewares/Third_Party/FreeRTOS/Source/CMSIS_RTOS_V2/cmsis_os2.c ****         /* In FreeRTOS stack is not in bytes, but in sizeof(StackType_t) which is 4 on ARM ports.  
 419:Firmware/Middlewares/Third_Party/FreeRTOS/Source/CMSIS_RTOS_V2/cmsis_os2.c ****         /* Stack size should be therefore 4 byte aligned in order to avoid division caused side eff
 420:Firmware/Middlewares/Third_Party/FreeRTOS/Source/CMSIS_RTOS_V2/cmsis_os2.c ****         stack = attr->stack_size / sizeof(StackType_t);
 1324              		.loc 1 420 0
 1325 00a6 7B68     		ldr	r3, [r7, #4]
 1326 00a8 5B69     		ldr	r3, [r3, #20]
 1327 00aa 9B08     		lsrs	r3, r3, #2
 1328 00ac 3B63     		str	r3, [r7, #48]
 1329              	.L121:
 421:Firmware/Middlewares/Third_Party/FreeRTOS/Source/CMSIS_RTOS_V2/cmsis_os2.c ****       }
 422:Firmware/Middlewares/Third_Party/FreeRTOS/Source/CMSIS_RTOS_V2/cmsis_os2.c **** 
 423:Firmware/Middlewares/Third_Party/FreeRTOS/Source/CMSIS_RTOS_V2/cmsis_os2.c ****       if ((attr->cb_mem    != NULL) && (attr->cb_size    >= sizeof(StaticTask_t)) &&
 1330              		.loc 1 423 0
 1331 00ae 7B68     		ldr	r3, [r7, #4]
 1332 00b0 9B68     		ldr	r3, [r3, #8]
 1333 00b2 002B     		cmp	r3, #0
 1334 00b4 0ED0     		beq	.L122
 1335              		.loc 1 423 0 is_stmt 0 discriminator 1
 1336 00b6 7B68     		ldr	r3, [r7, #4]
 1337 00b8 DB68     		ldr	r3, [r3, #12]
 1338 00ba 5B2B     		cmp	r3, #91
 1339 00bc 0AD9     		bls	.L122
 424:Firmware/Middlewares/Third_Party/FreeRTOS/Source/CMSIS_RTOS_V2/cmsis_os2.c ****           (attr->stack_mem != NULL) && (attr->stack_size >  0U)) {
 1340              		.loc 1 424 0 is_stmt 1 discriminator 2
 1341 00be 7B68     		ldr	r3, [r7, #4]
 1342 00c0 1B69     		ldr	r3, [r3, #16]
 423:Firmware/Middlewares/Third_Party/FreeRTOS/Source/CMSIS_RTOS_V2/cmsis_os2.c ****           (attr->stack_mem != NULL) && (attr->stack_size >  0U)) {
 1343              		.loc 1 423 0 discriminator 2
 1344 00c2 002B     		cmp	r3, #0
 1345 00c4 06D0     		beq	.L122
 1346              		.loc 1 424 0
 1347 00c6 7B68     		ldr	r3, [r7, #4]
 1348 00c8 5B69     		ldr	r3, [r3, #20]
 1349 00ca 002B     		cmp	r3, #0
 1350 00cc 02D0     		beq	.L122
 425:Firmware/Middlewares/Third_Party/FreeRTOS/Source/CMSIS_RTOS_V2/cmsis_os2.c ****         mem = 1;
 1351              		.loc 1 425 0
 1352 00ce 0123     		movs	r3, #1
 1353 00d0 BB62     		str	r3, [r7, #40]
 1354 00d2 10E0     		b	.L124
 1355              	.L122:
 426:Firmware/Middlewares/Third_Party/FreeRTOS/Source/CMSIS_RTOS_V2/cmsis_os2.c ****       }
 427:Firmware/Middlewares/Third_Party/FreeRTOS/Source/CMSIS_RTOS_V2/cmsis_os2.c ****       else {
 428:Firmware/Middlewares/Third_Party/FreeRTOS/Source/CMSIS_RTOS_V2/cmsis_os2.c ****         if ((attr->cb_mem == NULL) && (attr->cb_size == 0U) && (attr->stack_mem == NULL)) {
 1356              		.loc 1 428 0
 1357 00d4 7B68     		ldr	r3, [r7, #4]
 1358 00d6 9B68     		ldr	r3, [r3, #8]
 1359 00d8 002B     		cmp	r3, #0
 1360 00da 0CD1     		bne	.L124
 1361              		.loc 1 428 0 is_stmt 0 discriminator 1
 1362 00dc 7B68     		ldr	r3, [r7, #4]
 1363 00de DB68     		ldr	r3, [r3, #12]
 1364 00e0 002B     		cmp	r3, #0
 1365 00e2 08D1     		bne	.L124
 1366              		.loc 1 428 0 discriminator 2
 1367 00e4 7B68     		ldr	r3, [r7, #4]
ARM GAS  /tmp/ccB5BhZs.s 			page 45


 1368 00e6 1B69     		ldr	r3, [r3, #16]
 1369 00e8 002B     		cmp	r3, #0
 1370 00ea 04D1     		bne	.L124
 429:Firmware/Middlewares/Third_Party/FreeRTOS/Source/CMSIS_RTOS_V2/cmsis_os2.c ****           mem = 0;
 1371              		.loc 1 429 0 is_stmt 1
 1372 00ec 0023     		movs	r3, #0
 1373 00ee BB62     		str	r3, [r7, #40]
 1374 00f0 01E0     		b	.L124
 1375              	.L115:
 430:Firmware/Middlewares/Third_Party/FreeRTOS/Source/CMSIS_RTOS_V2/cmsis_os2.c ****         }
 431:Firmware/Middlewares/Third_Party/FreeRTOS/Source/CMSIS_RTOS_V2/cmsis_os2.c ****       }
 432:Firmware/Middlewares/Third_Party/FreeRTOS/Source/CMSIS_RTOS_V2/cmsis_os2.c ****     }
 433:Firmware/Middlewares/Third_Party/FreeRTOS/Source/CMSIS_RTOS_V2/cmsis_os2.c ****     else {
 434:Firmware/Middlewares/Third_Party/FreeRTOS/Source/CMSIS_RTOS_V2/cmsis_os2.c ****       mem = 0;
 1376              		.loc 1 434 0
 1377 00f2 0023     		movs	r3, #0
 1378 00f4 BB62     		str	r3, [r7, #40]
 1379              	.L124:
 435:Firmware/Middlewares/Third_Party/FreeRTOS/Source/CMSIS_RTOS_V2/cmsis_os2.c ****     }
 436:Firmware/Middlewares/Third_Party/FreeRTOS/Source/CMSIS_RTOS_V2/cmsis_os2.c **** 
 437:Firmware/Middlewares/Third_Party/FreeRTOS/Source/CMSIS_RTOS_V2/cmsis_os2.c ****     if (mem == 1) {
 1380              		.loc 1 437 0
 1381 00f6 BB6A     		ldr	r3, [r7, #40]
 1382 00f8 012B     		cmp	r3, #1
 1383 00fa 10D1     		bne	.L125
 438:Firmware/Middlewares/Third_Party/FreeRTOS/Source/CMSIS_RTOS_V2/cmsis_os2.c ****       hTask = xTaskCreateStatic ((TaskFunction_t)func, name, stack, argument, prio, (StackType_t  *
 1384              		.loc 1 438 0
 1385 00fc 7B68     		ldr	r3, [r7, #4]
 1386 00fe 1B69     		ldr	r3, [r3, #16]
 439:Firmware/Middlewares/Third_Party/FreeRTOS/Source/CMSIS_RTOS_V2/cmsis_os2.c ****                                                                                     (StaticTask_t *
 1387              		.loc 1 439 0
 1388 0100 7A68     		ldr	r2, [r7, #4]
 1389 0102 9268     		ldr	r2, [r2, #8]
 438:Firmware/Middlewares/Third_Party/FreeRTOS/Source/CMSIS_RTOS_V2/cmsis_os2.c ****       hTask = xTaskCreateStatic ((TaskFunction_t)func, name, stack, argument, prio, (StackType_t  *
 1390              		.loc 1 438 0
 1391 0104 0292     		str	r2, [sp, #8]
 1392 0106 0193     		str	r3, [sp, #4]
 1393 0108 FB6A     		ldr	r3, [r7, #44]
 1394 010a 0093     		str	r3, [sp]
 1395 010c BB68     		ldr	r3, [r7, #8]
 1396 010e 3A6B     		ldr	r2, [r7, #48]
 1397 0110 796B     		ldr	r1, [r7, #52]
 1398 0112 F868     		ldr	r0, [r7, #12]
 1399 0114 FFF7FEFF 		bl	xTaskCreateStatic
 1400 0118 0346     		mov	r3, r0
 1401 011a 7B61     		str	r3, [r7, #20]
 1402 011c 13E0     		b	.L111
 1403              	.L125:
 440:Firmware/Middlewares/Third_Party/FreeRTOS/Source/CMSIS_RTOS_V2/cmsis_os2.c ****     }
 441:Firmware/Middlewares/Third_Party/FreeRTOS/Source/CMSIS_RTOS_V2/cmsis_os2.c ****     else {
 442:Firmware/Middlewares/Third_Party/FreeRTOS/Source/CMSIS_RTOS_V2/cmsis_os2.c ****       if (mem == 0) {
 1404              		.loc 1 442 0
 1405 011e BB6A     		ldr	r3, [r7, #40]
 1406 0120 002B     		cmp	r3, #0
 1407 0122 10D1     		bne	.L111
 443:Firmware/Middlewares/Third_Party/FreeRTOS/Source/CMSIS_RTOS_V2/cmsis_os2.c ****         if (xTaskCreate ((TaskFunction_t)func, name, (uint16_t)stack, argument, prio, &hTask) != pd
 1408              		.loc 1 443 0
ARM GAS  /tmp/ccB5BhZs.s 			page 46


 1409 0124 3B6B     		ldr	r3, [r7, #48]
 1410 0126 9AB2     		uxth	r2, r3
 1411 0128 07F11403 		add	r3, r7, #20
 1412 012c 0193     		str	r3, [sp, #4]
 1413 012e FB6A     		ldr	r3, [r7, #44]
 1414 0130 0093     		str	r3, [sp]
 1415 0132 BB68     		ldr	r3, [r7, #8]
 1416 0134 796B     		ldr	r1, [r7, #52]
 1417 0136 F868     		ldr	r0, [r7, #12]
 1418 0138 FFF7FEFF 		bl	xTaskCreate
 1419 013c 0346     		mov	r3, r0
 1420 013e 012B     		cmp	r3, #1
 1421 0140 01D0     		beq	.L111
 444:Firmware/Middlewares/Third_Party/FreeRTOS/Source/CMSIS_RTOS_V2/cmsis_os2.c ****           hTask = NULL;
 1422              		.loc 1 444 0
 1423 0142 0023     		movs	r3, #0
 1424 0144 7B61     		str	r3, [r7, #20]
 1425              	.L111:
 445:Firmware/Middlewares/Third_Party/FreeRTOS/Source/CMSIS_RTOS_V2/cmsis_os2.c ****         }
 446:Firmware/Middlewares/Third_Party/FreeRTOS/Source/CMSIS_RTOS_V2/cmsis_os2.c ****       }
 447:Firmware/Middlewares/Third_Party/FreeRTOS/Source/CMSIS_RTOS_V2/cmsis_os2.c ****     }
 448:Firmware/Middlewares/Third_Party/FreeRTOS/Source/CMSIS_RTOS_V2/cmsis_os2.c ****   }
 449:Firmware/Middlewares/Third_Party/FreeRTOS/Source/CMSIS_RTOS_V2/cmsis_os2.c **** 
 450:Firmware/Middlewares/Third_Party/FreeRTOS/Source/CMSIS_RTOS_V2/cmsis_os2.c ****   return ((osThreadId_t)hTask);
 1426              		.loc 1 450 0
 1427 0146 7B69     		ldr	r3, [r7, #20]
 1428              	.L126:
 451:Firmware/Middlewares/Third_Party/FreeRTOS/Source/CMSIS_RTOS_V2/cmsis_os2.c **** }
 1429              		.loc 1 451 0 discriminator 1
 1430 0148 1846     		mov	r0, r3
 1431 014a 3837     		adds	r7, r7, #56
 1432              	.LCFI57:
 1433              		.cfi_def_cfa_offset 8
 1434 014c BD46     		mov	sp, r7
 1435              	.LCFI58:
 1436              		.cfi_def_cfa_register 13
 1437              		@ sp needed
 1438 014e 80BD     		pop	{r7, pc}
 1439              	.L128:
 1440              		.align	2
 1441              	.L127:
 1442 0150 00000000 		.word	KernelState
 1443              		.cfi_endproc
 1444              	.LFE117:
 1446              		.section	.text.osThreadGetName,"ax",%progbits
 1447              		.align	1
 1448              		.global	osThreadGetName
 1449              		.syntax unified
 1450              		.thumb
 1451              		.thumb_func
 1452              		.fpu fpv4-sp-d16
 1454              	osThreadGetName:
 1455              	.LFB118:
 452:Firmware/Middlewares/Third_Party/FreeRTOS/Source/CMSIS_RTOS_V2/cmsis_os2.c **** 
 453:Firmware/Middlewares/Third_Party/FreeRTOS/Source/CMSIS_RTOS_V2/cmsis_os2.c **** const char *osThreadGetName (osThreadId_t thread_id) {
 1456              		.loc 1 453 0
 1457              		.cfi_startproc
ARM GAS  /tmp/ccB5BhZs.s 			page 47


 1458              		@ args = 0, pretend = 0, frame = 32
 1459              		@ frame_needed = 1, uses_anonymous_args = 0
 1460 0000 80B5     		push	{r7, lr}
 1461              	.LCFI59:
 1462              		.cfi_def_cfa_offset 8
 1463              		.cfi_offset 7, -8
 1464              		.cfi_offset 14, -4
 1465 0002 88B0     		sub	sp, sp, #32
 1466              	.LCFI60:
 1467              		.cfi_def_cfa_offset 40
 1468 0004 00AF     		add	r7, sp, #0
 1469              	.LCFI61:
 1470              		.cfi_def_cfa_register 7
 1471 0006 7860     		str	r0, [r7, #4]
 454:Firmware/Middlewares/Third_Party/FreeRTOS/Source/CMSIS_RTOS_V2/cmsis_os2.c ****   TaskHandle_t hTask = (TaskHandle_t)thread_id;
 1472              		.loc 1 454 0
 1473 0008 7B68     		ldr	r3, [r7, #4]
 1474 000a BB61     		str	r3, [r7, #24]
 1475              	.LBB380:
 1476              	.LBB381:
 209:Firmware/Drivers/CMSIS/Include/cmsis_gcc.h ****   return(result);
 1477              		.loc 2 209 0
 1478              		.syntax unified
 1479              	@ 209 "Firmware/Drivers/CMSIS/Include/cmsis_gcc.h" 1
 1480 000c EFF30583 		MRS r3, ipsr
 1481              	@ 0 "" 2
 1482              		.thumb
 1483              		.syntax unified
 1484 0010 7B61     		str	r3, [r7, #20]
 210:Firmware/Drivers/CMSIS/Include/cmsis_gcc.h **** }
 1485              		.loc 2 210 0
 1486 0012 7B69     		ldr	r3, [r7, #20]
 1487              	.LBE381:
 1488              	.LBE380:
 455:Firmware/Middlewares/Third_Party/FreeRTOS/Source/CMSIS_RTOS_V2/cmsis_os2.c ****   const char *name;
 456:Firmware/Middlewares/Third_Party/FreeRTOS/Source/CMSIS_RTOS_V2/cmsis_os2.c **** 
 457:Firmware/Middlewares/Third_Party/FreeRTOS/Source/CMSIS_RTOS_V2/cmsis_os2.c ****   if (IS_IRQ() || (hTask == NULL)) {
 1489              		.loc 1 457 0
 1490 0014 002B     		cmp	r3, #0
 1491 0016 12D1     		bne	.L131
 1492              	.LBB382:
 1493              	.LBB383:
 386:Firmware/Drivers/CMSIS/Include/cmsis_gcc.h ****   return(result);
 1494              		.loc 2 386 0 discriminator 1
 1495              		.syntax unified
 1496              	@ 386 "Firmware/Drivers/CMSIS/Include/cmsis_gcc.h" 1
 1497 0018 EFF31083 		MRS r3, primask
 1498              	@ 0 "" 2
 1499              		.thumb
 1500              		.syntax unified
 1501 001c 3B61     		str	r3, [r7, #16]
 387:Firmware/Drivers/CMSIS/Include/cmsis_gcc.h **** }
 1502              		.loc 2 387 0 discriminator 1
 1503 001e 3B69     		ldr	r3, [r7, #16]
 1504              	.LBE383:
 1505              	.LBE382:
 1506              		.loc 1 457 0 discriminator 1
ARM GAS  /tmp/ccB5BhZs.s 			page 48


 1507 0020 002B     		cmp	r3, #0
 1508 0022 0CD1     		bne	.L131
 1509              		.loc 1 457 0 is_stmt 0 discriminator 2
 1510 0024 0C4B     		ldr	r3, .L138
 1511 0026 1B68     		ldr	r3, [r3]
 1512 0028 022B     		cmp	r3, #2
 1513 002a 05D1     		bne	.L133
 1514              	.LBB384:
 1515              	.LBB385:
 465:Firmware/Drivers/CMSIS/Include/cmsis_gcc.h ****   return(result);
 1516              		.loc 2 465 0 is_stmt 1 discriminator 3
 1517              		.syntax unified
 1518              	@ 465 "Firmware/Drivers/CMSIS/Include/cmsis_gcc.h" 1
 1519 002c EFF31183 		MRS r3, basepri
 1520              	@ 0 "" 2
 1521              		.thumb
 1522              		.syntax unified
 1523 0030 FB60     		str	r3, [r7, #12]
 1524              		.loc 2 466 0 discriminator 3
 1525 0032 FB68     		ldr	r3, [r7, #12]
 1526              	.LBE385:
 1527              	.LBE384:
 1528              		.loc 1 457 0 discriminator 3
 1529 0034 002B     		cmp	r3, #0
 1530 0036 02D1     		bne	.L131
 1531              	.L133:
 1532              		.loc 1 457 0 is_stmt 0 discriminator 5
 1533 0038 BB69     		ldr	r3, [r7, #24]
 1534 003a 002B     		cmp	r3, #0
 1535 003c 02D1     		bne	.L135
 1536              	.L131:
 458:Firmware/Middlewares/Third_Party/FreeRTOS/Source/CMSIS_RTOS_V2/cmsis_os2.c ****     name = NULL;
 1537              		.loc 1 458 0 is_stmt 1
 1538 003e 0023     		movs	r3, #0
 1539 0040 FB61     		str	r3, [r7, #28]
 1540 0042 03E0     		b	.L136
 1541              	.L135:
 459:Firmware/Middlewares/Third_Party/FreeRTOS/Source/CMSIS_RTOS_V2/cmsis_os2.c ****   } else {
 460:Firmware/Middlewares/Third_Party/FreeRTOS/Source/CMSIS_RTOS_V2/cmsis_os2.c ****     name = pcTaskGetName (hTask);
 1542              		.loc 1 460 0
 1543 0044 B869     		ldr	r0, [r7, #24]
 1544 0046 FFF7FEFF 		bl	pcTaskGetName
 1545 004a F861     		str	r0, [r7, #28]
 1546              	.L136:
 461:Firmware/Middlewares/Third_Party/FreeRTOS/Source/CMSIS_RTOS_V2/cmsis_os2.c ****   }
 462:Firmware/Middlewares/Third_Party/FreeRTOS/Source/CMSIS_RTOS_V2/cmsis_os2.c **** 
 463:Firmware/Middlewares/Third_Party/FreeRTOS/Source/CMSIS_RTOS_V2/cmsis_os2.c ****   return (name);
 1547              		.loc 1 463 0
 1548 004c FB69     		ldr	r3, [r7, #28]
 464:Firmware/Middlewares/Third_Party/FreeRTOS/Source/CMSIS_RTOS_V2/cmsis_os2.c **** }
 1549              		.loc 1 464 0
 1550 004e 1846     		mov	r0, r3
 1551 0050 2037     		adds	r7, r7, #32
 1552              	.LCFI62:
 1553              		.cfi_def_cfa_offset 8
 1554 0052 BD46     		mov	sp, r7
 1555              	.LCFI63:
ARM GAS  /tmp/ccB5BhZs.s 			page 49


 1556              		.cfi_def_cfa_register 13
 1557              		@ sp needed
 1558 0054 80BD     		pop	{r7, pc}
 1559              	.L139:
 1560 0056 00BF     		.align	2
 1561              	.L138:
 1562 0058 00000000 		.word	KernelState
 1563              		.cfi_endproc
 1564              	.LFE118:
 1566              		.section	.text.osThreadGetId,"ax",%progbits
 1567              		.align	1
 1568              		.global	osThreadGetId
 1569              		.syntax unified
 1570              		.thumb
 1571              		.thumb_func
 1572              		.fpu fpv4-sp-d16
 1574              	osThreadGetId:
 1575              	.LFB119:
 465:Firmware/Middlewares/Third_Party/FreeRTOS/Source/CMSIS_RTOS_V2/cmsis_os2.c **** 
 466:Firmware/Middlewares/Third_Party/FreeRTOS/Source/CMSIS_RTOS_V2/cmsis_os2.c **** osThreadId_t osThreadGetId (void) {
 1576              		.loc 1 466 0
 1577              		.cfi_startproc
 1578              		@ args = 0, pretend = 0, frame = 16
 1579              		@ frame_needed = 1, uses_anonymous_args = 0
 1580 0000 80B5     		push	{r7, lr}
 1581              	.LCFI64:
 1582              		.cfi_def_cfa_offset 8
 1583              		.cfi_offset 7, -8
 1584              		.cfi_offset 14, -4
 1585 0002 84B0     		sub	sp, sp, #16
 1586              	.LCFI65:
 1587              		.cfi_def_cfa_offset 24
 1588 0004 00AF     		add	r7, sp, #0
 1589              	.LCFI66:
 1590              		.cfi_def_cfa_register 7
 1591              	.LBB386:
 1592              	.LBB387:
 209:Firmware/Drivers/CMSIS/Include/cmsis_gcc.h ****   return(result);
 1593              		.loc 2 209 0
 1594              		.syntax unified
 1595              	@ 209 "Firmware/Drivers/CMSIS/Include/cmsis_gcc.h" 1
 1596 0006 EFF30583 		MRS r3, ipsr
 1597              	@ 0 "" 2
 1598              		.thumb
 1599              		.syntax unified
 1600 000a BB60     		str	r3, [r7, #8]
 210:Firmware/Drivers/CMSIS/Include/cmsis_gcc.h **** }
 1601              		.loc 2 210 0
 1602 000c BB68     		ldr	r3, [r7, #8]
 1603              	.LBE387:
 1604              	.LBE386:
 467:Firmware/Middlewares/Third_Party/FreeRTOS/Source/CMSIS_RTOS_V2/cmsis_os2.c ****   osThreadId_t id;
 468:Firmware/Middlewares/Third_Party/FreeRTOS/Source/CMSIS_RTOS_V2/cmsis_os2.c **** 
 469:Firmware/Middlewares/Third_Party/FreeRTOS/Source/CMSIS_RTOS_V2/cmsis_os2.c ****   if (IS_IRQ()) {
 1605              		.loc 1 469 0
 1606 000e 002B     		cmp	r3, #0
 1607 0010 0FD1     		bne	.L142
ARM GAS  /tmp/ccB5BhZs.s 			page 50


 1608              	.LBB388:
 1609              	.LBB389:
 386:Firmware/Drivers/CMSIS/Include/cmsis_gcc.h ****   return(result);
 1610              		.loc 2 386 0 discriminator 1
 1611              		.syntax unified
 1612              	@ 386 "Firmware/Drivers/CMSIS/Include/cmsis_gcc.h" 1
 1613 0012 EFF31083 		MRS r3, primask
 1614              	@ 0 "" 2
 1615              		.thumb
 1616              		.syntax unified
 1617 0016 7B60     		str	r3, [r7, #4]
 387:Firmware/Drivers/CMSIS/Include/cmsis_gcc.h **** }
 1618              		.loc 2 387 0 discriminator 1
 1619 0018 7B68     		ldr	r3, [r7, #4]
 1620              	.LBE389:
 1621              	.LBE388:
 1622              		.loc 1 469 0 discriminator 1
 1623 001a 002B     		cmp	r3, #0
 1624 001c 09D1     		bne	.L142
 1625              		.loc 1 469 0 is_stmt 0 discriminator 2
 1626 001e 0A4B     		ldr	r3, .L148
 1627 0020 1B68     		ldr	r3, [r3]
 1628 0022 022B     		cmp	r3, #2
 1629 0024 08D1     		bne	.L144
 1630              	.LBB390:
 1631              	.LBB391:
 465:Firmware/Drivers/CMSIS/Include/cmsis_gcc.h ****   return(result);
 1632              		.loc 2 465 0 is_stmt 1 discriminator 3
 1633              		.syntax unified
 1634              	@ 465 "Firmware/Drivers/CMSIS/Include/cmsis_gcc.h" 1
 1635 0026 EFF31183 		MRS r3, basepri
 1636              	@ 0 "" 2
 1637              		.thumb
 1638              		.syntax unified
 1639 002a 3B60     		str	r3, [r7]
 1640              		.loc 2 466 0 discriminator 3
 1641 002c 3B68     		ldr	r3, [r7]
 1642              	.LBE391:
 1643              	.LBE390:
 1644              		.loc 1 469 0 discriminator 3
 1645 002e 002B     		cmp	r3, #0
 1646 0030 02D0     		beq	.L144
 1647              	.L142:
 470:Firmware/Middlewares/Third_Party/FreeRTOS/Source/CMSIS_RTOS_V2/cmsis_os2.c ****     id = NULL;
 1648              		.loc 1 470 0
 1649 0032 0023     		movs	r3, #0
 1650 0034 FB60     		str	r3, [r7, #12]
 1651 0036 02E0     		b	.L146
 1652              	.L144:
 471:Firmware/Middlewares/Third_Party/FreeRTOS/Source/CMSIS_RTOS_V2/cmsis_os2.c ****   } else {
 472:Firmware/Middlewares/Third_Party/FreeRTOS/Source/CMSIS_RTOS_V2/cmsis_os2.c ****     id = (osThreadId_t)xTaskGetCurrentTaskHandle();
 1653              		.loc 1 472 0
 1654 0038 FFF7FEFF 		bl	xTaskGetCurrentTaskHandle
 1655 003c F860     		str	r0, [r7, #12]
 1656              	.L146:
 473:Firmware/Middlewares/Third_Party/FreeRTOS/Source/CMSIS_RTOS_V2/cmsis_os2.c ****   }
 474:Firmware/Middlewares/Third_Party/FreeRTOS/Source/CMSIS_RTOS_V2/cmsis_os2.c **** 
ARM GAS  /tmp/ccB5BhZs.s 			page 51


 475:Firmware/Middlewares/Third_Party/FreeRTOS/Source/CMSIS_RTOS_V2/cmsis_os2.c ****   return (id);
 1657              		.loc 1 475 0
 1658 003e FB68     		ldr	r3, [r7, #12]
 476:Firmware/Middlewares/Third_Party/FreeRTOS/Source/CMSIS_RTOS_V2/cmsis_os2.c **** }
 1659              		.loc 1 476 0
 1660 0040 1846     		mov	r0, r3
 1661 0042 1037     		adds	r7, r7, #16
 1662              	.LCFI67:
 1663              		.cfi_def_cfa_offset 8
 1664 0044 BD46     		mov	sp, r7
 1665              	.LCFI68:
 1666              		.cfi_def_cfa_register 13
 1667              		@ sp needed
 1668 0046 80BD     		pop	{r7, pc}
 1669              	.L149:
 1670              		.align	2
 1671              	.L148:
 1672 0048 00000000 		.word	KernelState
 1673              		.cfi_endproc
 1674              	.LFE119:
 1676              		.section	.text.osThreadGetState,"ax",%progbits
 1677              		.align	1
 1678              		.global	osThreadGetState
 1679              		.syntax unified
 1680              		.thumb
 1681              		.thumb_func
 1682              		.fpu fpv4-sp-d16
 1684              	osThreadGetState:
 1685              	.LFB120:
 477:Firmware/Middlewares/Third_Party/FreeRTOS/Source/CMSIS_RTOS_V2/cmsis_os2.c **** 
 478:Firmware/Middlewares/Third_Party/FreeRTOS/Source/CMSIS_RTOS_V2/cmsis_os2.c **** osThreadState_t osThreadGetState (osThreadId_t thread_id) {
 1686              		.loc 1 478 0
 1687              		.cfi_startproc
 1688              		@ args = 0, pretend = 0, frame = 32
 1689              		@ frame_needed = 1, uses_anonymous_args = 0
 1690 0000 80B5     		push	{r7, lr}
 1691              	.LCFI69:
 1692              		.cfi_def_cfa_offset 8
 1693              		.cfi_offset 7, -8
 1694              		.cfi_offset 14, -4
 1695 0002 88B0     		sub	sp, sp, #32
 1696              	.LCFI70:
 1697              		.cfi_def_cfa_offset 40
 1698 0004 00AF     		add	r7, sp, #0
 1699              	.LCFI71:
 1700              		.cfi_def_cfa_register 7
 1701 0006 7860     		str	r0, [r7, #4]
 479:Firmware/Middlewares/Third_Party/FreeRTOS/Source/CMSIS_RTOS_V2/cmsis_os2.c ****   TaskHandle_t hTask = (TaskHandle_t)thread_id;
 1702              		.loc 1 479 0
 1703 0008 7B68     		ldr	r3, [r7, #4]
 1704 000a BB61     		str	r3, [r7, #24]
 1705              	.LBB392:
 1706              	.LBB393:
 209:Firmware/Drivers/CMSIS/Include/cmsis_gcc.h ****   return(result);
 1707              		.loc 2 209 0
 1708              		.syntax unified
 1709              	@ 209 "Firmware/Drivers/CMSIS/Include/cmsis_gcc.h" 1
ARM GAS  /tmp/ccB5BhZs.s 			page 52


 1710 000c EFF30583 		MRS r3, ipsr
 1711              	@ 0 "" 2
 1712              		.thumb
 1713              		.syntax unified
 1714 0010 7B61     		str	r3, [r7, #20]
 210:Firmware/Drivers/CMSIS/Include/cmsis_gcc.h **** }
 1715              		.loc 2 210 0
 1716 0012 7B69     		ldr	r3, [r7, #20]
 1717              	.LBE393:
 1718              	.LBE392:
 480:Firmware/Middlewares/Third_Party/FreeRTOS/Source/CMSIS_RTOS_V2/cmsis_os2.c ****   osThreadState_t state;
 481:Firmware/Middlewares/Third_Party/FreeRTOS/Source/CMSIS_RTOS_V2/cmsis_os2.c **** 
 482:Firmware/Middlewares/Third_Party/FreeRTOS/Source/CMSIS_RTOS_V2/cmsis_os2.c ****   if (IS_IRQ() || (hTask == NULL)) {
 1719              		.loc 1 482 0
 1720 0014 002B     		cmp	r3, #0
 1721 0016 12D1     		bne	.L152
 1722              	.LBB394:
 1723              	.LBB395:
 386:Firmware/Drivers/CMSIS/Include/cmsis_gcc.h ****   return(result);
 1724              		.loc 2 386 0 discriminator 1
 1725              		.syntax unified
 1726              	@ 386 "Firmware/Drivers/CMSIS/Include/cmsis_gcc.h" 1
 1727 0018 EFF31083 		MRS r3, primask
 1728              	@ 0 "" 2
 1729              		.thumb
 1730              		.syntax unified
 1731 001c 3B61     		str	r3, [r7, #16]
 387:Firmware/Drivers/CMSIS/Include/cmsis_gcc.h **** }
 1732              		.loc 2 387 0 discriminator 1
 1733 001e 3B69     		ldr	r3, [r7, #16]
 1734              	.LBE395:
 1735              	.LBE394:
 1736              		.loc 1 482 0 discriminator 1
 1737 0020 002B     		cmp	r3, #0
 1738 0022 0CD1     		bne	.L152
 1739              		.loc 1 482 0 is_stmt 0 discriminator 2
 1740 0024 1C4B     		ldr	r3, .L165
 1741 0026 1B68     		ldr	r3, [r3]
 1742 0028 022B     		cmp	r3, #2
 1743 002a 05D1     		bne	.L154
 1744              	.LBB396:
 1745              	.LBB397:
 465:Firmware/Drivers/CMSIS/Include/cmsis_gcc.h ****   return(result);
 1746              		.loc 2 465 0 is_stmt 1 discriminator 3
 1747              		.syntax unified
 1748              	@ 465 "Firmware/Drivers/CMSIS/Include/cmsis_gcc.h" 1
 1749 002c EFF31183 		MRS r3, basepri
 1750              	@ 0 "" 2
 1751              		.thumb
 1752              		.syntax unified
 1753 0030 FB60     		str	r3, [r7, #12]
 1754              		.loc 2 466 0 discriminator 3
 1755 0032 FB68     		ldr	r3, [r7, #12]
 1756              	.LBE397:
 1757              	.LBE396:
 1758              		.loc 1 482 0 discriminator 3
 1759 0034 002B     		cmp	r3, #0
ARM GAS  /tmp/ccB5BhZs.s 			page 53


 1760 0036 02D1     		bne	.L152
 1761              	.L154:
 1762              		.loc 1 482 0 is_stmt 0 discriminator 5
 1763 0038 BB69     		ldr	r3, [r7, #24]
 1764 003a 002B     		cmp	r3, #0
 1765 003c 03D1     		bne	.L156
 1766              	.L152:
 483:Firmware/Middlewares/Third_Party/FreeRTOS/Source/CMSIS_RTOS_V2/cmsis_os2.c ****     state = osThreadError;
 1767              		.loc 1 483 0 is_stmt 1
 1768 003e 4FF0FF33 		mov	r3, #-1
 1769 0042 FB61     		str	r3, [r7, #28]
 1770 0044 22E0     		b	.L157
 1771              	.L156:
 484:Firmware/Middlewares/Third_Party/FreeRTOS/Source/CMSIS_RTOS_V2/cmsis_os2.c ****   }
 485:Firmware/Middlewares/Third_Party/FreeRTOS/Source/CMSIS_RTOS_V2/cmsis_os2.c ****   else {
 486:Firmware/Middlewares/Third_Party/FreeRTOS/Source/CMSIS_RTOS_V2/cmsis_os2.c ****     switch (eTaskGetState (hTask)) {
 1772              		.loc 1 486 0
 1773 0046 B869     		ldr	r0, [r7, #24]
 1774 0048 FFF7FEFF 		bl	eTaskGetState
 1775 004c 0346     		mov	r3, r0
 1776 004e 042B     		cmp	r3, #4
 1777 0050 18D8     		bhi	.L158
 1778 0052 01A2     		adr	r2, .L160
 1779 0054 52F823F0 		ldr	pc, [r2, r3, lsl #2]
 1780              		.p2align 2
 1781              	.L160:
 1782 0058 6D000000 		.word	.L159+1
 1783 005c 73000000 		.word	.L161+1
 1784 0060 79000000 		.word	.L162+1
 1785 0064 79000000 		.word	.L162+1
 1786 0068 7F000000 		.word	.L163+1
 1787              		.p2align 1
 1788              	.L159:
 487:Firmware/Middlewares/Third_Party/FreeRTOS/Source/CMSIS_RTOS_V2/cmsis_os2.c ****       case eRunning:   state = osThreadRunning;    break;
 1789              		.loc 1 487 0
 1790 006c 0223     		movs	r3, #2
 1791 006e FB61     		str	r3, [r7, #28]
 1792 0070 0CE0     		b	.L157
 1793              	.L161:
 488:Firmware/Middlewares/Third_Party/FreeRTOS/Source/CMSIS_RTOS_V2/cmsis_os2.c ****       case eReady:     state = osThreadReady;      break;
 1794              		.loc 1 488 0
 1795 0072 0123     		movs	r3, #1
 1796 0074 FB61     		str	r3, [r7, #28]
 1797 0076 09E0     		b	.L157
 1798              	.L162:
 489:Firmware/Middlewares/Third_Party/FreeRTOS/Source/CMSIS_RTOS_V2/cmsis_os2.c ****       case eBlocked:
 490:Firmware/Middlewares/Third_Party/FreeRTOS/Source/CMSIS_RTOS_V2/cmsis_os2.c ****       case eSuspended: state = osThreadBlocked;    break;
 1799              		.loc 1 490 0
 1800 0078 0323     		movs	r3, #3
 1801 007a FB61     		str	r3, [r7, #28]
 1802 007c 06E0     		b	.L157
 1803              	.L163:
 491:Firmware/Middlewares/Third_Party/FreeRTOS/Source/CMSIS_RTOS_V2/cmsis_os2.c ****       case eDeleted:   state = osThreadTerminated; break;
 1804              		.loc 1 491 0
 1805 007e 0423     		movs	r3, #4
 1806 0080 FB61     		str	r3, [r7, #28]
 1807 0082 03E0     		b	.L157
ARM GAS  /tmp/ccB5BhZs.s 			page 54


 1808              	.L158:
 492:Firmware/Middlewares/Third_Party/FreeRTOS/Source/CMSIS_RTOS_V2/cmsis_os2.c ****       case eInvalid:
 493:Firmware/Middlewares/Third_Party/FreeRTOS/Source/CMSIS_RTOS_V2/cmsis_os2.c ****       default:         state = osThreadError;      break;
 1809              		.loc 1 493 0
 1810 0084 4FF0FF33 		mov	r3, #-1
 1811 0088 FB61     		str	r3, [r7, #28]
 1812 008a 00BF     		nop
 1813              	.L157:
 494:Firmware/Middlewares/Third_Party/FreeRTOS/Source/CMSIS_RTOS_V2/cmsis_os2.c ****     }
 495:Firmware/Middlewares/Third_Party/FreeRTOS/Source/CMSIS_RTOS_V2/cmsis_os2.c ****   }
 496:Firmware/Middlewares/Third_Party/FreeRTOS/Source/CMSIS_RTOS_V2/cmsis_os2.c **** 
 497:Firmware/Middlewares/Third_Party/FreeRTOS/Source/CMSIS_RTOS_V2/cmsis_os2.c ****   return (state);
 1814              		.loc 1 497 0
 1815 008c FB69     		ldr	r3, [r7, #28]
 498:Firmware/Middlewares/Third_Party/FreeRTOS/Source/CMSIS_RTOS_V2/cmsis_os2.c **** }
 1816              		.loc 1 498 0
 1817 008e 1846     		mov	r0, r3
 1818 0090 2037     		adds	r7, r7, #32
 1819              	.LCFI72:
 1820              		.cfi_def_cfa_offset 8
 1821 0092 BD46     		mov	sp, r7
 1822              	.LCFI73:
 1823              		.cfi_def_cfa_register 13
 1824              		@ sp needed
 1825 0094 80BD     		pop	{r7, pc}
 1826              	.L166:
 1827 0096 00BF     		.align	2
 1828              	.L165:
 1829 0098 00000000 		.word	KernelState
 1830              		.cfi_endproc
 1831              	.LFE120:
 1833              		.section	.text.osThreadGetStackSpace,"ax",%progbits
 1834              		.align	1
 1835              		.global	osThreadGetStackSpace
 1836              		.syntax unified
 1837              		.thumb
 1838              		.thumb_func
 1839              		.fpu fpv4-sp-d16
 1841              	osThreadGetStackSpace:
 1842              	.LFB121:
 499:Firmware/Middlewares/Third_Party/FreeRTOS/Source/CMSIS_RTOS_V2/cmsis_os2.c **** 
 500:Firmware/Middlewares/Third_Party/FreeRTOS/Source/CMSIS_RTOS_V2/cmsis_os2.c **** uint32_t osThreadGetStackSpace (osThreadId_t thread_id) {
 1843              		.loc 1 500 0
 1844              		.cfi_startproc
 1845              		@ args = 0, pretend = 0, frame = 32
 1846              		@ frame_needed = 1, uses_anonymous_args = 0
 1847 0000 80B5     		push	{r7, lr}
 1848              	.LCFI74:
 1849              		.cfi_def_cfa_offset 8
 1850              		.cfi_offset 7, -8
 1851              		.cfi_offset 14, -4
 1852 0002 88B0     		sub	sp, sp, #32
 1853              	.LCFI75:
 1854              		.cfi_def_cfa_offset 40
 1855 0004 00AF     		add	r7, sp, #0
 1856              	.LCFI76:
 1857              		.cfi_def_cfa_register 7
ARM GAS  /tmp/ccB5BhZs.s 			page 55


 1858 0006 7860     		str	r0, [r7, #4]
 501:Firmware/Middlewares/Third_Party/FreeRTOS/Source/CMSIS_RTOS_V2/cmsis_os2.c ****   TaskHandle_t hTask = (TaskHandle_t)thread_id;
 1859              		.loc 1 501 0
 1860 0008 7B68     		ldr	r3, [r7, #4]
 1861 000a BB61     		str	r3, [r7, #24]
 1862              	.LBB398:
 1863              	.LBB399:
 209:Firmware/Drivers/CMSIS/Include/cmsis_gcc.h ****   return(result);
 1864              		.loc 2 209 0
 1865              		.syntax unified
 1866              	@ 209 "Firmware/Drivers/CMSIS/Include/cmsis_gcc.h" 1
 1867 000c EFF30583 		MRS r3, ipsr
 1868              	@ 0 "" 2
 1869              		.thumb
 1870              		.syntax unified
 1871 0010 7B61     		str	r3, [r7, #20]
 210:Firmware/Drivers/CMSIS/Include/cmsis_gcc.h **** }
 1872              		.loc 2 210 0
 1873 0012 7B69     		ldr	r3, [r7, #20]
 1874              	.LBE399:
 1875              	.LBE398:
 502:Firmware/Middlewares/Third_Party/FreeRTOS/Source/CMSIS_RTOS_V2/cmsis_os2.c ****   uint32_t sz;
 503:Firmware/Middlewares/Third_Party/FreeRTOS/Source/CMSIS_RTOS_V2/cmsis_os2.c **** 
 504:Firmware/Middlewares/Third_Party/FreeRTOS/Source/CMSIS_RTOS_V2/cmsis_os2.c ****   if (IS_IRQ() || (hTask == NULL)) {
 1876              		.loc 1 504 0
 1877 0014 002B     		cmp	r3, #0
 1878 0016 12D1     		bne	.L169
 1879              	.LBB400:
 1880              	.LBB401:
 386:Firmware/Drivers/CMSIS/Include/cmsis_gcc.h ****   return(result);
 1881              		.loc 2 386 0 discriminator 1
 1882              		.syntax unified
 1883              	@ 386 "Firmware/Drivers/CMSIS/Include/cmsis_gcc.h" 1
 1884 0018 EFF31083 		MRS r3, primask
 1885              	@ 0 "" 2
 1886              		.thumb
 1887              		.syntax unified
 1888 001c 3B61     		str	r3, [r7, #16]
 387:Firmware/Drivers/CMSIS/Include/cmsis_gcc.h **** }
 1889              		.loc 2 387 0 discriminator 1
 1890 001e 3B69     		ldr	r3, [r7, #16]
 1891              	.LBE401:
 1892              	.LBE400:
 1893              		.loc 1 504 0 discriminator 1
 1894 0020 002B     		cmp	r3, #0
 1895 0022 0CD1     		bne	.L169
 1896              		.loc 1 504 0 is_stmt 0 discriminator 2
 1897 0024 0C4B     		ldr	r3, .L176
 1898 0026 1B68     		ldr	r3, [r3]
 1899 0028 022B     		cmp	r3, #2
 1900 002a 05D1     		bne	.L171
 1901              	.LBB402:
 1902              	.LBB403:
 465:Firmware/Drivers/CMSIS/Include/cmsis_gcc.h ****   return(result);
 1903              		.loc 2 465 0 is_stmt 1 discriminator 3
 1904              		.syntax unified
 1905              	@ 465 "Firmware/Drivers/CMSIS/Include/cmsis_gcc.h" 1
ARM GAS  /tmp/ccB5BhZs.s 			page 56


 1906 002c EFF31183 		MRS r3, basepri
 1907              	@ 0 "" 2
 1908              		.thumb
 1909              		.syntax unified
 1910 0030 FB60     		str	r3, [r7, #12]
 1911              		.loc 2 466 0 discriminator 3
 1912 0032 FB68     		ldr	r3, [r7, #12]
 1913              	.LBE403:
 1914              	.LBE402:
 1915              		.loc 1 504 0 discriminator 3
 1916 0034 002B     		cmp	r3, #0
 1917 0036 02D1     		bne	.L169
 1918              	.L171:
 1919              		.loc 1 504 0 is_stmt 0 discriminator 5
 1920 0038 BB69     		ldr	r3, [r7, #24]
 1921 003a 002B     		cmp	r3, #0
 1922 003c 02D1     		bne	.L173
 1923              	.L169:
 505:Firmware/Middlewares/Third_Party/FreeRTOS/Source/CMSIS_RTOS_V2/cmsis_os2.c ****     sz = 0U;
 1924              		.loc 1 505 0 is_stmt 1
 1925 003e 0023     		movs	r3, #0
 1926 0040 FB61     		str	r3, [r7, #28]
 1927 0042 03E0     		b	.L174
 1928              	.L173:
 506:Firmware/Middlewares/Third_Party/FreeRTOS/Source/CMSIS_RTOS_V2/cmsis_os2.c ****   } else {
 507:Firmware/Middlewares/Third_Party/FreeRTOS/Source/CMSIS_RTOS_V2/cmsis_os2.c ****     sz = (uint32_t)uxTaskGetStackHighWaterMark (hTask);
 1929              		.loc 1 507 0
 1930 0044 B869     		ldr	r0, [r7, #24]
 1931 0046 FFF7FEFF 		bl	uxTaskGetStackHighWaterMark
 1932 004a F861     		str	r0, [r7, #28]
 1933              	.L174:
 508:Firmware/Middlewares/Third_Party/FreeRTOS/Source/CMSIS_RTOS_V2/cmsis_os2.c ****   }
 509:Firmware/Middlewares/Third_Party/FreeRTOS/Source/CMSIS_RTOS_V2/cmsis_os2.c **** 
 510:Firmware/Middlewares/Third_Party/FreeRTOS/Source/CMSIS_RTOS_V2/cmsis_os2.c ****   return (sz);
 1934              		.loc 1 510 0
 1935 004c FB69     		ldr	r3, [r7, #28]
 511:Firmware/Middlewares/Third_Party/FreeRTOS/Source/CMSIS_RTOS_V2/cmsis_os2.c **** }
 1936              		.loc 1 511 0
 1937 004e 1846     		mov	r0, r3
 1938 0050 2037     		adds	r7, r7, #32
 1939              	.LCFI77:
 1940              		.cfi_def_cfa_offset 8
 1941 0052 BD46     		mov	sp, r7
 1942              	.LCFI78:
 1943              		.cfi_def_cfa_register 13
 1944              		@ sp needed
 1945 0054 80BD     		pop	{r7, pc}
 1946              	.L177:
 1947 0056 00BF     		.align	2
 1948              	.L176:
 1949 0058 00000000 		.word	KernelState
 1950              		.cfi_endproc
 1951              	.LFE121:
 1953              		.section	.text.osThreadGetStackSize,"ax",%progbits
 1954              		.align	1
 1955              		.global	osThreadGetStackSize
 1956              		.syntax unified
ARM GAS  /tmp/ccB5BhZs.s 			page 57


 1957              		.thumb
 1958              		.thumb_func
 1959              		.fpu fpv4-sp-d16
 1961              	osThreadGetStackSize:
 1962              	.LFB122:
 512:Firmware/Middlewares/Third_Party/FreeRTOS/Source/CMSIS_RTOS_V2/cmsis_os2.c **** 
 513:Firmware/Middlewares/Third_Party/FreeRTOS/Source/CMSIS_RTOS_V2/cmsis_os2.c **** uint32_t osThreadGetStackSize	(osThreadId_t thread_id) {
 1963              		.loc 1 513 0
 1964              		.cfi_startproc
 1965              		@ args = 0, pretend = 0, frame = 8
 1966              		@ frame_needed = 1, uses_anonymous_args = 0
 1967              		@ link register save eliminated.
 1968 0000 80B4     		push	{r7}
 1969              	.LCFI79:
 1970              		.cfi_def_cfa_offset 4
 1971              		.cfi_offset 7, -4
 1972 0002 83B0     		sub	sp, sp, #12
 1973              	.LCFI80:
 1974              		.cfi_def_cfa_offset 16
 1975 0004 00AF     		add	r7, sp, #0
 1976              	.LCFI81:
 1977              		.cfi_def_cfa_register 7
 1978 0006 7860     		str	r0, [r7, #4]
 514:Firmware/Middlewares/Third_Party/FreeRTOS/Source/CMSIS_RTOS_V2/cmsis_os2.c ****   /*
 515:Firmware/Middlewares/Third_Party/FreeRTOS/Source/CMSIS_RTOS_V2/cmsis_os2.c ****    * this implmentation is not correct.
 516:Firmware/Middlewares/Third_Party/FreeRTOS/Source/CMSIS_RTOS_V2/cmsis_os2.c ****    * this function is implmented to avoid link errors (undefined reference)
 517:Firmware/Middlewares/Third_Party/FreeRTOS/Source/CMSIS_RTOS_V2/cmsis_os2.c ****    * Bug reported : https://github.com/ARM-software/CMSIS-FreeRTOS/issues/14
 518:Firmware/Middlewares/Third_Party/FreeRTOS/Source/CMSIS_RTOS_V2/cmsis_os2.c ****    */
 519:Firmware/Middlewares/Third_Party/FreeRTOS/Source/CMSIS_RTOS_V2/cmsis_os2.c ****   (void) thread_id;
 520:Firmware/Middlewares/Third_Party/FreeRTOS/Source/CMSIS_RTOS_V2/cmsis_os2.c ****   return 0;
 1979              		.loc 1 520 0
 1980 0008 0023     		movs	r3, #0
 521:Firmware/Middlewares/Third_Party/FreeRTOS/Source/CMSIS_RTOS_V2/cmsis_os2.c **** }
 1981              		.loc 1 521 0
 1982 000a 1846     		mov	r0, r3
 1983 000c 0C37     		adds	r7, r7, #12
 1984              	.LCFI82:
 1985              		.cfi_def_cfa_offset 4
 1986 000e BD46     		mov	sp, r7
 1987              	.LCFI83:
 1988              		.cfi_def_cfa_register 13
 1989              		@ sp needed
 1990 0010 5DF8047B 		ldr	r7, [sp], #4
 1991              	.LCFI84:
 1992              		.cfi_restore 7
 1993              		.cfi_def_cfa_offset 0
 1994 0014 7047     		bx	lr
 1995              		.cfi_endproc
 1996              	.LFE122:
 1998              		.section	.text.osThreadSetPriority,"ax",%progbits
 1999              		.align	1
 2000              		.global	osThreadSetPriority
 2001              		.syntax unified
 2002              		.thumb
 2003              		.thumb_func
 2004              		.fpu fpv4-sp-d16
 2006              	osThreadSetPriority:
ARM GAS  /tmp/ccB5BhZs.s 			page 58


 2007              	.LFB123:
 522:Firmware/Middlewares/Third_Party/FreeRTOS/Source/CMSIS_RTOS_V2/cmsis_os2.c **** 
 523:Firmware/Middlewares/Third_Party/FreeRTOS/Source/CMSIS_RTOS_V2/cmsis_os2.c **** osStatus_t osThreadSetPriority (osThreadId_t thread_id, osPriority_t priority) {
 2008              		.loc 1 523 0
 2009              		.cfi_startproc
 2010              		@ args = 0, pretend = 0, frame = 32
 2011              		@ frame_needed = 1, uses_anonymous_args = 0
 2012 0000 80B5     		push	{r7, lr}
 2013              	.LCFI85:
 2014              		.cfi_def_cfa_offset 8
 2015              		.cfi_offset 7, -8
 2016              		.cfi_offset 14, -4
 2017 0002 88B0     		sub	sp, sp, #32
 2018              	.LCFI86:
 2019              		.cfi_def_cfa_offset 40
 2020 0004 00AF     		add	r7, sp, #0
 2021              	.LCFI87:
 2022              		.cfi_def_cfa_register 7
 2023 0006 7860     		str	r0, [r7, #4]
 2024 0008 3960     		str	r1, [r7]
 524:Firmware/Middlewares/Third_Party/FreeRTOS/Source/CMSIS_RTOS_V2/cmsis_os2.c ****   TaskHandle_t hTask = (TaskHandle_t)thread_id;
 2025              		.loc 1 524 0
 2026 000a 7B68     		ldr	r3, [r7, #4]
 2027 000c BB61     		str	r3, [r7, #24]
 2028              	.LBB404:
 2029              	.LBB405:
 209:Firmware/Drivers/CMSIS/Include/cmsis_gcc.h ****   return(result);
 2030              		.loc 2 209 0
 2031              		.syntax unified
 2032              	@ 209 "Firmware/Drivers/CMSIS/Include/cmsis_gcc.h" 1
 2033 000e EFF30583 		MRS r3, ipsr
 2034              	@ 0 "" 2
 2035              		.thumb
 2036              		.syntax unified
 2037 0012 7B61     		str	r3, [r7, #20]
 210:Firmware/Drivers/CMSIS/Include/cmsis_gcc.h **** }
 2038              		.loc 2 210 0
 2039 0014 7B69     		ldr	r3, [r7, #20]
 2040              	.LBE405:
 2041              	.LBE404:
 525:Firmware/Middlewares/Third_Party/FreeRTOS/Source/CMSIS_RTOS_V2/cmsis_os2.c ****   osStatus_t stat;
 526:Firmware/Middlewares/Third_Party/FreeRTOS/Source/CMSIS_RTOS_V2/cmsis_os2.c **** 
 527:Firmware/Middlewares/Third_Party/FreeRTOS/Source/CMSIS_RTOS_V2/cmsis_os2.c ****   if (IS_IRQ()) {
 2042              		.loc 1 527 0
 2043 0016 002B     		cmp	r3, #0
 2044 0018 0FD1     		bne	.L182
 2045              	.LBB406:
 2046              	.LBB407:
 386:Firmware/Drivers/CMSIS/Include/cmsis_gcc.h ****   return(result);
 2047              		.loc 2 386 0 discriminator 1
 2048              		.syntax unified
 2049              	@ 386 "Firmware/Drivers/CMSIS/Include/cmsis_gcc.h" 1
 2050 001a EFF31083 		MRS r3, primask
 2051              	@ 0 "" 2
 2052              		.thumb
 2053              		.syntax unified
 2054 001e 3B61     		str	r3, [r7, #16]
ARM GAS  /tmp/ccB5BhZs.s 			page 59


 387:Firmware/Drivers/CMSIS/Include/cmsis_gcc.h **** }
 2055              		.loc 2 387 0 discriminator 1
 2056 0020 3B69     		ldr	r3, [r7, #16]
 2057              	.LBE407:
 2058              	.LBE406:
 2059              		.loc 1 527 0 discriminator 1
 2060 0022 002B     		cmp	r3, #0
 2061 0024 09D1     		bne	.L182
 2062              		.loc 1 527 0 is_stmt 0 discriminator 2
 2063 0026 134B     		ldr	r3, .L190
 2064 0028 1B68     		ldr	r3, [r3]
 2065 002a 022B     		cmp	r3, #2
 2066 002c 09D1     		bne	.L184
 2067              	.LBB408:
 2068              	.LBB409:
 465:Firmware/Drivers/CMSIS/Include/cmsis_gcc.h ****   return(result);
 2069              		.loc 2 465 0 is_stmt 1 discriminator 3
 2070              		.syntax unified
 2071              	@ 465 "Firmware/Drivers/CMSIS/Include/cmsis_gcc.h" 1
 2072 002e EFF31183 		MRS r3, basepri
 2073              	@ 0 "" 2
 2074              		.thumb
 2075              		.syntax unified
 2076 0032 FB60     		str	r3, [r7, #12]
 2077              		.loc 2 466 0 discriminator 3
 2078 0034 FB68     		ldr	r3, [r7, #12]
 2079              	.LBE409:
 2080              	.LBE408:
 2081              		.loc 1 527 0 discriminator 3
 2082 0036 002B     		cmp	r3, #0
 2083 0038 03D0     		beq	.L184
 2084              	.L182:
 528:Firmware/Middlewares/Third_Party/FreeRTOS/Source/CMSIS_RTOS_V2/cmsis_os2.c ****     stat = osErrorISR;
 2085              		.loc 1 528 0
 2086 003a 6FF00503 		mvn	r3, #5
 2087 003e FB61     		str	r3, [r7, #28]
 2088 0040 13E0     		b	.L186
 2089              	.L184:
 529:Firmware/Middlewares/Third_Party/FreeRTOS/Source/CMSIS_RTOS_V2/cmsis_os2.c ****   }
 530:Firmware/Middlewares/Third_Party/FreeRTOS/Source/CMSIS_RTOS_V2/cmsis_os2.c ****   else if ((hTask == NULL) || (priority < osPriorityIdle) || (priority > osPriorityISR)) {
 2090              		.loc 1 530 0
 2091 0042 BB69     		ldr	r3, [r7, #24]
 2092 0044 002B     		cmp	r3, #0
 2093 0046 05D0     		beq	.L187
 2094              		.loc 1 530 0 is_stmt 0 discriminator 1
 2095 0048 3B68     		ldr	r3, [r7]
 2096 004a 002B     		cmp	r3, #0
 2097 004c 02DD     		ble	.L187
 2098              		.loc 1 530 0 discriminator 2
 2099 004e 3B68     		ldr	r3, [r7]
 2100 0050 382B     		cmp	r3, #56
 2101 0052 03DD     		ble	.L188
 2102              	.L187:
 531:Firmware/Middlewares/Third_Party/FreeRTOS/Source/CMSIS_RTOS_V2/cmsis_os2.c ****     stat = osErrorParameter;
 2103              		.loc 1 531 0 is_stmt 1
 2104 0054 6FF00303 		mvn	r3, #3
 2105 0058 FB61     		str	r3, [r7, #28]
ARM GAS  /tmp/ccB5BhZs.s 			page 60


 2106 005a 06E0     		b	.L186
 2107              	.L188:
 532:Firmware/Middlewares/Third_Party/FreeRTOS/Source/CMSIS_RTOS_V2/cmsis_os2.c ****   }
 533:Firmware/Middlewares/Third_Party/FreeRTOS/Source/CMSIS_RTOS_V2/cmsis_os2.c ****   else {
 534:Firmware/Middlewares/Third_Party/FreeRTOS/Source/CMSIS_RTOS_V2/cmsis_os2.c ****     stat = osOK;
 2108              		.loc 1 534 0
 2109 005c 0023     		movs	r3, #0
 2110 005e FB61     		str	r3, [r7, #28]
 535:Firmware/Middlewares/Third_Party/FreeRTOS/Source/CMSIS_RTOS_V2/cmsis_os2.c ****     vTaskPrioritySet (hTask, (UBaseType_t)priority);
 2111              		.loc 1 535 0
 2112 0060 3B68     		ldr	r3, [r7]
 2113 0062 1946     		mov	r1, r3
 2114 0064 B869     		ldr	r0, [r7, #24]
 2115 0066 FFF7FEFF 		bl	vTaskPrioritySet
 2116              	.L186:
 536:Firmware/Middlewares/Third_Party/FreeRTOS/Source/CMSIS_RTOS_V2/cmsis_os2.c ****   }
 537:Firmware/Middlewares/Third_Party/FreeRTOS/Source/CMSIS_RTOS_V2/cmsis_os2.c **** 
 538:Firmware/Middlewares/Third_Party/FreeRTOS/Source/CMSIS_RTOS_V2/cmsis_os2.c ****   return (stat);
 2117              		.loc 1 538 0
 2118 006a FB69     		ldr	r3, [r7, #28]
 539:Firmware/Middlewares/Third_Party/FreeRTOS/Source/CMSIS_RTOS_V2/cmsis_os2.c **** }
 2119              		.loc 1 539 0
 2120 006c 1846     		mov	r0, r3
 2121 006e 2037     		adds	r7, r7, #32
 2122              	.LCFI88:
 2123              		.cfi_def_cfa_offset 8
 2124 0070 BD46     		mov	sp, r7
 2125              	.LCFI89:
 2126              		.cfi_def_cfa_register 13
 2127              		@ sp needed
 2128 0072 80BD     		pop	{r7, pc}
 2129              	.L191:
 2130              		.align	2
 2131              	.L190:
 2132 0074 00000000 		.word	KernelState
 2133              		.cfi_endproc
 2134              	.LFE123:
 2136              		.section	.text.osThreadGetPriority,"ax",%progbits
 2137              		.align	1
 2138              		.global	osThreadGetPriority
 2139              		.syntax unified
 2140              		.thumb
 2141              		.thumb_func
 2142              		.fpu fpv4-sp-d16
 2144              	osThreadGetPriority:
 2145              	.LFB124:
 540:Firmware/Middlewares/Third_Party/FreeRTOS/Source/CMSIS_RTOS_V2/cmsis_os2.c **** 
 541:Firmware/Middlewares/Third_Party/FreeRTOS/Source/CMSIS_RTOS_V2/cmsis_os2.c **** osPriority_t osThreadGetPriority (osThreadId_t thread_id) {
 2146              		.loc 1 541 0
 2147              		.cfi_startproc
 2148              		@ args = 0, pretend = 0, frame = 32
 2149              		@ frame_needed = 1, uses_anonymous_args = 0
 2150 0000 80B5     		push	{r7, lr}
 2151              	.LCFI90:
 2152              		.cfi_def_cfa_offset 8
 2153              		.cfi_offset 7, -8
 2154              		.cfi_offset 14, -4
ARM GAS  /tmp/ccB5BhZs.s 			page 61


 2155 0002 88B0     		sub	sp, sp, #32
 2156              	.LCFI91:
 2157              		.cfi_def_cfa_offset 40
 2158 0004 00AF     		add	r7, sp, #0
 2159              	.LCFI92:
 2160              		.cfi_def_cfa_register 7
 2161 0006 7860     		str	r0, [r7, #4]
 542:Firmware/Middlewares/Third_Party/FreeRTOS/Source/CMSIS_RTOS_V2/cmsis_os2.c ****   TaskHandle_t hTask = (TaskHandle_t)thread_id;
 2162              		.loc 1 542 0
 2163 0008 7B68     		ldr	r3, [r7, #4]
 2164 000a BB61     		str	r3, [r7, #24]
 2165              	.LBB410:
 2166              	.LBB411:
 209:Firmware/Drivers/CMSIS/Include/cmsis_gcc.h ****   return(result);
 2167              		.loc 2 209 0
 2168              		.syntax unified
 2169              	@ 209 "Firmware/Drivers/CMSIS/Include/cmsis_gcc.h" 1
 2170 000c EFF30583 		MRS r3, ipsr
 2171              	@ 0 "" 2
 2172              		.thumb
 2173              		.syntax unified
 2174 0010 7B61     		str	r3, [r7, #20]
 210:Firmware/Drivers/CMSIS/Include/cmsis_gcc.h **** }
 2175              		.loc 2 210 0
 2176 0012 7B69     		ldr	r3, [r7, #20]
 2177              	.LBE411:
 2178              	.LBE410:
 543:Firmware/Middlewares/Third_Party/FreeRTOS/Source/CMSIS_RTOS_V2/cmsis_os2.c ****   osPriority_t prio;
 544:Firmware/Middlewares/Third_Party/FreeRTOS/Source/CMSIS_RTOS_V2/cmsis_os2.c **** 
 545:Firmware/Middlewares/Third_Party/FreeRTOS/Source/CMSIS_RTOS_V2/cmsis_os2.c ****   if (IS_IRQ() || (hTask == NULL)) {
 2179              		.loc 1 545 0
 2180 0014 002B     		cmp	r3, #0
 2181 0016 12D1     		bne	.L194
 2182              	.LBB412:
 2183              	.LBB413:
 386:Firmware/Drivers/CMSIS/Include/cmsis_gcc.h ****   return(result);
 2184              		.loc 2 386 0 discriminator 1
 2185              		.syntax unified
 2186              	@ 386 "Firmware/Drivers/CMSIS/Include/cmsis_gcc.h" 1
 2187 0018 EFF31083 		MRS r3, primask
 2188              	@ 0 "" 2
 2189              		.thumb
 2190              		.syntax unified
 2191 001c 3B61     		str	r3, [r7, #16]
 387:Firmware/Drivers/CMSIS/Include/cmsis_gcc.h **** }
 2192              		.loc 2 387 0 discriminator 1
 2193 001e 3B69     		ldr	r3, [r7, #16]
 2194              	.LBE413:
 2195              	.LBE412:
 2196              		.loc 1 545 0 discriminator 1
 2197 0020 002B     		cmp	r3, #0
 2198 0022 0CD1     		bne	.L194
 2199              		.loc 1 545 0 is_stmt 0 discriminator 2
 2200 0024 0D4B     		ldr	r3, .L201
 2201 0026 1B68     		ldr	r3, [r3]
 2202 0028 022B     		cmp	r3, #2
 2203 002a 05D1     		bne	.L196
ARM GAS  /tmp/ccB5BhZs.s 			page 62


 2204              	.LBB414:
 2205              	.LBB415:
 465:Firmware/Drivers/CMSIS/Include/cmsis_gcc.h ****   return(result);
 2206              		.loc 2 465 0 is_stmt 1 discriminator 3
 2207              		.syntax unified
 2208              	@ 465 "Firmware/Drivers/CMSIS/Include/cmsis_gcc.h" 1
 2209 002c EFF31183 		MRS r3, basepri
 2210              	@ 0 "" 2
 2211              		.thumb
 2212              		.syntax unified
 2213 0030 FB60     		str	r3, [r7, #12]
 2214              		.loc 2 466 0 discriminator 3
 2215 0032 FB68     		ldr	r3, [r7, #12]
 2216              	.LBE415:
 2217              	.LBE414:
 2218              		.loc 1 545 0 discriminator 3
 2219 0034 002B     		cmp	r3, #0
 2220 0036 02D1     		bne	.L194
 2221              	.L196:
 2222              		.loc 1 545 0 is_stmt 0 discriminator 5
 2223 0038 BB69     		ldr	r3, [r7, #24]
 2224 003a 002B     		cmp	r3, #0
 2225 003c 03D1     		bne	.L198
 2226              	.L194:
 546:Firmware/Middlewares/Third_Party/FreeRTOS/Source/CMSIS_RTOS_V2/cmsis_os2.c ****     prio = osPriorityError;
 2227              		.loc 1 546 0 is_stmt 1
 2228 003e 4FF0FF33 		mov	r3, #-1
 2229 0042 FB61     		str	r3, [r7, #28]
 2230 0044 04E0     		b	.L199
 2231              	.L198:
 547:Firmware/Middlewares/Third_Party/FreeRTOS/Source/CMSIS_RTOS_V2/cmsis_os2.c ****   } else {
 548:Firmware/Middlewares/Third_Party/FreeRTOS/Source/CMSIS_RTOS_V2/cmsis_os2.c ****     prio = (osPriority_t)uxTaskPriorityGet (hTask);
 2232              		.loc 1 548 0
 2233 0046 B869     		ldr	r0, [r7, #24]
 2234 0048 FFF7FEFF 		bl	uxTaskPriorityGet
 2235 004c 0346     		mov	r3, r0
 2236 004e FB61     		str	r3, [r7, #28]
 2237              	.L199:
 549:Firmware/Middlewares/Third_Party/FreeRTOS/Source/CMSIS_RTOS_V2/cmsis_os2.c ****   }
 550:Firmware/Middlewares/Third_Party/FreeRTOS/Source/CMSIS_RTOS_V2/cmsis_os2.c **** 
 551:Firmware/Middlewares/Third_Party/FreeRTOS/Source/CMSIS_RTOS_V2/cmsis_os2.c ****   return (prio);
 2238              		.loc 1 551 0
 2239 0050 FB69     		ldr	r3, [r7, #28]
 552:Firmware/Middlewares/Third_Party/FreeRTOS/Source/CMSIS_RTOS_V2/cmsis_os2.c **** }
 2240              		.loc 1 552 0
 2241 0052 1846     		mov	r0, r3
 2242 0054 2037     		adds	r7, r7, #32
 2243              	.LCFI93:
 2244              		.cfi_def_cfa_offset 8
 2245 0056 BD46     		mov	sp, r7
 2246              	.LCFI94:
 2247              		.cfi_def_cfa_register 13
 2248              		@ sp needed
 2249 0058 80BD     		pop	{r7, pc}
 2250              	.L202:
 2251 005a 00BF     		.align	2
 2252              	.L201:
ARM GAS  /tmp/ccB5BhZs.s 			page 63


 2253 005c 00000000 		.word	KernelState
 2254              		.cfi_endproc
 2255              	.LFE124:
 2257              		.section	.text.osThreadYield,"ax",%progbits
 2258              		.align	1
 2259              		.global	osThreadYield
 2260              		.syntax unified
 2261              		.thumb
 2262              		.thumb_func
 2263              		.fpu fpv4-sp-d16
 2265              	osThreadYield:
 2266              	.LFB125:
 553:Firmware/Middlewares/Third_Party/FreeRTOS/Source/CMSIS_RTOS_V2/cmsis_os2.c **** 
 554:Firmware/Middlewares/Third_Party/FreeRTOS/Source/CMSIS_RTOS_V2/cmsis_os2.c **** osStatus_t osThreadYield (void) {
 2267              		.loc 1 554 0
 2268              		.cfi_startproc
 2269              		@ args = 0, pretend = 0, frame = 16
 2270              		@ frame_needed = 1, uses_anonymous_args = 0
 2271              		@ link register save eliminated.
 2272 0000 80B4     		push	{r7}
 2273              	.LCFI95:
 2274              		.cfi_def_cfa_offset 4
 2275              		.cfi_offset 7, -4
 2276 0002 85B0     		sub	sp, sp, #20
 2277              	.LCFI96:
 2278              		.cfi_def_cfa_offset 24
 2279 0004 00AF     		add	r7, sp, #0
 2280              	.LCFI97:
 2281              		.cfi_def_cfa_register 7
 2282              	.LBB416:
 2283              	.LBB417:
 209:Firmware/Drivers/CMSIS/Include/cmsis_gcc.h ****   return(result);
 2284              		.loc 2 209 0
 2285              		.syntax unified
 2286              	@ 209 "Firmware/Drivers/CMSIS/Include/cmsis_gcc.h" 1
 2287 0006 EFF30583 		MRS r3, ipsr
 2288              	@ 0 "" 2
 2289              		.thumb
 2290              		.syntax unified
 2291 000a BB60     		str	r3, [r7, #8]
 210:Firmware/Drivers/CMSIS/Include/cmsis_gcc.h **** }
 2292              		.loc 2 210 0
 2293 000c BB68     		ldr	r3, [r7, #8]
 2294              	.LBE417:
 2295              	.LBE416:
 555:Firmware/Middlewares/Third_Party/FreeRTOS/Source/CMSIS_RTOS_V2/cmsis_os2.c ****   osStatus_t stat;
 556:Firmware/Middlewares/Third_Party/FreeRTOS/Source/CMSIS_RTOS_V2/cmsis_os2.c **** 
 557:Firmware/Middlewares/Third_Party/FreeRTOS/Source/CMSIS_RTOS_V2/cmsis_os2.c ****   if (IS_IRQ()) {
 2296              		.loc 1 557 0
 2297 000e 002B     		cmp	r3, #0
 2298 0010 0FD1     		bne	.L205
 2299              	.LBB418:
 2300              	.LBB419:
 386:Firmware/Drivers/CMSIS/Include/cmsis_gcc.h ****   return(result);
 2301              		.loc 2 386 0 discriminator 1
 2302              		.syntax unified
 2303              	@ 386 "Firmware/Drivers/CMSIS/Include/cmsis_gcc.h" 1
ARM GAS  /tmp/ccB5BhZs.s 			page 64


 2304 0012 EFF31083 		MRS r3, primask
 2305              	@ 0 "" 2
 2306              		.thumb
 2307              		.syntax unified
 2308 0016 7B60     		str	r3, [r7, #4]
 387:Firmware/Drivers/CMSIS/Include/cmsis_gcc.h **** }
 2309              		.loc 2 387 0 discriminator 1
 2310 0018 7B68     		ldr	r3, [r7, #4]
 2311              	.LBE419:
 2312              	.LBE418:
 2313              		.loc 1 557 0 discriminator 1
 2314 001a 002B     		cmp	r3, #0
 2315 001c 09D1     		bne	.L205
 2316              		.loc 1 557 0 is_stmt 0 discriminator 2
 2317 001e 0F4B     		ldr	r3, .L211
 2318 0020 1B68     		ldr	r3, [r3]
 2319 0022 022B     		cmp	r3, #2
 2320 0024 09D1     		bne	.L207
 2321              	.LBB420:
 2322              	.LBB421:
 465:Firmware/Drivers/CMSIS/Include/cmsis_gcc.h ****   return(result);
 2323              		.loc 2 465 0 is_stmt 1 discriminator 3
 2324              		.syntax unified
 2325              	@ 465 "Firmware/Drivers/CMSIS/Include/cmsis_gcc.h" 1
 2326 0026 EFF31183 		MRS r3, basepri
 2327              	@ 0 "" 2
 2328              		.thumb
 2329              		.syntax unified
 2330 002a 3B60     		str	r3, [r7]
 2331              		.loc 2 466 0 discriminator 3
 2332 002c 3B68     		ldr	r3, [r7]
 2333              	.LBE421:
 2334              	.LBE420:
 2335              		.loc 1 557 0 discriminator 3
 2336 002e 002B     		cmp	r3, #0
 2337 0030 03D0     		beq	.L207
 2338              	.L205:
 558:Firmware/Middlewares/Third_Party/FreeRTOS/Source/CMSIS_RTOS_V2/cmsis_os2.c ****     stat = osErrorISR;
 2339              		.loc 1 558 0
 2340 0032 6FF00503 		mvn	r3, #5
 2341 0036 FB60     		str	r3, [r7, #12]
 2342 0038 09E0     		b	.L209
 2343              	.L207:
 559:Firmware/Middlewares/Third_Party/FreeRTOS/Source/CMSIS_RTOS_V2/cmsis_os2.c ****   } else {
 560:Firmware/Middlewares/Third_Party/FreeRTOS/Source/CMSIS_RTOS_V2/cmsis_os2.c ****     stat = osOK;
 2344              		.loc 1 560 0
 2345 003a 0023     		movs	r3, #0
 2346 003c FB60     		str	r3, [r7, #12]
 561:Firmware/Middlewares/Third_Party/FreeRTOS/Source/CMSIS_RTOS_V2/cmsis_os2.c ****     taskYIELD();
 2347              		.loc 1 561 0
 2348 003e 084B     		ldr	r3, .L211+4
 2349 0040 4FF08052 		mov	r2, #268435456
 2350 0044 1A60     		str	r2, [r3]
 2351              		.syntax unified
 2352              	@ 561 "Firmware/Middlewares/Third_Party/FreeRTOS/Source/CMSIS_RTOS_V2/cmsis_os2.c" 1
 2353 0046 BFF34F8F 		dsb
 2354              	@ 0 "" 2
ARM GAS  /tmp/ccB5BhZs.s 			page 65


 2355              	@ 561 "Firmware/Middlewares/Third_Party/FreeRTOS/Source/CMSIS_RTOS_V2/cmsis_os2.c" 1
 2356 004a BFF36F8F 		isb
 2357              	@ 0 "" 2
 2358              		.thumb
 2359              		.syntax unified
 2360              	.L209:
 562:Firmware/Middlewares/Third_Party/FreeRTOS/Source/CMSIS_RTOS_V2/cmsis_os2.c ****   }
 563:Firmware/Middlewares/Third_Party/FreeRTOS/Source/CMSIS_RTOS_V2/cmsis_os2.c **** 
 564:Firmware/Middlewares/Third_Party/FreeRTOS/Source/CMSIS_RTOS_V2/cmsis_os2.c ****   return (stat);
 2361              		.loc 1 564 0
 2362 004e FB68     		ldr	r3, [r7, #12]
 565:Firmware/Middlewares/Third_Party/FreeRTOS/Source/CMSIS_RTOS_V2/cmsis_os2.c **** }
 2363              		.loc 1 565 0
 2364 0050 1846     		mov	r0, r3
 2365 0052 1437     		adds	r7, r7, #20
 2366              	.LCFI98:
 2367              		.cfi_def_cfa_offset 4
 2368 0054 BD46     		mov	sp, r7
 2369              	.LCFI99:
 2370              		.cfi_def_cfa_register 13
 2371              		@ sp needed
 2372 0056 5DF8047B 		ldr	r7, [sp], #4
 2373              	.LCFI100:
 2374              		.cfi_restore 7
 2375              		.cfi_def_cfa_offset 0
 2376 005a 7047     		bx	lr
 2377              	.L212:
 2378              		.align	2
 2379              	.L211:
 2380 005c 00000000 		.word	KernelState
 2381 0060 04ED00E0 		.word	-536810236
 2382              		.cfi_endproc
 2383              	.LFE125:
 2385              		.section	.text.osThreadSuspend,"ax",%progbits
 2386              		.align	1
 2387              		.global	osThreadSuspend
 2388              		.syntax unified
 2389              		.thumb
 2390              		.thumb_func
 2391              		.fpu fpv4-sp-d16
 2393              	osThreadSuspend:
 2394              	.LFB126:
 566:Firmware/Middlewares/Third_Party/FreeRTOS/Source/CMSIS_RTOS_V2/cmsis_os2.c **** 
 567:Firmware/Middlewares/Third_Party/FreeRTOS/Source/CMSIS_RTOS_V2/cmsis_os2.c **** osStatus_t osThreadSuspend (osThreadId_t thread_id) {
 2395              		.loc 1 567 0
 2396              		.cfi_startproc
 2397              		@ args = 0, pretend = 0, frame = 32
 2398              		@ frame_needed = 1, uses_anonymous_args = 0
 2399 0000 80B5     		push	{r7, lr}
 2400              	.LCFI101:
 2401              		.cfi_def_cfa_offset 8
 2402              		.cfi_offset 7, -8
 2403              		.cfi_offset 14, -4
 2404 0002 88B0     		sub	sp, sp, #32
 2405              	.LCFI102:
 2406              		.cfi_def_cfa_offset 40
 2407 0004 00AF     		add	r7, sp, #0
ARM GAS  /tmp/ccB5BhZs.s 			page 66


 2408              	.LCFI103:
 2409              		.cfi_def_cfa_register 7
 2410 0006 7860     		str	r0, [r7, #4]
 568:Firmware/Middlewares/Third_Party/FreeRTOS/Source/CMSIS_RTOS_V2/cmsis_os2.c ****   TaskHandle_t hTask = (TaskHandle_t)thread_id;
 2411              		.loc 1 568 0
 2412 0008 7B68     		ldr	r3, [r7, #4]
 2413 000a BB61     		str	r3, [r7, #24]
 2414              	.LBB422:
 2415              	.LBB423:
 209:Firmware/Drivers/CMSIS/Include/cmsis_gcc.h ****   return(result);
 2416              		.loc 2 209 0
 2417              		.syntax unified
 2418              	@ 209 "Firmware/Drivers/CMSIS/Include/cmsis_gcc.h" 1
 2419 000c EFF30583 		MRS r3, ipsr
 2420              	@ 0 "" 2
 2421              		.thumb
 2422              		.syntax unified
 2423 0010 7B61     		str	r3, [r7, #20]
 210:Firmware/Drivers/CMSIS/Include/cmsis_gcc.h **** }
 2424              		.loc 2 210 0
 2425 0012 7B69     		ldr	r3, [r7, #20]
 2426              	.LBE423:
 2427              	.LBE422:
 569:Firmware/Middlewares/Third_Party/FreeRTOS/Source/CMSIS_RTOS_V2/cmsis_os2.c ****   osStatus_t stat;
 570:Firmware/Middlewares/Third_Party/FreeRTOS/Source/CMSIS_RTOS_V2/cmsis_os2.c **** 
 571:Firmware/Middlewares/Third_Party/FreeRTOS/Source/CMSIS_RTOS_V2/cmsis_os2.c ****   if (IS_IRQ()) {
 2428              		.loc 1 571 0
 2429 0014 002B     		cmp	r3, #0
 2430 0016 0FD1     		bne	.L215
 2431              	.LBB424:
 2432              	.LBB425:
 386:Firmware/Drivers/CMSIS/Include/cmsis_gcc.h ****   return(result);
 2433              		.loc 2 386 0 discriminator 1
 2434              		.syntax unified
 2435              	@ 386 "Firmware/Drivers/CMSIS/Include/cmsis_gcc.h" 1
 2436 0018 EFF31083 		MRS r3, primask
 2437              	@ 0 "" 2
 2438              		.thumb
 2439              		.syntax unified
 2440 001c 3B61     		str	r3, [r7, #16]
 387:Firmware/Drivers/CMSIS/Include/cmsis_gcc.h **** }
 2441              		.loc 2 387 0 discriminator 1
 2442 001e 3B69     		ldr	r3, [r7, #16]
 2443              	.LBE425:
 2444              	.LBE424:
 2445              		.loc 1 571 0 discriminator 1
 2446 0020 002B     		cmp	r3, #0
 2447 0022 09D1     		bne	.L215
 2448              		.loc 1 571 0 is_stmt 0 discriminator 2
 2449 0024 0F4B     		ldr	r3, .L222
 2450 0026 1B68     		ldr	r3, [r3]
 2451 0028 022B     		cmp	r3, #2
 2452 002a 09D1     		bne	.L217
 2453              	.LBB426:
 2454              	.LBB427:
 465:Firmware/Drivers/CMSIS/Include/cmsis_gcc.h ****   return(result);
 2455              		.loc 2 465 0 is_stmt 1 discriminator 3
ARM GAS  /tmp/ccB5BhZs.s 			page 67


 2456              		.syntax unified
 2457              	@ 465 "Firmware/Drivers/CMSIS/Include/cmsis_gcc.h" 1
 2458 002c EFF31183 		MRS r3, basepri
 2459              	@ 0 "" 2
 2460              		.thumb
 2461              		.syntax unified
 2462 0030 FB60     		str	r3, [r7, #12]
 2463              		.loc 2 466 0 discriminator 3
 2464 0032 FB68     		ldr	r3, [r7, #12]
 2465              	.LBE427:
 2466              	.LBE426:
 2467              		.loc 1 571 0 discriminator 3
 2468 0034 002B     		cmp	r3, #0
 2469 0036 03D0     		beq	.L217
 2470              	.L215:
 572:Firmware/Middlewares/Third_Party/FreeRTOS/Source/CMSIS_RTOS_V2/cmsis_os2.c ****     stat = osErrorISR;
 2471              		.loc 1 572 0
 2472 0038 6FF00503 		mvn	r3, #5
 2473 003c FB61     		str	r3, [r7, #28]
 2474 003e 0BE0     		b	.L219
 2475              	.L217:
 573:Firmware/Middlewares/Third_Party/FreeRTOS/Source/CMSIS_RTOS_V2/cmsis_os2.c ****   }
 574:Firmware/Middlewares/Third_Party/FreeRTOS/Source/CMSIS_RTOS_V2/cmsis_os2.c ****   else if (hTask == NULL) {
 2476              		.loc 1 574 0
 2477 0040 BB69     		ldr	r3, [r7, #24]
 2478 0042 002B     		cmp	r3, #0
 2479 0044 03D1     		bne	.L220
 575:Firmware/Middlewares/Third_Party/FreeRTOS/Source/CMSIS_RTOS_V2/cmsis_os2.c ****     stat = osErrorParameter;
 2480              		.loc 1 575 0
 2481 0046 6FF00303 		mvn	r3, #3
 2482 004a FB61     		str	r3, [r7, #28]
 2483 004c 04E0     		b	.L219
 2484              	.L220:
 576:Firmware/Middlewares/Third_Party/FreeRTOS/Source/CMSIS_RTOS_V2/cmsis_os2.c ****   }
 577:Firmware/Middlewares/Third_Party/FreeRTOS/Source/CMSIS_RTOS_V2/cmsis_os2.c ****   else {
 578:Firmware/Middlewares/Third_Party/FreeRTOS/Source/CMSIS_RTOS_V2/cmsis_os2.c ****     stat = osOK;
 2485              		.loc 1 578 0
 2486 004e 0023     		movs	r3, #0
 2487 0050 FB61     		str	r3, [r7, #28]
 579:Firmware/Middlewares/Third_Party/FreeRTOS/Source/CMSIS_RTOS_V2/cmsis_os2.c ****     vTaskSuspend (hTask);
 2488              		.loc 1 579 0
 2489 0052 B869     		ldr	r0, [r7, #24]
 2490 0054 FFF7FEFF 		bl	vTaskSuspend
 2491              	.L219:
 580:Firmware/Middlewares/Third_Party/FreeRTOS/Source/CMSIS_RTOS_V2/cmsis_os2.c ****   }
 581:Firmware/Middlewares/Third_Party/FreeRTOS/Source/CMSIS_RTOS_V2/cmsis_os2.c **** 
 582:Firmware/Middlewares/Third_Party/FreeRTOS/Source/CMSIS_RTOS_V2/cmsis_os2.c ****   return (stat);
 2492              		.loc 1 582 0
 2493 0058 FB69     		ldr	r3, [r7, #28]
 583:Firmware/Middlewares/Third_Party/FreeRTOS/Source/CMSIS_RTOS_V2/cmsis_os2.c **** }
 2494              		.loc 1 583 0
 2495 005a 1846     		mov	r0, r3
 2496 005c 2037     		adds	r7, r7, #32
 2497              	.LCFI104:
 2498              		.cfi_def_cfa_offset 8
 2499 005e BD46     		mov	sp, r7
 2500              	.LCFI105:
ARM GAS  /tmp/ccB5BhZs.s 			page 68


 2501              		.cfi_def_cfa_register 13
 2502              		@ sp needed
 2503 0060 80BD     		pop	{r7, pc}
 2504              	.L223:
 2505 0062 00BF     		.align	2
 2506              	.L222:
 2507 0064 00000000 		.word	KernelState
 2508              		.cfi_endproc
 2509              	.LFE126:
 2511              		.section	.text.osThreadResume,"ax",%progbits
 2512              		.align	1
 2513              		.global	osThreadResume
 2514              		.syntax unified
 2515              		.thumb
 2516              		.thumb_func
 2517              		.fpu fpv4-sp-d16
 2519              	osThreadResume:
 2520              	.LFB127:
 584:Firmware/Middlewares/Third_Party/FreeRTOS/Source/CMSIS_RTOS_V2/cmsis_os2.c **** 
 585:Firmware/Middlewares/Third_Party/FreeRTOS/Source/CMSIS_RTOS_V2/cmsis_os2.c **** osStatus_t osThreadResume (osThreadId_t thread_id) {
 2521              		.loc 1 585 0
 2522              		.cfi_startproc
 2523              		@ args = 0, pretend = 0, frame = 32
 2524              		@ frame_needed = 1, uses_anonymous_args = 0
 2525 0000 80B5     		push	{r7, lr}
 2526              	.LCFI106:
 2527              		.cfi_def_cfa_offset 8
 2528              		.cfi_offset 7, -8
 2529              		.cfi_offset 14, -4
 2530 0002 88B0     		sub	sp, sp, #32
 2531              	.LCFI107:
 2532              		.cfi_def_cfa_offset 40
 2533 0004 00AF     		add	r7, sp, #0
 2534              	.LCFI108:
 2535              		.cfi_def_cfa_register 7
 2536 0006 7860     		str	r0, [r7, #4]
 586:Firmware/Middlewares/Third_Party/FreeRTOS/Source/CMSIS_RTOS_V2/cmsis_os2.c ****   TaskHandle_t hTask = (TaskHandle_t)thread_id;
 2537              		.loc 1 586 0
 2538 0008 7B68     		ldr	r3, [r7, #4]
 2539 000a BB61     		str	r3, [r7, #24]
 2540              	.LBB428:
 2541              	.LBB429:
 209:Firmware/Drivers/CMSIS/Include/cmsis_gcc.h ****   return(result);
 2542              		.loc 2 209 0
 2543              		.syntax unified
 2544              	@ 209 "Firmware/Drivers/CMSIS/Include/cmsis_gcc.h" 1
 2545 000c EFF30583 		MRS r3, ipsr
 2546              	@ 0 "" 2
 2547              		.thumb
 2548              		.syntax unified
 2549 0010 7B61     		str	r3, [r7, #20]
 210:Firmware/Drivers/CMSIS/Include/cmsis_gcc.h **** }
 2550              		.loc 2 210 0
 2551 0012 7B69     		ldr	r3, [r7, #20]
 2552              	.LBE429:
 2553              	.LBE428:
 587:Firmware/Middlewares/Third_Party/FreeRTOS/Source/CMSIS_RTOS_V2/cmsis_os2.c ****   osStatus_t stat;
ARM GAS  /tmp/ccB5BhZs.s 			page 69


 588:Firmware/Middlewares/Third_Party/FreeRTOS/Source/CMSIS_RTOS_V2/cmsis_os2.c **** 
 589:Firmware/Middlewares/Third_Party/FreeRTOS/Source/CMSIS_RTOS_V2/cmsis_os2.c ****   if (IS_IRQ()) {
 2554              		.loc 1 589 0
 2555 0014 002B     		cmp	r3, #0
 2556 0016 0FD1     		bne	.L226
 2557              	.LBB430:
 2558              	.LBB431:
 386:Firmware/Drivers/CMSIS/Include/cmsis_gcc.h ****   return(result);
 2559              		.loc 2 386 0 discriminator 1
 2560              		.syntax unified
 2561              	@ 386 "Firmware/Drivers/CMSIS/Include/cmsis_gcc.h" 1
 2562 0018 EFF31083 		MRS r3, primask
 2563              	@ 0 "" 2
 2564              		.thumb
 2565              		.syntax unified
 2566 001c 3B61     		str	r3, [r7, #16]
 387:Firmware/Drivers/CMSIS/Include/cmsis_gcc.h **** }
 2567              		.loc 2 387 0 discriminator 1
 2568 001e 3B69     		ldr	r3, [r7, #16]
 2569              	.LBE431:
 2570              	.LBE430:
 2571              		.loc 1 589 0 discriminator 1
 2572 0020 002B     		cmp	r3, #0
 2573 0022 09D1     		bne	.L226
 2574              		.loc 1 589 0 is_stmt 0 discriminator 2
 2575 0024 0F4B     		ldr	r3, .L233
 2576 0026 1B68     		ldr	r3, [r3]
 2577 0028 022B     		cmp	r3, #2
 2578 002a 09D1     		bne	.L228
 2579              	.LBB432:
 2580              	.LBB433:
 465:Firmware/Drivers/CMSIS/Include/cmsis_gcc.h ****   return(result);
 2581              		.loc 2 465 0 is_stmt 1 discriminator 3
 2582              		.syntax unified
 2583              	@ 465 "Firmware/Drivers/CMSIS/Include/cmsis_gcc.h" 1
 2584 002c EFF31183 		MRS r3, basepri
 2585              	@ 0 "" 2
 2586              		.thumb
 2587              		.syntax unified
 2588 0030 FB60     		str	r3, [r7, #12]
 2589              		.loc 2 466 0 discriminator 3
 2590 0032 FB68     		ldr	r3, [r7, #12]
 2591              	.LBE433:
 2592              	.LBE432:
 2593              		.loc 1 589 0 discriminator 3
 2594 0034 002B     		cmp	r3, #0
 2595 0036 03D0     		beq	.L228
 2596              	.L226:
 590:Firmware/Middlewares/Third_Party/FreeRTOS/Source/CMSIS_RTOS_V2/cmsis_os2.c ****     stat = osErrorISR;
 2597              		.loc 1 590 0
 2598 0038 6FF00503 		mvn	r3, #5
 2599 003c FB61     		str	r3, [r7, #28]
 2600 003e 0BE0     		b	.L230
 2601              	.L228:
 591:Firmware/Middlewares/Third_Party/FreeRTOS/Source/CMSIS_RTOS_V2/cmsis_os2.c ****   }
 592:Firmware/Middlewares/Third_Party/FreeRTOS/Source/CMSIS_RTOS_V2/cmsis_os2.c ****   else if (hTask == NULL) {
 2602              		.loc 1 592 0
ARM GAS  /tmp/ccB5BhZs.s 			page 70


 2603 0040 BB69     		ldr	r3, [r7, #24]
 2604 0042 002B     		cmp	r3, #0
 2605 0044 03D1     		bne	.L231
 593:Firmware/Middlewares/Third_Party/FreeRTOS/Source/CMSIS_RTOS_V2/cmsis_os2.c ****     stat = osErrorParameter;
 2606              		.loc 1 593 0
 2607 0046 6FF00303 		mvn	r3, #3
 2608 004a FB61     		str	r3, [r7, #28]
 2609 004c 04E0     		b	.L230
 2610              	.L231:
 594:Firmware/Middlewares/Third_Party/FreeRTOS/Source/CMSIS_RTOS_V2/cmsis_os2.c ****   }
 595:Firmware/Middlewares/Third_Party/FreeRTOS/Source/CMSIS_RTOS_V2/cmsis_os2.c ****   else {
 596:Firmware/Middlewares/Third_Party/FreeRTOS/Source/CMSIS_RTOS_V2/cmsis_os2.c ****     stat = osOK;
 2611              		.loc 1 596 0
 2612 004e 0023     		movs	r3, #0
 2613 0050 FB61     		str	r3, [r7, #28]
 597:Firmware/Middlewares/Third_Party/FreeRTOS/Source/CMSIS_RTOS_V2/cmsis_os2.c ****     vTaskResume (hTask);
 2614              		.loc 1 597 0
 2615 0052 B869     		ldr	r0, [r7, #24]
 2616 0054 FFF7FEFF 		bl	vTaskResume
 2617              	.L230:
 598:Firmware/Middlewares/Third_Party/FreeRTOS/Source/CMSIS_RTOS_V2/cmsis_os2.c ****   }
 599:Firmware/Middlewares/Third_Party/FreeRTOS/Source/CMSIS_RTOS_V2/cmsis_os2.c **** 
 600:Firmware/Middlewares/Third_Party/FreeRTOS/Source/CMSIS_RTOS_V2/cmsis_os2.c ****   return (stat);
 2618              		.loc 1 600 0
 2619 0058 FB69     		ldr	r3, [r7, #28]
 601:Firmware/Middlewares/Third_Party/FreeRTOS/Source/CMSIS_RTOS_V2/cmsis_os2.c **** }
 2620              		.loc 1 601 0
 2621 005a 1846     		mov	r0, r3
 2622 005c 2037     		adds	r7, r7, #32
 2623              	.LCFI109:
 2624              		.cfi_def_cfa_offset 8
 2625 005e BD46     		mov	sp, r7
 2626              	.LCFI110:
 2627              		.cfi_def_cfa_register 13
 2628              		@ sp needed
 2629 0060 80BD     		pop	{r7, pc}
 2630              	.L234:
 2631 0062 00BF     		.align	2
 2632              	.L233:
 2633 0064 00000000 		.word	KernelState
 2634              		.cfi_endproc
 2635              	.LFE127:
 2637              		.section	.text.osThreadExit,"ax",%progbits
 2638              		.align	1
 2639              		.global	osThreadExit
 2640              		.syntax unified
 2641              		.thumb
 2642              		.thumb_func
 2643              		.fpu fpv4-sp-d16
 2645              	osThreadExit:
 2646              	.LFB128:
 602:Firmware/Middlewares/Third_Party/FreeRTOS/Source/CMSIS_RTOS_V2/cmsis_os2.c **** 
 603:Firmware/Middlewares/Third_Party/FreeRTOS/Source/CMSIS_RTOS_V2/cmsis_os2.c **** __NO_RETURN void osThreadExit (void) {
 2647              		.loc 1 603 0
 2648              		.cfi_startproc
 2649              		@ args = 0, pretend = 0, frame = 0
 2650              		@ frame_needed = 1, uses_anonymous_args = 0
ARM GAS  /tmp/ccB5BhZs.s 			page 71


 2651 0000 80B5     		push	{r7, lr}
 2652              	.LCFI111:
 2653              		.cfi_def_cfa_offset 8
 2654              		.cfi_offset 7, -8
 2655              		.cfi_offset 14, -4
 2656 0002 00AF     		add	r7, sp, #0
 2657              	.LCFI112:
 2658              		.cfi_def_cfa_register 7
 604:Firmware/Middlewares/Third_Party/FreeRTOS/Source/CMSIS_RTOS_V2/cmsis_os2.c **** #ifndef USE_FreeRTOS_HEAP_1
 605:Firmware/Middlewares/Third_Party/FreeRTOS/Source/CMSIS_RTOS_V2/cmsis_os2.c ****   vTaskDelete (NULL);
 2659              		.loc 1 605 0
 2660 0004 0020     		movs	r0, #0
 2661 0006 FFF7FEFF 		bl	vTaskDelete
 2662              	.L236:
 606:Firmware/Middlewares/Third_Party/FreeRTOS/Source/CMSIS_RTOS_V2/cmsis_os2.c **** #endif
 607:Firmware/Middlewares/Third_Party/FreeRTOS/Source/CMSIS_RTOS_V2/cmsis_os2.c ****   for (;;);
 2663              		.loc 1 607 0 discriminator 1
 2664 000a FEE7     		b	.L236
 2665              		.cfi_endproc
 2666              	.LFE128:
 2668              		.section	.text.osThreadTerminate,"ax",%progbits
 2669              		.align	1
 2670              		.global	osThreadTerminate
 2671              		.syntax unified
 2672              		.thumb
 2673              		.thumb_func
 2674              		.fpu fpv4-sp-d16
 2676              	osThreadTerminate:
 2677              	.LFB129:
 608:Firmware/Middlewares/Third_Party/FreeRTOS/Source/CMSIS_RTOS_V2/cmsis_os2.c **** }
 609:Firmware/Middlewares/Third_Party/FreeRTOS/Source/CMSIS_RTOS_V2/cmsis_os2.c **** 
 610:Firmware/Middlewares/Third_Party/FreeRTOS/Source/CMSIS_RTOS_V2/cmsis_os2.c **** osStatus_t osThreadTerminate (osThreadId_t thread_id) {
 2678              		.loc 1 610 0
 2679              		.cfi_startproc
 2680              		@ args = 0, pretend = 0, frame = 32
 2681              		@ frame_needed = 1, uses_anonymous_args = 0
 2682 0000 80B5     		push	{r7, lr}
 2683              	.LCFI113:
 2684              		.cfi_def_cfa_offset 8
 2685              		.cfi_offset 7, -8
 2686              		.cfi_offset 14, -4
 2687 0002 88B0     		sub	sp, sp, #32
 2688              	.LCFI114:
 2689              		.cfi_def_cfa_offset 40
 2690 0004 00AF     		add	r7, sp, #0
 2691              	.LCFI115:
 2692              		.cfi_def_cfa_register 7
 2693 0006 7860     		str	r0, [r7, #4]
 611:Firmware/Middlewares/Third_Party/FreeRTOS/Source/CMSIS_RTOS_V2/cmsis_os2.c ****   TaskHandle_t hTask = (TaskHandle_t)thread_id;
 2694              		.loc 1 611 0
 2695 0008 7B68     		ldr	r3, [r7, #4]
 2696 000a BB61     		str	r3, [r7, #24]
 2697              	.LBB434:
 2698              	.LBB435:
 209:Firmware/Drivers/CMSIS/Include/cmsis_gcc.h ****   return(result);
 2699              		.loc 2 209 0
 2700              		.syntax unified
ARM GAS  /tmp/ccB5BhZs.s 			page 72


 2701              	@ 209 "Firmware/Drivers/CMSIS/Include/cmsis_gcc.h" 1
 2702 000c EFF30583 		MRS r3, ipsr
 2703              	@ 0 "" 2
 2704              		.thumb
 2705              		.syntax unified
 2706 0010 3B61     		str	r3, [r7, #16]
 210:Firmware/Drivers/CMSIS/Include/cmsis_gcc.h **** }
 2707              		.loc 2 210 0
 2708 0012 3B69     		ldr	r3, [r7, #16]
 2709              	.LBE435:
 2710              	.LBE434:
 612:Firmware/Middlewares/Third_Party/FreeRTOS/Source/CMSIS_RTOS_V2/cmsis_os2.c ****   osStatus_t stat;
 613:Firmware/Middlewares/Third_Party/FreeRTOS/Source/CMSIS_RTOS_V2/cmsis_os2.c **** #ifndef USE_FreeRTOS_HEAP_1
 614:Firmware/Middlewares/Third_Party/FreeRTOS/Source/CMSIS_RTOS_V2/cmsis_os2.c ****   eTaskState tstate;
 615:Firmware/Middlewares/Third_Party/FreeRTOS/Source/CMSIS_RTOS_V2/cmsis_os2.c **** 
 616:Firmware/Middlewares/Third_Party/FreeRTOS/Source/CMSIS_RTOS_V2/cmsis_os2.c ****   if (IS_IRQ()) {
 2711              		.loc 1 616 0
 2712 0014 002B     		cmp	r3, #0
 2713 0016 0FD1     		bne	.L239
 2714              	.LBB436:
 2715              	.LBB437:
 386:Firmware/Drivers/CMSIS/Include/cmsis_gcc.h ****   return(result);
 2716              		.loc 2 386 0 discriminator 1
 2717              		.syntax unified
 2718              	@ 386 "Firmware/Drivers/CMSIS/Include/cmsis_gcc.h" 1
 2719 0018 EFF31083 		MRS r3, primask
 2720              	@ 0 "" 2
 2721              		.thumb
 2722              		.syntax unified
 2723 001c FB60     		str	r3, [r7, #12]
 387:Firmware/Drivers/CMSIS/Include/cmsis_gcc.h **** }
 2724              		.loc 2 387 0 discriminator 1
 2725 001e FB68     		ldr	r3, [r7, #12]
 2726              	.LBE437:
 2727              	.LBE436:
 2728              		.loc 1 616 0 discriminator 1
 2729 0020 002B     		cmp	r3, #0
 2730 0022 09D1     		bne	.L239
 2731              		.loc 1 616 0 is_stmt 0 discriminator 2
 2732 0024 154B     		ldr	r3, .L247
 2733 0026 1B68     		ldr	r3, [r3]
 2734 0028 022B     		cmp	r3, #2
 2735 002a 09D1     		bne	.L241
 2736              	.LBB438:
 2737              	.LBB439:
 465:Firmware/Drivers/CMSIS/Include/cmsis_gcc.h ****   return(result);
 2738              		.loc 2 465 0 is_stmt 1 discriminator 3
 2739              		.syntax unified
 2740              	@ 465 "Firmware/Drivers/CMSIS/Include/cmsis_gcc.h" 1
 2741 002c EFF31183 		MRS r3, basepri
 2742              	@ 0 "" 2
 2743              		.thumb
 2744              		.syntax unified
 2745 0030 BB60     		str	r3, [r7, #8]
 2746              		.loc 2 466 0 discriminator 3
 2747 0032 BB68     		ldr	r3, [r7, #8]
 2748              	.LBE439:
ARM GAS  /tmp/ccB5BhZs.s 			page 73


 2749              	.LBE438:
 2750              		.loc 1 616 0 discriminator 3
 2751 0034 002B     		cmp	r3, #0
 2752 0036 03D0     		beq	.L241
 2753              	.L239:
 617:Firmware/Middlewares/Third_Party/FreeRTOS/Source/CMSIS_RTOS_V2/cmsis_os2.c ****     stat = osErrorISR;
 2754              		.loc 1 617 0
 2755 0038 6FF00503 		mvn	r3, #5
 2756 003c FB61     		str	r3, [r7, #28]
 2757 003e 17E0     		b	.L243
 2758              	.L241:
 618:Firmware/Middlewares/Third_Party/FreeRTOS/Source/CMSIS_RTOS_V2/cmsis_os2.c ****   }
 619:Firmware/Middlewares/Third_Party/FreeRTOS/Source/CMSIS_RTOS_V2/cmsis_os2.c ****   else if (hTask == NULL) {
 2759              		.loc 1 619 0
 2760 0040 BB69     		ldr	r3, [r7, #24]
 2761 0042 002B     		cmp	r3, #0
 2762 0044 03D1     		bne	.L244
 620:Firmware/Middlewares/Third_Party/FreeRTOS/Source/CMSIS_RTOS_V2/cmsis_os2.c ****     stat = osErrorParameter;
 2763              		.loc 1 620 0
 2764 0046 6FF00303 		mvn	r3, #3
 2765 004a FB61     		str	r3, [r7, #28]
 2766 004c 10E0     		b	.L243
 2767              	.L244:
 621:Firmware/Middlewares/Third_Party/FreeRTOS/Source/CMSIS_RTOS_V2/cmsis_os2.c ****   }
 622:Firmware/Middlewares/Third_Party/FreeRTOS/Source/CMSIS_RTOS_V2/cmsis_os2.c ****   else {
 623:Firmware/Middlewares/Third_Party/FreeRTOS/Source/CMSIS_RTOS_V2/cmsis_os2.c ****     tstate = eTaskGetState (hTask);
 2768              		.loc 1 623 0
 2769 004e B869     		ldr	r0, [r7, #24]
 2770 0050 FFF7FEFF 		bl	eTaskGetState
 2771 0054 0346     		mov	r3, r0
 2772 0056 FB75     		strb	r3, [r7, #23]
 624:Firmware/Middlewares/Third_Party/FreeRTOS/Source/CMSIS_RTOS_V2/cmsis_os2.c **** 
 625:Firmware/Middlewares/Third_Party/FreeRTOS/Source/CMSIS_RTOS_V2/cmsis_os2.c ****     if (tstate != eDeleted) {
 2773              		.loc 1 625 0
 2774 0058 FB7D     		ldrb	r3, [r7, #23]	@ zero_extendqisi2
 2775 005a 042B     		cmp	r3, #4
 2776 005c 05D0     		beq	.L245
 626:Firmware/Middlewares/Third_Party/FreeRTOS/Source/CMSIS_RTOS_V2/cmsis_os2.c ****       stat = osOK;
 2777              		.loc 1 626 0
 2778 005e 0023     		movs	r3, #0
 2779 0060 FB61     		str	r3, [r7, #28]
 627:Firmware/Middlewares/Third_Party/FreeRTOS/Source/CMSIS_RTOS_V2/cmsis_os2.c ****       vTaskDelete (hTask);
 2780              		.loc 1 627 0
 2781 0062 B869     		ldr	r0, [r7, #24]
 2782 0064 FFF7FEFF 		bl	vTaskDelete
 2783 0068 02E0     		b	.L243
 2784              	.L245:
 628:Firmware/Middlewares/Third_Party/FreeRTOS/Source/CMSIS_RTOS_V2/cmsis_os2.c ****     } else {
 629:Firmware/Middlewares/Third_Party/FreeRTOS/Source/CMSIS_RTOS_V2/cmsis_os2.c ****       stat = osErrorResource;
 2785              		.loc 1 629 0
 2786 006a 6FF00203 		mvn	r3, #2
 2787 006e FB61     		str	r3, [r7, #28]
 2788              	.L243:
 630:Firmware/Middlewares/Third_Party/FreeRTOS/Source/CMSIS_RTOS_V2/cmsis_os2.c ****     }
 631:Firmware/Middlewares/Third_Party/FreeRTOS/Source/CMSIS_RTOS_V2/cmsis_os2.c ****   }
 632:Firmware/Middlewares/Third_Party/FreeRTOS/Source/CMSIS_RTOS_V2/cmsis_os2.c **** #else
 633:Firmware/Middlewares/Third_Party/FreeRTOS/Source/CMSIS_RTOS_V2/cmsis_os2.c ****   stat = osError;
ARM GAS  /tmp/ccB5BhZs.s 			page 74


 634:Firmware/Middlewares/Third_Party/FreeRTOS/Source/CMSIS_RTOS_V2/cmsis_os2.c **** #endif
 635:Firmware/Middlewares/Third_Party/FreeRTOS/Source/CMSIS_RTOS_V2/cmsis_os2.c **** 
 636:Firmware/Middlewares/Third_Party/FreeRTOS/Source/CMSIS_RTOS_V2/cmsis_os2.c ****   return (stat);
 2789              		.loc 1 636 0
 2790 0070 FB69     		ldr	r3, [r7, #28]
 637:Firmware/Middlewares/Third_Party/FreeRTOS/Source/CMSIS_RTOS_V2/cmsis_os2.c **** }
 2791              		.loc 1 637 0
 2792 0072 1846     		mov	r0, r3
 2793 0074 2037     		adds	r7, r7, #32
 2794              	.LCFI116:
 2795              		.cfi_def_cfa_offset 8
 2796 0076 BD46     		mov	sp, r7
 2797              	.LCFI117:
 2798              		.cfi_def_cfa_register 13
 2799              		@ sp needed
 2800 0078 80BD     		pop	{r7, pc}
 2801              	.L248:
 2802 007a 00BF     		.align	2
 2803              	.L247:
 2804 007c 00000000 		.word	KernelState
 2805              		.cfi_endproc
 2806              	.LFE129:
 2808              		.section	.text.osThreadGetCount,"ax",%progbits
 2809              		.align	1
 2810              		.global	osThreadGetCount
 2811              		.syntax unified
 2812              		.thumb
 2813              		.thumb_func
 2814              		.fpu fpv4-sp-d16
 2816              	osThreadGetCount:
 2817              	.LFB130:
 638:Firmware/Middlewares/Third_Party/FreeRTOS/Source/CMSIS_RTOS_V2/cmsis_os2.c **** 
 639:Firmware/Middlewares/Third_Party/FreeRTOS/Source/CMSIS_RTOS_V2/cmsis_os2.c **** uint32_t osThreadGetCount (void) {
 2818              		.loc 1 639 0
 2819              		.cfi_startproc
 2820              		@ args = 0, pretend = 0, frame = 16
 2821              		@ frame_needed = 1, uses_anonymous_args = 0
 2822 0000 80B5     		push	{r7, lr}
 2823              	.LCFI118:
 2824              		.cfi_def_cfa_offset 8
 2825              		.cfi_offset 7, -8
 2826              		.cfi_offset 14, -4
 2827 0002 84B0     		sub	sp, sp, #16
 2828              	.LCFI119:
 2829              		.cfi_def_cfa_offset 24
 2830 0004 00AF     		add	r7, sp, #0
 2831              	.LCFI120:
 2832              		.cfi_def_cfa_register 7
 2833              	.LBB440:
 2834              	.LBB441:
 209:Firmware/Drivers/CMSIS/Include/cmsis_gcc.h ****   return(result);
 2835              		.loc 2 209 0
 2836              		.syntax unified
 2837              	@ 209 "Firmware/Drivers/CMSIS/Include/cmsis_gcc.h" 1
 2838 0006 EFF30583 		MRS r3, ipsr
 2839              	@ 0 "" 2
 2840              		.thumb
ARM GAS  /tmp/ccB5BhZs.s 			page 75


 2841              		.syntax unified
 2842 000a BB60     		str	r3, [r7, #8]
 210:Firmware/Drivers/CMSIS/Include/cmsis_gcc.h **** }
 2843              		.loc 2 210 0
 2844 000c BB68     		ldr	r3, [r7, #8]
 2845              	.LBE441:
 2846              	.LBE440:
 640:Firmware/Middlewares/Third_Party/FreeRTOS/Source/CMSIS_RTOS_V2/cmsis_os2.c ****   uint32_t count;
 641:Firmware/Middlewares/Third_Party/FreeRTOS/Source/CMSIS_RTOS_V2/cmsis_os2.c **** 
 642:Firmware/Middlewares/Third_Party/FreeRTOS/Source/CMSIS_RTOS_V2/cmsis_os2.c ****   if (IS_IRQ()) {
 2847              		.loc 1 642 0
 2848 000e 002B     		cmp	r3, #0
 2849 0010 0FD1     		bne	.L251
