ARM GAS  /tmp/ccB5BhZs.s 			page 1


   1              		.cpu cortex-m4
   2              		.eabi_attribute 27, 1
   3              		.eabi_attribute 28, 1
   4              		.eabi_attribute 20, 1
   5              		.eabi_attribute 21, 1
   6              		.eabi_attribute 23, 3
   7              		.eabi_attribute 24, 1
   8              		.eabi_attribute 25, 1
   9              		.eabi_attribute 26, 1
  10              		.eabi_attribute 30, 6
  11              		.eabi_attribute 34, 1
  12              		.eabi_attribute 18, 4
  13              		.file	"cmsis_os2.c"
  14              		.text
  15              	.Ltext0:
  16              		.cfi_sections	.debug_frame
  17              		.section	.bss.KernelState,"aw",%nobits
  18              		.align	2
  21              	KernelState:
  22 0000 00000000 		.space	4
  23              		.section	.text.osKernelInitialize,"ax",%progbits
  24              		.align	1
  25              		.global	osKernelInitialize
  26              		.syntax unified
  27              		.thumb
  28              		.thumb_func
  29              		.fpu fpv4-sp-d16
  31              	osKernelInitialize:
  32              	.LFB106:
  33              		.file 1 "Firmware/Middlewares/Third_Party/FreeRTOS/Source/CMSIS_RTOS_V2/cmsis_os2.c"
   1:Firmware/Middlewares/Third_Party/FreeRTOS/Source/CMSIS_RTOS_V2/cmsis_os2.c **** /* --------------------------------------------------------------------------
   2:Firmware/Middlewares/Third_Party/FreeRTOS/Source/CMSIS_RTOS_V2/cmsis_os2.c ****  * Portions Copyright © 2017 STMicroelectronics International N.V. All rights reserved.
   3:Firmware/Middlewares/Third_Party/FreeRTOS/Source/CMSIS_RTOS_V2/cmsis_os2.c ****  * Portions Copyright (c) 2013-2017 ARM Limited. All rights reserved.
   4:Firmware/Middlewares/Third_Party/FreeRTOS/Source/CMSIS_RTOS_V2/cmsis_os2.c ****  * --------------------------------------------------------------------------
   5:Firmware/Middlewares/Third_Party/FreeRTOS/Source/CMSIS_RTOS_V2/cmsis_os2.c ****  *
   6:Firmware/Middlewares/Third_Party/FreeRTOS/Source/CMSIS_RTOS_V2/cmsis_os2.c ****  * SPDX-License-Identifier: Apache-2.0
   7:Firmware/Middlewares/Third_Party/FreeRTOS/Source/CMSIS_RTOS_V2/cmsis_os2.c ****  *
   8:Firmware/Middlewares/Third_Party/FreeRTOS/Source/CMSIS_RTOS_V2/cmsis_os2.c ****  * Licensed under the Apache License, Version 2.0 (the License); you may
   9:Firmware/Middlewares/Third_Party/FreeRTOS/Source/CMSIS_RTOS_V2/cmsis_os2.c ****  * not use this file except in compliance with the License.
  10:Firmware/Middlewares/Third_Party/FreeRTOS/Source/CMSIS_RTOS_V2/cmsis_os2.c ****  * You may obtain a copy of the License at
  11:Firmware/Middlewares/Third_Party/FreeRTOS/Source/CMSIS_RTOS_V2/cmsis_os2.c ****  *
  12:Firmware/Middlewares/Third_Party/FreeRTOS/Source/CMSIS_RTOS_V2/cmsis_os2.c ****  * www.apache.org/licenses/LICENSE-2.0
  13:Firmware/Middlewares/Third_Party/FreeRTOS/Source/CMSIS_RTOS_V2/cmsis_os2.c ****  *
  14:Firmware/Middlewares/Third_Party/FreeRTOS/Source/CMSIS_RTOS_V2/cmsis_os2.c ****  * Unless required by applicable law or agreed to in writing, software
  15:Firmware/Middlewares/Third_Party/FreeRTOS/Source/CMSIS_RTOS_V2/cmsis_os2.c ****  * distributed under the License is distributed on an AS IS BASIS, WITHOUT
  16:Firmware/Middlewares/Third_Party/FreeRTOS/Source/CMSIS_RTOS_V2/cmsis_os2.c ****  * WARRANTIES OR CONDITIONS OF ANY KIND, either express or implied.
  17:Firmware/Middlewares/Third_Party/FreeRTOS/Source/CMSIS_RTOS_V2/cmsis_os2.c ****  * See the License for the specific language governing permissions and
  18:Firmware/Middlewares/Third_Party/FreeRTOS/Source/CMSIS_RTOS_V2/cmsis_os2.c ****  * limitations under the License.
  19:Firmware/Middlewares/Third_Party/FreeRTOS/Source/CMSIS_RTOS_V2/cmsis_os2.c ****  *
  20:Firmware/Middlewares/Third_Party/FreeRTOS/Source/CMSIS_RTOS_V2/cmsis_os2.c ****  *      Name:    cmsis_os2.c
  21:Firmware/Middlewares/Third_Party/FreeRTOS/Source/CMSIS_RTOS_V2/cmsis_os2.c ****  *      Purpose: CMSIS RTOS2 wrapper for FreeRTOS
  22:Firmware/Middlewares/Third_Party/FreeRTOS/Source/CMSIS_RTOS_V2/cmsis_os2.c ****  *
  23:Firmware/Middlewares/Third_Party/FreeRTOS/Source/CMSIS_RTOS_V2/cmsis_os2.c ****  *---------------------------------------------------------------------------*/
  24:Firmware/Middlewares/Third_Party/FreeRTOS/Source/CMSIS_RTOS_V2/cmsis_os2.c **** 
  25:Firmware/Middlewares/Third_Party/FreeRTOS/Source/CMSIS_RTOS_V2/cmsis_os2.c ****  /**
  26:Firmware/Middlewares/Third_Party/FreeRTOS/Source/CMSIS_RTOS_V2/cmsis_os2.c ****   ******************************************************************************
  27:Firmware/Middlewares/Third_Party/FreeRTOS/Source/CMSIS_RTOS_V2/cmsis_os2.c ****   * @attention
ARM GAS  /tmp/ccB5BhZs.s 			page 2


  28:Firmware/Middlewares/Third_Party/FreeRTOS/Source/CMSIS_RTOS_V2/cmsis_os2.c ****   *
  29:Firmware/Middlewares/Third_Party/FreeRTOS/Source/CMSIS_RTOS_V2/cmsis_os2.c ****   * Redistribution and use in source and binary forms, with or without
  30:Firmware/Middlewares/Third_Party/FreeRTOS/Source/CMSIS_RTOS_V2/cmsis_os2.c ****   * modification, are permitted, provided that the following conditions are met:
  31:Firmware/Middlewares/Third_Party/FreeRTOS/Source/CMSIS_RTOS_V2/cmsis_os2.c ****   *
  32:Firmware/Middlewares/Third_Party/FreeRTOS/Source/CMSIS_RTOS_V2/cmsis_os2.c ****   * 1. Redistribution of source code must retain the above copyright notice,
  33:Firmware/Middlewares/Third_Party/FreeRTOS/Source/CMSIS_RTOS_V2/cmsis_os2.c ****   *    this list of conditions and the following disclaimer.
  34:Firmware/Middlewares/Third_Party/FreeRTOS/Source/CMSIS_RTOS_V2/cmsis_os2.c ****   * 2. Redistributions in binary form must reproduce the above copyright notice,
  35:Firmware/Middlewares/Third_Party/FreeRTOS/Source/CMSIS_RTOS_V2/cmsis_os2.c ****   *    this list of conditions and the following disclaimer in the documentation
  36:Firmware/Middlewares/Third_Party/FreeRTOS/Source/CMSIS_RTOS_V2/cmsis_os2.c ****   *    and/or other materials provided with the distribution.
  37:Firmware/Middlewares/Third_Party/FreeRTOS/Source/CMSIS_RTOS_V2/cmsis_os2.c ****   * 3. Neither the name of STMicroelectronics nor the names of other
  38:Firmware/Middlewares/Third_Party/FreeRTOS/Source/CMSIS_RTOS_V2/cmsis_os2.c ****   *    contributors to this software may be used to endorse or promote products
  39:Firmware/Middlewares/Third_Party/FreeRTOS/Source/CMSIS_RTOS_V2/cmsis_os2.c ****   *    derived from this software without specific written permission.
  40:Firmware/Middlewares/Third_Party/FreeRTOS/Source/CMSIS_RTOS_V2/cmsis_os2.c ****   * 4. This software, including modifications and/or derivative works of this
  41:Firmware/Middlewares/Third_Party/FreeRTOS/Source/CMSIS_RTOS_V2/cmsis_os2.c ****   *    software, must execute solely and exclusively on microcontroller or
  42:Firmware/Middlewares/Third_Party/FreeRTOS/Source/CMSIS_RTOS_V2/cmsis_os2.c ****   *    microprocessor devices manufactured by or for STMicroelectronics.
  43:Firmware/Middlewares/Third_Party/FreeRTOS/Source/CMSIS_RTOS_V2/cmsis_os2.c ****   * 5. Redistribution and use of this software other than as permitted under
  44:Firmware/Middlewares/Third_Party/FreeRTOS/Source/CMSIS_RTOS_V2/cmsis_os2.c ****   *    this license is void and will automatically terminate your rights under
  45:Firmware/Middlewares/Third_Party/FreeRTOS/Source/CMSIS_RTOS_V2/cmsis_os2.c ****   *    this license.
  46:Firmware/Middlewares/Third_Party/FreeRTOS/Source/CMSIS_RTOS_V2/cmsis_os2.c ****   *
  47:Firmware/Middlewares/Third_Party/FreeRTOS/Source/CMSIS_RTOS_V2/cmsis_os2.c ****   * THIS SOFTWARE IS PROVIDED BY STMICROELECTRONICS AND CONTRIBUTORS "AS IS"
  48:Firmware/Middlewares/Third_Party/FreeRTOS/Source/CMSIS_RTOS_V2/cmsis_os2.c ****   * AND ANY EXPRESS, IMPLIED OR STATUTORY WARRANTIES, INCLUDING, BUT NOT
  49:Firmware/Middlewares/Third_Party/FreeRTOS/Source/CMSIS_RTOS_V2/cmsis_os2.c ****   * LIMITED TO, THE IMPLIED WARRANTIES OF MERCHANTABILITY, FITNESS FOR A
  50:Firmware/Middlewares/Third_Party/FreeRTOS/Source/CMSIS_RTOS_V2/cmsis_os2.c ****   * PARTICULAR PURPOSE AND NON-INFRINGEMENT OF THIRD PARTY INTELLECTUAL PROPERTY
  51:Firmware/Middlewares/Third_Party/FreeRTOS/Source/CMSIS_RTOS_V2/cmsis_os2.c ****   * RIGHTS ARE DISCLAIMED TO THE FULLEST EXTENT PERMITTED BY LAW. IN NO EVENT
  52:Firmware/Middlewares/Third_Party/FreeRTOS/Source/CMSIS_RTOS_V2/cmsis_os2.c ****   * SHALL STMICROELECTRONICS OR CONTRIBUTORS BE LIABLE FOR ANY DIRECT, INDIRECT,
  53:Firmware/Middlewares/Third_Party/FreeRTOS/Source/CMSIS_RTOS_V2/cmsis_os2.c ****   * INCIDENTAL, SPECIAL, EXEMPLARY, OR CONSEQUENTIAL DAMAGES (INCLUDING, BUT NOT
  54:Firmware/Middlewares/Third_Party/FreeRTOS/Source/CMSIS_RTOS_V2/cmsis_os2.c ****   * LIMITED TO, PROCUREMENT OF SUBSTITUTE GOODS OR SERVICES; LOSS OF USE, DATA,
  55:Firmware/Middlewares/Third_Party/FreeRTOS/Source/CMSIS_RTOS_V2/cmsis_os2.c ****   * OR PROFITS; OR BUSINESS INTERRUPTION) HOWEVER CAUSED AND ON ANY THEORY OF
  56:Firmware/Middlewares/Third_Party/FreeRTOS/Source/CMSIS_RTOS_V2/cmsis_os2.c ****   * LIABILITY, WHETHER IN CONTRACT, STRICT LIABILITY, OR TORT (INCLUDING
  57:Firmware/Middlewares/Third_Party/FreeRTOS/Source/CMSIS_RTOS_V2/cmsis_os2.c ****   * NEGLIGENCE OR OTHERWISE) ARISING IN ANY WAY OUT OF THE USE OF THIS SOFTWARE,
  58:Firmware/Middlewares/Third_Party/FreeRTOS/Source/CMSIS_RTOS_V2/cmsis_os2.c ****   * EVEN IF ADVISED OF THE POSSIBILITY OF SUCH DAMAGE.
  59:Firmware/Middlewares/Third_Party/FreeRTOS/Source/CMSIS_RTOS_V2/cmsis_os2.c ****   *
  60:Firmware/Middlewares/Third_Party/FreeRTOS/Source/CMSIS_RTOS_V2/cmsis_os2.c ****   ******************************************************************************
  61:Firmware/Middlewares/Third_Party/FreeRTOS/Source/CMSIS_RTOS_V2/cmsis_os2.c ****   */
  62:Firmware/Middlewares/Third_Party/FreeRTOS/Source/CMSIS_RTOS_V2/cmsis_os2.c **** 
  63:Firmware/Middlewares/Third_Party/FreeRTOS/Source/CMSIS_RTOS_V2/cmsis_os2.c **** 
  64:Firmware/Middlewares/Third_Party/FreeRTOS/Source/CMSIS_RTOS_V2/cmsis_os2.c **** #include <string.h>
  65:Firmware/Middlewares/Third_Party/FreeRTOS/Source/CMSIS_RTOS_V2/cmsis_os2.c **** 
  66:Firmware/Middlewares/Third_Party/FreeRTOS/Source/CMSIS_RTOS_V2/cmsis_os2.c **** #include "cmsis_os2.h"                  // ::CMSIS:RTOS2
  67:Firmware/Middlewares/Third_Party/FreeRTOS/Source/CMSIS_RTOS_V2/cmsis_os2.c **** #include "cmsis_compiler.h"
  68:Firmware/Middlewares/Third_Party/FreeRTOS/Source/CMSIS_RTOS_V2/cmsis_os2.c **** 
  69:Firmware/Middlewares/Third_Party/FreeRTOS/Source/CMSIS_RTOS_V2/cmsis_os2.c **** #include "FreeRTOS.h"                   // ARM.FreeRTOS::RTOS:Core
  70:Firmware/Middlewares/Third_Party/FreeRTOS/Source/CMSIS_RTOS_V2/cmsis_os2.c **** #include "task.h"                       // ARM.FreeRTOS::RTOS:Core
  71:Firmware/Middlewares/Third_Party/FreeRTOS/Source/CMSIS_RTOS_V2/cmsis_os2.c **** #include "event_groups.h"               // ARM.FreeRTOS::RTOS:Event Groups
  72:Firmware/Middlewares/Third_Party/FreeRTOS/Source/CMSIS_RTOS_V2/cmsis_os2.c **** #include "semphr.h"                     // ARM.FreeRTOS::RTOS:Core
  73:Firmware/Middlewares/Third_Party/FreeRTOS/Source/CMSIS_RTOS_V2/cmsis_os2.c **** 
  74:Firmware/Middlewares/Third_Party/FreeRTOS/Source/CMSIS_RTOS_V2/cmsis_os2.c **** /*---------------------------------------------------------------------------*/
  75:Firmware/Middlewares/Third_Party/FreeRTOS/Source/CMSIS_RTOS_V2/cmsis_os2.c **** #ifndef __ARM_ARCH_6M__
  76:Firmware/Middlewares/Third_Party/FreeRTOS/Source/CMSIS_RTOS_V2/cmsis_os2.c ****   #define __ARM_ARCH_6M__         0
  77:Firmware/Middlewares/Third_Party/FreeRTOS/Source/CMSIS_RTOS_V2/cmsis_os2.c **** #endif
  78:Firmware/Middlewares/Third_Party/FreeRTOS/Source/CMSIS_RTOS_V2/cmsis_os2.c **** #ifndef __ARM_ARCH_7M__
  79:Firmware/Middlewares/Third_Party/FreeRTOS/Source/CMSIS_RTOS_V2/cmsis_os2.c ****   #define __ARM_ARCH_7M__         0
  80:Firmware/Middlewares/Third_Party/FreeRTOS/Source/CMSIS_RTOS_V2/cmsis_os2.c **** #endif
  81:Firmware/Middlewares/Third_Party/FreeRTOS/Source/CMSIS_RTOS_V2/cmsis_os2.c **** #ifndef __ARM_ARCH_7EM__
  82:Firmware/Middlewares/Third_Party/FreeRTOS/Source/CMSIS_RTOS_V2/cmsis_os2.c ****   #define __ARM_ARCH_7EM__        0
  83:Firmware/Middlewares/Third_Party/FreeRTOS/Source/CMSIS_RTOS_V2/cmsis_os2.c **** #endif
  84:Firmware/Middlewares/Third_Party/FreeRTOS/Source/CMSIS_RTOS_V2/cmsis_os2.c **** #ifndef __ARM_ARCH_8M_MAIN__
ARM GAS  /tmp/ccB5BhZs.s 			page 3


  85:Firmware/Middlewares/Third_Party/FreeRTOS/Source/CMSIS_RTOS_V2/cmsis_os2.c ****   #define __ARM_ARCH_8M_MAIN__    0
  86:Firmware/Middlewares/Third_Party/FreeRTOS/Source/CMSIS_RTOS_V2/cmsis_os2.c **** #endif
  87:Firmware/Middlewares/Third_Party/FreeRTOS/Source/CMSIS_RTOS_V2/cmsis_os2.c **** #ifndef __ARM_ARCH_7A__
  88:Firmware/Middlewares/Third_Party/FreeRTOS/Source/CMSIS_RTOS_V2/cmsis_os2.c ****   #define __ARM_ARCH_7A__         0
  89:Firmware/Middlewares/Third_Party/FreeRTOS/Source/CMSIS_RTOS_V2/cmsis_os2.c **** #endif
  90:Firmware/Middlewares/Third_Party/FreeRTOS/Source/CMSIS_RTOS_V2/cmsis_os2.c **** 
  91:Firmware/Middlewares/Third_Party/FreeRTOS/Source/CMSIS_RTOS_V2/cmsis_os2.c **** #if   ((__ARM_ARCH_7M__      == 1U) || \
  92:Firmware/Middlewares/Third_Party/FreeRTOS/Source/CMSIS_RTOS_V2/cmsis_os2.c ****        (__ARM_ARCH_7EM__     == 1U) || \
  93:Firmware/Middlewares/Third_Party/FreeRTOS/Source/CMSIS_RTOS_V2/cmsis_os2.c ****        (__ARM_ARCH_8M_MAIN__ == 1U))
  94:Firmware/Middlewares/Third_Party/FreeRTOS/Source/CMSIS_RTOS_V2/cmsis_os2.c **** #define IS_IRQ_MASKED()           ((__get_PRIMASK() != 0U) || ((KernelState == osKernelRunning) && 
  95:Firmware/Middlewares/Third_Party/FreeRTOS/Source/CMSIS_RTOS_V2/cmsis_os2.c **** #elif  (__ARM_ARCH_6M__      == 1U)
  96:Firmware/Middlewares/Third_Party/FreeRTOS/Source/CMSIS_RTOS_V2/cmsis_os2.c **** #define IS_IRQ_MASKED()           ((__get_PRIMASK() != 0U) &&  (KernelState == osKernelRunning))
  97:Firmware/Middlewares/Third_Party/FreeRTOS/Source/CMSIS_RTOS_V2/cmsis_os2.c **** #elif (__ARM_ARCH_7A__       == 1)
  98:Firmware/Middlewares/Third_Party/FreeRTOS/Source/CMSIS_RTOS_V2/cmsis_os2.c **** #define IS_IRQ_MASKED()           (0U)
  99:Firmware/Middlewares/Third_Party/FreeRTOS/Source/CMSIS_RTOS_V2/cmsis_os2.c **** #else
 100:Firmware/Middlewares/Third_Party/FreeRTOS/Source/CMSIS_RTOS_V2/cmsis_os2.c **** #define IS_IRQ_MASKED()           (__get_PRIMASK() != 0U)
 101:Firmware/Middlewares/Third_Party/FreeRTOS/Source/CMSIS_RTOS_V2/cmsis_os2.c **** #endif
 102:Firmware/Middlewares/Third_Party/FreeRTOS/Source/CMSIS_RTOS_V2/cmsis_os2.c **** 
 103:Firmware/Middlewares/Third_Party/FreeRTOS/Source/CMSIS_RTOS_V2/cmsis_os2.c **** #if    (__ARM_ARCH_7A__      == 1U)
 104:Firmware/Middlewares/Third_Party/FreeRTOS/Source/CMSIS_RTOS_V2/cmsis_os2.c **** /* CPSR mode bitmasks */
 105:Firmware/Middlewares/Third_Party/FreeRTOS/Source/CMSIS_RTOS_V2/cmsis_os2.c **** #define CPSR_MODE_USER            0x10U
 106:Firmware/Middlewares/Third_Party/FreeRTOS/Source/CMSIS_RTOS_V2/cmsis_os2.c **** #define CPSR_MODE_SYSTEM          0x1FU
 107:Firmware/Middlewares/Third_Party/FreeRTOS/Source/CMSIS_RTOS_V2/cmsis_os2.c **** 
 108:Firmware/Middlewares/Third_Party/FreeRTOS/Source/CMSIS_RTOS_V2/cmsis_os2.c **** #define IS_IRQ_MODE()             ((__get_mode() != CPSR_MODE_USER) && (__get_mode() != CPSR_MODE_S
 109:Firmware/Middlewares/Third_Party/FreeRTOS/Source/CMSIS_RTOS_V2/cmsis_os2.c **** #else
 110:Firmware/Middlewares/Third_Party/FreeRTOS/Source/CMSIS_RTOS_V2/cmsis_os2.c **** #define IS_IRQ_MODE()             (__get_IPSR() != 0U)
 111:Firmware/Middlewares/Third_Party/FreeRTOS/Source/CMSIS_RTOS_V2/cmsis_os2.c **** #endif
 112:Firmware/Middlewares/Third_Party/FreeRTOS/Source/CMSIS_RTOS_V2/cmsis_os2.c **** 
 113:Firmware/Middlewares/Third_Party/FreeRTOS/Source/CMSIS_RTOS_V2/cmsis_os2.c **** #define IS_IRQ()                  (IS_IRQ_MODE() || IS_IRQ_MASKED())
 114:Firmware/Middlewares/Third_Party/FreeRTOS/Source/CMSIS_RTOS_V2/cmsis_os2.c **** 
 115:Firmware/Middlewares/Third_Party/FreeRTOS/Source/CMSIS_RTOS_V2/cmsis_os2.c **** /* Limits */
 116:Firmware/Middlewares/Third_Party/FreeRTOS/Source/CMSIS_RTOS_V2/cmsis_os2.c **** #define MAX_BITS_TASK_NOTIFY      31U
 117:Firmware/Middlewares/Third_Party/FreeRTOS/Source/CMSIS_RTOS_V2/cmsis_os2.c **** #define MAX_BITS_EVENT_GROUPS     24U
 118:Firmware/Middlewares/Third_Party/FreeRTOS/Source/CMSIS_RTOS_V2/cmsis_os2.c **** 
 119:Firmware/Middlewares/Third_Party/FreeRTOS/Source/CMSIS_RTOS_V2/cmsis_os2.c **** #define THREAD_FLAGS_INVALID_BITS (~((1UL << MAX_BITS_TASK_NOTIFY)  - 1U))
 120:Firmware/Middlewares/Third_Party/FreeRTOS/Source/CMSIS_RTOS_V2/cmsis_os2.c **** #define EVENT_FLAGS_INVALID_BITS  (~((1UL << MAX_BITS_EVENT_GROUPS) - 1U))
 121:Firmware/Middlewares/Third_Party/FreeRTOS/Source/CMSIS_RTOS_V2/cmsis_os2.c **** 
 122:Firmware/Middlewares/Third_Party/FreeRTOS/Source/CMSIS_RTOS_V2/cmsis_os2.c **** /* Kernel version and identification string definition */
 123:Firmware/Middlewares/Third_Party/FreeRTOS/Source/CMSIS_RTOS_V2/cmsis_os2.c **** #define KERNEL_VERSION            (((uint32_t)tskKERNEL_VERSION_MAJOR * 10000000UL) | \
 124:Firmware/Middlewares/Third_Party/FreeRTOS/Source/CMSIS_RTOS_V2/cmsis_os2.c ****                                    ((uint32_t)tskKERNEL_VERSION_MINOR *    10000UL) | \
 125:Firmware/Middlewares/Third_Party/FreeRTOS/Source/CMSIS_RTOS_V2/cmsis_os2.c ****                                    ((uint32_t)tskKERNEL_VERSION_BUILD *        1UL))
 126:Firmware/Middlewares/Third_Party/FreeRTOS/Source/CMSIS_RTOS_V2/cmsis_os2.c **** 
 127:Firmware/Middlewares/Third_Party/FreeRTOS/Source/CMSIS_RTOS_V2/cmsis_os2.c **** #define KERNEL_ID                 "FreeRTOS V10.0.1"
 128:Firmware/Middlewares/Third_Party/FreeRTOS/Source/CMSIS_RTOS_V2/cmsis_os2.c **** 
 129:Firmware/Middlewares/Third_Party/FreeRTOS/Source/CMSIS_RTOS_V2/cmsis_os2.c **** /* Timer callback information structure definition */
 130:Firmware/Middlewares/Third_Party/FreeRTOS/Source/CMSIS_RTOS_V2/cmsis_os2.c **** typedef struct {
 131:Firmware/Middlewares/Third_Party/FreeRTOS/Source/CMSIS_RTOS_V2/cmsis_os2.c ****   osTimerFunc_t func;
 132:Firmware/Middlewares/Third_Party/FreeRTOS/Source/CMSIS_RTOS_V2/cmsis_os2.c ****   void         *arg;
 133:Firmware/Middlewares/Third_Party/FreeRTOS/Source/CMSIS_RTOS_V2/cmsis_os2.c **** } TimerCallback_t;
 134:Firmware/Middlewares/Third_Party/FreeRTOS/Source/CMSIS_RTOS_V2/cmsis_os2.c **** 
 135:Firmware/Middlewares/Third_Party/FreeRTOS/Source/CMSIS_RTOS_V2/cmsis_os2.c **** /* Kernel initialization state */
 136:Firmware/Middlewares/Third_Party/FreeRTOS/Source/CMSIS_RTOS_V2/cmsis_os2.c **** static osKernelState_t KernelState;
 137:Firmware/Middlewares/Third_Party/FreeRTOS/Source/CMSIS_RTOS_V2/cmsis_os2.c **** 
 138:Firmware/Middlewares/Third_Party/FreeRTOS/Source/CMSIS_RTOS_V2/cmsis_os2.c **** /* Heap region definition used by heap_5 variant */
 139:Firmware/Middlewares/Third_Party/FreeRTOS/Source/CMSIS_RTOS_V2/cmsis_os2.c **** #if defined(USE_FreeRTOS_HEAP_5)
 140:Firmware/Middlewares/Third_Party/FreeRTOS/Source/CMSIS_RTOS_V2/cmsis_os2.c **** #if (configAPPLICATION_ALLOCATED_HEAP == 1)
 141:Firmware/Middlewares/Third_Party/FreeRTOS/Source/CMSIS_RTOS_V2/cmsis_os2.c **** /*
ARM GAS  /tmp/ccB5BhZs.s 			page 4


 142:Firmware/Middlewares/Third_Party/FreeRTOS/Source/CMSIS_RTOS_V2/cmsis_os2.c ****   The application writer has already defined the array used for the RTOS
 143:Firmware/Middlewares/Third_Party/FreeRTOS/Source/CMSIS_RTOS_V2/cmsis_os2.c ****   heap - probably so it can be placed in a special segment or address.
 144:Firmware/Middlewares/Third_Party/FreeRTOS/Source/CMSIS_RTOS_V2/cmsis_os2.c **** */
 145:Firmware/Middlewares/Third_Party/FreeRTOS/Source/CMSIS_RTOS_V2/cmsis_os2.c ****   extern uint8_t ucHeap[configTOTAL_HEAP_SIZE];
 146:Firmware/Middlewares/Third_Party/FreeRTOS/Source/CMSIS_RTOS_V2/cmsis_os2.c **** #else
 147:Firmware/Middlewares/Third_Party/FreeRTOS/Source/CMSIS_RTOS_V2/cmsis_os2.c ****   static uint8_t ucHeap[configTOTAL_HEAP_SIZE];
 148:Firmware/Middlewares/Third_Party/FreeRTOS/Source/CMSIS_RTOS_V2/cmsis_os2.c **** #endif /* configAPPLICATION_ALLOCATED_HEAP */
 149:Firmware/Middlewares/Third_Party/FreeRTOS/Source/CMSIS_RTOS_V2/cmsis_os2.c **** 
 150:Firmware/Middlewares/Third_Party/FreeRTOS/Source/CMSIS_RTOS_V2/cmsis_os2.c **** static HeapRegion_t xHeapRegions[] = {
 151:Firmware/Middlewares/Third_Party/FreeRTOS/Source/CMSIS_RTOS_V2/cmsis_os2.c ****   { ucHeap, configTOTAL_HEAP_SIZE },
 152:Firmware/Middlewares/Third_Party/FreeRTOS/Source/CMSIS_RTOS_V2/cmsis_os2.c ****   { NULL,   0                     }
 153:Firmware/Middlewares/Third_Party/FreeRTOS/Source/CMSIS_RTOS_V2/cmsis_os2.c **** };
 154:Firmware/Middlewares/Third_Party/FreeRTOS/Source/CMSIS_RTOS_V2/cmsis_os2.c **** #endif /* USE_FreeRTOS_HEAP_5 */
 155:Firmware/Middlewares/Third_Party/FreeRTOS/Source/CMSIS_RTOS_V2/cmsis_os2.c **** 
 156:Firmware/Middlewares/Third_Party/FreeRTOS/Source/CMSIS_RTOS_V2/cmsis_os2.c **** #if defined(SysTick)
 157:Firmware/Middlewares/Third_Party/FreeRTOS/Source/CMSIS_RTOS_V2/cmsis_os2.c **** /* FreeRTOS tick timer interrupt handler prototype */
 158:Firmware/Middlewares/Third_Party/FreeRTOS/Source/CMSIS_RTOS_V2/cmsis_os2.c **** extern void xPortSysTickHandler (void);
 159:Firmware/Middlewares/Third_Party/FreeRTOS/Source/CMSIS_RTOS_V2/cmsis_os2.c **** 
 160:Firmware/Middlewares/Third_Party/FreeRTOS/Source/CMSIS_RTOS_V2/cmsis_os2.c **** /*
 161:Firmware/Middlewares/Third_Party/FreeRTOS/Source/CMSIS_RTOS_V2/cmsis_os2.c ****   SysTick handler implementation that also clears overflow flag.
 162:Firmware/Middlewares/Third_Party/FreeRTOS/Source/CMSIS_RTOS_V2/cmsis_os2.c **** */
 163:Firmware/Middlewares/Third_Party/FreeRTOS/Source/CMSIS_RTOS_V2/cmsis_os2.c **** void SysTick_Handler (void) {
 164:Firmware/Middlewares/Third_Party/FreeRTOS/Source/CMSIS_RTOS_V2/cmsis_os2.c ****   /* Clear overflow flag */
 165:Firmware/Middlewares/Third_Party/FreeRTOS/Source/CMSIS_RTOS_V2/cmsis_os2.c ****   SysTick->CTRL;
 166:Firmware/Middlewares/Third_Party/FreeRTOS/Source/CMSIS_RTOS_V2/cmsis_os2.c **** 
 167:Firmware/Middlewares/Third_Party/FreeRTOS/Source/CMSIS_RTOS_V2/cmsis_os2.c ****   /* Call tick handler */
 168:Firmware/Middlewares/Third_Party/FreeRTOS/Source/CMSIS_RTOS_V2/cmsis_os2.c ****   xPortSysTickHandler();
 169:Firmware/Middlewares/Third_Party/FreeRTOS/Source/CMSIS_RTOS_V2/cmsis_os2.c **** }
 170:Firmware/Middlewares/Third_Party/FreeRTOS/Source/CMSIS_RTOS_V2/cmsis_os2.c **** #endif /* SysTick */
 171:Firmware/Middlewares/Third_Party/FreeRTOS/Source/CMSIS_RTOS_V2/cmsis_os2.c **** 
 172:Firmware/Middlewares/Third_Party/FreeRTOS/Source/CMSIS_RTOS_V2/cmsis_os2.c **** /*---------------------------------------------------------------------------*/
 173:Firmware/Middlewares/Third_Party/FreeRTOS/Source/CMSIS_RTOS_V2/cmsis_os2.c **** 
 174:Firmware/Middlewares/Third_Party/FreeRTOS/Source/CMSIS_RTOS_V2/cmsis_os2.c **** osStatus_t osKernelInitialize (void) {
  34              		.loc 1 174 0
  35              		.cfi_startproc
  36              		@ args = 0, pretend = 0, frame = 16
  37              		@ frame_needed = 1, uses_anonymous_args = 0
  38              		@ link register save eliminated.
  39 0000 80B4     		push	{r7}
  40              	.LCFI0:
  41              		.cfi_def_cfa_offset 4
  42              		.cfi_offset 7, -4
  43 0002 85B0     		sub	sp, sp, #20
  44              	.LCFI1:
  45              		.cfi_def_cfa_offset 24
  46 0004 00AF     		add	r7, sp, #0
  47              	.LCFI2:
  48              		.cfi_def_cfa_register 7
  49              	.LBB334:
  50              	.LBB335:
  51              		.file 2 "Firmware/Drivers/CMSIS/Include/cmsis_gcc.h"
   1:Firmware/Drivers/CMSIS/Include/cmsis_gcc.h **** /**************************************************************************//**
   2:Firmware/Drivers/CMSIS/Include/cmsis_gcc.h ****  * @file     cmsis_gcc.h
   3:Firmware/Drivers/CMSIS/Include/cmsis_gcc.h ****  * @brief    CMSIS compiler GCC header file
   4:Firmware/Drivers/CMSIS/Include/cmsis_gcc.h ****  * @version  V5.0.4
   5:Firmware/Drivers/CMSIS/Include/cmsis_gcc.h ****  * @date     09. April 2018
   6:Firmware/Drivers/CMSIS/Include/cmsis_gcc.h ****  ******************************************************************************/
ARM GAS  /tmp/ccB5BhZs.s 			page 5


   7:Firmware/Drivers/CMSIS/Include/cmsis_gcc.h **** /*
   8:Firmware/Drivers/CMSIS/Include/cmsis_gcc.h ****  * Copyright (c) 2009-2018 Arm Limited. All rights reserved.
   9:Firmware/Drivers/CMSIS/Include/cmsis_gcc.h ****  *
  10:Firmware/Drivers/CMSIS/Include/cmsis_gcc.h ****  * SPDX-License-Identifier: Apache-2.0
  11:Firmware/Drivers/CMSIS/Include/cmsis_gcc.h ****  *
  12:Firmware/Drivers/CMSIS/Include/cmsis_gcc.h ****  * Licensed under the Apache License, Version 2.0 (the License); you may
  13:Firmware/Drivers/CMSIS/Include/cmsis_gcc.h ****  * not use this file except in compliance with the License.
  14:Firmware/Drivers/CMSIS/Include/cmsis_gcc.h ****  * You may obtain a copy of the License at
  15:Firmware/Drivers/CMSIS/Include/cmsis_gcc.h ****  *
  16:Firmware/Drivers/CMSIS/Include/cmsis_gcc.h ****  * www.apache.org/licenses/LICENSE-2.0
  17:Firmware/Drivers/CMSIS/Include/cmsis_gcc.h ****  *
  18:Firmware/Drivers/CMSIS/Include/cmsis_gcc.h ****  * Unless required by applicable law or agreed to in writing, software
  19:Firmware/Drivers/CMSIS/Include/cmsis_gcc.h ****  * distributed under the License is distributed on an AS IS BASIS, WITHOUT
  20:Firmware/Drivers/CMSIS/Include/cmsis_gcc.h ****  * WARRANTIES OR CONDITIONS OF ANY KIND, either express or implied.
  21:Firmware/Drivers/CMSIS/Include/cmsis_gcc.h ****  * See the License for the specific language governing permissions and
  22:Firmware/Drivers/CMSIS/Include/cmsis_gcc.h ****  * limitations under the License.
  23:Firmware/Drivers/CMSIS/Include/cmsis_gcc.h ****  */
  24:Firmware/Drivers/CMSIS/Include/cmsis_gcc.h **** 
  25:Firmware/Drivers/CMSIS/Include/cmsis_gcc.h **** #ifndef __CMSIS_GCC_H
  26:Firmware/Drivers/CMSIS/Include/cmsis_gcc.h **** #define __CMSIS_GCC_H
  27:Firmware/Drivers/CMSIS/Include/cmsis_gcc.h **** 
  28:Firmware/Drivers/CMSIS/Include/cmsis_gcc.h **** /* ignore some GCC warnings */
  29:Firmware/Drivers/CMSIS/Include/cmsis_gcc.h **** #pragma GCC diagnostic push
  30:Firmware/Drivers/CMSIS/Include/cmsis_gcc.h **** #pragma GCC diagnostic ignored "-Wsign-conversion"
  31:Firmware/Drivers/CMSIS/Include/cmsis_gcc.h **** #pragma GCC diagnostic ignored "-Wconversion"
  32:Firmware/Drivers/CMSIS/Include/cmsis_gcc.h **** #pragma GCC diagnostic ignored "-Wunused-parameter"
  33:Firmware/Drivers/CMSIS/Include/cmsis_gcc.h **** 
  34:Firmware/Drivers/CMSIS/Include/cmsis_gcc.h **** /* Fallback for __has_builtin */
  35:Firmware/Drivers/CMSIS/Include/cmsis_gcc.h **** #ifndef __has_builtin
  36:Firmware/Drivers/CMSIS/Include/cmsis_gcc.h ****   #define __has_builtin(x) (0)
  37:Firmware/Drivers/CMSIS/Include/cmsis_gcc.h **** #endif
  38:Firmware/Drivers/CMSIS/Include/cmsis_gcc.h **** 
  39:Firmware/Drivers/CMSIS/Include/cmsis_gcc.h **** /* CMSIS compiler specific defines */
  40:Firmware/Drivers/CMSIS/Include/cmsis_gcc.h **** #ifndef   __ASM
  41:Firmware/Drivers/CMSIS/Include/cmsis_gcc.h ****   #define __ASM                                  __asm
  42:Firmware/Drivers/CMSIS/Include/cmsis_gcc.h **** #endif
  43:Firmware/Drivers/CMSIS/Include/cmsis_gcc.h **** #ifndef   __INLINE
  44:Firmware/Drivers/CMSIS/Include/cmsis_gcc.h ****   #define __INLINE                               inline
  45:Firmware/Drivers/CMSIS/Include/cmsis_gcc.h **** #endif
  46:Firmware/Drivers/CMSIS/Include/cmsis_gcc.h **** #ifndef   __STATIC_INLINE
  47:Firmware/Drivers/CMSIS/Include/cmsis_gcc.h ****   #define __STATIC_INLINE                        static inline
  48:Firmware/Drivers/CMSIS/Include/cmsis_gcc.h **** #endif
  49:Firmware/Drivers/CMSIS/Include/cmsis_gcc.h **** #ifndef   __STATIC_FORCEINLINE                 
  50:Firmware/Drivers/CMSIS/Include/cmsis_gcc.h ****   #define __STATIC_FORCEINLINE                   __attribute__((always_inline)) static inline
  51:Firmware/Drivers/CMSIS/Include/cmsis_gcc.h **** #endif                                           
  52:Firmware/Drivers/CMSIS/Include/cmsis_gcc.h **** #ifndef   __NO_RETURN
  53:Firmware/Drivers/CMSIS/Include/cmsis_gcc.h ****   #define __NO_RETURN                            __attribute__((__noreturn__))
  54:Firmware/Drivers/CMSIS/Include/cmsis_gcc.h **** #endif
  55:Firmware/Drivers/CMSIS/Include/cmsis_gcc.h **** #ifndef   __USED
  56:Firmware/Drivers/CMSIS/Include/cmsis_gcc.h ****   #define __USED                                 __attribute__((used))
  57:Firmware/Drivers/CMSIS/Include/cmsis_gcc.h **** #endif
  58:Firmware/Drivers/CMSIS/Include/cmsis_gcc.h **** #ifndef   __WEAK
  59:Firmware/Drivers/CMSIS/Include/cmsis_gcc.h ****   #define __WEAK                                 __attribute__((weak))
  60:Firmware/Drivers/CMSIS/Include/cmsis_gcc.h **** #endif
  61:Firmware/Drivers/CMSIS/Include/cmsis_gcc.h **** #ifndef   __PACKED
  62:Firmware/Drivers/CMSIS/Include/cmsis_gcc.h ****   #define __PACKED                               __attribute__((packed, aligned(1)))
  63:Firmware/Drivers/CMSIS/Include/cmsis_gcc.h **** #endif
ARM GAS  /tmp/ccB5BhZs.s 			page 6


  64:Firmware/Drivers/CMSIS/Include/cmsis_gcc.h **** #ifndef   __PACKED_STRUCT
  65:Firmware/Drivers/CMSIS/Include/cmsis_gcc.h ****   #define __PACKED_STRUCT                        struct __attribute__((packed, aligned(1)))
  66:Firmware/Drivers/CMSIS/Include/cmsis_gcc.h **** #endif
  67:Firmware/Drivers/CMSIS/Include/cmsis_gcc.h **** #ifndef   __PACKED_UNION
  68:Firmware/Drivers/CMSIS/Include/cmsis_gcc.h ****   #define __PACKED_UNION                         union __attribute__((packed, aligned(1)))
  69:Firmware/Drivers/CMSIS/Include/cmsis_gcc.h **** #endif
  70:Firmware/Drivers/CMSIS/Include/cmsis_gcc.h **** #ifndef   __UNALIGNED_UINT32        /* deprecated */
  71:Firmware/Drivers/CMSIS/Include/cmsis_gcc.h ****   #pragma GCC diagnostic push
  72:Firmware/Drivers/CMSIS/Include/cmsis_gcc.h ****   #pragma GCC diagnostic ignored "-Wpacked"
  73:Firmware/Drivers/CMSIS/Include/cmsis_gcc.h ****   #pragma GCC diagnostic ignored "-Wattributes"
  74:Firmware/Drivers/CMSIS/Include/cmsis_gcc.h ****   struct __attribute__((packed)) T_UINT32 { uint32_t v; };
  75:Firmware/Drivers/CMSIS/Include/cmsis_gcc.h ****   #pragma GCC diagnostic pop
  76:Firmware/Drivers/CMSIS/Include/cmsis_gcc.h ****   #define __UNALIGNED_UINT32(x)                  (((struct T_UINT32 *)(x))->v)
  77:Firmware/Drivers/CMSIS/Include/cmsis_gcc.h **** #endif
  78:Firmware/Drivers/CMSIS/Include/cmsis_gcc.h **** #ifndef   __UNALIGNED_UINT16_WRITE
  79:Firmware/Drivers/CMSIS/Include/cmsis_gcc.h ****   #pragma GCC diagnostic push
  80:Firmware/Drivers/CMSIS/Include/cmsis_gcc.h ****   #pragma GCC diagnostic ignored "-Wpacked"
  81:Firmware/Drivers/CMSIS/Include/cmsis_gcc.h ****   #pragma GCC diagnostic ignored "-Wattributes"
  82:Firmware/Drivers/CMSIS/Include/cmsis_gcc.h ****   __PACKED_STRUCT T_UINT16_WRITE { uint16_t v; };
  83:Firmware/Drivers/CMSIS/Include/cmsis_gcc.h ****   #pragma GCC diagnostic pop
  84:Firmware/Drivers/CMSIS/Include/cmsis_gcc.h ****   #define __UNALIGNED_UINT16_WRITE(addr, val)    (void)((((struct T_UINT16_WRITE *)(void *)(addr))-
  85:Firmware/Drivers/CMSIS/Include/cmsis_gcc.h **** #endif
  86:Firmware/Drivers/CMSIS/Include/cmsis_gcc.h **** #ifndef   __UNALIGNED_UINT16_READ
  87:Firmware/Drivers/CMSIS/Include/cmsis_gcc.h ****   #pragma GCC diagnostic push
  88:Firmware/Drivers/CMSIS/Include/cmsis_gcc.h ****   #pragma GCC diagnostic ignored "-Wpacked"
  89:Firmware/Drivers/CMSIS/Include/cmsis_gcc.h ****   #pragma GCC diagnostic ignored "-Wattributes"
  90:Firmware/Drivers/CMSIS/Include/cmsis_gcc.h ****   __PACKED_STRUCT T_UINT16_READ { uint16_t v; };
  91:Firmware/Drivers/CMSIS/Include/cmsis_gcc.h ****   #pragma GCC diagnostic pop
  92:Firmware/Drivers/CMSIS/Include/cmsis_gcc.h ****   #define __UNALIGNED_UINT16_READ(addr)          (((const struct T_UINT16_READ *)(const void *)(add
  93:Firmware/Drivers/CMSIS/Include/cmsis_gcc.h **** #endif
  94:Firmware/Drivers/CMSIS/Include/cmsis_gcc.h **** #ifndef   __UNALIGNED_UINT32_WRITE
  95:Firmware/Drivers/CMSIS/Include/cmsis_gcc.h ****   #pragma GCC diagnostic push
  96:Firmware/Drivers/CMSIS/Include/cmsis_gcc.h ****   #pragma GCC diagnostic ignored "-Wpacked"
  97:Firmware/Drivers/CMSIS/Include/cmsis_gcc.h ****   #pragma GCC diagnostic ignored "-Wattributes"
  98:Firmware/Drivers/CMSIS/Include/cmsis_gcc.h ****   __PACKED_STRUCT T_UINT32_WRITE { uint32_t v; };
  99:Firmware/Drivers/CMSIS/Include/cmsis_gcc.h ****   #pragma GCC diagnostic pop
 100:Firmware/Drivers/CMSIS/Include/cmsis_gcc.h ****   #define __UNALIGNED_UINT32_WRITE(addr, val)    (void)((((struct T_UINT32_WRITE *)(void *)(addr))-
 101:Firmware/Drivers/CMSIS/Include/cmsis_gcc.h **** #endif
 102:Firmware/Drivers/CMSIS/Include/cmsis_gcc.h **** #ifndef   __UNALIGNED_UINT32_READ
 103:Firmware/Drivers/CMSIS/Include/cmsis_gcc.h ****   #pragma GCC diagnostic push
 104:Firmware/Drivers/CMSIS/Include/cmsis_gcc.h ****   #pragma GCC diagnostic ignored "-Wpacked"
 105:Firmware/Drivers/CMSIS/Include/cmsis_gcc.h ****   #pragma GCC diagnostic ignored "-Wattributes"
 106:Firmware/Drivers/CMSIS/Include/cmsis_gcc.h ****   __PACKED_STRUCT T_UINT32_READ { uint32_t v; };
 107:Firmware/Drivers/CMSIS/Include/cmsis_gcc.h ****   #pragma GCC diagnostic pop
 108:Firmware/Drivers/CMSIS/Include/cmsis_gcc.h ****   #define __UNALIGNED_UINT32_READ(addr)          (((const struct T_UINT32_READ *)(const void *)(add
 109:Firmware/Drivers/CMSIS/Include/cmsis_gcc.h **** #endif
 110:Firmware/Drivers/CMSIS/Include/cmsis_gcc.h **** #ifndef   __ALIGNED
 111:Firmware/Drivers/CMSIS/Include/cmsis_gcc.h ****   #define __ALIGNED(x)                           __attribute__((aligned(x)))
 112:Firmware/Drivers/CMSIS/Include/cmsis_gcc.h **** #endif
 113:Firmware/Drivers/CMSIS/Include/cmsis_gcc.h **** #ifndef   __RESTRICT
 114:Firmware/Drivers/CMSIS/Include/cmsis_gcc.h ****   #define __RESTRICT                             __restrict
 115:Firmware/Drivers/CMSIS/Include/cmsis_gcc.h **** #endif
 116:Firmware/Drivers/CMSIS/Include/cmsis_gcc.h **** 
 117:Firmware/Drivers/CMSIS/Include/cmsis_gcc.h **** 
 118:Firmware/Drivers/CMSIS/Include/cmsis_gcc.h **** /* ###########################  Core Function Access  ########################### */
 119:Firmware/Drivers/CMSIS/Include/cmsis_gcc.h **** /** \ingroup  CMSIS_Core_FunctionInterface
 120:Firmware/Drivers/CMSIS/Include/cmsis_gcc.h ****     \defgroup CMSIS_Core_RegAccFunctions CMSIS Core Register Access Functions
ARM GAS  /tmp/ccB5BhZs.s 			page 7


 121:Firmware/Drivers/CMSIS/Include/cmsis_gcc.h ****   @{
 122:Firmware/Drivers/CMSIS/Include/cmsis_gcc.h ****  */
 123:Firmware/Drivers/CMSIS/Include/cmsis_gcc.h **** 
 124:Firmware/Drivers/CMSIS/Include/cmsis_gcc.h **** /**
 125:Firmware/Drivers/CMSIS/Include/cmsis_gcc.h ****   \brief   Enable IRQ Interrupts
 126:Firmware/Drivers/CMSIS/Include/cmsis_gcc.h ****   \details Enables IRQ interrupts by clearing the I-bit in the CPSR.
 127:Firmware/Drivers/CMSIS/Include/cmsis_gcc.h ****            Can only be executed in Privileged modes.
 128:Firmware/Drivers/CMSIS/Include/cmsis_gcc.h ****  */
 129:Firmware/Drivers/CMSIS/Include/cmsis_gcc.h **** __STATIC_FORCEINLINE void __enable_irq(void)
 130:Firmware/Drivers/CMSIS/Include/cmsis_gcc.h **** {
 131:Firmware/Drivers/CMSIS/Include/cmsis_gcc.h ****   __ASM volatile ("cpsie i" : : : "memory");
 132:Firmware/Drivers/CMSIS/Include/cmsis_gcc.h **** }
 133:Firmware/Drivers/CMSIS/Include/cmsis_gcc.h **** 
 134:Firmware/Drivers/CMSIS/Include/cmsis_gcc.h **** 
 135:Firmware/Drivers/CMSIS/Include/cmsis_gcc.h **** /**
 136:Firmware/Drivers/CMSIS/Include/cmsis_gcc.h ****   \brief   Disable IRQ Interrupts
 137:Firmware/Drivers/CMSIS/Include/cmsis_gcc.h ****   \details Disables IRQ interrupts by setting the I-bit in the CPSR.
 138:Firmware/Drivers/CMSIS/Include/cmsis_gcc.h ****            Can only be executed in Privileged modes.
 139:Firmware/Drivers/CMSIS/Include/cmsis_gcc.h ****  */
 140:Firmware/Drivers/CMSIS/Include/cmsis_gcc.h **** __STATIC_FORCEINLINE void __disable_irq(void)
 141:Firmware/Drivers/CMSIS/Include/cmsis_gcc.h **** {
 142:Firmware/Drivers/CMSIS/Include/cmsis_gcc.h ****   __ASM volatile ("cpsid i" : : : "memory");
 143:Firmware/Drivers/CMSIS/Include/cmsis_gcc.h **** }
 144:Firmware/Drivers/CMSIS/Include/cmsis_gcc.h **** 
 145:Firmware/Drivers/CMSIS/Include/cmsis_gcc.h **** 
 146:Firmware/Drivers/CMSIS/Include/cmsis_gcc.h **** /**
 147:Firmware/Drivers/CMSIS/Include/cmsis_gcc.h ****   \brief   Get Control Register
 148:Firmware/Drivers/CMSIS/Include/cmsis_gcc.h ****   \details Returns the content of the Control Register.
 149:Firmware/Drivers/CMSIS/Include/cmsis_gcc.h ****   \return               Control Register value
 150:Firmware/Drivers/CMSIS/Include/cmsis_gcc.h ****  */
 151:Firmware/Drivers/CMSIS/Include/cmsis_gcc.h **** __STATIC_FORCEINLINE uint32_t __get_CONTROL(void)
 152:Firmware/Drivers/CMSIS/Include/cmsis_gcc.h **** {
 153:Firmware/Drivers/CMSIS/Include/cmsis_gcc.h ****   uint32_t result;
 154:Firmware/Drivers/CMSIS/Include/cmsis_gcc.h **** 
 155:Firmware/Drivers/CMSIS/Include/cmsis_gcc.h ****   __ASM volatile ("MRS %0, control" : "=r" (result) );
 156:Firmware/Drivers/CMSIS/Include/cmsis_gcc.h ****   return(result);
 157:Firmware/Drivers/CMSIS/Include/cmsis_gcc.h **** }
 158:Firmware/Drivers/CMSIS/Include/cmsis_gcc.h **** 
 159:Firmware/Drivers/CMSIS/Include/cmsis_gcc.h **** 
 160:Firmware/Drivers/CMSIS/Include/cmsis_gcc.h **** #if (defined (__ARM_FEATURE_CMSE ) && (__ARM_FEATURE_CMSE == 3))
 161:Firmware/Drivers/CMSIS/Include/cmsis_gcc.h **** /**
 162:Firmware/Drivers/CMSIS/Include/cmsis_gcc.h ****   \brief   Get Control Register (non-secure)
 163:Firmware/Drivers/CMSIS/Include/cmsis_gcc.h ****   \details Returns the content of the non-secure Control Register when in secure mode.
 164:Firmware/Drivers/CMSIS/Include/cmsis_gcc.h ****   \return               non-secure Control Register value
 165:Firmware/Drivers/CMSIS/Include/cmsis_gcc.h ****  */
 166:Firmware/Drivers/CMSIS/Include/cmsis_gcc.h **** __STATIC_FORCEINLINE uint32_t __TZ_get_CONTROL_NS(void)
 167:Firmware/Drivers/CMSIS/Include/cmsis_gcc.h **** {
 168:Firmware/Drivers/CMSIS/Include/cmsis_gcc.h ****   uint32_t result;
 169:Firmware/Drivers/CMSIS/Include/cmsis_gcc.h **** 
 170:Firmware/Drivers/CMSIS/Include/cmsis_gcc.h ****   __ASM volatile ("MRS %0, control_ns" : "=r" (result) );
 171:Firmware/Drivers/CMSIS/Include/cmsis_gcc.h ****   return(result);
 172:Firmware/Drivers/CMSIS/Include/cmsis_gcc.h **** }
 173:Firmware/Drivers/CMSIS/Include/cmsis_gcc.h **** #endif
 174:Firmware/Drivers/CMSIS/Include/cmsis_gcc.h **** 
 175:Firmware/Drivers/CMSIS/Include/cmsis_gcc.h **** 
 176:Firmware/Drivers/CMSIS/Include/cmsis_gcc.h **** /**
 177:Firmware/Drivers/CMSIS/Include/cmsis_gcc.h ****   \brief   Set Control Register
ARM GAS  /tmp/ccB5BhZs.s 			page 8


 178:Firmware/Drivers/CMSIS/Include/cmsis_gcc.h ****   \details Writes the given value to the Control Register.
 179:Firmware/Drivers/CMSIS/Include/cmsis_gcc.h ****   \param [in]    control  Control Register value to set
 180:Firmware/Drivers/CMSIS/Include/cmsis_gcc.h ****  */
 181:Firmware/Drivers/CMSIS/Include/cmsis_gcc.h **** __STATIC_FORCEINLINE void __set_CONTROL(uint32_t control)
 182:Firmware/Drivers/CMSIS/Include/cmsis_gcc.h **** {
 183:Firmware/Drivers/CMSIS/Include/cmsis_gcc.h ****   __ASM volatile ("MSR control, %0" : : "r" (control) : "memory");
 184:Firmware/Drivers/CMSIS/Include/cmsis_gcc.h **** }
 185:Firmware/Drivers/CMSIS/Include/cmsis_gcc.h **** 
 186:Firmware/Drivers/CMSIS/Include/cmsis_gcc.h **** 
 187:Firmware/Drivers/CMSIS/Include/cmsis_gcc.h **** #if (defined (__ARM_FEATURE_CMSE ) && (__ARM_FEATURE_CMSE == 3))
 188:Firmware/Drivers/CMSIS/Include/cmsis_gcc.h **** /**
 189:Firmware/Drivers/CMSIS/Include/cmsis_gcc.h ****   \brief   Set Control Register (non-secure)
 190:Firmware/Drivers/CMSIS/Include/cmsis_gcc.h ****   \details Writes the given value to the non-secure Control Register when in secure state.
 191:Firmware/Drivers/CMSIS/Include/cmsis_gcc.h ****   \param [in]    control  Control Register value to set
 192:Firmware/Drivers/CMSIS/Include/cmsis_gcc.h ****  */
 193:Firmware/Drivers/CMSIS/Include/cmsis_gcc.h **** __STATIC_FORCEINLINE void __TZ_set_CONTROL_NS(uint32_t control)
 194:Firmware/Drivers/CMSIS/Include/cmsis_gcc.h **** {
 195:Firmware/Drivers/CMSIS/Include/cmsis_gcc.h ****   __ASM volatile ("MSR control_ns, %0" : : "r" (control) : "memory");
 196:Firmware/Drivers/CMSIS/Include/cmsis_gcc.h **** }
 197:Firmware/Drivers/CMSIS/Include/cmsis_gcc.h **** #endif
 198:Firmware/Drivers/CMSIS/Include/cmsis_gcc.h **** 
 199:Firmware/Drivers/CMSIS/Include/cmsis_gcc.h **** 
 200:Firmware/Drivers/CMSIS/Include/cmsis_gcc.h **** /**
 201:Firmware/Drivers/CMSIS/Include/cmsis_gcc.h ****   \brief   Get IPSR Register
 202:Firmware/Drivers/CMSIS/Include/cmsis_gcc.h ****   \details Returns the content of the IPSR Register.
 203:Firmware/Drivers/CMSIS/Include/cmsis_gcc.h ****   \return               IPSR Register value
 204:Firmware/Drivers/CMSIS/Include/cmsis_gcc.h ****  */
 205:Firmware/Drivers/CMSIS/Include/cmsis_gcc.h **** __STATIC_FORCEINLINE uint32_t __get_IPSR(void)
 206:Firmware/Drivers/CMSIS/Include/cmsis_gcc.h **** {
 207:Firmware/Drivers/CMSIS/Include/cmsis_gcc.h ****   uint32_t result;
 208:Firmware/Drivers/CMSIS/Include/cmsis_gcc.h **** 
 209:Firmware/Drivers/CMSIS/Include/cmsis_gcc.h ****   __ASM volatile ("MRS %0, ipsr" : "=r" (result) );
  52              		.loc 2 209 0
  53              		.syntax unified
  54              	@ 209 "Firmware/Drivers/CMSIS/Include/cmsis_gcc.h" 1
  55 0006 EFF30583 		MRS r3, ipsr
  56              	@ 0 "" 2
  57              		.thumb
  58              		.syntax unified
  59 000a BB60     		str	r3, [r7, #8]
 210:Firmware/Drivers/CMSIS/Include/cmsis_gcc.h ****   return(result);
  60              		.loc 2 210 0
  61 000c BB68     		ldr	r3, [r7, #8]
  62              	.LBE335:
  63              	.LBE334:
 175:Firmware/Middlewares/Third_Party/FreeRTOS/Source/CMSIS_RTOS_V2/cmsis_os2.c ****   osStatus_t stat;
 176:Firmware/Middlewares/Third_Party/FreeRTOS/Source/CMSIS_RTOS_V2/cmsis_os2.c **** 
 177:Firmware/Middlewares/Third_Party/FreeRTOS/Source/CMSIS_RTOS_V2/cmsis_os2.c ****   if (IS_IRQ()) {
  64              		.loc 1 177 0
  65 000e 002B     		cmp	r3, #0
  66 0010 0FD1     		bne	.L3
  67              	.LBB336:
  68              	.LBB337:
 211:Firmware/Drivers/CMSIS/Include/cmsis_gcc.h **** }
 212:Firmware/Drivers/CMSIS/Include/cmsis_gcc.h **** 
 213:Firmware/Drivers/CMSIS/Include/cmsis_gcc.h **** 
 214:Firmware/Drivers/CMSIS/Include/cmsis_gcc.h **** /**
ARM GAS  /tmp/ccB5BhZs.s 			page 9


 215:Firmware/Drivers/CMSIS/Include/cmsis_gcc.h ****   \brief   Get APSR Register
 216:Firmware/Drivers/CMSIS/Include/cmsis_gcc.h ****   \details Returns the content of the APSR Register.
 217:Firmware/Drivers/CMSIS/Include/cmsis_gcc.h ****   \return               APSR Register value
 218:Firmware/Drivers/CMSIS/Include/cmsis_gcc.h ****  */
 219:Firmware/Drivers/CMSIS/Include/cmsis_gcc.h **** __STATIC_FORCEINLINE uint32_t __get_APSR(void)
 220:Firmware/Drivers/CMSIS/Include/cmsis_gcc.h **** {
 221:Firmware/Drivers/CMSIS/Include/cmsis_gcc.h ****   uint32_t result;
 222:Firmware/Drivers/CMSIS/Include/cmsis_gcc.h **** 
 223:Firmware/Drivers/CMSIS/Include/cmsis_gcc.h ****   __ASM volatile ("MRS %0, apsr" : "=r" (result) );
 224:Firmware/Drivers/CMSIS/Include/cmsis_gcc.h ****   return(result);
 225:Firmware/Drivers/CMSIS/Include/cmsis_gcc.h **** }
 226:Firmware/Drivers/CMSIS/Include/cmsis_gcc.h **** 
 227:Firmware/Drivers/CMSIS/Include/cmsis_gcc.h **** 
 228:Firmware/Drivers/CMSIS/Include/cmsis_gcc.h **** /**
 229:Firmware/Drivers/CMSIS/Include/cmsis_gcc.h ****   \brief   Get xPSR Register
 230:Firmware/Drivers/CMSIS/Include/cmsis_gcc.h ****   \details Returns the content of the xPSR Register.
 231:Firmware/Drivers/CMSIS/Include/cmsis_gcc.h ****   \return               xPSR Register value
 232:Firmware/Drivers/CMSIS/Include/cmsis_gcc.h ****  */
 233:Firmware/Drivers/CMSIS/Include/cmsis_gcc.h **** __STATIC_FORCEINLINE uint32_t __get_xPSR(void)
 234:Firmware/Drivers/CMSIS/Include/cmsis_gcc.h **** {
 235:Firmware/Drivers/CMSIS/Include/cmsis_gcc.h ****   uint32_t result;
 236:Firmware/Drivers/CMSIS/Include/cmsis_gcc.h **** 
 237:Firmware/Drivers/CMSIS/Include/cmsis_gcc.h ****   __ASM volatile ("MRS %0, xpsr" : "=r" (result) );
 238:Firmware/Drivers/CMSIS/Include/cmsis_gcc.h ****   return(result);
 239:Firmware/Drivers/CMSIS/Include/cmsis_gcc.h **** }
 240:Firmware/Drivers/CMSIS/Include/cmsis_gcc.h **** 
 241:Firmware/Drivers/CMSIS/Include/cmsis_gcc.h **** 
 242:Firmware/Drivers/CMSIS/Include/cmsis_gcc.h **** /**
 243:Firmware/Drivers/CMSIS/Include/cmsis_gcc.h ****   \brief   Get Process Stack Pointer
 244:Firmware/Drivers/CMSIS/Include/cmsis_gcc.h ****   \details Returns the current value of the Process Stack Pointer (PSP).
 245:Firmware/Drivers/CMSIS/Include/cmsis_gcc.h ****   \return               PSP Register value
 246:Firmware/Drivers/CMSIS/Include/cmsis_gcc.h ****  */
 247:Firmware/Drivers/CMSIS/Include/cmsis_gcc.h **** __STATIC_FORCEINLINE uint32_t __get_PSP(void)
 248:Firmware/Drivers/CMSIS/Include/cmsis_gcc.h **** {
 249:Firmware/Drivers/CMSIS/Include/cmsis_gcc.h ****   uint32_t result;
 250:Firmware/Drivers/CMSIS/Include/cmsis_gcc.h **** 
 251:Firmware/Drivers/CMSIS/Include/cmsis_gcc.h ****   __ASM volatile ("MRS %0, psp"  : "=r" (result) );
 252:Firmware/Drivers/CMSIS/Include/cmsis_gcc.h ****   return(result);
 253:Firmware/Drivers/CMSIS/Include/cmsis_gcc.h **** }
 254:Firmware/Drivers/CMSIS/Include/cmsis_gcc.h **** 
 255:Firmware/Drivers/CMSIS/Include/cmsis_gcc.h **** 
 256:Firmware/Drivers/CMSIS/Include/cmsis_gcc.h **** #if (defined (__ARM_FEATURE_CMSE ) && (__ARM_FEATURE_CMSE == 3))
 257:Firmware/Drivers/CMSIS/Include/cmsis_gcc.h **** /**
 258:Firmware/Drivers/CMSIS/Include/cmsis_gcc.h ****   \brief   Get Process Stack Pointer (non-secure)
 259:Firmware/Drivers/CMSIS/Include/cmsis_gcc.h ****   \details Returns the current value of the non-secure Process Stack Pointer (PSP) when in secure s
 260:Firmware/Drivers/CMSIS/Include/cmsis_gcc.h ****   \return               PSP Register value
 261:Firmware/Drivers/CMSIS/Include/cmsis_gcc.h ****  */
 262:Firmware/Drivers/CMSIS/Include/cmsis_gcc.h **** __STATIC_FORCEINLINE uint32_t __TZ_get_PSP_NS(void)
 263:Firmware/Drivers/CMSIS/Include/cmsis_gcc.h **** {
 264:Firmware/Drivers/CMSIS/Include/cmsis_gcc.h ****   uint32_t result;
 265:Firmware/Drivers/CMSIS/Include/cmsis_gcc.h **** 
 266:Firmware/Drivers/CMSIS/Include/cmsis_gcc.h ****   __ASM volatile ("MRS %0, psp_ns"  : "=r" (result) );
 267:Firmware/Drivers/CMSIS/Include/cmsis_gcc.h ****   return(result);
 268:Firmware/Drivers/CMSIS/Include/cmsis_gcc.h **** }
 269:Firmware/Drivers/CMSIS/Include/cmsis_gcc.h **** #endif
 270:Firmware/Drivers/CMSIS/Include/cmsis_gcc.h **** 
 271:Firmware/Drivers/CMSIS/Include/cmsis_gcc.h **** 
ARM GAS  /tmp/ccB5BhZs.s 			page 10


 272:Firmware/Drivers/CMSIS/Include/cmsis_gcc.h **** /**
 273:Firmware/Drivers/CMSIS/Include/cmsis_gcc.h ****   \brief   Set Process Stack Pointer
 274:Firmware/Drivers/CMSIS/Include/cmsis_gcc.h ****   \details Assigns the given value to the Process Stack Pointer (PSP).
 275:Firmware/Drivers/CMSIS/Include/cmsis_gcc.h ****   \param [in]    topOfProcStack  Process Stack Pointer value to set
 276:Firmware/Drivers/CMSIS/Include/cmsis_gcc.h ****  */
 277:Firmware/Drivers/CMSIS/Include/cmsis_gcc.h **** __STATIC_FORCEINLINE void __set_PSP(uint32_t topOfProcStack)
 278:Firmware/Drivers/CMSIS/Include/cmsis_gcc.h **** {
 279:Firmware/Drivers/CMSIS/Include/cmsis_gcc.h ****   __ASM volatile ("MSR psp, %0" : : "r" (topOfProcStack) : );
 280:Firmware/Drivers/CMSIS/Include/cmsis_gcc.h **** }
 281:Firmware/Drivers/CMSIS/Include/cmsis_gcc.h **** 
 282:Firmware/Drivers/CMSIS/Include/cmsis_gcc.h **** 
 283:Firmware/Drivers/CMSIS/Include/cmsis_gcc.h **** #if (defined (__ARM_FEATURE_CMSE ) && (__ARM_FEATURE_CMSE == 3))
 284:Firmware/Drivers/CMSIS/Include/cmsis_gcc.h **** /**
 285:Firmware/Drivers/CMSIS/Include/cmsis_gcc.h ****   \brief   Set Process Stack Pointer (non-secure)
 286:Firmware/Drivers/CMSIS/Include/cmsis_gcc.h ****   \details Assigns the given value to the non-secure Process Stack Pointer (PSP) when in secure sta
 287:Firmware/Drivers/CMSIS/Include/cmsis_gcc.h ****   \param [in]    topOfProcStack  Process Stack Pointer value to set
 288:Firmware/Drivers/CMSIS/Include/cmsis_gcc.h ****  */
 289:Firmware/Drivers/CMSIS/Include/cmsis_gcc.h **** __STATIC_FORCEINLINE void __TZ_set_PSP_NS(uint32_t topOfProcStack)
 290:Firmware/Drivers/CMSIS/Include/cmsis_gcc.h **** {
 291:Firmware/Drivers/CMSIS/Include/cmsis_gcc.h ****   __ASM volatile ("MSR psp_ns, %0" : : "r" (topOfProcStack) : );
 292:Firmware/Drivers/CMSIS/Include/cmsis_gcc.h **** }
 293:Firmware/Drivers/CMSIS/Include/cmsis_gcc.h **** #endif
 294:Firmware/Drivers/CMSIS/Include/cmsis_gcc.h **** 
 295:Firmware/Drivers/CMSIS/Include/cmsis_gcc.h **** 
 296:Firmware/Drivers/CMSIS/Include/cmsis_gcc.h **** /**
 297:Firmware/Drivers/CMSIS/Include/cmsis_gcc.h ****   \brief   Get Main Stack Pointer
 298:Firmware/Drivers/CMSIS/Include/cmsis_gcc.h ****   \details Returns the current value of the Main Stack Pointer (MSP).
 299:Firmware/Drivers/CMSIS/Include/cmsis_gcc.h ****   \return               MSP Register value
 300:Firmware/Drivers/CMSIS/Include/cmsis_gcc.h ****  */
 301:Firmware/Drivers/CMSIS/Include/cmsis_gcc.h **** __STATIC_FORCEINLINE uint32_t __get_MSP(void)
 302:Firmware/Drivers/CMSIS/Include/cmsis_gcc.h **** {
 303:Firmware/Drivers/CMSIS/Include/cmsis_gcc.h ****   uint32_t result;
 304:Firmware/Drivers/CMSIS/Include/cmsis_gcc.h **** 
 305:Firmware/Drivers/CMSIS/Include/cmsis_gcc.h ****   __ASM volatile ("MRS %0, msp" : "=r" (result) );
 306:Firmware/Drivers/CMSIS/Include/cmsis_gcc.h ****   return(result);
 307:Firmware/Drivers/CMSIS/Include/cmsis_gcc.h **** }
 308:Firmware/Drivers/CMSIS/Include/cmsis_gcc.h **** 
 309:Firmware/Drivers/CMSIS/Include/cmsis_gcc.h **** 
 310:Firmware/Drivers/CMSIS/Include/cmsis_gcc.h **** #if (defined (__ARM_FEATURE_CMSE ) && (__ARM_FEATURE_CMSE == 3))
 311:Firmware/Drivers/CMSIS/Include/cmsis_gcc.h **** /**
 312:Firmware/Drivers/CMSIS/Include/cmsis_gcc.h ****   \brief   Get Main Stack Pointer (non-secure)
 313:Firmware/Drivers/CMSIS/Include/cmsis_gcc.h ****   \details Returns the current value of the non-secure Main Stack Pointer (MSP) when in secure stat
 314:Firmware/Drivers/CMSIS/Include/cmsis_gcc.h ****   \return               MSP Register value
 315:Firmware/Drivers/CMSIS/Include/cmsis_gcc.h ****  */
 316:Firmware/Drivers/CMSIS/Include/cmsis_gcc.h **** __STATIC_FORCEINLINE uint32_t __TZ_get_MSP_NS(void)
 317:Firmware/Drivers/CMSIS/Include/cmsis_gcc.h **** {
 318:Firmware/Drivers/CMSIS/Include/cmsis_gcc.h ****   uint32_t result;
 319:Firmware/Drivers/CMSIS/Include/cmsis_gcc.h **** 
 320:Firmware/Drivers/CMSIS/Include/cmsis_gcc.h ****   __ASM volatile ("MRS %0, msp_ns" : "=r" (result) );
 321:Firmware/Drivers/CMSIS/Include/cmsis_gcc.h ****   return(result);
 322:Firmware/Drivers/CMSIS/Include/cmsis_gcc.h **** }
 323:Firmware/Drivers/CMSIS/Include/cmsis_gcc.h **** #endif
 324:Firmware/Drivers/CMSIS/Include/cmsis_gcc.h **** 
 325:Firmware/Drivers/CMSIS/Include/cmsis_gcc.h **** 
 326:Firmware/Drivers/CMSIS/Include/cmsis_gcc.h **** /**
 327:Firmware/Drivers/CMSIS/Include/cmsis_gcc.h ****   \brief   Set Main Stack Pointer
 328:Firmware/Drivers/CMSIS/Include/cmsis_gcc.h ****   \details Assigns the given value to the Main Stack Pointer (MSP).
ARM GAS  /tmp/ccB5BhZs.s 			page 11


 329:Firmware/Drivers/CMSIS/Include/cmsis_gcc.h ****   \param [in]    topOfMainStack  Main Stack Pointer value to set
 330:Firmware/Drivers/CMSIS/Include/cmsis_gcc.h ****  */
 331:Firmware/Drivers/CMSIS/Include/cmsis_gcc.h **** __STATIC_FORCEINLINE void __set_MSP(uint32_t topOfMainStack)
 332:Firmware/Drivers/CMSIS/Include/cmsis_gcc.h **** {
 333:Firmware/Drivers/CMSIS/Include/cmsis_gcc.h ****   __ASM volatile ("MSR msp, %0" : : "r" (topOfMainStack) : );
 334:Firmware/Drivers/CMSIS/Include/cmsis_gcc.h **** }
 335:Firmware/Drivers/CMSIS/Include/cmsis_gcc.h **** 
 336:Firmware/Drivers/CMSIS/Include/cmsis_gcc.h **** 
 337:Firmware/Drivers/CMSIS/Include/cmsis_gcc.h **** #if (defined (__ARM_FEATURE_CMSE ) && (__ARM_FEATURE_CMSE == 3))
 338:Firmware/Drivers/CMSIS/Include/cmsis_gcc.h **** /**
 339:Firmware/Drivers/CMSIS/Include/cmsis_gcc.h ****   \brief   Set Main Stack Pointer (non-secure)
 340:Firmware/Drivers/CMSIS/Include/cmsis_gcc.h ****   \details Assigns the given value to the non-secure Main Stack Pointer (MSP) when in secure state.
 341:Firmware/Drivers/CMSIS/Include/cmsis_gcc.h ****   \param [in]    topOfMainStack  Main Stack Pointer value to set
 342:Firmware/Drivers/CMSIS/Include/cmsis_gcc.h ****  */
 343:Firmware/Drivers/CMSIS/Include/cmsis_gcc.h **** __STATIC_FORCEINLINE void __TZ_set_MSP_NS(uint32_t topOfMainStack)
 344:Firmware/Drivers/CMSIS/Include/cmsis_gcc.h **** {
 345:Firmware/Drivers/CMSIS/Include/cmsis_gcc.h ****   __ASM volatile ("MSR msp_ns, %0" : : "r" (topOfMainStack) : );
 346:Firmware/Drivers/CMSIS/Include/cmsis_gcc.h **** }
 347:Firmware/Drivers/CMSIS/Include/cmsis_gcc.h **** #endif
 348:Firmware/Drivers/CMSIS/Include/cmsis_gcc.h **** 
 349:Firmware/Drivers/CMSIS/Include/cmsis_gcc.h **** 
 350:Firmware/Drivers/CMSIS/Include/cmsis_gcc.h **** #if (defined (__ARM_FEATURE_CMSE ) && (__ARM_FEATURE_CMSE == 3))
 351:Firmware/Drivers/CMSIS/Include/cmsis_gcc.h **** /**
 352:Firmware/Drivers/CMSIS/Include/cmsis_gcc.h ****   \brief   Get Stack Pointer (non-secure)
 353:Firmware/Drivers/CMSIS/Include/cmsis_gcc.h ****   \details Returns the current value of the non-secure Stack Pointer (SP) when in secure state.
 354:Firmware/Drivers/CMSIS/Include/cmsis_gcc.h ****   \return               SP Register value
 355:Firmware/Drivers/CMSIS/Include/cmsis_gcc.h ****  */
 356:Firmware/Drivers/CMSIS/Include/cmsis_gcc.h **** __STATIC_FORCEINLINE uint32_t __TZ_get_SP_NS(void)
 357:Firmware/Drivers/CMSIS/Include/cmsis_gcc.h **** {
 358:Firmware/Drivers/CMSIS/Include/cmsis_gcc.h ****   uint32_t result;
 359:Firmware/Drivers/CMSIS/Include/cmsis_gcc.h **** 
 360:Firmware/Drivers/CMSIS/Include/cmsis_gcc.h ****   __ASM volatile ("MRS %0, sp_ns" : "=r" (result) );
 361:Firmware/Drivers/CMSIS/Include/cmsis_gcc.h ****   return(result);
 362:Firmware/Drivers/CMSIS/Include/cmsis_gcc.h **** }
 363:Firmware/Drivers/CMSIS/Include/cmsis_gcc.h **** 
 364:Firmware/Drivers/CMSIS/Include/cmsis_gcc.h **** 
 365:Firmware/Drivers/CMSIS/Include/cmsis_gcc.h **** /**
 366:Firmware/Drivers/CMSIS/Include/cmsis_gcc.h ****   \brief   Set Stack Pointer (non-secure)
 367:Firmware/Drivers/CMSIS/Include/cmsis_gcc.h ****   \details Assigns the given value to the non-secure Stack Pointer (SP) when in secure state.
 368:Firmware/Drivers/CMSIS/Include/cmsis_gcc.h ****   \param [in]    topOfStack  Stack Pointer value to set
 369:Firmware/Drivers/CMSIS/Include/cmsis_gcc.h ****  */
 370:Firmware/Drivers/CMSIS/Include/cmsis_gcc.h **** __STATIC_FORCEINLINE void __TZ_set_SP_NS(uint32_t topOfStack)
 371:Firmware/Drivers/CMSIS/Include/cmsis_gcc.h **** {
 372:Firmware/Drivers/CMSIS/Include/cmsis_gcc.h ****   __ASM volatile ("MSR sp_ns, %0" : : "r" (topOfStack) : );
 373:Firmware/Drivers/CMSIS/Include/cmsis_gcc.h **** }
 374:Firmware/Drivers/CMSIS/Include/cmsis_gcc.h **** #endif
 375:Firmware/Drivers/CMSIS/Include/cmsis_gcc.h **** 
 376:Firmware/Drivers/CMSIS/Include/cmsis_gcc.h **** 
 377:Firmware/Drivers/CMSIS/Include/cmsis_gcc.h **** /**
 378:Firmware/Drivers/CMSIS/Include/cmsis_gcc.h ****   \brief   Get Priority Mask
 379:Firmware/Drivers/CMSIS/Include/cmsis_gcc.h ****   \details Returns the current state of the priority mask bit from the Priority Mask Register.
 380:Firmware/Drivers/CMSIS/Include/cmsis_gcc.h ****   \return               Priority Mask value
 381:Firmware/Drivers/CMSIS/Include/cmsis_gcc.h ****  */
 382:Firmware/Drivers/CMSIS/Include/cmsis_gcc.h **** __STATIC_FORCEINLINE uint32_t __get_PRIMASK(void)
 383:Firmware/Drivers/CMSIS/Include/cmsis_gcc.h **** {
 384:Firmware/Drivers/CMSIS/Include/cmsis_gcc.h ****   uint32_t result;
 385:Firmware/Drivers/CMSIS/Include/cmsis_gcc.h **** 
ARM GAS  /tmp/ccB5BhZs.s 			page 12


 386:Firmware/Drivers/CMSIS/Include/cmsis_gcc.h ****   __ASM volatile ("MRS %0, primask" : "=r" (result) :: "memory");
  69              		.loc 2 386 0 discriminator 1
  70              		.syntax unified
  71              	@ 386 "Firmware/Drivers/CMSIS/Include/cmsis_gcc.h" 1
  72 0012 EFF31083 		MRS r3, primask
  73              	@ 0 "" 2
  74              		.thumb
  75              		.syntax unified
  76 0016 7B60     		str	r3, [r7, #4]
 387:Firmware/Drivers/CMSIS/Include/cmsis_gcc.h ****   return(result);
  77              		.loc 2 387 0 discriminator 1
  78 0018 7B68     		ldr	r3, [r7, #4]
  79              	.LBE337:
  80              	.LBE336:
  81              		.loc 1 177 0 discriminator 1
  82 001a 002B     		cmp	r3, #0
  83 001c 09D1     		bne	.L3
  84              		.loc 1 177 0 is_stmt 0 discriminator 2
  85 001e 114B     		ldr	r3, .L10
  86 0020 1B68     		ldr	r3, [r3]
  87 0022 022B     		cmp	r3, #2
  88 0024 09D1     		bne	.L5
  89              	.LBB338:
  90              	.LBB339:
 388:Firmware/Drivers/CMSIS/Include/cmsis_gcc.h **** }
 389:Firmware/Drivers/CMSIS/Include/cmsis_gcc.h **** 
 390:Firmware/Drivers/CMSIS/Include/cmsis_gcc.h **** 
 391:Firmware/Drivers/CMSIS/Include/cmsis_gcc.h **** #if (defined (__ARM_FEATURE_CMSE ) && (__ARM_FEATURE_CMSE == 3))
 392:Firmware/Drivers/CMSIS/Include/cmsis_gcc.h **** /**
 393:Firmware/Drivers/CMSIS/Include/cmsis_gcc.h ****   \brief   Get Priority Mask (non-secure)
 394:Firmware/Drivers/CMSIS/Include/cmsis_gcc.h ****   \details Returns the current state of the non-secure priority mask bit from the Priority Mask Reg
 395:Firmware/Drivers/CMSIS/Include/cmsis_gcc.h ****   \return               Priority Mask value
 396:Firmware/Drivers/CMSIS/Include/cmsis_gcc.h ****  */
 397:Firmware/Drivers/CMSIS/Include/cmsis_gcc.h **** __STATIC_FORCEINLINE uint32_t __TZ_get_PRIMASK_NS(void)
 398:Firmware/Drivers/CMSIS/Include/cmsis_gcc.h **** {
 399:Firmware/Drivers/CMSIS/Include/cmsis_gcc.h ****   uint32_t result;
 400:Firmware/Drivers/CMSIS/Include/cmsis_gcc.h **** 
 401:Firmware/Drivers/CMSIS/Include/cmsis_gcc.h ****   __ASM volatile ("MRS %0, primask_ns" : "=r" (result) :: "memory");
 402:Firmware/Drivers/CMSIS/Include/cmsis_gcc.h ****   return(result);
 403:Firmware/Drivers/CMSIS/Include/cmsis_gcc.h **** }
 404:Firmware/Drivers/CMSIS/Include/cmsis_gcc.h **** #endif
 405:Firmware/Drivers/CMSIS/Include/cmsis_gcc.h **** 
 406:Firmware/Drivers/CMSIS/Include/cmsis_gcc.h **** 
 407:Firmware/Drivers/CMSIS/Include/cmsis_gcc.h **** /**
 408:Firmware/Drivers/CMSIS/Include/cmsis_gcc.h ****   \brief   Set Priority Mask
 409:Firmware/Drivers/CMSIS/Include/cmsis_gcc.h ****   \details Assigns the given value to the Priority Mask Register.
 410:Firmware/Drivers/CMSIS/Include/cmsis_gcc.h ****   \param [in]    priMask  Priority Mask
 411:Firmware/Drivers/CMSIS/Include/cmsis_gcc.h ****  */
 412:Firmware/Drivers/CMSIS/Include/cmsis_gcc.h **** __STATIC_FORCEINLINE void __set_PRIMASK(uint32_t priMask)
 413:Firmware/Drivers/CMSIS/Include/cmsis_gcc.h **** {
 414:Firmware/Drivers/CMSIS/Include/cmsis_gcc.h ****   __ASM volatile ("MSR primask, %0" : : "r" (priMask) : "memory");
 415:Firmware/Drivers/CMSIS/Include/cmsis_gcc.h **** }
 416:Firmware/Drivers/CMSIS/Include/cmsis_gcc.h **** 
 417:Firmware/Drivers/CMSIS/Include/cmsis_gcc.h **** 
 418:Firmware/Drivers/CMSIS/Include/cmsis_gcc.h **** #if (defined (__ARM_FEATURE_CMSE ) && (__ARM_FEATURE_CMSE == 3))
 419:Firmware/Drivers/CMSIS/Include/cmsis_gcc.h **** /**
 420:Firmware/Drivers/CMSIS/Include/cmsis_gcc.h ****   \brief   Set Priority Mask (non-secure)
ARM GAS  /tmp/ccB5BhZs.s 			page 13


 421:Firmware/Drivers/CMSIS/Include/cmsis_gcc.h ****   \details Assigns the given value to the non-secure Priority Mask Register when in secure state.
 422:Firmware/Drivers/CMSIS/Include/cmsis_gcc.h ****   \param [in]    priMask  Priority Mask
 423:Firmware/Drivers/CMSIS/Include/cmsis_gcc.h ****  */
 424:Firmware/Drivers/CMSIS/Include/cmsis_gcc.h **** __STATIC_FORCEINLINE void __TZ_set_PRIMASK_NS(uint32_t priMask)
 425:Firmware/Drivers/CMSIS/Include/cmsis_gcc.h **** {
 426:Firmware/Drivers/CMSIS/Include/cmsis_gcc.h ****   __ASM volatile ("MSR primask_ns, %0" : : "r" (priMask) : "memory");
 427:Firmware/Drivers/CMSIS/Include/cmsis_gcc.h **** }
 428:Firmware/Drivers/CMSIS/Include/cmsis_gcc.h **** #endif
 429:Firmware/Drivers/CMSIS/Include/cmsis_gcc.h **** 
 430:Firmware/Drivers/CMSIS/Include/cmsis_gcc.h **** 
 431:Firmware/Drivers/CMSIS/Include/cmsis_gcc.h **** #if ((defined (__ARM_ARCH_7M__      ) && (__ARM_ARCH_7M__      == 1)) || \
 432:Firmware/Drivers/CMSIS/Include/cmsis_gcc.h ****      (defined (__ARM_ARCH_7EM__     ) && (__ARM_ARCH_7EM__     == 1)) || \
 433:Firmware/Drivers/CMSIS/Include/cmsis_gcc.h ****      (defined (__ARM_ARCH_8M_MAIN__ ) && (__ARM_ARCH_8M_MAIN__ == 1))    )
 434:Firmware/Drivers/CMSIS/Include/cmsis_gcc.h **** /**
 435:Firmware/Drivers/CMSIS/Include/cmsis_gcc.h ****   \brief   Enable FIQ
 436:Firmware/Drivers/CMSIS/Include/cmsis_gcc.h ****   \details Enables FIQ interrupts by clearing the F-bit in the CPSR.
 437:Firmware/Drivers/CMSIS/Include/cmsis_gcc.h ****            Can only be executed in Privileged modes.
 438:Firmware/Drivers/CMSIS/Include/cmsis_gcc.h ****  */
 439:Firmware/Drivers/CMSIS/Include/cmsis_gcc.h **** __STATIC_FORCEINLINE void __enable_fault_irq(void)
 440:Firmware/Drivers/CMSIS/Include/cmsis_gcc.h **** {
 441:Firmware/Drivers/CMSIS/Include/cmsis_gcc.h ****   __ASM volatile ("cpsie f" : : : "memory");
 442:Firmware/Drivers/CMSIS/Include/cmsis_gcc.h **** }
 443:Firmware/Drivers/CMSIS/Include/cmsis_gcc.h **** 
 444:Firmware/Drivers/CMSIS/Include/cmsis_gcc.h **** 
 445:Firmware/Drivers/CMSIS/Include/cmsis_gcc.h **** /**
 446:Firmware/Drivers/CMSIS/Include/cmsis_gcc.h ****   \brief   Disable FIQ
 447:Firmware/Drivers/CMSIS/Include/cmsis_gcc.h ****   \details Disables FIQ interrupts by setting the F-bit in the CPSR.
 448:Firmware/Drivers/CMSIS/Include/cmsis_gcc.h ****            Can only be executed in Privileged modes.
 449:Firmware/Drivers/CMSIS/Include/cmsis_gcc.h ****  */
 450:Firmware/Drivers/CMSIS/Include/cmsis_gcc.h **** __STATIC_FORCEINLINE void __disable_fault_irq(void)
 451:Firmware/Drivers/CMSIS/Include/cmsis_gcc.h **** {
 452:Firmware/Drivers/CMSIS/Include/cmsis_gcc.h ****   __ASM volatile ("cpsid f" : : : "memory");
 453:Firmware/Drivers/CMSIS/Include/cmsis_gcc.h **** }
 454:Firmware/Drivers/CMSIS/Include/cmsis_gcc.h **** 
 455:Firmware/Drivers/CMSIS/Include/cmsis_gcc.h **** 
 456:Firmware/Drivers/CMSIS/Include/cmsis_gcc.h **** /**
 457:Firmware/Drivers/CMSIS/Include/cmsis_gcc.h ****   \brief   Get Base Priority
 458:Firmware/Drivers/CMSIS/Include/cmsis_gcc.h ****   \details Returns the current value of the Base Priority register.
 459:Firmware/Drivers/CMSIS/Include/cmsis_gcc.h ****   \return               Base Priority register value
 460:Firmware/Drivers/CMSIS/Include/cmsis_gcc.h ****  */
 461:Firmware/Drivers/CMSIS/Include/cmsis_gcc.h **** __STATIC_FORCEINLINE uint32_t __get_BASEPRI(void)
 462:Firmware/Drivers/CMSIS/Include/cmsis_gcc.h **** {
 463:Firmware/Drivers/CMSIS/Include/cmsis_gcc.h ****   uint32_t result;
 464:Firmware/Drivers/CMSIS/Include/cmsis_gcc.h **** 
 465:Firmware/Drivers/CMSIS/Include/cmsis_gcc.h ****   __ASM volatile ("MRS %0, basepri" : "=r" (result) );
  91              		.loc 2 465 0 is_stmt 1 discriminator 3
  92              		.syntax unified
  93              	@ 465 "Firmware/Drivers/CMSIS/Include/cmsis_gcc.h" 1
  94 0026 EFF31183 		MRS r3, basepri
  95              	@ 0 "" 2
  96              		.thumb
  97              		.syntax unified
  98 002a 3B60     		str	r3, [r7]
 466:Firmware/Drivers/CMSIS/Include/cmsis_gcc.h ****   return(result);
  99              		.loc 2 466 0 discriminator 3
 100 002c 3B68     		ldr	r3, [r7]
 101              	.LBE339:
ARM GAS  /tmp/ccB5BhZs.s 			page 14


 102              	.LBE338:
 103              		.loc 1 177 0 discriminator 3
 104 002e 002B     		cmp	r3, #0
 105 0030 03D0     		beq	.L5
 106              	.L3:
 178:Firmware/Middlewares/Third_Party/FreeRTOS/Source/CMSIS_RTOS_V2/cmsis_os2.c ****     stat = osErrorISR;
 107              		.loc 1 178 0
 108 0032 6FF00503 		mvn	r3, #5
 109 0036 FB60     		str	r3, [r7, #12]
 110 0038 0CE0     		b	.L7
 111              	.L5:
 179:Firmware/Middlewares/Third_Party/FreeRTOS/Source/CMSIS_RTOS_V2/cmsis_os2.c ****   }
 180:Firmware/Middlewares/Third_Party/FreeRTOS/Source/CMSIS_RTOS_V2/cmsis_os2.c ****   else {
 181:Firmware/Middlewares/Third_Party/FreeRTOS/Source/CMSIS_RTOS_V2/cmsis_os2.c ****     if (KernelState == osKernelInactive) {
 112              		.loc 1 181 0
 113 003a 0A4B     		ldr	r3, .L10
 114 003c 1B68     		ldr	r3, [r3]
 115 003e 002B     		cmp	r3, #0
 116 0040 05D1     		bne	.L8
 182:Firmware/Middlewares/Third_Party/FreeRTOS/Source/CMSIS_RTOS_V2/cmsis_os2.c ****       #if defined(USE_FreeRTOS_HEAP_5)
 183:Firmware/Middlewares/Third_Party/FreeRTOS/Source/CMSIS_RTOS_V2/cmsis_os2.c ****         vPortDefineHeapRegions (xHeapRegions);
 184:Firmware/Middlewares/Third_Party/FreeRTOS/Source/CMSIS_RTOS_V2/cmsis_os2.c ****       #endif
 185:Firmware/Middlewares/Third_Party/FreeRTOS/Source/CMSIS_RTOS_V2/cmsis_os2.c ****       KernelState = osKernelReady;
 117              		.loc 1 185 0
 118 0042 084B     		ldr	r3, .L10
 119 0044 0122     		movs	r2, #1
 120 0046 1A60     		str	r2, [r3]
 186:Firmware/Middlewares/Third_Party/FreeRTOS/Source/CMSIS_RTOS_V2/cmsis_os2.c ****       stat = osOK;
 121              		.loc 1 186 0
 122 0048 0023     		movs	r3, #0
 123 004a FB60     		str	r3, [r7, #12]
 124 004c 02E0     		b	.L7
 125              	.L8:
 187:Firmware/Middlewares/Third_Party/FreeRTOS/Source/CMSIS_RTOS_V2/cmsis_os2.c ****     } else {
 188:Firmware/Middlewares/Third_Party/FreeRTOS/Source/CMSIS_RTOS_V2/cmsis_os2.c ****       stat = osError;
 126              		.loc 1 188 0
 127 004e 4FF0FF33 		mov	r3, #-1
 128 0052 FB60     		str	r3, [r7, #12]
 129              	.L7:
 189:Firmware/Middlewares/Third_Party/FreeRTOS/Source/CMSIS_RTOS_V2/cmsis_os2.c ****     }
 190:Firmware/Middlewares/Third_Party/FreeRTOS/Source/CMSIS_RTOS_V2/cmsis_os2.c ****   }
 191:Firmware/Middlewares/Third_Party/FreeRTOS/Source/CMSIS_RTOS_V2/cmsis_os2.c **** 
 192:Firmware/Middlewares/Third_Party/FreeRTOS/Source/CMSIS_RTOS_V2/cmsis_os2.c ****   return (stat);
 130              		.loc 1 192 0
 131 0054 FB68     		ldr	r3, [r7, #12]
 193:Firmware/Middlewares/Third_Party/FreeRTOS/Source/CMSIS_RTOS_V2/cmsis_os2.c **** }
 132              		.loc 1 193 0
 133 0056 1846     		mov	r0, r3
 134 0058 1437     		adds	r7, r7, #20
 135              	.LCFI3:
 136              		.cfi_def_cfa_offset 4
 137 005a BD46     		mov	sp, r7
 138              	.LCFI4:
 139              		.cfi_def_cfa_register 13
 140              		@ sp needed
 141 005c 5DF8047B 		ldr	r7, [sp], #4
 142              	.LCFI5:
ARM GAS  /tmp/ccB5BhZs.s 			page 15


 143              		.cfi_restore 7
 144              		.cfi_def_cfa_offset 0
 145 0060 7047     		bx	lr
 146              	.L11:
 147 0062 00BF     		.align	2
 148              	.L10:
 149 0064 00000000 		.word	KernelState
 150              		.cfi_endproc
 151              	.LFE106:
 153              		.section	.rodata
 154              		.align	2
 155              	.LC0:
 156 0000 46726565 		.ascii	"FreeRTOS V10.0.1\000"
 156      52544F53 
 156      20563130 
 156      2E302E31 
 156      00
 157              		.section	.text.osKernelGetInfo,"ax",%progbits
 158              		.align	1
 159              		.global	osKernelGetInfo
 160              		.syntax unified
 161              		.thumb
 162              		.thumb_func
 163              		.fpu fpv4-sp-d16
 165              	osKernelGetInfo:
 166              	.LFB107:
 194:Firmware/Middlewares/Third_Party/FreeRTOS/Source/CMSIS_RTOS_V2/cmsis_os2.c **** 
 195:Firmware/Middlewares/Third_Party/FreeRTOS/Source/CMSIS_RTOS_V2/cmsis_os2.c **** osStatus_t osKernelGetInfo (osVersion_t *version, char *id_buf, uint32_t id_size) {
 167              		.loc 1 195 0
 168              		.cfi_startproc
 169              		@ args = 0, pretend = 0, frame = 16
 170              		@ frame_needed = 1, uses_anonymous_args = 0
 171 0000 80B5     		push	{r7, lr}
 172              	.LCFI6:
 173              		.cfi_def_cfa_offset 8
 174              		.cfi_offset 7, -8
 175              		.cfi_offset 14, -4
 176 0002 84B0     		sub	sp, sp, #16
 177              	.LCFI7:
 178              		.cfi_def_cfa_offset 24
 179 0004 00AF     		add	r7, sp, #0
 180              	.LCFI8:
 181              		.cfi_def_cfa_register 7
 182 0006 F860     		str	r0, [r7, #12]
 183 0008 B960     		str	r1, [r7, #8]
 184 000a 7A60     		str	r2, [r7, #4]
 196:Firmware/Middlewares/Third_Party/FreeRTOS/Source/CMSIS_RTOS_V2/cmsis_os2.c **** 
 197:Firmware/Middlewares/Third_Party/FreeRTOS/Source/CMSIS_RTOS_V2/cmsis_os2.c ****   if (version != NULL) {
 185              		.loc 1 197 0
 186 000c FB68     		ldr	r3, [r7, #12]
 187 000e 002B     		cmp	r3, #0
 188 0010 05D0     		beq	.L13
 198:Firmware/Middlewares/Third_Party/FreeRTOS/Source/CMSIS_RTOS_V2/cmsis_os2.c ****     version->api    = KERNEL_VERSION;
 189              		.loc 1 198 0
 190 0012 FB68     		ldr	r3, [r7, #12]
 191 0014 0C4A     		ldr	r2, .L17
 192 0016 1A60     		str	r2, [r3]
ARM GAS  /tmp/ccB5BhZs.s 			page 16


 199:Firmware/Middlewares/Third_Party/FreeRTOS/Source/CMSIS_RTOS_V2/cmsis_os2.c ****     version->kernel = KERNEL_VERSION;
 193              		.loc 1 199 0
 194 0018 FB68     		ldr	r3, [r7, #12]
 195 001a 0B4A     		ldr	r2, .L17
 196 001c 5A60     		str	r2, [r3, #4]
 197              	.L13:
 200:Firmware/Middlewares/Third_Party/FreeRTOS/Source/CMSIS_RTOS_V2/cmsis_os2.c ****   }
 201:Firmware/Middlewares/Third_Party/FreeRTOS/Source/CMSIS_RTOS_V2/cmsis_os2.c **** 
 202:Firmware/Middlewares/Third_Party/FreeRTOS/Source/CMSIS_RTOS_V2/cmsis_os2.c ****   if ((id_buf != NULL) && (id_size != 0U)) {
 198              		.loc 1 202 0
 199 001e BB68     		ldr	r3, [r7, #8]
 200 0020 002B     		cmp	r3, #0
 201 0022 0CD0     		beq	.L14
 202              		.loc 1 202 0 is_stmt 0 discriminator 1
 203 0024 7B68     		ldr	r3, [r7, #4]
 204 0026 002B     		cmp	r3, #0
 205 0028 09D0     		beq	.L14
 203:Firmware/Middlewares/Third_Party/FreeRTOS/Source/CMSIS_RTOS_V2/cmsis_os2.c ****     if (id_size > sizeof(KERNEL_ID)) {
 206              		.loc 1 203 0 is_stmt 1
 207 002a 7B68     		ldr	r3, [r7, #4]
 208 002c 112B     		cmp	r3, #17
 209 002e 01D9     		bls	.L15
 204:Firmware/Middlewares/Third_Party/FreeRTOS/Source/CMSIS_RTOS_V2/cmsis_os2.c ****       id_size = sizeof(KERNEL_ID);
 210              		.loc 1 204 0
 211 0030 1123     		movs	r3, #17
 212 0032 7B60     		str	r3, [r7, #4]
 213              	.L15:
 205:Firmware/Middlewares/Third_Party/FreeRTOS/Source/CMSIS_RTOS_V2/cmsis_os2.c ****     }
 206:Firmware/Middlewares/Third_Party/FreeRTOS/Source/CMSIS_RTOS_V2/cmsis_os2.c ****     memcpy(id_buf, KERNEL_ID, id_size);
 214              		.loc 1 206 0
 215 0034 7A68     		ldr	r2, [r7, #4]
 216 0036 0549     		ldr	r1, .L17+4
 217 0038 B868     		ldr	r0, [r7, #8]
 218 003a FFF7FEFF 		bl	memcpy
 219              	.L14:
 207:Firmware/Middlewares/Third_Party/FreeRTOS/Source/CMSIS_RTOS_V2/cmsis_os2.c ****   }
 208:Firmware/Middlewares/Third_Party/FreeRTOS/Source/CMSIS_RTOS_V2/cmsis_os2.c **** 
 209:Firmware/Middlewares/Third_Party/FreeRTOS/Source/CMSIS_RTOS_V2/cmsis_os2.c ****   return (osOK);
 220              		.loc 1 209 0
 221 003e 0023     		movs	r3, #0
 210:Firmware/Middlewares/Third_Party/FreeRTOS/Source/CMSIS_RTOS_V2/cmsis_os2.c **** }
 222              		.loc 1 210 0
 223 0040 1846     		mov	r0, r3
 224 0042 1037     		adds	r7, r7, #16
 225              	.LCFI9:
 226              		.cfi_def_cfa_offset 8
 227 0044 BD46     		mov	sp, r7
 228              	.LCFI10:
 229              		.cfi_def_cfa_register 13
 230              		@ sp needed
 231 0046 80BD     		pop	{r7, pc}
 232              	.L18:
 233              		.align	2
 234              	.L17:
 235 0048 01E1F505 		.word	100000001
 236 004c 00000000 		.word	.LC0
 237              		.cfi_endproc
ARM GAS  /tmp/ccB5BhZs.s 			page 17


 238              	.LFE107:
 240              		.section	.text.osKernelGetState,"ax",%progbits
 241              		.align	1
 242              		.global	osKernelGetState
 243              		.syntax unified
 244              		.thumb
 245              		.thumb_func
 246              		.fpu fpv4-sp-d16
 248              	osKernelGetState:
 249              	.LFB108:
 211:Firmware/Middlewares/Third_Party/FreeRTOS/Source/CMSIS_RTOS_V2/cmsis_os2.c **** 
 212:Firmware/Middlewares/Third_Party/FreeRTOS/Source/CMSIS_RTOS_V2/cmsis_os2.c **** osKernelState_t osKernelGetState (void) {
 250              		.loc 1 212 0
 251              		.cfi_startproc
 252              		@ args = 0, pretend = 0, frame = 8
 253              		@ frame_needed = 1, uses_anonymous_args = 0
 254 0000 80B5     		push	{r7, lr}
 255              	.LCFI11:
 256              		.cfi_def_cfa_offset 8
 257              		.cfi_offset 7, -8
 258              		.cfi_offset 14, -4
 259 0002 82B0     		sub	sp, sp, #8
 260              	.LCFI12:
 261              		.cfi_def_cfa_offset 16
 262 0004 00AF     		add	r7, sp, #0
 263              	.LCFI13:
 264              		.cfi_def_cfa_register 7
 213:Firmware/Middlewares/Third_Party/FreeRTOS/Source/CMSIS_RTOS_V2/cmsis_os2.c ****   osKernelState_t state;
 214:Firmware/Middlewares/Third_Party/FreeRTOS/Source/CMSIS_RTOS_V2/cmsis_os2.c **** 
 215:Firmware/Middlewares/Third_Party/FreeRTOS/Source/CMSIS_RTOS_V2/cmsis_os2.c ****   switch (xTaskGetSchedulerState()) {
 265              		.loc 1 215 0
 266 0006 FFF7FEFF 		bl	xTaskGetSchedulerState
 267 000a 0346     		mov	r3, r0
 268 000c 002B     		cmp	r3, #0
 269 000e 04D0     		beq	.L21
 270 0010 022B     		cmp	r3, #2
 271 0012 05D1     		bne	.L27
 216:Firmware/Middlewares/Third_Party/FreeRTOS/Source/CMSIS_RTOS_V2/cmsis_os2.c ****     case taskSCHEDULER_RUNNING:
 217:Firmware/Middlewares/Third_Party/FreeRTOS/Source/CMSIS_RTOS_V2/cmsis_os2.c ****       state = osKernelRunning;
 272              		.loc 1 217 0
 273 0014 0223     		movs	r3, #2
 274 0016 7B60     		str	r3, [r7, #4]
 218:Firmware/Middlewares/Third_Party/FreeRTOS/Source/CMSIS_RTOS_V2/cmsis_os2.c ****       break;
 275              		.loc 1 218 0
 276 0018 0CE0     		b	.L23
 277              	.L21:
 219:Firmware/Middlewares/Third_Party/FreeRTOS/Source/CMSIS_RTOS_V2/cmsis_os2.c **** 
 220:Firmware/Middlewares/Third_Party/FreeRTOS/Source/CMSIS_RTOS_V2/cmsis_os2.c ****     case taskSCHEDULER_SUSPENDED:
 221:Firmware/Middlewares/Third_Party/FreeRTOS/Source/CMSIS_RTOS_V2/cmsis_os2.c ****       state = osKernelLocked;
 278              		.loc 1 221 0
 279 001a 0323     		movs	r3, #3
 280 001c 7B60     		str	r3, [r7, #4]
 222:Firmware/Middlewares/Third_Party/FreeRTOS/Source/CMSIS_RTOS_V2/cmsis_os2.c ****       break;
 281              		.loc 1 222 0
 282 001e 09E0     		b	.L23
 283              	.L27:
 223:Firmware/Middlewares/Third_Party/FreeRTOS/Source/CMSIS_RTOS_V2/cmsis_os2.c **** 
ARM GAS  /tmp/ccB5BhZs.s 			page 18


 224:Firmware/Middlewares/Third_Party/FreeRTOS/Source/CMSIS_RTOS_V2/cmsis_os2.c ****     case taskSCHEDULER_NOT_STARTED:
 225:Firmware/Middlewares/Third_Party/FreeRTOS/Source/CMSIS_RTOS_V2/cmsis_os2.c ****     default:
 226:Firmware/Middlewares/Third_Party/FreeRTOS/Source/CMSIS_RTOS_V2/cmsis_os2.c ****       if (KernelState == osKernelReady) {
 284              		.loc 1 226 0
 285 0020 074B     		ldr	r3, .L29
 286 0022 1B68     		ldr	r3, [r3]
 287 0024 012B     		cmp	r3, #1
 288 0026 02D1     		bne	.L24
 227:Firmware/Middlewares/Third_Party/FreeRTOS/Source/CMSIS_RTOS_V2/cmsis_os2.c ****         state = osKernelReady;
 289              		.loc 1 227 0
 290 0028 0123     		movs	r3, #1
 291 002a 7B60     		str	r3, [r7, #4]
 228:Firmware/Middlewares/Third_Party/FreeRTOS/Source/CMSIS_RTOS_V2/cmsis_os2.c ****       } else {
 229:Firmware/Middlewares/Third_Party/FreeRTOS/Source/CMSIS_RTOS_V2/cmsis_os2.c ****         state = osKernelInactive;
 230:Firmware/Middlewares/Third_Party/FreeRTOS/Source/CMSIS_RTOS_V2/cmsis_os2.c ****       }
 231:Firmware/Middlewares/Third_Party/FreeRTOS/Source/CMSIS_RTOS_V2/cmsis_os2.c ****       break;
 292              		.loc 1 231 0
 293 002c 01E0     		b	.L28
 294              	.L24:
 229:Firmware/Middlewares/Third_Party/FreeRTOS/Source/CMSIS_RTOS_V2/cmsis_os2.c ****       }
 295              		.loc 1 229 0
 296 002e 0023     		movs	r3, #0
 297 0030 7B60     		str	r3, [r7, #4]
 298              	.L28:
 299              		.loc 1 231 0
 300 0032 00BF     		nop
 301              	.L23:
 232:Firmware/Middlewares/Third_Party/FreeRTOS/Source/CMSIS_RTOS_V2/cmsis_os2.c ****   }
 233:Firmware/Middlewares/Third_Party/FreeRTOS/Source/CMSIS_RTOS_V2/cmsis_os2.c **** 
 234:Firmware/Middlewares/Third_Party/FreeRTOS/Source/CMSIS_RTOS_V2/cmsis_os2.c ****   return (state);
 302              		.loc 1 234 0
 303 0034 7B68     		ldr	r3, [r7, #4]
 235:Firmware/Middlewares/Third_Party/FreeRTOS/Source/CMSIS_RTOS_V2/cmsis_os2.c **** }
 304              		.loc 1 235 0
 305 0036 1846     		mov	r0, r3
 306 0038 0837     		adds	r7, r7, #8
 307              	.LCFI14:
 308              		.cfi_def_cfa_offset 8
 309 003a BD46     		mov	sp, r7
 310              	.LCFI15:
 311              		.cfi_def_cfa_register 13
 312              		@ sp needed
 313 003c 80BD     		pop	{r7, pc}
 314              	.L30:
 315 003e 00BF     		.align	2
 316              	.L29:
 317 0040 00000000 		.word	KernelState
 318              		.cfi_endproc
 319              	.LFE108:
 321              		.section	.text.osKernelStart,"ax",%progbits
 322              		.align	1
 323              		.global	osKernelStart
 324              		.syntax unified
 325              		.thumb
 326              		.thumb_func
 327              		.fpu fpv4-sp-d16
 329              	osKernelStart:
ARM GAS  /tmp/ccB5BhZs.s 			page 19


 330              	.LFB109:
 236:Firmware/Middlewares/Third_Party/FreeRTOS/Source/CMSIS_RTOS_V2/cmsis_os2.c **** 
 237:Firmware/Middlewares/Third_Party/FreeRTOS/Source/CMSIS_RTOS_V2/cmsis_os2.c **** osStatus_t osKernelStart (void) {
 331              		.loc 1 237 0
 332              		.cfi_startproc
 333              		@ args = 0, pretend = 0, frame = 16
 334              		@ frame_needed = 1, uses_anonymous_args = 0
 335 0000 80B5     		push	{r7, lr}
 336              	.LCFI16:
 337              		.cfi_def_cfa_offset 8
 338              		.cfi_offset 7, -8
 339              		.cfi_offset 14, -4
 340 0002 84B0     		sub	sp, sp, #16
 341              	.LCFI17:
 342              		.cfi_def_cfa_offset 24
 343 0004 00AF     		add	r7, sp, #0
 344              	.LCFI18:
 345              		.cfi_def_cfa_register 7
 346              	.LBB340:
 347              	.LBB341:
 209:Firmware/Drivers/CMSIS/Include/cmsis_gcc.h ****   return(result);
 348              		.loc 2 209 0
 349              		.syntax unified
 350              	@ 209 "Firmware/Drivers/CMSIS/Include/cmsis_gcc.h" 1
 351 0006 EFF30583 		MRS r3, ipsr
 352              	@ 0 "" 2
 353              		.thumb
 354              		.syntax unified
 355 000a BB60     		str	r3, [r7, #8]
 210:Firmware/Drivers/CMSIS/Include/cmsis_gcc.h **** }
 356              		.loc 2 210 0
 357 000c BB68     		ldr	r3, [r7, #8]
 358              	.LBE341:
 359              	.LBE340:
 238:Firmware/Middlewares/Third_Party/FreeRTOS/Source/CMSIS_RTOS_V2/cmsis_os2.c ****   osStatus_t stat;
 239:Firmware/Middlewares/Third_Party/FreeRTOS/Source/CMSIS_RTOS_V2/cmsis_os2.c **** 
 240:Firmware/Middlewares/Third_Party/FreeRTOS/Source/CMSIS_RTOS_V2/cmsis_os2.c ****   if (IS_IRQ()) {
 360              		.loc 1 240 0
 361 000e 002B     		cmp	r3, #0
 362 0010 0FD1     		bne	.L33
 363              	.LBB342:
 364              	.LBB343:
 386:Firmware/Drivers/CMSIS/Include/cmsis_gcc.h ****   return(result);
 365              		.loc 2 386 0 discriminator 1
 366              		.syntax unified
 367              	@ 386 "Firmware/Drivers/CMSIS/Include/cmsis_gcc.h" 1
 368 0012 EFF31083 		MRS r3, primask
 369              	@ 0 "" 2
 370              		.thumb
 371              		.syntax unified
 372 0016 7B60     		str	r3, [r7, #4]
 387:Firmware/Drivers/CMSIS/Include/cmsis_gcc.h **** }
 373              		.loc 2 387 0 discriminator 1
 374 0018 7B68     		ldr	r3, [r7, #4]
 375              	.LBE343:
 376              	.LBE342:
 377              		.loc 1 240 0 discriminator 1
ARM GAS  /tmp/ccB5BhZs.s 			page 20


 378 001a 002B     		cmp	r3, #0
 379 001c 09D1     		bne	.L33
 380              		.loc 1 240 0 is_stmt 0 discriminator 2
 381 001e 114B     		ldr	r3, .L40
 382 0020 1B68     		ldr	r3, [r3]
 383 0022 022B     		cmp	r3, #2
 384 0024 09D1     		bne	.L35
 385              	.LBB344:
 386              	.LBB345:
 465:Firmware/Drivers/CMSIS/Include/cmsis_gcc.h ****   return(result);
 387              		.loc 2 465 0 is_stmt 1 discriminator 3
 388              		.syntax unified
 389              	@ 465 "Firmware/Drivers/CMSIS/Include/cmsis_gcc.h" 1
 390 0026 EFF31183 		MRS r3, basepri
 391              	@ 0 "" 2
 392              		.thumb
 393              		.syntax unified
 394 002a 3B60     		str	r3, [r7]
 395              		.loc 2 466 0 discriminator 3
 396 002c 3B68     		ldr	r3, [r7]
 397              	.LBE345:
 398              	.LBE344:
 399              		.loc 1 240 0 discriminator 3
 400 002e 002B     		cmp	r3, #0
 401 0030 03D0     		beq	.L35
 402              	.L33:
 241:Firmware/Middlewares/Third_Party/FreeRTOS/Source/CMSIS_RTOS_V2/cmsis_os2.c ****     stat = osErrorISR;
 403              		.loc 1 241 0
 404 0032 6FF00503 		mvn	r3, #5
 405 0036 FB60     		str	r3, [r7, #12]
 406 0038 0EE0     		b	.L37
 407              	.L35:
 242:Firmware/Middlewares/Third_Party/FreeRTOS/Source/CMSIS_RTOS_V2/cmsis_os2.c ****   }
 243:Firmware/Middlewares/Third_Party/FreeRTOS/Source/CMSIS_RTOS_V2/cmsis_os2.c ****   else {
 244:Firmware/Middlewares/Third_Party/FreeRTOS/Source/CMSIS_RTOS_V2/cmsis_os2.c ****     if (KernelState == osKernelReady) {
 408              		.loc 1 244 0
 409 003a 0A4B     		ldr	r3, .L40
 410 003c 1B68     		ldr	r3, [r3]
 411 003e 012B     		cmp	r3, #1
 412 0040 07D1     		bne	.L38
 245:Firmware/Middlewares/Third_Party/FreeRTOS/Source/CMSIS_RTOS_V2/cmsis_os2.c ****       KernelState = osKernelRunning;
 413              		.loc 1 245 0
 414 0042 084B     		ldr	r3, .L40
 415 0044 0222     		movs	r2, #2
 416 0046 1A60     		str	r2, [r3]
 246:Firmware/Middlewares/Third_Party/FreeRTOS/Source/CMSIS_RTOS_V2/cmsis_os2.c ****       vTaskStartScheduler();
 417              		.loc 1 246 0
 418 0048 FFF7FEFF 		bl	vTaskStartScheduler
 247:Firmware/Middlewares/Third_Party/FreeRTOS/Source/CMSIS_RTOS_V2/cmsis_os2.c ****       stat = osOK;
 419              		.loc 1 247 0
 420 004c 0023     		movs	r3, #0
 421 004e FB60     		str	r3, [r7, #12]
 422 0050 02E0     		b	.L37
 423              	.L38:
 248:Firmware/Middlewares/Third_Party/FreeRTOS/Source/CMSIS_RTOS_V2/cmsis_os2.c ****     } else {
 249:Firmware/Middlewares/Third_Party/FreeRTOS/Source/CMSIS_RTOS_V2/cmsis_os2.c ****       stat = osError;
 424              		.loc 1 249 0
ARM GAS  /tmp/ccB5BhZs.s 			page 21


 425 0052 4FF0FF33 		mov	r3, #-1
 426 0056 FB60     		str	r3, [r7, #12]
 427              	.L37:
 250:Firmware/Middlewares/Third_Party/FreeRTOS/Source/CMSIS_RTOS_V2/cmsis_os2.c ****     }
 251:Firmware/Middlewares/Third_Party/FreeRTOS/Source/CMSIS_RTOS_V2/cmsis_os2.c ****   }
 252:Firmware/Middlewares/Third_Party/FreeRTOS/Source/CMSIS_RTOS_V2/cmsis_os2.c **** 
 253:Firmware/Middlewares/Third_Party/FreeRTOS/Source/CMSIS_RTOS_V2/cmsis_os2.c ****   return (stat);
 428              		.loc 1 253 0
 429 0058 FB68     		ldr	r3, [r7, #12]
 254:Firmware/Middlewares/Third_Party/FreeRTOS/Source/CMSIS_RTOS_V2/cmsis_os2.c **** }
 430              		.loc 1 254 0
 431 005a 1846     		mov	r0, r3
 432 005c 1037     		adds	r7, r7, #16
 433              	.LCFI19:
 434              		.cfi_def_cfa_offset 8
 435 005e BD46     		mov	sp, r7
 436              	.LCFI20:
 437              		.cfi_def_cfa_register 13
 438              		@ sp needed
 439 0060 80BD     		pop	{r7, pc}
 440              	.L41:
 441 0062 00BF     		.align	2
 442              	.L40:
 443 0064 00000000 		.word	KernelState
 444              		.cfi_endproc
 445              	.LFE109:
 447              		.section	.text.osKernelLock,"ax",%progbits
 448              		.align	1
 449              		.global	osKernelLock
 450              		.syntax unified
 451              		.thumb
 452              		.thumb_func
 453              		.fpu fpv4-sp-d16
 455              	osKernelLock:
 456              	.LFB110:
 255:Firmware/Middlewares/Third_Party/FreeRTOS/Source/CMSIS_RTOS_V2/cmsis_os2.c **** 
 256:Firmware/Middlewares/Third_Party/FreeRTOS/Source/CMSIS_RTOS_V2/cmsis_os2.c **** int32_t osKernelLock (void) {
 457              		.loc 1 256 0
 458              		.cfi_startproc
 459              		@ args = 0, pretend = 0, frame = 16
 460              		@ frame_needed = 1, uses_anonymous_args = 0
 461 0000 80B5     		push	{r7, lr}
 462              	.LCFI21:
 463              		.cfi_def_cfa_offset 8
 464              		.cfi_offset 7, -8
 465              		.cfi_offset 14, -4
 466 0002 84B0     		sub	sp, sp, #16
 467              	.LCFI22:
 468              		.cfi_def_cfa_offset 24
 469 0004 00AF     		add	r7, sp, #0
 470              	.LCFI23:
 471              		.cfi_def_cfa_register 7
 472              	.LBB346:
 473              	.LBB347:
 209:Firmware/Drivers/CMSIS/Include/cmsis_gcc.h ****   return(result);
 474              		.loc 2 209 0
 475              		.syntax unified
ARM GAS  /tmp/ccB5BhZs.s 			page 22


 476              	@ 209 "Firmware/Drivers/CMSIS/Include/cmsis_gcc.h" 1
 477 0006 EFF30583 		MRS r3, ipsr
 478              	@ 0 "" 2
 479              		.thumb
 480              		.syntax unified
 481 000a BB60     		str	r3, [r7, #8]
 210:Firmware/Drivers/CMSIS/Include/cmsis_gcc.h **** }
 482              		.loc 2 210 0
 483 000c BB68     		ldr	r3, [r7, #8]
 484              	.LBE347:
 485              	.LBE346:
 257:Firmware/Middlewares/Third_Party/FreeRTOS/Source/CMSIS_RTOS_V2/cmsis_os2.c ****   int32_t lock;
 258:Firmware/Middlewares/Third_Party/FreeRTOS/Source/CMSIS_RTOS_V2/cmsis_os2.c **** 
 259:Firmware/Middlewares/Third_Party/FreeRTOS/Source/CMSIS_RTOS_V2/cmsis_os2.c ****   if (IS_IRQ()) {
 486              		.loc 1 259 0
 487 000e 002B     		cmp	r3, #0
 488 0010 0FD1     		bne	.L44
 489              	.LBB348:
 490              	.LBB349:
 386:Firmware/Drivers/CMSIS/Include/cmsis_gcc.h ****   return(result);
 491              		.loc 2 386 0 discriminator 1
 492              		.syntax unified
 493              	@ 386 "Firmware/Drivers/CMSIS/Include/cmsis_gcc.h" 1
 494 0012 EFF31083 		MRS r3, primask
 495              	@ 0 "" 2
 496              		.thumb
 497              		.syntax unified
 498 0016 7B60     		str	r3, [r7, #4]
 387:Firmware/Drivers/CMSIS/Include/cmsis_gcc.h **** }
 499              		.loc 2 387 0 discriminator 1
 500 0018 7B68     		ldr	r3, [r7, #4]
 501              	.LBE349:
 502              	.LBE348:
 503              		.loc 1 259 0 discriminator 1
 504 001a 002B     		cmp	r3, #0
 505 001c 09D1     		bne	.L44
 506              		.loc 1 259 0 is_stmt 0 discriminator 2
 507 001e 134B     		ldr	r3, .L54
 508 0020 1B68     		ldr	r3, [r3]
 509 0022 022B     		cmp	r3, #2
 510 0024 09D1     		bne	.L46
 511              	.LBB350:
 512              	.LBB351:
 465:Firmware/Drivers/CMSIS/Include/cmsis_gcc.h ****   return(result);
 513              		.loc 2 465 0 is_stmt 1 discriminator 3
 514              		.syntax unified
 515              	@ 465 "Firmware/Drivers/CMSIS/Include/cmsis_gcc.h" 1
 516 0026 EFF31183 		MRS r3, basepri
 517              	@ 0 "" 2
 518              		.thumb
 519              		.syntax unified
 520 002a 3B60     		str	r3, [r7]
 521              		.loc 2 466 0 discriminator 3
 522 002c 3B68     		ldr	r3, [r7]
 523              	.LBE351:
 524              	.LBE350:
 525              		.loc 1 259 0 discriminator 3
ARM GAS  /tmp/ccB5BhZs.s 			page 23


 526 002e 002B     		cmp	r3, #0
 527 0030 03D0     		beq	.L46
 528              	.L44:
 260:Firmware/Middlewares/Third_Party/FreeRTOS/Source/CMSIS_RTOS_V2/cmsis_os2.c ****     lock = (int32_t)osErrorISR;
 529              		.loc 1 260 0
 530 0032 6FF00503 		mvn	r3, #5
 531 0036 FB60     		str	r3, [r7, #12]
 532 0038 13E0     		b	.L48
 533              	.L46:
 261:Firmware/Middlewares/Third_Party/FreeRTOS/Source/CMSIS_RTOS_V2/cmsis_os2.c ****   }
 262:Firmware/Middlewares/Third_Party/FreeRTOS/Source/CMSIS_RTOS_V2/cmsis_os2.c ****   else {
 263:Firmware/Middlewares/Third_Party/FreeRTOS/Source/CMSIS_RTOS_V2/cmsis_os2.c ****     switch (xTaskGetSchedulerState()) {
 534              		.loc 1 263 0
 535 003a FFF7FEFF 		bl	xTaskGetSchedulerState
 536 003e 0346     		mov	r3, r0
 537 0040 002B     		cmp	r3, #0
 538 0042 02D0     		beq	.L50
 539 0044 022B     		cmp	r3, #2
 540 0046 03D0     		beq	.L51
 541 0048 07E0     		b	.L53
 542              	.L50:
 264:Firmware/Middlewares/Third_Party/FreeRTOS/Source/CMSIS_RTOS_V2/cmsis_os2.c ****       case taskSCHEDULER_SUSPENDED:
 265:Firmware/Middlewares/Third_Party/FreeRTOS/Source/CMSIS_RTOS_V2/cmsis_os2.c ****         lock = 1;
 543              		.loc 1 265 0
 544 004a 0123     		movs	r3, #1
 545 004c FB60     		str	r3, [r7, #12]
 266:Firmware/Middlewares/Third_Party/FreeRTOS/Source/CMSIS_RTOS_V2/cmsis_os2.c ****         break;
 546              		.loc 1 266 0
 547 004e 08E0     		b	.L48
 548              	.L51:
 267:Firmware/Middlewares/Third_Party/FreeRTOS/Source/CMSIS_RTOS_V2/cmsis_os2.c **** 
 268:Firmware/Middlewares/Third_Party/FreeRTOS/Source/CMSIS_RTOS_V2/cmsis_os2.c ****       case taskSCHEDULER_RUNNING:
 269:Firmware/Middlewares/Third_Party/FreeRTOS/Source/CMSIS_RTOS_V2/cmsis_os2.c ****         vTaskSuspendAll();
 549              		.loc 1 269 0
 550 0050 FFF7FEFF 		bl	vTaskSuspendAll
 270:Firmware/Middlewares/Third_Party/FreeRTOS/Source/CMSIS_RTOS_V2/cmsis_os2.c ****         lock = 0;
 551              		.loc 1 270 0
 552 0054 0023     		movs	r3, #0
 553 0056 FB60     		str	r3, [r7, #12]
 271:Firmware/Middlewares/Third_Party/FreeRTOS/Source/CMSIS_RTOS_V2/cmsis_os2.c ****         break;
 554              		.loc 1 271 0
 555 0058 03E0     		b	.L48
 556              	.L53:
 272:Firmware/Middlewares/Third_Party/FreeRTOS/Source/CMSIS_RTOS_V2/cmsis_os2.c **** 
 273:Firmware/Middlewares/Third_Party/FreeRTOS/Source/CMSIS_RTOS_V2/cmsis_os2.c ****       case taskSCHEDULER_NOT_STARTED:
 274:Firmware/Middlewares/Third_Party/FreeRTOS/Source/CMSIS_RTOS_V2/cmsis_os2.c ****       default:
 275:Firmware/Middlewares/Third_Party/FreeRTOS/Source/CMSIS_RTOS_V2/cmsis_os2.c ****         lock = (int32_t)osError;
 557              		.loc 1 275 0
 558 005a 4FF0FF33 		mov	r3, #-1
 559 005e FB60     		str	r3, [r7, #12]
 276:Firmware/Middlewares/Third_Party/FreeRTOS/Source/CMSIS_RTOS_V2/cmsis_os2.c ****         break;
 560              		.loc 1 276 0
 561 0060 00BF     		nop
 562              	.L48:
 277:Firmware/Middlewares/Third_Party/FreeRTOS/Source/CMSIS_RTOS_V2/cmsis_os2.c ****     }
 278:Firmware/Middlewares/Third_Party/FreeRTOS/Source/CMSIS_RTOS_V2/cmsis_os2.c ****   }
 279:Firmware/Middlewares/Third_Party/FreeRTOS/Source/CMSIS_RTOS_V2/cmsis_os2.c **** 
ARM GAS  /tmp/ccB5BhZs.s 			page 24


 280:Firmware/Middlewares/Third_Party/FreeRTOS/Source/CMSIS_RTOS_V2/cmsis_os2.c ****   return (lock);
 563              		.loc 1 280 0
 564 0062 FB68     		ldr	r3, [r7, #12]
 281:Firmware/Middlewares/Third_Party/FreeRTOS/Source/CMSIS_RTOS_V2/cmsis_os2.c **** }
 565              		.loc 1 281 0
 566 0064 1846     		mov	r0, r3
 567 0066 1037     		adds	r7, r7, #16
 568              	.LCFI24:
 569              		.cfi_def_cfa_offset 8
 570 0068 BD46     		mov	sp, r7
 571              	.LCFI25:
 572              		.cfi_def_cfa_register 13
 573              		@ sp needed
 574 006a 80BD     		pop	{r7, pc}
 575              	.L55:
 576              		.align	2
 577              	.L54:
 578 006c 00000000 		.word	KernelState
 579              		.cfi_endproc
 580              	.LFE110:
 582              		.section	.text.osKernelUnlock,"ax",%progbits
 583              		.align	1
 584              		.global	osKernelUnlock
 585              		.syntax unified
 586              		.thumb
 587              		.thumb_func
 588              		.fpu fpv4-sp-d16
 590              	osKernelUnlock:
 591              	.LFB111:
 282:Firmware/Middlewares/Third_Party/FreeRTOS/Source/CMSIS_RTOS_V2/cmsis_os2.c **** 
 283:Firmware/Middlewares/Third_Party/FreeRTOS/Source/CMSIS_RTOS_V2/cmsis_os2.c **** int32_t osKernelUnlock (void) {
 592              		.loc 1 283 0
 593              		.cfi_startproc
 594              		@ args = 0, pretend = 0, frame = 16
 595              		@ frame_needed = 1, uses_anonymous_args = 0
 596 0000 80B5     		push	{r7, lr}
 597              	.LCFI26:
 598              		.cfi_def_cfa_offset 8
 599              		.cfi_offset 7, -8
 600              		.cfi_offset 14, -4
 601 0002 84B0     		sub	sp, sp, #16
 602              	.LCFI27:
 603              		.cfi_def_cfa_offset 24
 604 0004 00AF     		add	r7, sp, #0
 605              	.LCFI28:
 606              		.cfi_def_cfa_register 7
 607              	.LBB352:
 608              	.LBB353:
 209:Firmware/Drivers/CMSIS/Include/cmsis_gcc.h ****   return(result);
 609              		.loc 2 209 0
 610              		.syntax unified
 611              	@ 209 "Firmware/Drivers/CMSIS/Include/cmsis_gcc.h" 1
 612 0006 EFF30583 		MRS r3, ipsr
 613              	@ 0 "" 2
 614              		.thumb
 615              		.syntax unified
 616 000a BB60     		str	r3, [r7, #8]
ARM GAS  /tmp/ccB5BhZs.s 			page 25


 210:Firmware/Drivers/CMSIS/Include/cmsis_gcc.h **** }
 617              		.loc 2 210 0
 618 000c BB68     		ldr	r3, [r7, #8]
 619              	.LBE353:
 620              	.LBE352:
 284:Firmware/Middlewares/Third_Party/FreeRTOS/Source/CMSIS_RTOS_V2/cmsis_os2.c ****   int32_t lock;
 285:Firmware/Middlewares/Third_Party/FreeRTOS/Source/CMSIS_RTOS_V2/cmsis_os2.c **** 
 286:Firmware/Middlewares/Third_Party/FreeRTOS/Source/CMSIS_RTOS_V2/cmsis_os2.c ****   if (IS_IRQ()) {
 621              		.loc 1 286 0
 622 000e 002B     		cmp	r3, #0
 623 0010 0FD1     		bne	.L58
 624              	.LBB354:
 625              	.LBB355:
 386:Firmware/Drivers/CMSIS/Include/cmsis_gcc.h ****   return(result);
 626              		.loc 2 386 0 discriminator 1
 627              		.syntax unified
 628              	@ 386 "Firmware/Drivers/CMSIS/Include/cmsis_gcc.h" 1
 629 0012 EFF31083 		MRS r3, primask
 630              	@ 0 "" 2
 631              		.thumb
 632              		.syntax unified
 633 0016 7B60     		str	r3, [r7, #4]
 387:Firmware/Drivers/CMSIS/Include/cmsis_gcc.h **** }
 634              		.loc 2 387 0 discriminator 1
 635 0018 7B68     		ldr	r3, [r7, #4]
 636              	.LBE355:
 637              	.LBE354:
 638              		.loc 1 286 0 discriminator 1
 639 001a 002B     		cmp	r3, #0
 640 001c 09D1     		bne	.L58
 641              		.loc 1 286 0 is_stmt 0 discriminator 2
 642 001e 194B     		ldr	r3, .L70
 643 0020 1B68     		ldr	r3, [r3]
 644 0022 022B     		cmp	r3, #2
 645 0024 09D1     		bne	.L60
 646              	.LBB356:
 647              	.LBB357:
 465:Firmware/Drivers/CMSIS/Include/cmsis_gcc.h ****   return(result);
 648              		.loc 2 465 0 is_stmt 1 discriminator 3
 649              		.syntax unified
 650              	@ 465 "Firmware/Drivers/CMSIS/Include/cmsis_gcc.h" 1
 651 0026 EFF31183 		MRS r3, basepri
 652              	@ 0 "" 2
 653              		.thumb
 654              		.syntax unified
 655 002a 3B60     		str	r3, [r7]
 656              		.loc 2 466 0 discriminator 3
 657 002c 3B68     		ldr	r3, [r7]
 658              	.LBE357:
 659              	.LBE356:
 660              		.loc 1 286 0 discriminator 3
 661 002e 002B     		cmp	r3, #0
 662 0030 03D0     		beq	.L60
 663              	.L58:
 287:Firmware/Middlewares/Third_Party/FreeRTOS/Source/CMSIS_RTOS_V2/cmsis_os2.c ****     lock = (int32_t)osErrorISR;
 664              		.loc 1 287 0
 665 0032 6FF00503 		mvn	r3, #5
ARM GAS  /tmp/ccB5BhZs.s 			page 26


 666 0036 FB60     		str	r3, [r7, #12]
 667 0038 1FE0     		b	.L62
 668              	.L60:
 288:Firmware/Middlewares/Third_Party/FreeRTOS/Source/CMSIS_RTOS_V2/cmsis_os2.c ****   }
 289:Firmware/Middlewares/Third_Party/FreeRTOS/Source/CMSIS_RTOS_V2/cmsis_os2.c ****   else {
 290:Firmware/Middlewares/Third_Party/FreeRTOS/Source/CMSIS_RTOS_V2/cmsis_os2.c ****     switch (xTaskGetSchedulerState()) {
 669              		.loc 1 290 0
 670 003a FFF7FEFF 		bl	xTaskGetSchedulerState
 671 003e 0346     		mov	r3, r0
 672 0040 002B     		cmp	r3, #0
 673 0042 02D0     		beq	.L64
 674 0044 022B     		cmp	r3, #2
 675 0046 10D0     		beq	.L65
 676 0048 12E0     		b	.L68
 677              	.L64:
 291:Firmware/Middlewares/Third_Party/FreeRTOS/Source/CMSIS_RTOS_V2/cmsis_os2.c ****       case taskSCHEDULER_SUSPENDED:
 292:Firmware/Middlewares/Third_Party/FreeRTOS/Source/CMSIS_RTOS_V2/cmsis_os2.c ****         lock = 1;
 678              		.loc 1 292 0
 679 004a 0123     		movs	r3, #1
 680 004c FB60     		str	r3, [r7, #12]
 293:Firmware/Middlewares/Third_Party/FreeRTOS/Source/CMSIS_RTOS_V2/cmsis_os2.c **** 
 294:Firmware/Middlewares/Third_Party/FreeRTOS/Source/CMSIS_RTOS_V2/cmsis_os2.c ****         if (xTaskResumeAll() != pdTRUE) {
 681              		.loc 1 294 0
 682 004e FFF7FEFF 		bl	xTaskResumeAll
 683 0052 0346     		mov	r3, r0
 684 0054 012B     		cmp	r3, #1
 685 0056 0FD0     		beq	.L69
 295:Firmware/Middlewares/Third_Party/FreeRTOS/Source/CMSIS_RTOS_V2/cmsis_os2.c ****           if (xTaskGetSchedulerState() == taskSCHEDULER_SUSPENDED) {
 686              		.loc 1 295 0
 687 0058 FFF7FEFF 		bl	xTaskGetSchedulerState
 688 005c 0346     		mov	r3, r0
 689 005e 002B     		cmp	r3, #0
 690 0060 0AD1     		bne	.L69
 296:Firmware/Middlewares/Third_Party/FreeRTOS/Source/CMSIS_RTOS_V2/cmsis_os2.c ****             lock = (int32_t)osError;
 691              		.loc 1 296 0
 692 0062 4FF0FF33 		mov	r3, #-1
 693 0066 FB60     		str	r3, [r7, #12]
 297:Firmware/Middlewares/Third_Party/FreeRTOS/Source/CMSIS_RTOS_V2/cmsis_os2.c ****           }
 298:Firmware/Middlewares/Third_Party/FreeRTOS/Source/CMSIS_RTOS_V2/cmsis_os2.c ****         }
 299:Firmware/Middlewares/Third_Party/FreeRTOS/Source/CMSIS_RTOS_V2/cmsis_os2.c ****         break;
 694              		.loc 1 299 0
 695 0068 06E0     		b	.L69
 696              	.L65:
 300:Firmware/Middlewares/Third_Party/FreeRTOS/Source/CMSIS_RTOS_V2/cmsis_os2.c **** 
 301:Firmware/Middlewares/Third_Party/FreeRTOS/Source/CMSIS_RTOS_V2/cmsis_os2.c ****       case taskSCHEDULER_RUNNING:
 302:Firmware/Middlewares/Third_Party/FreeRTOS/Source/CMSIS_RTOS_V2/cmsis_os2.c ****         lock = 0;
 697              		.loc 1 302 0
 698 006a 0023     		movs	r3, #0
 699 006c FB60     		str	r3, [r7, #12]
 303:Firmware/Middlewares/Third_Party/FreeRTOS/Source/CMSIS_RTOS_V2/cmsis_os2.c ****         break;
 700              		.loc 1 303 0
 701 006e 04E0     		b	.L62
 702              	.L68:
 304:Firmware/Middlewares/Third_Party/FreeRTOS/Source/CMSIS_RTOS_V2/cmsis_os2.c **** 
 305:Firmware/Middlewares/Third_Party/FreeRTOS/Source/CMSIS_RTOS_V2/cmsis_os2.c ****       case taskSCHEDULER_NOT_STARTED:
 306:Firmware/Middlewares/Third_Party/FreeRTOS/Source/CMSIS_RTOS_V2/cmsis_os2.c ****       default:
 307:Firmware/Middlewares/Third_Party/FreeRTOS/Source/CMSIS_RTOS_V2/cmsis_os2.c ****         lock = (int32_t)osError;
ARM GAS  /tmp/ccB5BhZs.s 			page 27


 703              		.loc 1 307 0
 704 0070 4FF0FF33 		mov	r3, #-1
 705 0074 FB60     		str	r3, [r7, #12]
 308:Firmware/Middlewares/Third_Party/FreeRTOS/Source/CMSIS_RTOS_V2/cmsis_os2.c ****         break;
 706              		.loc 1 308 0
 707 0076 00E0     		b	.L62
 708              	.L69:
 299:Firmware/Middlewares/Third_Party/FreeRTOS/Source/CMSIS_RTOS_V2/cmsis_os2.c **** 
 709              		.loc 1 299 0
 710 0078 00BF     		nop
 711              	.L62:
 309:Firmware/Middlewares/Third_Party/FreeRTOS/Source/CMSIS_RTOS_V2/cmsis_os2.c ****     }
 310:Firmware/Middlewares/Third_Party/FreeRTOS/Source/CMSIS_RTOS_V2/cmsis_os2.c ****   }
 311:Firmware/Middlewares/Third_Party/FreeRTOS/Source/CMSIS_RTOS_V2/cmsis_os2.c **** 
 312:Firmware/Middlewares/Third_Party/FreeRTOS/Source/CMSIS_RTOS_V2/cmsis_os2.c ****   return (lock);
 712              		.loc 1 312 0
 713 007a FB68     		ldr	r3, [r7, #12]
 313:Firmware/Middlewares/Third_Party/FreeRTOS/Source/CMSIS_RTOS_V2/cmsis_os2.c **** }
 714              		.loc 1 313 0
 715 007c 1846     		mov	r0, r3
 716 007e 1037     		adds	r7, r7, #16
 717              	.LCFI29:
 718              		.cfi_def_cfa_offset 8
 719 0080 BD46     		mov	sp, r7
 720              	.LCFI30:
 721              		.cfi_def_cfa_register 13
 722              		@ sp needed
 723 0082 80BD     		pop	{r7, pc}
 724              	.L71:
 725              		.align	2
 726              	.L70:
 727 0084 00000000 		.word	KernelState
 728              		.cfi_endproc
 729              	.LFE111:
 731              		.section	.text.osKernelRestoreLock,"ax",%progbits
 732              		.align	1
 733              		.global	osKernelRestoreLock
 734              		.syntax unified
 735              		.thumb
 736              		.thumb_func
 737              		.fpu fpv4-sp-d16
 739              	osKernelRestoreLock:
 740              	.LFB112:
 314:Firmware/Middlewares/Third_Party/FreeRTOS/Source/CMSIS_RTOS_V2/cmsis_os2.c **** 
 315:Firmware/Middlewares/Third_Party/FreeRTOS/Source/CMSIS_RTOS_V2/cmsis_os2.c **** int32_t osKernelRestoreLock (int32_t lock) {
 741              		.loc 1 315 0
 742              		.cfi_startproc
 743              		@ args = 0, pretend = 0, frame = 24
 744              		@ frame_needed = 1, uses_anonymous_args = 0
 745 0000 80B5     		push	{r7, lr}
 746              	.LCFI31:
 747              		.cfi_def_cfa_offset 8
 748              		.cfi_offset 7, -8
 749              		.cfi_offset 14, -4
 750 0002 86B0     		sub	sp, sp, #24
 751              	.LCFI32:
 752              		.cfi_def_cfa_offset 32
ARM GAS  /tmp/ccB5BhZs.s 			page 28


 753 0004 00AF     		add	r7, sp, #0
 754              	.LCFI33:
 755              		.cfi_def_cfa_register 7
 756 0006 7860     		str	r0, [r7, #4]
 757              	.LBB358:
 758              	.LBB359:
 209:Firmware/Drivers/CMSIS/Include/cmsis_gcc.h ****   return(result);
 759              		.loc 2 209 0
 760              		.syntax unified
 761              	@ 209 "Firmware/Drivers/CMSIS/Include/cmsis_gcc.h" 1
 762 0008 EFF30583 		MRS r3, ipsr
 763              	@ 0 "" 2
 764              		.thumb
 765              		.syntax unified
 766 000c 7B61     		str	r3, [r7, #20]
 210:Firmware/Drivers/CMSIS/Include/cmsis_gcc.h **** }
 767              		.loc 2 210 0
 768 000e 7B69     		ldr	r3, [r7, #20]
 769              	.LBE359:
 770              	.LBE358:
 316:Firmware/Middlewares/Third_Party/FreeRTOS/Source/CMSIS_RTOS_V2/cmsis_os2.c **** 
 317:Firmware/Middlewares/Third_Party/FreeRTOS/Source/CMSIS_RTOS_V2/cmsis_os2.c ****   if (IS_IRQ()) {
 771              		.loc 1 317 0
 772 0010 002B     		cmp	r3, #0
 773 0012 0FD1     		bne	.L74
 774              	.LBB360:
 775              	.LBB361:
 386:Firmware/Drivers/CMSIS/Include/cmsis_gcc.h ****   return(result);
 776              		.loc 2 386 0 discriminator 1
 777              		.syntax unified
 778              	@ 386 "Firmware/Drivers/CMSIS/Include/cmsis_gcc.h" 1
 779 0014 EFF31083 		MRS r3, primask
 780              	@ 0 "" 2
 781              		.thumb
 782              		.syntax unified
 783 0018 3B61     		str	r3, [r7, #16]
 387:Firmware/Drivers/CMSIS/Include/cmsis_gcc.h **** }
 784              		.loc 2 387 0 discriminator 1
 785 001a 3B69     		ldr	r3, [r7, #16]
 786              	.LBE361:
 787              	.LBE360:
 788              		.loc 1 317 0 discriminator 1
 789 001c 002B     		cmp	r3, #0
 790 001e 09D1     		bne	.L74
 791              		.loc 1 317 0 is_stmt 0 discriminator 2
 792 0020 1C4B     		ldr	r3, .L87
 793 0022 1B68     		ldr	r3, [r3]
 794 0024 022B     		cmp	r3, #2
 795 0026 09D1     		bne	.L76
 796              	.LBB362:
 797              	.LBB363:
 465:Firmware/Drivers/CMSIS/Include/cmsis_gcc.h ****   return(result);
 798              		.loc 2 465 0 is_stmt 1 discriminator 3
 799              		.syntax unified
 800              	@ 465 "Firmware/Drivers/CMSIS/Include/cmsis_gcc.h" 1
 801 0028 EFF31183 		MRS r3, basepri
 802              	@ 0 "" 2
ARM GAS  /tmp/ccB5BhZs.s 			page 29


 803              		.thumb
 804              		.syntax unified
 805 002c FB60     		str	r3, [r7, #12]
 806              		.loc 2 466 0 discriminator 3
 807 002e FB68     		ldr	r3, [r7, #12]
 808              	.LBE363:
 809              	.LBE362:
 810              		.loc 1 317 0 discriminator 3
 811 0030 002B     		cmp	r3, #0
 812 0032 03D0     		beq	.L76
 813              	.L74:
 318:Firmware/Middlewares/Third_Party/FreeRTOS/Source/CMSIS_RTOS_V2/cmsis_os2.c ****     lock = (int32_t)osErrorISR;
 814              		.loc 1 318 0
 815 0034 6FF00503 		mvn	r3, #5
 816 0038 7B60     		str	r3, [r7, #4]
 817 003a 26E0     		b	.L78
 818              	.L76:
 319:Firmware/Middlewares/Third_Party/FreeRTOS/Source/CMSIS_RTOS_V2/cmsis_os2.c ****   }
 320:Firmware/Middlewares/Third_Party/FreeRTOS/Source/CMSIS_RTOS_V2/cmsis_os2.c ****   else {
 321:Firmware/Middlewares/Third_Party/FreeRTOS/Source/CMSIS_RTOS_V2/cmsis_os2.c ****     switch (xTaskGetSchedulerState()) {
 819              		.loc 1 321 0
 820 003c FFF7FEFF 		bl	xTaskGetSchedulerState
 821 0040 0346     		mov	r3, r0
 822 0042 002B     		cmp	r3, #0
 823 0044 01D0     		beq	.L80
 824 0046 022B     		cmp	r3, #2
 825 0048 1AD1     		bne	.L85
 826              	.L80:
 322:Firmware/Middlewares/Third_Party/FreeRTOS/Source/CMSIS_RTOS_V2/cmsis_os2.c ****       case taskSCHEDULER_SUSPENDED:
 323:Firmware/Middlewares/Third_Party/FreeRTOS/Source/CMSIS_RTOS_V2/cmsis_os2.c ****       case taskSCHEDULER_RUNNING:
 324:Firmware/Middlewares/Third_Party/FreeRTOS/Source/CMSIS_RTOS_V2/cmsis_os2.c ****         if (lock == 1) {
 827              		.loc 1 324 0
 828 004a 7B68     		ldr	r3, [r7, #4]
 829 004c 012B     		cmp	r3, #1
 830 004e 02D1     		bne	.L81
 325:Firmware/Middlewares/Third_Party/FreeRTOS/Source/CMSIS_RTOS_V2/cmsis_os2.c ****           vTaskSuspendAll();
 831              		.loc 1 325 0
 832 0050 FFF7FEFF 		bl	vTaskSuspendAll
 326:Firmware/Middlewares/Third_Party/FreeRTOS/Source/CMSIS_RTOS_V2/cmsis_os2.c ****         }
 327:Firmware/Middlewares/Third_Party/FreeRTOS/Source/CMSIS_RTOS_V2/cmsis_os2.c ****         else {
 328:Firmware/Middlewares/Third_Party/FreeRTOS/Source/CMSIS_RTOS_V2/cmsis_os2.c ****           if (lock != 0) {
 329:Firmware/Middlewares/Third_Party/FreeRTOS/Source/CMSIS_RTOS_V2/cmsis_os2.c ****             lock = (int32_t)osError;
 330:Firmware/Middlewares/Third_Party/FreeRTOS/Source/CMSIS_RTOS_V2/cmsis_os2.c ****           }
 331:Firmware/Middlewares/Third_Party/FreeRTOS/Source/CMSIS_RTOS_V2/cmsis_os2.c ****           else {
 332:Firmware/Middlewares/Third_Party/FreeRTOS/Source/CMSIS_RTOS_V2/cmsis_os2.c ****             if (xTaskResumeAll() != pdTRUE) {
 333:Firmware/Middlewares/Third_Party/FreeRTOS/Source/CMSIS_RTOS_V2/cmsis_os2.c ****               if (xTaskGetSchedulerState() != taskSCHEDULER_RUNNING) {
 334:Firmware/Middlewares/Third_Party/FreeRTOS/Source/CMSIS_RTOS_V2/cmsis_os2.c ****                 lock = (int32_t)osError;
 335:Firmware/Middlewares/Third_Party/FreeRTOS/Source/CMSIS_RTOS_V2/cmsis_os2.c ****               }
 336:Firmware/Middlewares/Third_Party/FreeRTOS/Source/CMSIS_RTOS_V2/cmsis_os2.c ****             }
 337:Firmware/Middlewares/Third_Party/FreeRTOS/Source/CMSIS_RTOS_V2/cmsis_os2.c ****           }
 338:Firmware/Middlewares/Third_Party/FreeRTOS/Source/CMSIS_RTOS_V2/cmsis_os2.c ****         }
 339:Firmware/Middlewares/Third_Party/FreeRTOS/Source/CMSIS_RTOS_V2/cmsis_os2.c ****         break;
 833              		.loc 1 339 0
 834 0054 18E0     		b	.L86
 835              	.L81:
 328:Firmware/Middlewares/Third_Party/FreeRTOS/Source/CMSIS_RTOS_V2/cmsis_os2.c ****             lock = (int32_t)osError;
 836              		.loc 1 328 0
ARM GAS  /tmp/ccB5BhZs.s 			page 30


 837 0056 7B68     		ldr	r3, [r7, #4]
 838 0058 002B     		cmp	r3, #0
 839 005a 03D0     		beq	.L83
 329:Firmware/Middlewares/Third_Party/FreeRTOS/Source/CMSIS_RTOS_V2/cmsis_os2.c ****           }
 840              		.loc 1 329 0
 841 005c 4FF0FF33 		mov	r3, #-1
 842 0060 7B60     		str	r3, [r7, #4]
 843              		.loc 1 339 0
 844 0062 11E0     		b	.L86
 845              	.L83:
 332:Firmware/Middlewares/Third_Party/FreeRTOS/Source/CMSIS_RTOS_V2/cmsis_os2.c ****               if (xTaskGetSchedulerState() != taskSCHEDULER_RUNNING) {
 846              		.loc 1 332 0
 847 0064 FFF7FEFF 		bl	xTaskResumeAll
 848 0068 0346     		mov	r3, r0
 849 006a 012B     		cmp	r3, #1
 850 006c 0CD0     		beq	.L86
 333:Firmware/Middlewares/Third_Party/FreeRTOS/Source/CMSIS_RTOS_V2/cmsis_os2.c ****                 lock = (int32_t)osError;
 851              		.loc 1 333 0
 852 006e FFF7FEFF 		bl	xTaskGetSchedulerState
 853 0072 0346     		mov	r3, r0
 854 0074 022B     		cmp	r3, #2
 855 0076 07D0     		beq	.L86
 334:Firmware/Middlewares/Third_Party/FreeRTOS/Source/CMSIS_RTOS_V2/cmsis_os2.c ****               }
 856              		.loc 1 334 0
 857 0078 4FF0FF33 		mov	r3, #-1
 858 007c 7B60     		str	r3, [r7, #4]
 859              		.loc 1 339 0
 860 007e 03E0     		b	.L86
 861              	.L85:
 340:Firmware/Middlewares/Third_Party/FreeRTOS/Source/CMSIS_RTOS_V2/cmsis_os2.c **** 
 341:Firmware/Middlewares/Third_Party/FreeRTOS/Source/CMSIS_RTOS_V2/cmsis_os2.c ****       case taskSCHEDULER_NOT_STARTED:
 342:Firmware/Middlewares/Third_Party/FreeRTOS/Source/CMSIS_RTOS_V2/cmsis_os2.c ****       default:
 343:Firmware/Middlewares/Third_Party/FreeRTOS/Source/CMSIS_RTOS_V2/cmsis_os2.c ****         lock = (int32_t)osError;
 862              		.loc 1 343 0
 863 0080 4FF0FF33 		mov	r3, #-1
 864 0084 7B60     		str	r3, [r7, #4]
 344:Firmware/Middlewares/Third_Party/FreeRTOS/Source/CMSIS_RTOS_V2/cmsis_os2.c ****         break;
 865              		.loc 1 344 0
 866 0086 00E0     		b	.L78
 867              	.L86:
 339:Firmware/Middlewares/Third_Party/FreeRTOS/Source/CMSIS_RTOS_V2/cmsis_os2.c **** 
 868              		.loc 1 339 0
 869 0088 00BF     		nop
 870              	.L78:
 345:Firmware/Middlewares/Third_Party/FreeRTOS/Source/CMSIS_RTOS_V2/cmsis_os2.c ****     }
 346:Firmware/Middlewares/Third_Party/FreeRTOS/Source/CMSIS_RTOS_V2/cmsis_os2.c ****   }
 347:Firmware/Middlewares/Third_Party/FreeRTOS/Source/CMSIS_RTOS_V2/cmsis_os2.c **** 
 348:Firmware/Middlewares/Third_Party/FreeRTOS/Source/CMSIS_RTOS_V2/cmsis_os2.c ****   return (lock);
 871              		.loc 1 348 0
 872 008a 7B68     		ldr	r3, [r7, #4]
 349:Firmware/Middlewares/Third_Party/FreeRTOS/Source/CMSIS_RTOS_V2/cmsis_os2.c **** }
 873              		.loc 1 349 0
 874 008c 1846     		mov	r0, r3
 875 008e 1837     		adds	r7, r7, #24
 876              	.LCFI34:
 877              		.cfi_def_cfa_offset 8
 878 0090 BD46     		mov	sp, r7
ARM GAS  /tmp/ccB5BhZs.s 			page 31


 879              	.LCFI35:
 880              		.cfi_def_cfa_register 13
 881              		@ sp needed
 882 0092 80BD     		pop	{r7, pc}
 883              	.L88:
 884              		.align	2
 885              	.L87:
 886 0094 00000000 		.word	KernelState
 887              		.cfi_endproc
 888              	.LFE112:
 890              		.section	.text.osKernelGetTickCount,"ax",%progbits
 891              		.align	1
 892              		.global	osKernelGetTickCount
 893              		.syntax unified
 894              		.thumb
 895              		.thumb_func
 896              		.fpu fpv4-sp-d16
 898              	osKernelGetTickCount:
 899              	.LFB113:
 350:Firmware/Middlewares/Third_Party/FreeRTOS/Source/CMSIS_RTOS_V2/cmsis_os2.c **** 
 351:Firmware/Middlewares/Third_Party/FreeRTOS/Source/CMSIS_RTOS_V2/cmsis_os2.c **** uint32_t osKernelGetTickCount (void) {
 900              		.loc 1 351 0
 901              		.cfi_startproc
 902              		@ args = 0, pretend = 0, frame = 16
 903              		@ frame_needed = 1, uses_anonymous_args = 0
 904 0000 80B5     		push	{r7, lr}
 905              	.LCFI36:
 906              		.cfi_def_cfa_offset 8
 907              		.cfi_offset 7, -8
 908              		.cfi_offset 14, -4
 909 0002 84B0     		sub	sp, sp, #16
 910              	.LCFI37:
 911              		.cfi_def_cfa_offset 24
 912 0004 00AF     		add	r7, sp, #0
 913              	.LCFI38:
 914              		.cfi_def_cfa_register 7
 915              	.LBB364:
 916              	.LBB365:
 209:Firmware/Drivers/CMSIS/Include/cmsis_gcc.h ****   return(result);
 917              		.loc 2 209 0
 918              		.syntax unified
 919              	@ 209 "Firmware/Drivers/CMSIS/Include/cmsis_gcc.h" 1
 920 0006 EFF30583 		MRS r3, ipsr
 921              	@ 0 "" 2
 922              		.thumb
 923              		.syntax unified
 924 000a BB60     		str	r3, [r7, #8]
 210:Firmware/Drivers/CMSIS/Include/cmsis_gcc.h **** }
 925              		.loc 2 210 0
 926 000c BB68     		ldr	r3, [r7, #8]
 927              	.LBE365:
 928              	.LBE364:
 352:Firmware/Middlewares/Third_Party/FreeRTOS/Source/CMSIS_RTOS_V2/cmsis_os2.c ****   TickType_t ticks;
 353:Firmware/Middlewares/Third_Party/FreeRTOS/Source/CMSIS_RTOS_V2/cmsis_os2.c **** 
 354:Firmware/Middlewares/Third_Party/FreeRTOS/Source/CMSIS_RTOS_V2/cmsis_os2.c ****   if (IS_IRQ()) {
 929              		.loc 1 354 0
 930 000e 002B     		cmp	r3, #0
ARM GAS  /tmp/ccB5BhZs.s 			page 32


 931 0010 0FD1     		bne	.L91
 932              	.LBB366:
 933              	.LBB367:
 386:Firmware/Drivers/CMSIS/Include/cmsis_gcc.h ****   return(result);
 934              		.loc 2 386 0 discriminator 1
 935              		.syntax unified
 936              	@ 386 "Firmware/Drivers/CMSIS/Include/cmsis_gcc.h" 1
 937 0012 EFF31083 		MRS r3, primask
 938              	@ 0 "" 2
 939              		.thumb
 940              		.syntax unified
 941 0016 7B60     		str	r3, [r7, #4]
 387:Firmware/Drivers/CMSIS/Include/cmsis_gcc.h **** }
 942              		.loc 2 387 0 discriminator 1
 943 0018 7B68     		ldr	r3, [r7, #4]
 944              	.LBE367:
 945              	.LBE366:
 946              		.loc 1 354 0 discriminator 1
 947 001a 002B     		cmp	r3, #0
 948 001c 09D1     		bne	.L91
 949              		.loc 1 354 0 is_stmt 0 discriminator 2
 950 001e 0B4B     		ldr	r3, .L97
 951 0020 1B68     		ldr	r3, [r3]
 952 0022 022B     		cmp	r3, #2
 953 0024 09D1     		bne	.L93
 954              	.LBB368:
 955              	.LBB369:
 465:Firmware/Drivers/CMSIS/Include/cmsis_gcc.h ****   return(result);
 956              		.loc 2 465 0 is_stmt 1 discriminator 3
 957              		.syntax unified
 958              	@ 465 "Firmware/Drivers/CMSIS/Include/cmsis_gcc.h" 1
 959 0026 EFF31183 		MRS r3, basepri
 960              	@ 0 "" 2
 961              		.thumb
 962              		.syntax unified
 963 002a 3B60     		str	r3, [r7]
 964              		.loc 2 466 0 discriminator 3
 965 002c 3B68     		ldr	r3, [r7]
 966              	.LBE369:
 967              	.LBE368:
 968              		.loc 1 354 0 discriminator 3
 969 002e 002B     		cmp	r3, #0
 970 0030 03D0     		beq	.L93
 971              	.L91:
 355:Firmware/Middlewares/Third_Party/FreeRTOS/Source/CMSIS_RTOS_V2/cmsis_os2.c ****     ticks = xTaskGetTickCountFromISR();
 972              		.loc 1 355 0
 973 0032 FFF7FEFF 		bl	xTaskGetTickCountFromISR
 974 0036 F860     		str	r0, [r7, #12]
 975 0038 02E0     		b	.L95
 976              	.L93:
 356:Firmware/Middlewares/Third_Party/FreeRTOS/Source/CMSIS_RTOS_V2/cmsis_os2.c ****   } else {
 357:Firmware/Middlewares/Third_Party/FreeRTOS/Source/CMSIS_RTOS_V2/cmsis_os2.c ****     ticks = xTaskGetTickCount();
 977              		.loc 1 357 0
 978 003a FFF7FEFF 		bl	xTaskGetTickCount
 979 003e F860     		str	r0, [r7, #12]
 980              	.L95:
 358:Firmware/Middlewares/Third_Party/FreeRTOS/Source/CMSIS_RTOS_V2/cmsis_os2.c ****   }
ARM GAS  /tmp/ccB5BhZs.s 			page 33


 359:Firmware/Middlewares/Third_Party/FreeRTOS/Source/CMSIS_RTOS_V2/cmsis_os2.c **** 
 360:Firmware/Middlewares/Third_Party/FreeRTOS/Source/CMSIS_RTOS_V2/cmsis_os2.c ****   return (ticks);
 981              		.loc 1 360 0
 982 0040 FB68     		ldr	r3, [r7, #12]
 361:Firmware/Middlewares/Third_Party/FreeRTOS/Source/CMSIS_RTOS_V2/cmsis_os2.c **** }
 983              		.loc 1 361 0
 984 0042 1846     		mov	r0, r3
 985 0044 1037     		adds	r7, r7, #16
 986              	.LCFI39:
 987              		.cfi_def_cfa_offset 8
 988 0046 BD46     		mov	sp, r7
 989              	.LCFI40:
 990              		.cfi_def_cfa_register 13
 991              		@ sp needed
 992 0048 80BD     		pop	{r7, pc}
 993              	.L98:
 994 004a 00BF     		.align	2
 995              	.L97:
 996 004c 00000000 		.word	KernelState
 997              		.cfi_endproc
 998              	.LFE113:
 1000              		.section	.text.osKernelGetTickFreq,"ax",%progbits
 1001              		.align	1
 1002              		.global	osKernelGetTickFreq
 1003              		.syntax unified
 1004              		.thumb
 1005              		.thumb_func
 1006              		.fpu fpv4-sp-d16
 1008              	osKernelGetTickFreq:
 1009              	.LFB114:
 362:Firmware/Middlewares/Third_Party/FreeRTOS/Source/CMSIS_RTOS_V2/cmsis_os2.c **** 
 363:Firmware/Middlewares/Third_Party/FreeRTOS/Source/CMSIS_RTOS_V2/cmsis_os2.c **** uint32_t osKernelGetTickFreq (void) {
 1010              		.loc 1 363 0
 1011              		.cfi_startproc
 1012              		@ args = 0, pretend = 0, frame = 0
 1013              		@ frame_needed = 1, uses_anonymous_args = 0
 1014              		@ link register save eliminated.
 1015 0000 80B4     		push	{r7}
 1016              	.LCFI41:
 1017              		.cfi_def_cfa_offset 4
 1018              		.cfi_offset 7, -4
 1019 0002 00AF     		add	r7, sp, #0
 1020              	.LCFI42:
 1021              		.cfi_def_cfa_register 7
 364:Firmware/Middlewares/Third_Party/FreeRTOS/Source/CMSIS_RTOS_V2/cmsis_os2.c ****   return (configTICK_RATE_HZ);
 1022              		.loc 1 364 0
 1023 0004 4FF47A73 		mov	r3, #1000
 365:Firmware/Middlewares/Third_Party/FreeRTOS/Source/CMSIS_RTOS_V2/cmsis_os2.c **** }
 1024              		.loc 1 365 0
 1025 0008 1846     		mov	r0, r3
 1026 000a BD46     		mov	sp, r7
 1027              	.LCFI43:
 1028              		.cfi_def_cfa_register 13
 1029              		@ sp needed
 1030 000c 5DF8047B 		ldr	r7, [sp], #4
 1031              	.LCFI44:
 1032              		.cfi_restore 7
ARM GAS  /tmp/ccB5BhZs.s 			page 34


 1033              		.cfi_def_cfa_offset 0
 1034 0010 7047     		bx	lr
 1035              		.cfi_endproc
 1036              	.LFE114:
 1038              		.section	.text.osKernelGetSysTimerCount,"ax",%progbits
 1039              		.align	1
 1040              		.global	osKernelGetSysTimerCount
 1041              		.syntax unified
 1042              		.thumb
 1043              		.thumb_func
 1044              		.fpu fpv4-sp-d16
 1046              	osKernelGetSysTimerCount:
 1047              	.LFB115:
 366:Firmware/Middlewares/Third_Party/FreeRTOS/Source/CMSIS_RTOS_V2/cmsis_os2.c **** 
 367:Firmware/Middlewares/Third_Party/FreeRTOS/Source/CMSIS_RTOS_V2/cmsis_os2.c **** uint32_t osKernelGetSysTimerCount (void) {
 1048              		.loc 1 367 0
 1049              		.cfi_startproc
 1050              		@ args = 0, pretend = 0, frame = 16
 1051              		@ frame_needed = 1, uses_anonymous_args = 0
 1052 0000 80B5     		push	{r7, lr}
 1053              	.LCFI45:
 1054              		.cfi_def_cfa_offset 8
 1055              		.cfi_offset 7, -8
 1056              		.cfi_offset 14, -4
 1057 0002 84B0     		sub	sp, sp, #16
 1058              	.LCFI46:
 1059              		.cfi_def_cfa_offset 24
 1060 0004 00AF     		add	r7, sp, #0
 1061              	.LCFI47:
 1062              		.cfi_def_cfa_register 7
 1063              	.LBB370:
 1064              	.LBB371:
 1065              		.file 3 "Firmware/Middlewares/Third_Party/FreeRTOS/Source/portable/GCC/ARM_CM4F/portmacro.h"
   1:Firmware/Middlewares/Third_Party/FreeRTOS/Source/portable/GCC/ARM_CM4F/portmacro.h **** /*
   2:Firmware/Middlewares/Third_Party/FreeRTOS/Source/portable/GCC/ARM_CM4F/portmacro.h ****  * FreeRTOS Kernel V10.0.1
   3:Firmware/Middlewares/Third_Party/FreeRTOS/Source/portable/GCC/ARM_CM4F/portmacro.h ****  * Copyright (C) 2017 Amazon.com, Inc. or its affiliates.  All Rights Reserved.
   4:Firmware/Middlewares/Third_Party/FreeRTOS/Source/portable/GCC/ARM_CM4F/portmacro.h ****  *
   5:Firmware/Middlewares/Third_Party/FreeRTOS/Source/portable/GCC/ARM_CM4F/portmacro.h ****  * Permission is hereby granted, free of charge, to any person obtaining a copy of
   6:Firmware/Middlewares/Third_Party/FreeRTOS/Source/portable/GCC/ARM_CM4F/portmacro.h ****  * this software and associated documentation files (the "Software"), to deal in
   7:Firmware/Middlewares/Third_Party/FreeRTOS/Source/portable/GCC/ARM_CM4F/portmacro.h ****  * the Software without restriction, including without limitation the rights to
   8:Firmware/Middlewares/Third_Party/FreeRTOS/Source/portable/GCC/ARM_CM4F/portmacro.h ****  * use, copy, modify, merge, publish, distribute, sublicense, and/or sell copies of
   9:Firmware/Middlewares/Third_Party/FreeRTOS/Source/portable/GCC/ARM_CM4F/portmacro.h ****  * the Software, and to permit persons to whom the Software is furnished to do so,
  10:Firmware/Middlewares/Third_Party/FreeRTOS/Source/portable/GCC/ARM_CM4F/portmacro.h ****  * subject to the following conditions:
  11:Firmware/Middlewares/Third_Party/FreeRTOS/Source/portable/GCC/ARM_CM4F/portmacro.h ****  *
  12:Firmware/Middlewares/Third_Party/FreeRTOS/Source/portable/GCC/ARM_CM4F/portmacro.h ****  * The above copyright notice and this permission notice shall be included in all
  13:Firmware/Middlewares/Third_Party/FreeRTOS/Source/portable/GCC/ARM_CM4F/portmacro.h ****  * copies or substantial portions of the Software.
  14:Firmware/Middlewares/Third_Party/FreeRTOS/Source/portable/GCC/ARM_CM4F/portmacro.h ****  *
  15:Firmware/Middlewares/Third_Party/FreeRTOS/Source/portable/GCC/ARM_CM4F/portmacro.h ****  * THE SOFTWARE IS PROVIDED "AS IS", WITHOUT WARRANTY OF ANY KIND, EXPRESS OR
  16:Firmware/Middlewares/Third_Party/FreeRTOS/Source/portable/GCC/ARM_CM4F/portmacro.h ****  * IMPLIED, INCLUDING BUT NOT LIMITED TO THE WARRANTIES OF MERCHANTABILITY, FITNESS
  17:Firmware/Middlewares/Third_Party/FreeRTOS/Source/portable/GCC/ARM_CM4F/portmacro.h ****  * FOR A PARTICULAR PURPOSE AND NONINFRINGEMENT. IN NO EVENT SHALL THE AUTHORS OR
  18:Firmware/Middlewares/Third_Party/FreeRTOS/Source/portable/GCC/ARM_CM4F/portmacro.h ****  * COPYRIGHT HOLDERS BE LIABLE FOR ANY CLAIM, DAMAGES OR OTHER LIABILITY, WHETHER
  19:Firmware/Middlewares/Third_Party/FreeRTOS/Source/portable/GCC/ARM_CM4F/portmacro.h ****  * IN AN ACTION OF CONTRACT, TORT OR OTHERWISE, ARISING FROM, OUT OF OR IN
  20:Firmware/Middlewares/Third_Party/FreeRTOS/Source/portable/GCC/ARM_CM4F/portmacro.h ****  * CONNECTION WITH THE SOFTWARE OR THE USE OR OTHER DEALINGS IN THE SOFTWARE.
  21:Firmware/Middlewares/Third_Party/FreeRTOS/Source/portable/GCC/ARM_CM4F/portmacro.h ****  *
  22:Firmware/Middlewares/Third_Party/FreeRTOS/Source/portable/GCC/ARM_CM4F/portmacro.h ****  * http://www.FreeRTOS.org
  23:Firmware/Middlewares/Third_Party/FreeRTOS/Source/portable/GCC/ARM_CM4F/portmacro.h ****  * http://aws.amazon.com/freertos
  24:Firmware/Middlewares/Third_Party/FreeRTOS/Source/portable/GCC/ARM_CM4F/portmacro.h ****  *
ARM GAS  /tmp/ccB5BhZs.s 			page 35


  25:Firmware/Middlewares/Third_Party/FreeRTOS/Source/portable/GCC/ARM_CM4F/portmacro.h ****  * 1 tab == 4 spaces!
  26:Firmware/Middlewares/Third_Party/FreeRTOS/Source/portable/GCC/ARM_CM4F/portmacro.h ****  */
  27:Firmware/Middlewares/Third_Party/FreeRTOS/Source/portable/GCC/ARM_CM4F/portmacro.h **** 
  28:Firmware/Middlewares/Third_Party/FreeRTOS/Source/portable/GCC/ARM_CM4F/portmacro.h **** 
  29:Firmware/Middlewares/Third_Party/FreeRTOS/Source/portable/GCC/ARM_CM4F/portmacro.h **** #ifndef PORTMACRO_H
  30:Firmware/Middlewares/Third_Party/FreeRTOS/Source/portable/GCC/ARM_CM4F/portmacro.h **** #define PORTMACRO_H
  31:Firmware/Middlewares/Third_Party/FreeRTOS/Source/portable/GCC/ARM_CM4F/portmacro.h **** 
  32:Firmware/Middlewares/Third_Party/FreeRTOS/Source/portable/GCC/ARM_CM4F/portmacro.h **** #ifdef __cplusplus
  33:Firmware/Middlewares/Third_Party/FreeRTOS/Source/portable/GCC/ARM_CM4F/portmacro.h **** extern "C" {
  34:Firmware/Middlewares/Third_Party/FreeRTOS/Source/portable/GCC/ARM_CM4F/portmacro.h **** #endif
  35:Firmware/Middlewares/Third_Party/FreeRTOS/Source/portable/GCC/ARM_CM4F/portmacro.h **** 
  36:Firmware/Middlewares/Third_Party/FreeRTOS/Source/portable/GCC/ARM_CM4F/portmacro.h **** /*-----------------------------------------------------------
  37:Firmware/Middlewares/Third_Party/FreeRTOS/Source/portable/GCC/ARM_CM4F/portmacro.h ****  * Port specific definitions.
  38:Firmware/Middlewares/Third_Party/FreeRTOS/Source/portable/GCC/ARM_CM4F/portmacro.h ****  *
  39:Firmware/Middlewares/Third_Party/FreeRTOS/Source/portable/GCC/ARM_CM4F/portmacro.h ****  * The settings in this file configure FreeRTOS correctly for the
  40:Firmware/Middlewares/Third_Party/FreeRTOS/Source/portable/GCC/ARM_CM4F/portmacro.h ****  * given hardware and compiler.
  41:Firmware/Middlewares/Third_Party/FreeRTOS/Source/portable/GCC/ARM_CM4F/portmacro.h ****  *
  42:Firmware/Middlewares/Third_Party/FreeRTOS/Source/portable/GCC/ARM_CM4F/portmacro.h ****  * These settings should not be altered.
  43:Firmware/Middlewares/Third_Party/FreeRTOS/Source/portable/GCC/ARM_CM4F/portmacro.h ****  *-----------------------------------------------------------
  44:Firmware/Middlewares/Third_Party/FreeRTOS/Source/portable/GCC/ARM_CM4F/portmacro.h ****  */
  45:Firmware/Middlewares/Third_Party/FreeRTOS/Source/portable/GCC/ARM_CM4F/portmacro.h **** 
  46:Firmware/Middlewares/Third_Party/FreeRTOS/Source/portable/GCC/ARM_CM4F/portmacro.h **** /* Type definitions. */
  47:Firmware/Middlewares/Third_Party/FreeRTOS/Source/portable/GCC/ARM_CM4F/portmacro.h **** #define portCHAR		char
  48:Firmware/Middlewares/Third_Party/FreeRTOS/Source/portable/GCC/ARM_CM4F/portmacro.h **** #define portFLOAT		float
  49:Firmware/Middlewares/Third_Party/FreeRTOS/Source/portable/GCC/ARM_CM4F/portmacro.h **** #define portDOUBLE		double
  50:Firmware/Middlewares/Third_Party/FreeRTOS/Source/portable/GCC/ARM_CM4F/portmacro.h **** #define portLONG		long
  51:Firmware/Middlewares/Third_Party/FreeRTOS/Source/portable/GCC/ARM_CM4F/portmacro.h **** #define portSHORT		short
  52:Firmware/Middlewares/Third_Party/FreeRTOS/Source/portable/GCC/ARM_CM4F/portmacro.h **** #define portSTACK_TYPE	uint32_t
  53:Firmware/Middlewares/Third_Party/FreeRTOS/Source/portable/GCC/ARM_CM4F/portmacro.h **** #define portBASE_TYPE	long
  54:Firmware/Middlewares/Third_Party/FreeRTOS/Source/portable/GCC/ARM_CM4F/portmacro.h **** 
  55:Firmware/Middlewares/Third_Party/FreeRTOS/Source/portable/GCC/ARM_CM4F/portmacro.h **** typedef portSTACK_TYPE StackType_t;
  56:Firmware/Middlewares/Third_Party/FreeRTOS/Source/portable/GCC/ARM_CM4F/portmacro.h **** typedef long BaseType_t;
  57:Firmware/Middlewares/Third_Party/FreeRTOS/Source/portable/GCC/ARM_CM4F/portmacro.h **** typedef unsigned long UBaseType_t;
  58:Firmware/Middlewares/Third_Party/FreeRTOS/Source/portable/GCC/ARM_CM4F/portmacro.h **** 
  59:Firmware/Middlewares/Third_Party/FreeRTOS/Source/portable/GCC/ARM_CM4F/portmacro.h **** #if( configUSE_16_BIT_TICKS == 1 )
  60:Firmware/Middlewares/Third_Party/FreeRTOS/Source/portable/GCC/ARM_CM4F/portmacro.h **** 	typedef uint16_t TickType_t;
  61:Firmware/Middlewares/Third_Party/FreeRTOS/Source/portable/GCC/ARM_CM4F/portmacro.h **** 	#define portMAX_DELAY ( TickType_t ) 0xffff
  62:Firmware/Middlewares/Third_Party/FreeRTOS/Source/portable/GCC/ARM_CM4F/portmacro.h **** #else
  63:Firmware/Middlewares/Third_Party/FreeRTOS/Source/portable/GCC/ARM_CM4F/portmacro.h **** 	typedef uint32_t TickType_t;
  64:Firmware/Middlewares/Third_Party/FreeRTOS/Source/portable/GCC/ARM_CM4F/portmacro.h **** 	#define portMAX_DELAY ( TickType_t ) 0xffffffffUL
  65:Firmware/Middlewares/Third_Party/FreeRTOS/Source/portable/GCC/ARM_CM4F/portmacro.h **** 
  66:Firmware/Middlewares/Third_Party/FreeRTOS/Source/portable/GCC/ARM_CM4F/portmacro.h **** 	/* 32-bit tick type on a 32-bit architecture, so reads of the tick count do
  67:Firmware/Middlewares/Third_Party/FreeRTOS/Source/portable/GCC/ARM_CM4F/portmacro.h **** 	not need to be guarded with a critical section. */
  68:Firmware/Middlewares/Third_Party/FreeRTOS/Source/portable/GCC/ARM_CM4F/portmacro.h **** 	#define portTICK_TYPE_IS_ATOMIC 1
  69:Firmware/Middlewares/Third_Party/FreeRTOS/Source/portable/GCC/ARM_CM4F/portmacro.h **** #endif
  70:Firmware/Middlewares/Third_Party/FreeRTOS/Source/portable/GCC/ARM_CM4F/portmacro.h **** /*-----------------------------------------------------------*/
  71:Firmware/Middlewares/Third_Party/FreeRTOS/Source/portable/GCC/ARM_CM4F/portmacro.h **** 
  72:Firmware/Middlewares/Third_Party/FreeRTOS/Source/portable/GCC/ARM_CM4F/portmacro.h **** /* Architecture specifics. */
  73:Firmware/Middlewares/Third_Party/FreeRTOS/Source/portable/GCC/ARM_CM4F/portmacro.h **** #define portSTACK_GROWTH			( -1 )
  74:Firmware/Middlewares/Third_Party/FreeRTOS/Source/portable/GCC/ARM_CM4F/portmacro.h **** #define portTICK_PERIOD_MS			( ( TickType_t ) 1000 / configTICK_RATE_HZ )
  75:Firmware/Middlewares/Third_Party/FreeRTOS/Source/portable/GCC/ARM_CM4F/portmacro.h **** #define portBYTE_ALIGNMENT			8
  76:Firmware/Middlewares/Third_Party/FreeRTOS/Source/portable/GCC/ARM_CM4F/portmacro.h **** /*-----------------------------------------------------------*/
  77:Firmware/Middlewares/Third_Party/FreeRTOS/Source/portable/GCC/ARM_CM4F/portmacro.h **** 
  78:Firmware/Middlewares/Third_Party/FreeRTOS/Source/portable/GCC/ARM_CM4F/portmacro.h **** /* Scheduler utilities. */
  79:Firmware/Middlewares/Third_Party/FreeRTOS/Source/portable/GCC/ARM_CM4F/portmacro.h **** #define portYIELD() 															\
  80:Firmware/Middlewares/Third_Party/FreeRTOS/Source/portable/GCC/ARM_CM4F/portmacro.h **** {																				\
  81:Firmware/Middlewares/Third_Party/FreeRTOS/Source/portable/GCC/ARM_CM4F/portmacro.h **** 	/* Set a PendSV to request a context switch. */								\
ARM GAS  /tmp/ccB5BhZs.s 			page 36


  82:Firmware/Middlewares/Third_Party/FreeRTOS/Source/portable/GCC/ARM_CM4F/portmacro.h **** 	portNVIC_INT_CTRL_REG = portNVIC_PENDSVSET_BIT;								\
  83:Firmware/Middlewares/Third_Party/FreeRTOS/Source/portable/GCC/ARM_CM4F/portmacro.h **** 																				\
  84:Firmware/Middlewares/Third_Party/FreeRTOS/Source/portable/GCC/ARM_CM4F/portmacro.h **** 	/* Barriers are normally not required but do ensure the code is completely	\
  85:Firmware/Middlewares/Third_Party/FreeRTOS/Source/portable/GCC/ARM_CM4F/portmacro.h **** 	within the specified behaviour for the architecture. */						\
  86:Firmware/Middlewares/Third_Party/FreeRTOS/Source/portable/GCC/ARM_CM4F/portmacro.h **** 	__asm volatile( "dsb" ::: "memory" );										\
  87:Firmware/Middlewares/Third_Party/FreeRTOS/Source/portable/GCC/ARM_CM4F/portmacro.h **** 	__asm volatile( "isb" );													\
  88:Firmware/Middlewares/Third_Party/FreeRTOS/Source/portable/GCC/ARM_CM4F/portmacro.h **** }
  89:Firmware/Middlewares/Third_Party/FreeRTOS/Source/portable/GCC/ARM_CM4F/portmacro.h **** 
  90:Firmware/Middlewares/Third_Party/FreeRTOS/Source/portable/GCC/ARM_CM4F/portmacro.h **** #define portNVIC_INT_CTRL_REG		( * ( ( volatile uint32_t * ) 0xe000ed04 ) )
  91:Firmware/Middlewares/Third_Party/FreeRTOS/Source/portable/GCC/ARM_CM4F/portmacro.h **** #define portNVIC_PENDSVSET_BIT		( 1UL << 28UL )
  92:Firmware/Middlewares/Third_Party/FreeRTOS/Source/portable/GCC/ARM_CM4F/portmacro.h **** #define portEND_SWITCHING_ISR( xSwitchRequired ) if( xSwitchRequired != pdFALSE ) portYIELD()
  93:Firmware/Middlewares/Third_Party/FreeRTOS/Source/portable/GCC/ARM_CM4F/portmacro.h **** #define portYIELD_FROM_ISR( x ) portEND_SWITCHING_ISR( x )
  94:Firmware/Middlewares/Third_Party/FreeRTOS/Source/portable/GCC/ARM_CM4F/portmacro.h **** /*-----------------------------------------------------------*/
  95:Firmware/Middlewares/Third_Party/FreeRTOS/Source/portable/GCC/ARM_CM4F/portmacro.h **** 
  96:Firmware/Middlewares/Third_Party/FreeRTOS/Source/portable/GCC/ARM_CM4F/portmacro.h **** /* Critical section management. */
  97:Firmware/Middlewares/Third_Party/FreeRTOS/Source/portable/GCC/ARM_CM4F/portmacro.h **** extern void vPortEnterCritical( void );
  98:Firmware/Middlewares/Third_Party/FreeRTOS/Source/portable/GCC/ARM_CM4F/portmacro.h **** extern void vPortExitCritical( void );
  99:Firmware/Middlewares/Third_Party/FreeRTOS/Source/portable/GCC/ARM_CM4F/portmacro.h **** #define portSET_INTERRUPT_MASK_FROM_ISR()		ulPortRaiseBASEPRI()
 100:Firmware/Middlewares/Third_Party/FreeRTOS/Source/portable/GCC/ARM_CM4F/portmacro.h **** #define portCLEAR_INTERRUPT_MASK_FROM_ISR(x)	vPortSetBASEPRI(x)
 101:Firmware/Middlewares/Third_Party/FreeRTOS/Source/portable/GCC/ARM_CM4F/portmacro.h **** #define portDISABLE_INTERRUPTS()				vPortRaiseBASEPRI()
 102:Firmware/Middlewares/Third_Party/FreeRTOS/Source/portable/GCC/ARM_CM4F/portmacro.h **** #define portENABLE_INTERRUPTS()					vPortSetBASEPRI(0)
 103:Firmware/Middlewares/Third_Party/FreeRTOS/Source/portable/GCC/ARM_CM4F/portmacro.h **** #define portENTER_CRITICAL()					vPortEnterCritical()
 104:Firmware/Middlewares/Third_Party/FreeRTOS/Source/portable/GCC/ARM_CM4F/portmacro.h **** #define portEXIT_CRITICAL()						vPortExitCritical()
 105:Firmware/Middlewares/Third_Party/FreeRTOS/Source/portable/GCC/ARM_CM4F/portmacro.h **** 
 106:Firmware/Middlewares/Third_Party/FreeRTOS/Source/portable/GCC/ARM_CM4F/portmacro.h **** /*-----------------------------------------------------------*/
 107:Firmware/Middlewares/Third_Party/FreeRTOS/Source/portable/GCC/ARM_CM4F/portmacro.h **** 
 108:Firmware/Middlewares/Third_Party/FreeRTOS/Source/portable/GCC/ARM_CM4F/portmacro.h **** /* Task function macros as described on the FreeRTOS.org WEB site.  These are
 109:Firmware/Middlewares/Third_Party/FreeRTOS/Source/portable/GCC/ARM_CM4F/portmacro.h **** not necessary for to use this port.  They are defined so the common demo files
 110:Firmware/Middlewares/Third_Party/FreeRTOS/Source/portable/GCC/ARM_CM4F/portmacro.h **** (which build with all the ports) will build. */
 111:Firmware/Middlewares/Third_Party/FreeRTOS/Source/portable/GCC/ARM_CM4F/portmacro.h **** #define portTASK_FUNCTION_PROTO( vFunction, pvParameters ) void vFunction( void *pvParameters )
 112:Firmware/Middlewares/Third_Party/FreeRTOS/Source/portable/GCC/ARM_CM4F/portmacro.h **** #define portTASK_FUNCTION( vFunction, pvParameters ) void vFunction( void *pvParameters )
 113:Firmware/Middlewares/Third_Party/FreeRTOS/Source/portable/GCC/ARM_CM4F/portmacro.h **** /*-----------------------------------------------------------*/
 114:Firmware/Middlewares/Third_Party/FreeRTOS/Source/portable/GCC/ARM_CM4F/portmacro.h **** 
 115:Firmware/Middlewares/Third_Party/FreeRTOS/Source/portable/GCC/ARM_CM4F/portmacro.h **** /* Tickless idle/low power functionality. */
 116:Firmware/Middlewares/Third_Party/FreeRTOS/Source/portable/GCC/ARM_CM4F/portmacro.h **** #ifndef portSUPPRESS_TICKS_AND_SLEEP
 117:Firmware/Middlewares/Third_Party/FreeRTOS/Source/portable/GCC/ARM_CM4F/portmacro.h **** 	extern void vPortSuppressTicksAndSleep( TickType_t xExpectedIdleTime );
 118:Firmware/Middlewares/Third_Party/FreeRTOS/Source/portable/GCC/ARM_CM4F/portmacro.h **** 	#define portSUPPRESS_TICKS_AND_SLEEP( xExpectedIdleTime ) vPortSuppressTicksAndSleep( xExpectedIdl
 119:Firmware/Middlewares/Third_Party/FreeRTOS/Source/portable/GCC/ARM_CM4F/portmacro.h **** #endif
 120:Firmware/Middlewares/Third_Party/FreeRTOS/Source/portable/GCC/ARM_CM4F/portmacro.h **** /*-----------------------------------------------------------*/
 121:Firmware/Middlewares/Third_Party/FreeRTOS/Source/portable/GCC/ARM_CM4F/portmacro.h **** 
 122:Firmware/Middlewares/Third_Party/FreeRTOS/Source/portable/GCC/ARM_CM4F/portmacro.h **** /* Architecture specific optimisations. */
 123:Firmware/Middlewares/Third_Party/FreeRTOS/Source/portable/GCC/ARM_CM4F/portmacro.h **** #ifndef configUSE_PORT_OPTIMISED_TASK_SELECTION
 124:Firmware/Middlewares/Third_Party/FreeRTOS/Source/portable/GCC/ARM_CM4F/portmacro.h **** 	#define configUSE_PORT_OPTIMISED_TASK_SELECTION 1
 125:Firmware/Middlewares/Third_Party/FreeRTOS/Source/portable/GCC/ARM_CM4F/portmacro.h **** #endif
 126:Firmware/Middlewares/Third_Party/FreeRTOS/Source/portable/GCC/ARM_CM4F/portmacro.h **** 
 127:Firmware/Middlewares/Third_Party/FreeRTOS/Source/portable/GCC/ARM_CM4F/portmacro.h **** #if configUSE_PORT_OPTIMISED_TASK_SELECTION == 1
 128:Firmware/Middlewares/Third_Party/FreeRTOS/Source/portable/GCC/ARM_CM4F/portmacro.h **** 
 129:Firmware/Middlewares/Third_Party/FreeRTOS/Source/portable/GCC/ARM_CM4F/portmacro.h **** 	/* Generic helper function. */
 130:Firmware/Middlewares/Third_Party/FreeRTOS/Source/portable/GCC/ARM_CM4F/portmacro.h **** 	__attribute__( ( always_inline ) ) static inline uint8_t ucPortCountLeadingZeros( uint32_t ulBitma
 131:Firmware/Middlewares/Third_Party/FreeRTOS/Source/portable/GCC/ARM_CM4F/portmacro.h **** 	{
 132:Firmware/Middlewares/Third_Party/FreeRTOS/Source/portable/GCC/ARM_CM4F/portmacro.h **** 	uint8_t ucReturn;
 133:Firmware/Middlewares/Third_Party/FreeRTOS/Source/portable/GCC/ARM_CM4F/portmacro.h **** 
 134:Firmware/Middlewares/Third_Party/FreeRTOS/Source/portable/GCC/ARM_CM4F/portmacro.h **** 		__asm volatile ( "clz %0, %1" : "=r" ( ucReturn ) : "r" ( ulBitmap ) : "memory" );
 135:Firmware/Middlewares/Third_Party/FreeRTOS/Source/portable/GCC/ARM_CM4F/portmacro.h **** 		return ucReturn;
 136:Firmware/Middlewares/Third_Party/FreeRTOS/Source/portable/GCC/ARM_CM4F/portmacro.h **** 	}
 137:Firmware/Middlewares/Third_Party/FreeRTOS/Source/portable/GCC/ARM_CM4F/portmacro.h **** 
 138:Firmware/Middlewares/Third_Party/FreeRTOS/Source/portable/GCC/ARM_CM4F/portmacro.h **** 	/* Check the configuration. */
ARM GAS  /tmp/ccB5BhZs.s 			page 37


 139:Firmware/Middlewares/Third_Party/FreeRTOS/Source/portable/GCC/ARM_CM4F/portmacro.h **** 	#if( configMAX_PRIORITIES > 32 )
 140:Firmware/Middlewares/Third_Party/FreeRTOS/Source/portable/GCC/ARM_CM4F/portmacro.h **** 		#error configUSE_PORT_OPTIMISED_TASK_SELECTION can only be set to 1 when configMAX_PRIORITIES is 
 141:Firmware/Middlewares/Third_Party/FreeRTOS/Source/portable/GCC/ARM_CM4F/portmacro.h **** 	#endif
 142:Firmware/Middlewares/Third_Party/FreeRTOS/Source/portable/GCC/ARM_CM4F/portmacro.h **** 
 143:Firmware/Middlewares/Third_Party/FreeRTOS/Source/portable/GCC/ARM_CM4F/portmacro.h **** 	/* Store/clear the ready priorities in a bit map. */
 144:Firmware/Middlewares/Third_Party/FreeRTOS/Source/portable/GCC/ARM_CM4F/portmacro.h **** 	#define portRECORD_READY_PRIORITY( uxPriority, uxReadyPriorities ) ( uxReadyPriorities ) |= ( 1UL 
 145:Firmware/Middlewares/Third_Party/FreeRTOS/Source/portable/GCC/ARM_CM4F/portmacro.h **** 	#define portRESET_READY_PRIORITY( uxPriority, uxReadyPriorities ) ( uxReadyPriorities ) &= ~( 1UL 
 146:Firmware/Middlewares/Third_Party/FreeRTOS/Source/portable/GCC/ARM_CM4F/portmacro.h **** 
 147:Firmware/Middlewares/Third_Party/FreeRTOS/Source/portable/GCC/ARM_CM4F/portmacro.h **** 	/*-----------------------------------------------------------*/
 148:Firmware/Middlewares/Third_Party/FreeRTOS/Source/portable/GCC/ARM_CM4F/portmacro.h **** 
 149:Firmware/Middlewares/Third_Party/FreeRTOS/Source/portable/GCC/ARM_CM4F/portmacro.h **** 	#define portGET_HIGHEST_PRIORITY( uxTopPriority, uxReadyPriorities ) uxTopPriority = ( 31UL - ( ui
 150:Firmware/Middlewares/Third_Party/FreeRTOS/Source/portable/GCC/ARM_CM4F/portmacro.h **** 
 151:Firmware/Middlewares/Third_Party/FreeRTOS/Source/portable/GCC/ARM_CM4F/portmacro.h **** #endif /* configUSE_PORT_OPTIMISED_TASK_SELECTION */
 152:Firmware/Middlewares/Third_Party/FreeRTOS/Source/portable/GCC/ARM_CM4F/portmacro.h **** 
 153:Firmware/Middlewares/Third_Party/FreeRTOS/Source/portable/GCC/ARM_CM4F/portmacro.h **** /*-----------------------------------------------------------*/
 154:Firmware/Middlewares/Third_Party/FreeRTOS/Source/portable/GCC/ARM_CM4F/portmacro.h **** 
 155:Firmware/Middlewares/Third_Party/FreeRTOS/Source/portable/GCC/ARM_CM4F/portmacro.h **** #ifdef configASSERT
 156:Firmware/Middlewares/Third_Party/FreeRTOS/Source/portable/GCC/ARM_CM4F/portmacro.h **** 	void vPortValidateInterruptPriority( void );
 157:Firmware/Middlewares/Third_Party/FreeRTOS/Source/portable/GCC/ARM_CM4F/portmacro.h **** 	#define portASSERT_IF_INTERRUPT_PRIORITY_INVALID() 	vPortValidateInterruptPriority()
 158:Firmware/Middlewares/Third_Party/FreeRTOS/Source/portable/GCC/ARM_CM4F/portmacro.h **** #endif
 159:Firmware/Middlewares/Third_Party/FreeRTOS/Source/portable/GCC/ARM_CM4F/portmacro.h **** 
 160:Firmware/Middlewares/Third_Party/FreeRTOS/Source/portable/GCC/ARM_CM4F/portmacro.h **** /* portNOP() is not required by this port. */
 161:Firmware/Middlewares/Third_Party/FreeRTOS/Source/portable/GCC/ARM_CM4F/portmacro.h **** #define portNOP()
 162:Firmware/Middlewares/Third_Party/FreeRTOS/Source/portable/GCC/ARM_CM4F/portmacro.h **** 
 163:Firmware/Middlewares/Third_Party/FreeRTOS/Source/portable/GCC/ARM_CM4F/portmacro.h **** #define portINLINE	__inline
 164:Firmware/Middlewares/Third_Party/FreeRTOS/Source/portable/GCC/ARM_CM4F/portmacro.h **** 
 165:Firmware/Middlewares/Third_Party/FreeRTOS/Source/portable/GCC/ARM_CM4F/portmacro.h **** #ifndef portFORCE_INLINE
 166:Firmware/Middlewares/Third_Party/FreeRTOS/Source/portable/GCC/ARM_CM4F/portmacro.h **** 	#define portFORCE_INLINE inline __attribute__(( always_inline))
 167:Firmware/Middlewares/Third_Party/FreeRTOS/Source/portable/GCC/ARM_CM4F/portmacro.h **** #endif
 168:Firmware/Middlewares/Third_Party/FreeRTOS/Source/portable/GCC/ARM_CM4F/portmacro.h **** 
 169:Firmware/Middlewares/Third_Party/FreeRTOS/Source/portable/GCC/ARM_CM4F/portmacro.h **** portFORCE_INLINE static BaseType_t xPortIsInsideInterrupt( void )
 170:Firmware/Middlewares/Third_Party/FreeRTOS/Source/portable/GCC/ARM_CM4F/portmacro.h **** {
 171:Firmware/Middlewares/Third_Party/FreeRTOS/Source/portable/GCC/ARM_CM4F/portmacro.h **** uint32_t ulCurrentInterrupt;
 172:Firmware/Middlewares/Third_Party/FreeRTOS/Source/portable/GCC/ARM_CM4F/portmacro.h **** BaseType_t xReturn;
 173:Firmware/Middlewares/Third_Party/FreeRTOS/Source/portable/GCC/ARM_CM4F/portmacro.h **** 
 174:Firmware/Middlewares/Third_Party/FreeRTOS/Source/portable/GCC/ARM_CM4F/portmacro.h **** 	/* Obtain the number of the currently executing interrupt. */
 175:Firmware/Middlewares/Third_Party/FreeRTOS/Source/portable/GCC/ARM_CM4F/portmacro.h **** 	__asm volatile( "mrs %0, ipsr" : "=r"( ulCurrentInterrupt ) :: "memory" );
 176:Firmware/Middlewares/Third_Party/FreeRTOS/Source/portable/GCC/ARM_CM4F/portmacro.h **** 
 177:Firmware/Middlewares/Third_Party/FreeRTOS/Source/portable/GCC/ARM_CM4F/portmacro.h **** 	if( ulCurrentInterrupt == 0 )
 178:Firmware/Middlewares/Third_Party/FreeRTOS/Source/portable/GCC/ARM_CM4F/portmacro.h **** 	{
 179:Firmware/Middlewares/Third_Party/FreeRTOS/Source/portable/GCC/ARM_CM4F/portmacro.h **** 		xReturn = pdFALSE;
 180:Firmware/Middlewares/Third_Party/FreeRTOS/Source/portable/GCC/ARM_CM4F/portmacro.h **** 	}
 181:Firmware/Middlewares/Third_Party/FreeRTOS/Source/portable/GCC/ARM_CM4F/portmacro.h **** 	else
 182:Firmware/Middlewares/Third_Party/FreeRTOS/Source/portable/GCC/ARM_CM4F/portmacro.h **** 	{
 183:Firmware/Middlewares/Third_Party/FreeRTOS/Source/portable/GCC/ARM_CM4F/portmacro.h **** 		xReturn = pdTRUE;
 184:Firmware/Middlewares/Third_Party/FreeRTOS/Source/portable/GCC/ARM_CM4F/portmacro.h **** 	}
 185:Firmware/Middlewares/Third_Party/FreeRTOS/Source/portable/GCC/ARM_CM4F/portmacro.h **** 
 186:Firmware/Middlewares/Third_Party/FreeRTOS/Source/portable/GCC/ARM_CM4F/portmacro.h **** 	return xReturn;
 187:Firmware/Middlewares/Third_Party/FreeRTOS/Source/portable/GCC/ARM_CM4F/portmacro.h **** }
 188:Firmware/Middlewares/Third_Party/FreeRTOS/Source/portable/GCC/ARM_CM4F/portmacro.h **** 
 189:Firmware/Middlewares/Third_Party/FreeRTOS/Source/portable/GCC/ARM_CM4F/portmacro.h **** /*-----------------------------------------------------------*/
 190:Firmware/Middlewares/Third_Party/FreeRTOS/Source/portable/GCC/ARM_CM4F/portmacro.h **** 
 191:Firmware/Middlewares/Third_Party/FreeRTOS/Source/portable/GCC/ARM_CM4F/portmacro.h **** portFORCE_INLINE static void vPortRaiseBASEPRI( void )
 192:Firmware/Middlewares/Third_Party/FreeRTOS/Source/portable/GCC/ARM_CM4F/portmacro.h **** {
 193:Firmware/Middlewares/Third_Party/FreeRTOS/Source/portable/GCC/ARM_CM4F/portmacro.h **** uint32_t ulNewBASEPRI;
 194:Firmware/Middlewares/Third_Party/FreeRTOS/Source/portable/GCC/ARM_CM4F/portmacro.h **** 
 195:Firmware/Middlewares/Third_Party/FreeRTOS/Source/portable/GCC/ARM_CM4F/portmacro.h **** 	__asm volatile
ARM GAS  /tmp/ccB5BhZs.s 			page 38


 1066              		.loc 3 195 0
 1067              		.syntax unified
 1068              	@ 195 "Firmware/Middlewares/Third_Party/FreeRTOS/Source/portable/GCC/ARM_CM4F/portmacro.h" 1
 1069 0006 4FF05003 			mov r3, #80												
 1070 000a 83F31188 		msr basepri, r3											
 1071 000e BFF36F8F 		isb														
 1072 0012 BFF34F8F 		dsb														
 1073              	
 1074              	@ 0 "" 2
 1075              		.thumb
 1076              		.syntax unified
 1077 0016 3B60     		str	r3, [r7]
 1078              	.LBE371:
 1079              	.LBE370:
 368:Firmware/Middlewares/Third_Party/FreeRTOS/Source/CMSIS_RTOS_V2/cmsis_os2.c ****   TickType_t ticks;
 369:Firmware/Middlewares/Third_Party/FreeRTOS/Source/CMSIS_RTOS_V2/cmsis_os2.c ****   uint32_t val;
 370:Firmware/Middlewares/Third_Party/FreeRTOS/Source/CMSIS_RTOS_V2/cmsis_os2.c **** 
 371:Firmware/Middlewares/Third_Party/FreeRTOS/Source/CMSIS_RTOS_V2/cmsis_os2.c ****   portDISABLE_INTERRUPTS();
 372:Firmware/Middlewares/Third_Party/FreeRTOS/Source/CMSIS_RTOS_V2/cmsis_os2.c **** 
 373:Firmware/Middlewares/Third_Party/FreeRTOS/Source/CMSIS_RTOS_V2/cmsis_os2.c ****   ticks = xTaskGetTickCount();
 1080              		.loc 1 373 0
 1081 0018 FFF7FEFF 		bl	xTaskGetTickCount
 1082 001c F860     		str	r0, [r7, #12]
 374:Firmware/Middlewares/Third_Party/FreeRTOS/Source/CMSIS_RTOS_V2/cmsis_os2.c **** 
 375:Firmware/Middlewares/Third_Party/FreeRTOS/Source/CMSIS_RTOS_V2/cmsis_os2.c ****   val = ticks * ( configCPU_CLOCK_HZ / configTICK_RATE_HZ );
 1083              		.loc 1 375 0
 1084 001e 0A4B     		ldr	r3, .L103
 1085 0020 1B68     		ldr	r3, [r3]
 1086 0022 0A4A     		ldr	r2, .L103+4
 1087 0024 A2FB0323 		umull	r2, r3, r2, r3
 1088 0028 9A09     		lsrs	r2, r3, #6
 1089 002a FB68     		ldr	r3, [r7, #12]
 1090 002c 02FB03F3 		mul	r3, r2, r3
 1091 0030 BB60     		str	r3, [r7, #8]
 1092 0032 0023     		movs	r3, #0
 1093 0034 7B60     		str	r3, [r7, #4]
 1094              	.LBB372:
 1095              	.LBB373:
 196:Firmware/Middlewares/Third_Party/FreeRTOS/Source/portable/GCC/ARM_CM4F/portmacro.h **** 	(
 197:Firmware/Middlewares/Third_Party/FreeRTOS/Source/portable/GCC/ARM_CM4F/portmacro.h **** 		"	mov %0, %1												\n"	\
 198:Firmware/Middlewares/Third_Party/FreeRTOS/Source/portable/GCC/ARM_CM4F/portmacro.h **** 		"	msr basepri, %0											\n" \
 199:Firmware/Middlewares/Third_Party/FreeRTOS/Source/portable/GCC/ARM_CM4F/portmacro.h **** 		"	isb														\n" \
 200:Firmware/Middlewares/Third_Party/FreeRTOS/Source/portable/GCC/ARM_CM4F/portmacro.h **** 		"	dsb														\n" \
 201:Firmware/Middlewares/Third_Party/FreeRTOS/Source/portable/GCC/ARM_CM4F/portmacro.h **** 		:"=r" (ulNewBASEPRI) : "i" ( configMAX_SYSCALL_INTERRUPT_PRIORITY ) : "memory"
 202:Firmware/Middlewares/Third_Party/FreeRTOS/Source/portable/GCC/ARM_CM4F/portmacro.h **** 	);
 203:Firmware/Middlewares/Third_Party/FreeRTOS/Source/portable/GCC/ARM_CM4F/portmacro.h **** }
 204:Firmware/Middlewares/Third_Party/FreeRTOS/Source/portable/GCC/ARM_CM4F/portmacro.h **** 
 205:Firmware/Middlewares/Third_Party/FreeRTOS/Source/portable/GCC/ARM_CM4F/portmacro.h **** /*-----------------------------------------------------------*/
 206:Firmware/Middlewares/Third_Party/FreeRTOS/Source/portable/GCC/ARM_CM4F/portmacro.h **** 
 207:Firmware/Middlewares/Third_Party/FreeRTOS/Source/portable/GCC/ARM_CM4F/portmacro.h **** portFORCE_INLINE static uint32_t ulPortRaiseBASEPRI( void )
 208:Firmware/Middlewares/Third_Party/FreeRTOS/Source/portable/GCC/ARM_CM4F/portmacro.h **** {
 209:Firmware/Middlewares/Third_Party/FreeRTOS/Source/portable/GCC/ARM_CM4F/portmacro.h **** uint32_t ulOriginalBASEPRI, ulNewBASEPRI;
 210:Firmware/Middlewares/Third_Party/FreeRTOS/Source/portable/GCC/ARM_CM4F/portmacro.h **** 
 211:Firmware/Middlewares/Third_Party/FreeRTOS/Source/portable/GCC/ARM_CM4F/portmacro.h **** 	__asm volatile
 212:Firmware/Middlewares/Third_Party/FreeRTOS/Source/portable/GCC/ARM_CM4F/portmacro.h **** 	(
 213:Firmware/Middlewares/Third_Party/FreeRTOS/Source/portable/GCC/ARM_CM4F/portmacro.h **** 		"	mrs %0, basepri											\n" \
 214:Firmware/Middlewares/Third_Party/FreeRTOS/Source/portable/GCC/ARM_CM4F/portmacro.h **** 		"	mov %1, %2												\n"	\
ARM GAS  /tmp/ccB5BhZs.s 			page 39


 215:Firmware/Middlewares/Third_Party/FreeRTOS/Source/portable/GCC/ARM_CM4F/portmacro.h **** 		"	msr basepri, %1											\n" \
 216:Firmware/Middlewares/Third_Party/FreeRTOS/Source/portable/GCC/ARM_CM4F/portmacro.h **** 		"	isb														\n" \
 217:Firmware/Middlewares/Third_Party/FreeRTOS/Source/portable/GCC/ARM_CM4F/portmacro.h **** 		"	dsb														\n" \
 218:Firmware/Middlewares/Third_Party/FreeRTOS/Source/portable/GCC/ARM_CM4F/portmacro.h **** 		:"=r" (ulOriginalBASEPRI), "=r" (ulNewBASEPRI) : "i" ( configMAX_SYSCALL_INTERRUPT_PRIORITY ) : "
 219:Firmware/Middlewares/Third_Party/FreeRTOS/Source/portable/GCC/ARM_CM4F/portmacro.h **** 	);
 220:Firmware/Middlewares/Third_Party/FreeRTOS/Source/portable/GCC/ARM_CM4F/portmacro.h **** 
 221:Firmware/Middlewares/Third_Party/FreeRTOS/Source/portable/GCC/ARM_CM4F/portmacro.h **** 	/* This return will not be reached but is necessary to prevent compiler
 222:Firmware/Middlewares/Third_Party/FreeRTOS/Source/portable/GCC/ARM_CM4F/portmacro.h **** 	warnings. */
 223:Firmware/Middlewares/Third_Party/FreeRTOS/Source/portable/GCC/ARM_CM4F/portmacro.h **** 	return ulOriginalBASEPRI;
 224:Firmware/Middlewares/Third_Party/FreeRTOS/Source/portable/GCC/ARM_CM4F/portmacro.h **** }
 225:Firmware/Middlewares/Third_Party/FreeRTOS/Source/portable/GCC/ARM_CM4F/portmacro.h **** /*-----------------------------------------------------------*/
 226:Firmware/Middlewares/Third_Party/FreeRTOS/Source/portable/GCC/ARM_CM4F/portmacro.h **** 
 227:Firmware/Middlewares/Third_Party/FreeRTOS/Source/portable/GCC/ARM_CM4F/portmacro.h **** portFORCE_INLINE static void vPortSetBASEPRI( uint32_t ulNewMaskValue )
 228:Firmware/Middlewares/Third_Party/FreeRTOS/Source/portable/GCC/ARM_CM4F/portmacro.h **** {
 229:Firmware/Middlewares/Third_Party/FreeRTOS/Source/portable/GCC/ARM_CM4F/portmacro.h **** 	__asm volatile
 1096              		.loc 3 229 0
 1097 0036 7B68     		ldr	r3, [r7, #4]
 1098              		.syntax unified
 1099              	@ 229 "Firmware/Middlewares/Third_Party/FreeRTOS/Source/portable/GCC/ARM_CM4F/portmacro.h" 1
 1100 0038 83F31188 			msr basepri, r3	
 1101              	@ 0 "" 2
 1102              		.thumb
 1103              		.syntax unified
 1104              	.LBE373:
 1105              	.LBE372:
 376:Firmware/Middlewares/Third_Party/FreeRTOS/Source/CMSIS_RTOS_V2/cmsis_os2.c ****   portENABLE_INTERRUPTS();
 377:Firmware/Middlewares/Third_Party/FreeRTOS/Source/CMSIS_RTOS_V2/cmsis_os2.c **** 
 378:Firmware/Middlewares/Third_Party/FreeRTOS/Source/CMSIS_RTOS_V2/cmsis_os2.c ****   return (val);
 1106              		.loc 1 378 0
 1107 003c BB68     		ldr	r3, [r7, #8]
 379:Firmware/Middlewares/Third_Party/FreeRTOS/Source/CMSIS_RTOS_V2/cmsis_os2.c **** }
 1108              		.loc 1 379 0
 1109 003e 1846     		mov	r0, r3
 1110 0040 1037     		adds	r7, r7, #16
 1111              	.LCFI48:
 1112              		.cfi_def_cfa_offset 8
 1113 0042 BD46     		mov	sp, r7
 1114              	.LCFI49:
 1115              		.cfi_def_cfa_register 13
 1116              		@ sp needed
 1117 0044 80BD     		pop	{r7, pc}
 1118              	.L104:
 1119 0046 00BF     		.align	2
 1120              	.L103:
 1121 0048 00000000 		.word	SystemCoreClock
 1122 004c D34D6210 		.word	274877907
 1123              		.cfi_endproc
 1124              	.LFE115:
 1126              		.section	.text.osKernelGetSysTimerFreq,"ax",%progbits
 1127              		.align	1
 1128              		.global	osKernelGetSysTimerFreq
 1129              		.syntax unified
 1130              		.thumb
 1131              		.thumb_func
 1132              		.fpu fpv4-sp-d16
 1134              	osKernelGetSysTimerFreq:
 1135              	.LFB116:
ARM GAS  /tmp/ccB5BhZs.s 			page 40


 380:Firmware/Middlewares/Third_Party/FreeRTOS/Source/CMSIS_RTOS_V2/cmsis_os2.c **** 
 381:Firmware/Middlewares/Third_Party/FreeRTOS/Source/CMSIS_RTOS_V2/cmsis_os2.c **** uint32_t osKernelGetSysTimerFreq (void) {
 1136              		.loc 1 381 0
 1137              		.cfi_startproc
 1138              		@ args = 0, pretend = 0, frame = 0
 1139              		@ frame_needed = 1, uses_anonymous_args = 0
 1140              		@ link register save eliminated.
 1141 0000 80B4     		push	{r7}
 1142              	.LCFI50:
 1143              		.cfi_def_cfa_offset 4
 1144              		.cfi_offset 7, -4
 1145 0002 00AF     		add	r7, sp, #0
 1146              	.LCFI51:
 1147              		.cfi_def_cfa_register 7
 382:Firmware/Middlewares/Third_Party/FreeRTOS/Source/CMSIS_RTOS_V2/cmsis_os2.c ****   return (configCPU_CLOCK_HZ);
 1148              		.loc 1 382 0
 1149 0004 034B     		ldr	r3, .L107
 1150 0006 1B68     		ldr	r3, [r3]
 383:Firmware/Middlewares/Third_Party/FreeRTOS/Source/CMSIS_RTOS_V2/cmsis_os2.c **** }
 1151              		.loc 1 383 0
 1152 0008 1846     		mov	r0, r3
 1153 000a BD46     		mov	sp, r7
 1154              	.LCFI52:
 1155              		.cfi_def_cfa_register 13
 1156              		@ sp needed
 1157 000c 5DF8047B 		ldr	r7, [sp], #4
 1158              	.LCFI53:
 1159              		.cfi_restore 7
 1160              		.cfi_def_cfa_offset 0
 1161 0010 7047     		bx	lr
 1162              	.L108:
 1163 0012 00BF     		.align	2
 1164              	.L107:
 1165 0014 00000000 		.word	SystemCoreClock
 1166              		.cfi_endproc
 1167              	.LFE116:
 1169              		.section	.text.osThreadNew,"ax",%progbits
 1170              		.align	1
 1171              		.global	osThreadNew
 1172              		.syntax unified
 1173              		.thumb
 1174              		.thumb_func
 1175              		.fpu fpv4-sp-d16
 1177              	osThreadNew:
 1178              	.LFB117:
 384:Firmware/Middlewares/Third_Party/FreeRTOS/Source/CMSIS_RTOS_V2/cmsis_os2.c **** 
 385:Firmware/Middlewares/Third_Party/FreeRTOS/Source/CMSIS_RTOS_V2/cmsis_os2.c **** /*---------------------------------------------------------------------------*/
 386:Firmware/Middlewares/Third_Party/FreeRTOS/Source/CMSIS_RTOS_V2/cmsis_os2.c **** 
 387:Firmware/Middlewares/Third_Party/FreeRTOS/Source/CMSIS_RTOS_V2/cmsis_os2.c **** osThreadId_t osThreadNew (osThreadFunc_t func, void *argument, const osThreadAttr_t *attr) {
 1179              		.loc 1 387 0
 1180              		.cfi_startproc
 1181              		@ args = 0, pretend = 0, frame = 56
 1182              		@ frame_needed = 1, uses_anonymous_args = 0
 1183 0000 80B5     		push	{r7, lr}
 1184              	.LCFI54:
 1185              		.cfi_def_cfa_offset 8
 1186              		.cfi_offset 7, -8
ARM GAS  /tmp/ccB5BhZs.s 			page 41


 1187              		.cfi_offset 14, -4
 1188 0002 92B0     		sub	sp, sp, #72
 1189              	.LCFI55:
 1190              		.cfi_def_cfa_offset 80
 1191 0004 04AF     		add	r7, sp, #16
 1192              	.LCFI56:
 1193              		.cfi_def_cfa 7, 64
 1194 0006 F860     		str	r0, [r7, #12]
 1195 0008 B960     		str	r1, [r7, #8]
 1196 000a 7A60     		str	r2, [r7, #4]
 388:Firmware/Middlewares/Third_Party/FreeRTOS/Source/CMSIS_RTOS_V2/cmsis_os2.c ****   char empty;
 389:Firmware/Middlewares/Third_Party/FreeRTOS/Source/CMSIS_RTOS_V2/cmsis_os2.c ****   const char *name;
 390:Firmware/Middlewares/Third_Party/FreeRTOS/Source/CMSIS_RTOS_V2/cmsis_os2.c ****   uint32_t stack;
 391:Firmware/Middlewares/Third_Party/FreeRTOS/Source/CMSIS_RTOS_V2/cmsis_os2.c ****   TaskHandle_t hTask;
 392:Firmware/Middlewares/Third_Party/FreeRTOS/Source/CMSIS_RTOS_V2/cmsis_os2.c ****   UBaseType_t prio;
 393:Firmware/Middlewares/Third_Party/FreeRTOS/Source/CMSIS_RTOS_V2/cmsis_os2.c ****   int32_t mem;
 394:Firmware/Middlewares/Third_Party/FreeRTOS/Source/CMSIS_RTOS_V2/cmsis_os2.c **** 
 395:Firmware/Middlewares/Third_Party/FreeRTOS/Source/CMSIS_RTOS_V2/cmsis_os2.c ****   hTask = NULL;
 1197              		.loc 1 395 0
 1198 000c 0023     		movs	r3, #0
 1199 000e 7B61     		str	r3, [r7, #20]
 1200              	.LBB374:
 1201              	.LBB375:
 209:Firmware/Drivers/CMSIS/Include/cmsis_gcc.h ****   return(result);
 1202              		.loc 2 209 0
 1203              		.syntax unified
 1204              	@ 209 "Firmware/Drivers/CMSIS/Include/cmsis_gcc.h" 1
 1205 0010 EFF30583 		MRS r3, ipsr
 1206              	@ 0 "" 2
 1207              		.thumb
 1208              		.syntax unified
 1209 0014 7B62     		str	r3, [r7, #36]
 210:Firmware/Drivers/CMSIS/Include/cmsis_gcc.h **** }
 1210              		.loc 2 210 0
 1211 0016 7B6A     		ldr	r3, [r7, #36]
 1212              	.LBE375:
 1213              	.LBE374:
 396:Firmware/Middlewares/Third_Party/FreeRTOS/Source/CMSIS_RTOS_V2/cmsis_os2.c **** 
 397:Firmware/Middlewares/Third_Party/FreeRTOS/Source/CMSIS_RTOS_V2/cmsis_os2.c ****   if (!IS_IRQ() && (func != NULL)) {
 1214              		.loc 1 397 0
 1215 0018 002B     		cmp	r3, #0
 1216 001a 40F09480 		bne	.L111
 1217              	.LBB376:
 1218              	.LBB377:
 386:Firmware/Drivers/CMSIS/Include/cmsis_gcc.h ****   return(result);
 1219              		.loc 2 386 0 discriminator 1
 1220              		.syntax unified
 1221              	@ 386 "Firmware/Drivers/CMSIS/Include/cmsis_gcc.h" 1
 1222 001e EFF31083 		MRS r3, primask
 1223              	@ 0 "" 2
 1224              		.thumb
 1225              		.syntax unified
 1226 0022 3B62     		str	r3, [r7, #32]
 387:Firmware/Drivers/CMSIS/Include/cmsis_gcc.h **** }
 1227              		.loc 2 387 0 discriminator 1
 1228 0024 3B6A     		ldr	r3, [r7, #32]
 1229              	.LBE377:
ARM GAS  /tmp/ccB5BhZs.s 			page 42


 1230              	.LBE376:
 1231              		.loc 1 397 0 discriminator 1
 1232 0026 002B     		cmp	r3, #0
 1233 0028 40F08D80 		bne	.L111
 1234              		.loc 1 397 0 is_stmt 0 discriminator 2
 1235 002c 484B     		ldr	r3, .L127
 1236 002e 1B68     		ldr	r3, [r3]
 1237 0030 022B     		cmp	r3, #2
 1238 0032 06D1     		bne	.L113
 1239              	.LBB378:
 1240              	.LBB379:
 465:Firmware/Drivers/CMSIS/Include/cmsis_gcc.h ****   return(result);
 1241              		.loc 2 465 0 is_stmt 1 discriminator 4
 1242              		.syntax unified
 1243              	@ 465 "Firmware/Drivers/CMSIS/Include/cmsis_gcc.h" 1
 1244 0034 EFF31183 		MRS r3, basepri
 1245              	@ 0 "" 2
 1246              		.thumb
 1247              		.syntax unified
 1248 0038 FB61     		str	r3, [r7, #28]
 1249              		.loc 2 466 0 discriminator 4
 1250 003a FB69     		ldr	r3, [r7, #28]
 1251              	.LBE379:
 1252              	.LBE378:
 1253              		.loc 1 397 0 discriminator 4
 1254 003c 002B     		cmp	r3, #0
 1255 003e 40F08280 		bne	.L111
 1256              	.L113:
 1257              		.loc 1 397 0 is_stmt 0 discriminator 5
 1258 0042 FB68     		ldr	r3, [r7, #12]
 1259 0044 002B     		cmp	r3, #0
 1260 0046 7ED0     		beq	.L111
 398:Firmware/Middlewares/Third_Party/FreeRTOS/Source/CMSIS_RTOS_V2/cmsis_os2.c ****     stack = configMINIMAL_STACK_SIZE;
 1261              		.loc 1 398 0 is_stmt 1
 1262 0048 8023     		movs	r3, #128
 1263 004a 3B63     		str	r3, [r7, #48]
 399:Firmware/Middlewares/Third_Party/FreeRTOS/Source/CMSIS_RTOS_V2/cmsis_os2.c ****     prio  = (UBaseType_t)osPriorityNormal;
 1264              		.loc 1 399 0
 1265 004c 1823     		movs	r3, #24
 1266 004e FB62     		str	r3, [r7, #44]
 400:Firmware/Middlewares/Third_Party/FreeRTOS/Source/CMSIS_RTOS_V2/cmsis_os2.c **** 
 401:Firmware/Middlewares/Third_Party/FreeRTOS/Source/CMSIS_RTOS_V2/cmsis_os2.c ****     empty = '\0';
 1267              		.loc 1 401 0
 1268 0050 0023     		movs	r3, #0
 1269 0052 FB76     		strb	r3, [r7, #27]
 402:Firmware/Middlewares/Third_Party/FreeRTOS/Source/CMSIS_RTOS_V2/cmsis_os2.c ****     name  = &empty;
 1270              		.loc 1 402 0
 1271 0054 07F11B03 		add	r3, r7, #27
 1272 0058 7B63     		str	r3, [r7, #52]
 403:Firmware/Middlewares/Third_Party/FreeRTOS/Source/CMSIS_RTOS_V2/cmsis_os2.c ****     mem   = -1;
 1273              		.loc 1 403 0
 1274 005a 4FF0FF33 		mov	r3, #-1
 1275 005e BB62     		str	r3, [r7, #40]
 404:Firmware/Middlewares/Third_Party/FreeRTOS/Source/CMSIS_RTOS_V2/cmsis_os2.c **** 
 405:Firmware/Middlewares/Third_Party/FreeRTOS/Source/CMSIS_RTOS_V2/cmsis_os2.c ****     if (attr != NULL) {
 1276              		.loc 1 405 0
 1277 0060 7B68     		ldr	r3, [r7, #4]
ARM GAS  /tmp/ccB5BhZs.s 			page 43


 1278 0062 002B     		cmp	r3, #0
 1279 0064 45D0     		beq	.L115
 406:Firmware/Middlewares/Third_Party/FreeRTOS/Source/CMSIS_RTOS_V2/cmsis_os2.c ****       if (attr->name != NULL) {
 1280              		.loc 1 406 0
 1281 0066 7B68     		ldr	r3, [r7, #4]
 1282 0068 1B68     		ldr	r3, [r3]
 1283 006a 002B     		cmp	r3, #0
 1284 006c 02D0     		beq	.L116
 407:Firmware/Middlewares/Third_Party/FreeRTOS/Source/CMSIS_RTOS_V2/cmsis_os2.c ****         name = attr->name;
 1285              		.loc 1 407 0
 1286 006e 7B68     		ldr	r3, [r7, #4]
 1287 0070 1B68     		ldr	r3, [r3]
 1288 0072 7B63     		str	r3, [r7, #52]
 1289              	.L116:
 408:Firmware/Middlewares/Third_Party/FreeRTOS/Source/CMSIS_RTOS_V2/cmsis_os2.c ****       }
 409:Firmware/Middlewares/Third_Party/FreeRTOS/Source/CMSIS_RTOS_V2/cmsis_os2.c ****       if (attr->priority != osPriorityNone) {
 1290              		.loc 1 409 0
 1291 0074 7B68     		ldr	r3, [r7, #4]
 1292 0076 9B69     		ldr	r3, [r3, #24]
 1293 0078 002B     		cmp	r3, #0
 1294 007a 02D0     		beq	.L117
 410:Firmware/Middlewares/Third_Party/FreeRTOS/Source/CMSIS_RTOS_V2/cmsis_os2.c ****         prio = (UBaseType_t)attr->priority;
 1295              		.loc 1 410 0
 1296 007c 7B68     		ldr	r3, [r7, #4]
 1297 007e 9B69     		ldr	r3, [r3, #24]
 1298 0080 FB62     		str	r3, [r7, #44]
 1299              	.L117:
 411:Firmware/Middlewares/Third_Party/FreeRTOS/Source/CMSIS_RTOS_V2/cmsis_os2.c ****       }
 412:Firmware/Middlewares/Third_Party/FreeRTOS/Source/CMSIS_RTOS_V2/cmsis_os2.c **** 
 413:Firmware/Middlewares/Third_Party/FreeRTOS/Source/CMSIS_RTOS_V2/cmsis_os2.c ****       if ((prio < osPriorityIdle) || (prio > osPriorityISR) || ((attr->attr_bits & osThreadJoinable
 1300              		.loc 1 413 0
 1301 0082 FB6A     		ldr	r3, [r7, #44]
 1302 0084 002B     		cmp	r3, #0
 1303 0086 08D0     		beq	.L118
 1304              		.loc 1 413 0 is_stmt 0 discriminator 1
 1305 0088 FB6A     		ldr	r3, [r7, #44]
 1306 008a 382B     		cmp	r3, #56
 1307 008c 05D8     		bhi	.L118
 1308              		.loc 1 413 0 discriminator 2
 1309 008e 7B68     		ldr	r3, [r7, #4]
 1310 0090 5B68     		ldr	r3, [r3, #4]
 1311 0092 03F00103 		and	r3, r3, #1
 1312 0096 002B     		cmp	r3, #0
 1313 0098 01D0     		beq	.L119
 1314              	.L118:
 414:Firmware/Middlewares/Third_Party/FreeRTOS/Source/CMSIS_RTOS_V2/cmsis_os2.c ****         return (NULL);
 1315              		.loc 1 414 0 is_stmt 1
 1316 009a 0023     		movs	r3, #0
 1317 009c 54E0     		b	.L126
 1318              	.L119:
 415:Firmware/Middlewares/Third_Party/FreeRTOS/Source/CMSIS_RTOS_V2/cmsis_os2.c ****       }
 416:Firmware/Middlewares/Third_Party/FreeRTOS/Source/CMSIS_RTOS_V2/cmsis_os2.c **** 
 417:Firmware/Middlewares/Third_Party/FreeRTOS/Source/CMSIS_RTOS_V2/cmsis_os2.c ****       if (attr->stack_size > 0U) {
 1319              		.loc 1 417 0
 1320 009e 7B68     		ldr	r3, [r7, #4]
 1321 00a0 5B69     		ldr	r3, [r3, #20]
 1322 00a2 002B     		cmp	r3, #0
ARM GAS  /tmp/ccB5BhZs.s 			page 44


 1323 00a4 03D0     		beq	.L121
 418:Firmware/Middlewares/Third_Party/FreeRTOS/Source/CMSIS_RTOS_V2/cmsis_os2.c ****         /* In FreeRTOS stack is not in bytes, but in sizeof(StackType_t) which is 4 on ARM ports.  
 419:Firmware/Middlewares/Third_Party/FreeRTOS/Source/CMSIS_RTOS_V2/cmsis_os2.c ****         /* Stack size should be therefore 4 byte aligned in order to avoid division caused side eff
 420:Firmware/Middlewares/Third_Party/FreeRTOS/Source/CMSIS_RTOS_V2/cmsis_os2.c ****         stack = attr->stack_size / sizeof(StackType_t);
 1324              		.loc 1 420 0
 1325 00a6 7B68     		ldr	r3, [r7, #4]
 1326 00a8 5B69     		ldr	r3, [r3, #20]
 1327 00aa 9B08     		lsrs	r3, r3, #2
 1328 00ac 3B63     		str	r3, [r7, #48]
 1329              	.L121:
 421:Firmware/Middlewares/Third_Party/FreeRTOS/Source/CMSIS_RTOS_V2/cmsis_os2.c ****       }
 422:Firmware/Middlewares/Third_Party/FreeRTOS/Source/CMSIS_RTOS_V2/cmsis_os2.c **** 
 423:Firmware/Middlewares/Third_Party/FreeRTOS/Source/CMSIS_RTOS_V2/cmsis_os2.c ****       if ((attr->cb_mem    != NULL) && (attr->cb_size    >= sizeof(StaticTask_t)) &&
 1330              		.loc 1 423 0
 1331 00ae 7B68     		ldr	r3, [r7, #4]
 1332 00b0 9B68     		ldr	r3, [r3, #8]
 1333 00b2 002B     		cmp	r3, #0
 1334 00b4 0ED0     		beq	.L122
 1335              		.loc 1 423 0 is_stmt 0 discriminator 1
 1336 00b6 7B68     		ldr	r3, [r7, #4]
 1337 00b8 DB68     		ldr	r3, [r3, #12]
 1338 00ba 5B2B     		cmp	r3, #91
 1339 00bc 0AD9     		bls	.L122
 424:Firmware/Middlewares/Third_Party/FreeRTOS/Source/CMSIS_RTOS_V2/cmsis_os2.c ****           (attr->stack_mem != NULL) && (attr->stack_size >  0U)) {
 1340              		.loc 1 424 0 is_stmt 1 discriminator 2
 1341 00be 7B68     		ldr	r3, [r7, #4]
 1342 00c0 1B69     		ldr	r3, [r3, #16]
 423:Firmware/Middlewares/Third_Party/FreeRTOS/Source/CMSIS_RTOS_V2/cmsis_os2.c ****           (attr->stack_mem != NULL) && (attr->stack_size >  0U)) {
 1343              		.loc 1 423 0 discriminator 2
 1344 00c2 002B     		cmp	r3, #0
 1345 00c4 06D0     		beq	.L122
 1346              		.loc 1 424 0
 1347 00c6 7B68     		ldr	r3, [r7, #4]
 1348 00c8 5B69     		ldr	r3, [r3, #20]
 1349 00ca 002B     		cmp	r3, #0
 1350 00cc 02D0     		beq	.L122
 425:Firmware/Middlewares/Third_Party/FreeRTOS/Source/CMSIS_RTOS_V2/cmsis_os2.c ****         mem = 1;
 1351              		.loc 1 425 0
 1352 00ce 0123     		movs	r3, #1
 1353 00d0 BB62     		str	r3, [r7, #40]
 1354 00d2 10E0     		b	.L124
 1355              	.L122:
 426:Firmware/Middlewares/Third_Party/FreeRTOS/Source/CMSIS_RTOS_V2/cmsis_os2.c ****       }
 427:Firmware/Middlewares/Third_Party/FreeRTOS/Source/CMSIS_RTOS_V2/cmsis_os2.c ****       else {
 428:Firmware/Middlewares/Third_Party/FreeRTOS/Source/CMSIS_RTOS_V2/cmsis_os2.c ****         if ((attr->cb_mem == NULL) && (attr->cb_size == 0U) && (attr->stack_mem == NULL)) {
 1356              		.loc 1 428 0
 1357 00d4 7B68     		ldr	r3, [r7, #4]
 1358 00d6 9B68     		ldr	r3, [r3, #8]
 1359 00d8 002B     		cmp	r3, #0
 1360 00da 0CD1     		bne	.L124
 1361              		.loc 1 428 0 is_stmt 0 discriminator 1
 1362 00dc 7B68     		ldr	r3, [r7, #4]
 1363 00de DB68     		ldr	r3, [r3, #12]
 1364 00e0 002B     		cmp	r3, #0
 1365 00e2 08D1     		bne	.L124
 1366              		.loc 1 428 0 discriminator 2
 1367 00e4 7B68     		ldr	r3, [r7, #4]
ARM GAS  /tmp/ccB5BhZs.s 			page 45


 1368 00e6 1B69     		ldr	r3, [r3, #16]
 1369 00e8 002B     		cmp	r3, #0
 1370 00ea 04D1     		bne	.L124
 429:Firmware/Middlewares/Third_Party/FreeRTOS/Source/CMSIS_RTOS_V2/cmsis_os2.c ****           mem = 0;
 1371              		.loc 1 429 0 is_stmt 1
 1372 00ec 0023     		movs	r3, #0
 1373 00ee BB62     		str	r3, [r7, #40]
 1374 00f0 01E0     		b	.L124
 1375              	.L115:
 430:Firmware/Middlewares/Third_Party/FreeRTOS/Source/CMSIS_RTOS_V2/cmsis_os2.c ****         }
 431:Firmware/Middlewares/Third_Party/FreeRTOS/Source/CMSIS_RTOS_V2/cmsis_os2.c ****       }
 432:Firmware/Middlewares/Third_Party/FreeRTOS/Source/CMSIS_RTOS_V2/cmsis_os2.c ****     }
 433:Firmware/Middlewares/Third_Party/FreeRTOS/Source/CMSIS_RTOS_V2/cmsis_os2.c ****     else {
 434:Firmware/Middlewares/Third_Party/FreeRTOS/Source/CMSIS_RTOS_V2/cmsis_os2.c ****       mem = 0;
 1376              		.loc 1 434 0
 1377 00f2 0023     		movs	r3, #0
 1378 00f4 BB62     		str	r3, [r7, #40]
 1379              	.L124:
 435:Firmware/Middlewares/Third_Party/FreeRTOS/Source/CMSIS_RTOS_V2/cmsis_os2.c ****     }
 436:Firmware/Middlewares/Third_Party/FreeRTOS/Source/CMSIS_RTOS_V2/cmsis_os2.c **** 
 437:Firmware/Middlewares/Third_Party/FreeRTOS/Source/CMSIS_RTOS_V2/cmsis_os2.c ****     if (mem == 1) {
 1380              		.loc 1 437 0
 1381 00f6 BB6A     		ldr	r3, [r7, #40]
 1382 00f8 012B     		cmp	r3, #1
 1383 00fa 10D1     		bne	.L125
 438:Firmware/Middlewares/Third_Party/FreeRTOS/Source/CMSIS_RTOS_V2/cmsis_os2.c ****       hTask = xTaskCreateStatic ((TaskFunction_t)func, name, stack, argument, prio, (StackType_t  *
 1384              		.loc 1 438 0
 1385 00fc 7B68     		ldr	r3, [r7, #4]
 1386 00fe 1B69     		ldr	r3, [r3, #16]
 439:Firmware/Middlewares/Third_Party/FreeRTOS/Source/CMSIS_RTOS_V2/cmsis_os2.c ****                                                                                     (StaticTask_t *
 1387              		.loc 1 439 0
 1388 0100 7A68     		ldr	r2, [r7, #4]
 1389 0102 9268     		ldr	r2, [r2, #8]
 438:Firmware/Middlewares/Third_Party/FreeRTOS/Source/CMSIS_RTOS_V2/cmsis_os2.c ****       hTask = xTaskCreateStatic ((TaskFunction_t)func, name, stack, argument, prio, (StackType_t  *
 1390              		.loc 1 438 0
 1391 0104 0292     		str	r2, [sp, #8]
 1392 0106 0193     		str	r3, [sp, #4]
 1393 0108 FB6A     		ldr	r3, [r7, #44]
 1394 010a 0093     		str	r3, [sp]
 1395 010c BB68     		ldr	r3, [r7, #8]
 1396 010e 3A6B     		ldr	r2, [r7, #48]
 1397 0110 796B     		ldr	r1, [r7, #52]
 1398 0112 F868     		ldr	r0, [r7, #12]
 1399 0114 FFF7FEFF 		bl	xTaskCreateStatic
 1400 0118 0346     		mov	r3, r0
 1401 011a 7B61     		str	r3, [r7, #20]
 1402 011c 13E0     		b	.L111
 1403              	.L125:
 440:Firmware/Middlewares/Third_Party/FreeRTOS/Source/CMSIS_RTOS_V2/cmsis_os2.c ****     }
 441:Firmware/Middlewares/Third_Party/FreeRTOS/Source/CMSIS_RTOS_V2/cmsis_os2.c ****     else {
 442:Firmware/Middlewares/Third_Party/FreeRTOS/Source/CMSIS_RTOS_V2/cmsis_os2.c ****       if (mem == 0) {
 1404              		.loc 1 442 0
 1405 011e BB6A     		ldr	r3, [r7, #40]
 1406 0120 002B     		cmp	r3, #0
 1407 0122 10D1     		bne	.L111
 443:Firmware/Middlewares/Third_Party/FreeRTOS/Source/CMSIS_RTOS_V2/cmsis_os2.c ****         if (xTaskCreate ((TaskFunction_t)func, name, (uint16_t)stack, argument, prio, &hTask) != pd
 1408              		.loc 1 443 0
ARM GAS  /tmp/ccB5BhZs.s 			page 46


 1409 0124 3B6B     		ldr	r3, [r7, #48]
 1410 0126 9AB2     		uxth	r2, r3
 1411 0128 07F11403 		add	r3, r7, #20
 1412 012c 0193     		str	r3, [sp, #4]
 1413 012e FB6A     		ldr	r3, [r7, #44]
 1414 0130 0093     		str	r3, [sp]
 1415 0132 BB68     		ldr	r3, [r7, #8]
 1416 0134 796B     		ldr	r1, [r7, #52]
 1417 0136 F868     		ldr	r0, [r7, #12]
 1418 0138 FFF7FEFF 		bl	xTaskCreate
 1419 013c 0346     		mov	r3, r0
 1420 013e 012B     		cmp	r3, #1
 1421 0140 01D0     		beq	.L111
 444:Firmware/Middlewares/Third_Party/FreeRTOS/Source/CMSIS_RTOS_V2/cmsis_os2.c ****           hTask = NULL;
 1422              		.loc 1 444 0
 1423 0142 0023     		movs	r3, #0
 1424 0144 7B61     		str	r3, [r7, #20]
 1425              	.L111:
 445:Firmware/Middlewares/Third_Party/FreeRTOS/Source/CMSIS_RTOS_V2/cmsis_os2.c ****         }
 446:Firmware/Middlewares/Third_Party/FreeRTOS/Source/CMSIS_RTOS_V2/cmsis_os2.c ****       }
 447:Firmware/Middlewares/Third_Party/FreeRTOS/Source/CMSIS_RTOS_V2/cmsis_os2.c ****     }
 448:Firmware/Middlewares/Third_Party/FreeRTOS/Source/CMSIS_RTOS_V2/cmsis_os2.c ****   }
 449:Firmware/Middlewares/Third_Party/FreeRTOS/Source/CMSIS_RTOS_V2/cmsis_os2.c **** 
 450:Firmware/Middlewares/Third_Party/FreeRTOS/Source/CMSIS_RTOS_V2/cmsis_os2.c ****   return ((osThreadId_t)hTask);
 1426              		.loc 1 450 0
 1427 0146 7B69     		ldr	r3, [r7, #20]
 1428              	.L126:
 451:Firmware/Middlewares/Third_Party/FreeRTOS/Source/CMSIS_RTOS_V2/cmsis_os2.c **** }
 1429              		.loc 1 451 0 discriminator 1
 1430 0148 1846     		mov	r0, r3
 1431 014a 3837     		adds	r7, r7, #56
 1432              	.LCFI57:
 1433              		.cfi_def_cfa_offset 8
 1434 014c BD46     		mov	sp, r7
 1435              	.LCFI58:
 1436              		.cfi_def_cfa_register 13
 1437              		@ sp needed
 1438 014e 80BD     		pop	{r7, pc}
 1439              	.L128:
 1440              		.align	2
 1441              	.L127:
 1442 0150 00000000 		.word	KernelState
 1443              		.cfi_endproc
 1444              	.LFE117:
 1446              		.section	.text.osThreadGetName,"ax",%progbits
 1447              		.align	1
 1448              		.global	osThreadGetName
 1449              		.syntax unified
 1450              		.thumb
 1451              		.thumb_func
 1452              		.fpu fpv4-sp-d16
 1454              	osThreadGetName:
 1455              	.LFB118:
 452:Firmware/Middlewares/Third_Party/FreeRTOS/Source/CMSIS_RTOS_V2/cmsis_os2.c **** 
 453:Firmware/Middlewares/Third_Party/FreeRTOS/Source/CMSIS_RTOS_V2/cmsis_os2.c **** const char *osThreadGetName (osThreadId_t thread_id) {
 1456              		.loc 1 453 0
 1457              		.cfi_startproc
ARM GAS  /tmp/ccB5BhZs.s 			page 47


 1458              		@ args = 0, pretend = 0, frame = 32
 1459              		@ frame_needed = 1, uses_anonymous_args = 0
 1460 0000 80B5     		push	{r7, lr}
 1461              	.LCFI59:
 1462              		.cfi_def_cfa_offset 8
 1463              		.cfi_offset 7, -8
 1464              		.cfi_offset 14, -4
 1465 0002 88B0     		sub	sp, sp, #32
 1466              	.LCFI60:
 1467              		.cfi_def_cfa_offset 40
 1468 0004 00AF     		add	r7, sp, #0
 1469              	.LCFI61:
 1470              		.cfi_def_cfa_register 7
 1471 0006 7860     		str	r0, [r7, #4]
 454:Firmware/Middlewares/Third_Party/FreeRTOS/Source/CMSIS_RTOS_V2/cmsis_os2.c ****   TaskHandle_t hTask = (TaskHandle_t)thread_id;
 1472              		.loc 1 454 0
 1473 0008 7B68     		ldr	r3, [r7, #4]
 1474 000a BB61     		str	r3, [r7, #24]
 1475              	.LBB380:
 1476              	.LBB381:
 209:Firmware/Drivers/CMSIS/Include/cmsis_gcc.h ****   return(result);
 1477              		.loc 2 209 0
 1478              		.syntax unified
 1479              	@ 209 "Firmware/Drivers/CMSIS/Include/cmsis_gcc.h" 1
 1480 000c EFF30583 		MRS r3, ipsr
 1481              	@ 0 "" 2
 1482              		.thumb
 1483              		.syntax unified
 1484 0010 7B61     		str	r3, [r7, #20]
 210:Firmware/Drivers/CMSIS/Include/cmsis_gcc.h **** }
 1485              		.loc 2 210 0
 1486 0012 7B69     		ldr	r3, [r7, #20]
 1487              	.LBE381:
 1488              	.LBE380:
 455:Firmware/Middlewares/Third_Party/FreeRTOS/Source/CMSIS_RTOS_V2/cmsis_os2.c ****   const char *name;
 456:Firmware/Middlewares/Third_Party/FreeRTOS/Source/CMSIS_RTOS_V2/cmsis_os2.c **** 
 457:Firmware/Middlewares/Third_Party/FreeRTOS/Source/CMSIS_RTOS_V2/cmsis_os2.c ****   if (IS_IRQ() || (hTask == NULL)) {
 1489              		.loc 1 457 0
 1490 0014 002B     		cmp	r3, #0
 1491 0016 12D1     		bne	.L131
 1492              	.LBB382:
 1493              	.LBB383:
 386:Firmware/Drivers/CMSIS/Include/cmsis_gcc.h ****   return(result);
 1494              		.loc 2 386 0 discriminator 1
 1495              		.syntax unified
 1496              	@ 386 "Firmware/Drivers/CMSIS/Include/cmsis_gcc.h" 1
 1497 0018 EFF31083 		MRS r3, primask
 1498              	@ 0 "" 2
 1499              		.thumb
 1500              		.syntax unified
 1501 001c 3B61     		str	r3, [r7, #16]
 387:Firmware/Drivers/CMSIS/Include/cmsis_gcc.h **** }
 1502              		.loc 2 387 0 discriminator 1
 1503 001e 3B69     		ldr	r3, [r7, #16]
 1504              	.LBE383:
 1505              	.LBE382:
 1506              		.loc 1 457 0 discriminator 1
ARM GAS  /tmp/ccB5BhZs.s 			page 48


 1507 0020 002B     		cmp	r3, #0
 1508 0022 0CD1     		bne	.L131
 1509              		.loc 1 457 0 is_stmt 0 discriminator 2
 1510 0024 0C4B     		ldr	r3, .L138
 1511 0026 1B68     		ldr	r3, [r3]
 1512 0028 022B     		cmp	r3, #2
 1513 002a 05D1     		bne	.L133
 1514              	.LBB384:
 1515              	.LBB385:
 465:Firmware/Drivers/CMSIS/Include/cmsis_gcc.h ****   return(result);
 1516              		.loc 2 465 0 is_stmt 1 discriminator 3
 1517              		.syntax unified
 1518              	@ 465 "Firmware/Drivers/CMSIS/Include/cmsis_gcc.h" 1
 1519 002c EFF31183 		MRS r3, basepri
 1520              	@ 0 "" 2
 1521              		.thumb
 1522              		.syntax unified
 1523 0030 FB60     		str	r3, [r7, #12]
 1524              		.loc 2 466 0 discriminator 3
 1525 0032 FB68     		ldr	r3, [r7, #12]
 1526              	.LBE385:
 1527              	.LBE384:
 1528              		.loc 1 457 0 discriminator 3
 1529 0034 002B     		cmp	r3, #0
 1530 0036 02D1     		bne	.L131
 1531              	.L133:
 1532              		.loc 1 457 0 is_stmt 0 discriminator 5
 1533 0038 BB69     		ldr	r3, [r7, #24]
 1534 003a 002B     		cmp	r3, #0
 1535 003c 02D1     		bne	.L135
 1536              	.L131:
 458:Firmware/Middlewares/Third_Party/FreeRTOS/Source/CMSIS_RTOS_V2/cmsis_os2.c ****     name = NULL;
 1537              		.loc 1 458 0 is_stmt 1
 1538 003e 0023     		movs	r3, #0
 1539 0040 FB61     		str	r3, [r7, #28]
 1540 0042 03E0     		b	.L136
 1541              	.L135:
 459:Firmware/Middlewares/Third_Party/FreeRTOS/Source/CMSIS_RTOS_V2/cmsis_os2.c ****   } else {
 460:Firmware/Middlewares/Third_Party/FreeRTOS/Source/CMSIS_RTOS_V2/cmsis_os2.c ****     name = pcTaskGetName (hTask);
 1542              		.loc 1 460 0
 1543 0044 B869     		ldr	r0, [r7, #24]
 1544 0046 FFF7FEFF 		bl	pcTaskGetName
 1545 004a F861     		str	r0, [r7, #28]
 1546              	.L136:
 461:Firmware/Middlewares/Third_Party/FreeRTOS/Source/CMSIS_RTOS_V2/cmsis_os2.c ****   }
 462:Firmware/Middlewares/Third_Party/FreeRTOS/Source/CMSIS_RTOS_V2/cmsis_os2.c **** 
 463:Firmware/Middlewares/Third_Party/FreeRTOS/Source/CMSIS_RTOS_V2/cmsis_os2.c ****   return (name);
 1547              		.loc 1 463 0
 1548 004c FB69     		ldr	r3, [r7, #28]
 464:Firmware/Middlewares/Third_Party/FreeRTOS/Source/CMSIS_RTOS_V2/cmsis_os2.c **** }
 1549              		.loc 1 464 0
 1550 004e 1846     		mov	r0, r3
 1551 0050 2037     		adds	r7, r7, #32
 1552              	.LCFI62:
 1553              		.cfi_def_cfa_offset 8
 1554 0052 BD46     		mov	sp, r7
 1555              	.LCFI63:
ARM GAS  /tmp/ccB5BhZs.s 			page 49


 1556              		.cfi_def_cfa_register 13
 1557              		@ sp needed
 1558 0054 80BD     		pop	{r7, pc}
 1559              	.L139:
 1560 0056 00BF     		.align	2
 1561              	.L138:
 1562 0058 00000000 		.word	KernelState
 1563              		.cfi_endproc
 1564              	.LFE118:
 1566              		.section	.text.osThreadGetId,"ax",%progbits
 1567              		.align	1
 1568              		.global	osThreadGetId
 1569              		.syntax unified
 1570              		.thumb
 1571              		.thumb_func
 1572              		.fpu fpv4-sp-d16
 1574              	osThreadGetId:
 1575              	.LFB119:
 465:Firmware/Middlewares/Third_Party/FreeRTOS/Source/CMSIS_RTOS_V2/cmsis_os2.c **** 
 466:Firmware/Middlewares/Third_Party/FreeRTOS/Source/CMSIS_RTOS_V2/cmsis_os2.c **** osThreadId_t osThreadGetId (void) {
 1576              		.loc 1 466 0
 1577              		.cfi_startproc
 1578              		@ args = 0, pretend = 0, frame = 16
 1579              		@ frame_needed = 1, uses_anonymous_args = 0
 1580 0000 80B5     		push	{r7, lr}
 1581              	.LCFI64:
 1582              		.cfi_def_cfa_offset 8
 1583              		.cfi_offset 7, -8
 1584              		.cfi_offset 14, -4
 1585 0002 84B0     		sub	sp, sp, #16
 1586              	.LCFI65:
 1587              		.cfi_def_cfa_offset 24
 1588 0004 00AF     		add	r7, sp, #0
 1589              	.LCFI66:
 1590              		.cfi_def_cfa_register 7
 1591              	.LBB386:
 1592              	.LBB387:
 209:Firmware/Drivers/CMSIS/Include/cmsis_gcc.h ****   return(result);
 1593              		.loc 2 209 0
 1594              		.syntax unified
 1595              	@ 209 "Firmware/Drivers/CMSIS/Include/cmsis_gcc.h" 1
 1596 0006 EFF30583 		MRS r3, ipsr
 1597              	@ 0 "" 2
 1598              		.thumb
 1599              		.syntax unified
 1600 000a BB60     		str	r3, [r7, #8]
 210:Firmware/Drivers/CMSIS/Include/cmsis_gcc.h **** }
 1601              		.loc 2 210 0
 1602 000c BB68     		ldr	r3, [r7, #8]
 1603              	.LBE387:
 1604              	.LBE386:
 467:Firmware/Middlewares/Third_Party/FreeRTOS/Source/CMSIS_RTOS_V2/cmsis_os2.c ****   osThreadId_t id;
 468:Firmware/Middlewares/Third_Party/FreeRTOS/Source/CMSIS_RTOS_V2/cmsis_os2.c **** 
 469:Firmware/Middlewares/Third_Party/FreeRTOS/Source/CMSIS_RTOS_V2/cmsis_os2.c ****   if (IS_IRQ()) {
 1605              		.loc 1 469 0
 1606 000e 002B     		cmp	r3, #0
 1607 0010 0FD1     		bne	.L142
ARM GAS  /tmp/ccB5BhZs.s 			page 50


 1608              	.LBB388:
 1609              	.LBB389:
 386:Firmware/Drivers/CMSIS/Include/cmsis_gcc.h ****   return(result);
 1610              		.loc 2 386 0 discriminator 1
 1611              		.syntax unified
 1612              	@ 386 "Firmware/Drivers/CMSIS/Include/cmsis_gcc.h" 1
 1613 0012 EFF31083 		MRS r3, primask
 1614              	@ 0 "" 2
 1615              		.thumb
 1616              		.syntax unified
 1617 0016 7B60     		str	r3, [r7, #4]
 387:Firmware/Drivers/CMSIS/Include/cmsis_gcc.h **** }
 1618              		.loc 2 387 0 discriminator 1
 1619 0018 7B68     		ldr	r3, [r7, #4]
 1620              	.LBE389:
 1621              	.LBE388:
 1622              		.loc 1 469 0 discriminator 1
 1623 001a 002B     		cmp	r3, #0
 1624 001c 09D1     		bne	.L142
 1625              		.loc 1 469 0 is_stmt 0 discriminator 2
 1626 001e 0A4B     		ldr	r3, .L148
 1627 0020 1B68     		ldr	r3, [r3]
 1628 0022 022B     		cmp	r3, #2
 1629 0024 08D1     		bne	.L144
 1630              	.LBB390:
 1631              	.LBB391:
 465:Firmware/Drivers/CMSIS/Include/cmsis_gcc.h ****   return(result);
 1632              		.loc 2 465 0 is_stmt 1 discriminator 3
 1633              		.syntax unified
 1634              	@ 465 "Firmware/Drivers/CMSIS/Include/cmsis_gcc.h" 1
 1635 0026 EFF31183 		MRS r3, basepri
 1636              	@ 0 "" 2
 1637              		.thumb
 1638              		.syntax unified
 1639 002a 3B60     		str	r3, [r7]
 1640              		.loc 2 466 0 discriminator 3
 1641 002c 3B68     		ldr	r3, [r7]
 1642              	.LBE391:
 1643              	.LBE390:
 1644              		.loc 1 469 0 discriminator 3
 1645 002e 002B     		cmp	r3, #0
 1646 0030 02D0     		beq	.L144
 1647              	.L142:
 470:Firmware/Middlewares/Third_Party/FreeRTOS/Source/CMSIS_RTOS_V2/cmsis_os2.c ****     id = NULL;
 1648              		.loc 1 470 0
 1649 0032 0023     		movs	r3, #0
 1650 0034 FB60     		str	r3, [r7, #12]
 1651 0036 02E0     		b	.L146
 1652              	.L144:
 471:Firmware/Middlewares/Third_Party/FreeRTOS/Source/CMSIS_RTOS_V2/cmsis_os2.c ****   } else {
 472:Firmware/Middlewares/Third_Party/FreeRTOS/Source/CMSIS_RTOS_V2/cmsis_os2.c ****     id = (osThreadId_t)xTaskGetCurrentTaskHandle();
 1653              		.loc 1 472 0
 1654 0038 FFF7FEFF 		bl	xTaskGetCurrentTaskHandle
 1655 003c F860     		str	r0, [r7, #12]
 1656              	.L146:
 473:Firmware/Middlewares/Third_Party/FreeRTOS/Source/CMSIS_RTOS_V2/cmsis_os2.c ****   }
 474:Firmware/Middlewares/Third_Party/FreeRTOS/Source/CMSIS_RTOS_V2/cmsis_os2.c **** 
ARM GAS  /tmp/ccB5BhZs.s 			page 51


 475:Firmware/Middlewares/Third_Party/FreeRTOS/Source/CMSIS_RTOS_V2/cmsis_os2.c ****   return (id);
 1657              		.loc 1 475 0
 1658 003e FB68     		ldr	r3, [r7, #12]
 476:Firmware/Middlewares/Third_Party/FreeRTOS/Source/CMSIS_RTOS_V2/cmsis_os2.c **** }
 1659              		.loc 1 476 0
 1660 0040 1846     		mov	r0, r3
 1661 0042 1037     		adds	r7, r7, #16
 1662              	.LCFI67:
 1663              		.cfi_def_cfa_offset 8
 1664 0044 BD46     		mov	sp, r7
 1665              	.LCFI68:
 1666              		.cfi_def_cfa_register 13
 1667              		@ sp needed
 1668 0046 80BD     		pop	{r7, pc}
 1669              	.L149:
 1670              		.align	2
 1671              	.L148:
 1672 0048 00000000 		.word	KernelState
 1673              		.cfi_endproc
 1674              	.LFE119:
 1676              		.section	.text.osThreadGetState,"ax",%progbits
 1677              		.align	1
 1678              		.global	osThreadGetState
 1679              		.syntax unified
 1680              		.thumb
 1681              		.thumb_func
 1682              		.fpu fpv4-sp-d16
 1684              	osThreadGetState:
 1685              	.LFB120:
 477:Firmware/Middlewares/Third_Party/FreeRTOS/Source/CMSIS_RTOS_V2/cmsis_os2.c **** 
 478:Firmware/Middlewares/Third_Party/FreeRTOS/Source/CMSIS_RTOS_V2/cmsis_os2.c **** osThreadState_t osThreadGetState (osThreadId_t thread_id) {
 1686              		.loc 1 478 0
 1687              		.cfi_startproc
 1688              		@ args = 0, pretend = 0, frame = 32
 1689              		@ frame_needed = 1, uses_anonymous_args = 0
 1690 0000 80B5     		push	{r7, lr}
 1691              	.LCFI69:
 1692              		.cfi_def_cfa_offset 8
 1693              		.cfi_offset 7, -8
 1694              		.cfi_offset 14, -4
 1695 0002 88B0     		sub	sp, sp, #32
 1696              	.LCFI70:
 1697              		.cfi_def_cfa_offset 40
 1698 0004 00AF     		add	r7, sp, #0
 1699              	.LCFI71:
 1700              		.cfi_def_cfa_register 7
 1701 0006 7860     		str	r0, [r7, #4]
 479:Firmware/Middlewares/Third_Party/FreeRTOS/Source/CMSIS_RTOS_V2/cmsis_os2.c ****   TaskHandle_t hTask = (TaskHandle_t)thread_id;
 1702              		.loc 1 479 0
 1703 0008 7B68     		ldr	r3, [r7, #4]
 1704 000a BB61     		str	r3, [r7, #24]
 1705              	.LBB392:
 1706              	.LBB393:
 209:Firmware/Drivers/CMSIS/Include/cmsis_gcc.h ****   return(result);
 1707              		.loc 2 209 0
 1708              		.syntax unified
 1709              	@ 209 "Firmware/Drivers/CMSIS/Include/cmsis_gcc.h" 1
ARM GAS  /tmp/ccB5BhZs.s 			page 52


 1710 000c EFF30583 		MRS r3, ipsr
 1711              	@ 0 "" 2
 1712              		.thumb
 1713              		.syntax unified
 1714 0010 7B61     		str	r3, [r7, #20]
 210:Firmware/Drivers/CMSIS/Include/cmsis_gcc.h **** }
 1715              		.loc 2 210 0
 1716 0012 7B69     		ldr	r3, [r7, #20]
 1717              	.LBE393:
 1718              	.LBE392:
 480:Firmware/Middlewares/Third_Party/FreeRTOS/Source/CMSIS_RTOS_V2/cmsis_os2.c ****   osThreadState_t state;
 481:Firmware/Middlewares/Third_Party/FreeRTOS/Source/CMSIS_RTOS_V2/cmsis_os2.c **** 
 482:Firmware/Middlewares/Third_Party/FreeRTOS/Source/CMSIS_RTOS_V2/cmsis_os2.c ****   if (IS_IRQ() || (hTask == NULL)) {
 1719              		.loc 1 482 0
 1720 0014 002B     		cmp	r3, #0
 1721 0016 12D1     		bne	.L152
 1722              	.LBB394:
 1723              	.LBB395:
 386:Firmware/Drivers/CMSIS/Include/cmsis_gcc.h ****   return(result);
 1724              		.loc 2 386 0 discriminator 1
 1725              		.syntax unified
 1726              	@ 386 "Firmware/Drivers/CMSIS/Include/cmsis_gcc.h" 1
 1727 0018 EFF31083 		MRS r3, primask
 1728              	@ 0 "" 2
 1729              		.thumb
 1730              		.syntax unified
 1731 001c 3B61     		str	r3, [r7, #16]
 387:Firmware/Drivers/CMSIS/Include/cmsis_gcc.h **** }
 1732              		.loc 2 387 0 discriminator 1
 1733 001e 3B69     		ldr	r3, [r7, #16]
 1734              	.LBE395:
 1735              	.LBE394:
 1736              		.loc 1 482 0 discriminator 1
 1737 0020 002B     		cmp	r3, #0
 1738 0022 0CD1     		bne	.L152
 1739              		.loc 1 482 0 is_stmt 0 discriminator 2
 1740 0024 1C4B     		ldr	r3, .L165
 1741 0026 1B68     		ldr	r3, [r3]
 1742 0028 022B     		cmp	r3, #2
 1743 002a 05D1     		bne	.L154
 1744              	.LBB396:
 1745              	.LBB397:
 465:Firmware/Drivers/CMSIS/Include/cmsis_gcc.h ****   return(result);
 1746              		.loc 2 465 0 is_stmt 1 discriminator 3
 1747              		.syntax unified
 1748              	@ 465 "Firmware/Drivers/CMSIS/Include/cmsis_gcc.h" 1
 1749 002c EFF31183 		MRS r3, basepri
 1750              	@ 0 "" 2
 1751              		.thumb
 1752              		.syntax unified
 1753 0030 FB60     		str	r3, [r7, #12]
 1754              		.loc 2 466 0 discriminator 3
 1755 0032 FB68     		ldr	r3, [r7, #12]
 1756              	.LBE397:
 1757              	.LBE396:
 1758              		.loc 1 482 0 discriminator 3
 1759 0034 002B     		cmp	r3, #0
ARM GAS  /tmp/ccB5BhZs.s 			page 53


 1760 0036 02D1     		bne	.L152
 1761              	.L154:
 1762              		.loc 1 482 0 is_stmt 0 discriminator 5
 1763 0038 BB69     		ldr	r3, [r7, #24]
 1764 003a 002B     		cmp	r3, #0
 1765 003c 03D1     		bne	.L156
 1766              	.L152:
 483:Firmware/Middlewares/Third_Party/FreeRTOS/Source/CMSIS_RTOS_V2/cmsis_os2.c ****     state = osThreadError;
 1767              		.loc 1 483 0 is_stmt 1
 1768 003e 4FF0FF33 		mov	r3, #-1
 1769 0042 FB61     		str	r3, [r7, #28]
 1770 0044 22E0     		b	.L157
 1771              	.L156:
 484:Firmware/Middlewares/Third_Party/FreeRTOS/Source/CMSIS_RTOS_V2/cmsis_os2.c ****   }
 485:Firmware/Middlewares/Third_Party/FreeRTOS/Source/CMSIS_RTOS_V2/cmsis_os2.c ****   else {
 486:Firmware/Middlewares/Third_Party/FreeRTOS/Source/CMSIS_RTOS_V2/cmsis_os2.c ****     switch (eTaskGetState (hTask)) {
 1772              		.loc 1 486 0
 1773 0046 B869     		ldr	r0, [r7, #24]
 1774 0048 FFF7FEFF 		bl	eTaskGetState
 1775 004c 0346     		mov	r3, r0
 1776 004e 042B     		cmp	r3, #4
 1777 0050 18D8     		bhi	.L158
 1778 0052 01A2     		adr	r2, .L160
 1779 0054 52F823F0 		ldr	pc, [r2, r3, lsl #2]
 1780              		.p2align 2
 1781              	.L160:
 1782 0058 6D000000 		.word	.L159+1
 1783 005c 73000000 		.word	.L161+1
 1784 0060 79000000 		.word	.L162+1
 1785 0064 79000000 		.word	.L162+1
 1786 0068 7F000000 		.word	.L163+1
 1787              		.p2align 1
 1788              	.L159:
 487:Firmware/Middlewares/Third_Party/FreeRTOS/Source/CMSIS_RTOS_V2/cmsis_os2.c ****       case eRunning:   state = osThreadRunning;    break;
 1789              		.loc 1 487 0
 1790 006c 0223     		movs	r3, #2
 1791 006e FB61     		str	r3, [r7, #28]
 1792 0070 0CE0     		b	.L157
 1793              	.L161:
 488:Firmware/Middlewares/Third_Party/FreeRTOS/Source/CMSIS_RTOS_V2/cmsis_os2.c ****       case eReady:     state = osThreadReady;      break;
 1794              		.loc 1 488 0
 1795 0072 0123     		movs	r3, #1
 1796 0074 FB61     		str	r3, [r7, #28]
 1797 0076 09E0     		b	.L157
 1798              	.L162:
 489:Firmware/Middlewares/Third_Party/FreeRTOS/Source/CMSIS_RTOS_V2/cmsis_os2.c ****       case eBlocked:
 490:Firmware/Middlewares/Third_Party/FreeRTOS/Source/CMSIS_RTOS_V2/cmsis_os2.c ****       case eSuspended: state = osThreadBlocked;    break;
 1799              		.loc 1 490 0
 1800 0078 0323     		movs	r3, #3
 1801 007a FB61     		str	r3, [r7, #28]
 1802 007c 06E0     		b	.L157
 1803              	.L163:
 491:Firmware/Middlewares/Third_Party/FreeRTOS/Source/CMSIS_RTOS_V2/cmsis_os2.c ****       case eDeleted:   state = osThreadTerminated; break;
 1804              		.loc 1 491 0
 1805 007e 0423     		movs	r3, #4
 1806 0080 FB61     		str	r3, [r7, #28]
 1807 0082 03E0     		b	.L157
ARM GAS  /tmp/ccB5BhZs.s 			page 54


 1808              	.L158:
 492:Firmware/Middlewares/Third_Party/FreeRTOS/Source/CMSIS_RTOS_V2/cmsis_os2.c ****       case eInvalid:
 493:Firmware/Middlewares/Third_Party/FreeRTOS/Source/CMSIS_RTOS_V2/cmsis_os2.c ****       default:         state = osThreadError;      break;
 1809              		.loc 1 493 0
 1810 0084 4FF0FF33 		mov	r3, #-1
 1811 0088 FB61     		str	r3, [r7, #28]
 1812 008a 00BF     		nop
 1813              	.L157:
 494:Firmware/Middlewares/Third_Party/FreeRTOS/Source/CMSIS_RTOS_V2/cmsis_os2.c ****     }
 495:Firmware/Middlewares/Third_Party/FreeRTOS/Source/CMSIS_RTOS_V2/cmsis_os2.c ****   }
 496:Firmware/Middlewares/Third_Party/FreeRTOS/Source/CMSIS_RTOS_V2/cmsis_os2.c **** 
 497:Firmware/Middlewares/Third_Party/FreeRTOS/Source/CMSIS_RTOS_V2/cmsis_os2.c ****   return (state);
 1814              		.loc 1 497 0
 1815 008c FB69     		ldr	r3, [r7, #28]
 498:Firmware/Middlewares/Third_Party/FreeRTOS/Source/CMSIS_RTOS_V2/cmsis_os2.c **** }
 1816              		.loc 1 498 0
 1817 008e 1846     		mov	r0, r3
 1818 0090 2037     		adds	r7, r7, #32
 1819              	.LCFI72:
 1820              		.cfi_def_cfa_offset 8
 1821 0092 BD46     		mov	sp, r7
 1822              	.LCFI73:
 1823              		.cfi_def_cfa_register 13
 1824              		@ sp needed
 1825 0094 80BD     		pop	{r7, pc}
 1826              	.L166:
 1827 0096 00BF     		.align	2
 1828              	.L165:
 1829 0098 00000000 		.word	KernelState
 1830              		.cfi_endproc
 1831              	.LFE120:
 1833              		.section	.text.osThreadGetStackSpace,"ax",%progbits
 1834              		.align	1
 1835              		.global	osThreadGetStackSpace
 1836              		.syntax unified
 1837              		.thumb
 1838              		.thumb_func
 1839              		.fpu fpv4-sp-d16
 1841              	osThreadGetStackSpace:
 1842              	.LFB121:
 499:Firmware/Middlewares/Third_Party/FreeRTOS/Source/CMSIS_RTOS_V2/cmsis_os2.c **** 
 500:Firmware/Middlewares/Third_Party/FreeRTOS/Source/CMSIS_RTOS_V2/cmsis_os2.c **** uint32_t osThreadGetStackSpace (osThreadId_t thread_id) {
 1843              		.loc 1 500 0
 1844              		.cfi_startproc
 1845              		@ args = 0, pretend = 0, frame = 32
 1846              		@ frame_needed = 1, uses_anonymous_args = 0
 1847 0000 80B5     		push	{r7, lr}
 1848              	.LCFI74:
 1849              		.cfi_def_cfa_offset 8
 1850              		.cfi_offset 7, -8
 1851              		.cfi_offset 14, -4
 1852 0002 88B0     		sub	sp, sp, #32
 1853              	.LCFI75:
 1854              		.cfi_def_cfa_offset 40
 1855 0004 00AF     		add	r7, sp, #0
 1856              	.LCFI76:
 1857              		.cfi_def_cfa_register 7
ARM GAS  /tmp/ccB5BhZs.s 			page 55


 1858 0006 7860     		str	r0, [r7, #4]
 501:Firmware/Middlewares/Third_Party/FreeRTOS/Source/CMSIS_RTOS_V2/cmsis_os2.c ****   TaskHandle_t hTask = (TaskHandle_t)thread_id;
 1859              		.loc 1 501 0
 1860 0008 7B68     		ldr	r3, [r7, #4]
 1861 000a BB61     		str	r3, [r7, #24]
 1862              	.LBB398:
 1863              	.LBB399:
 209:Firmware/Drivers/CMSIS/Include/cmsis_gcc.h ****   return(result);
 1864              		.loc 2 209 0
 1865              		.syntax unified
 1866              	@ 209 "Firmware/Drivers/CMSIS/Include/cmsis_gcc.h" 1
 1867 000c EFF30583 		MRS r3, ipsr
 1868              	@ 0 "" 2
 1869              		.thumb
 1870              		.syntax unified
 1871 0010 7B61     		str	r3, [r7, #20]
 210:Firmware/Drivers/CMSIS/Include/cmsis_gcc.h **** }
 1872              		.loc 2 210 0
 1873 0012 7B69     		ldr	r3, [r7, #20]
 1874              	.LBE399:
 1875              	.LBE398:
 502:Firmware/Middlewares/Third_Party/FreeRTOS/Source/CMSIS_RTOS_V2/cmsis_os2.c ****   uint32_t sz;
 503:Firmware/Middlewares/Third_Party/FreeRTOS/Source/CMSIS_RTOS_V2/cmsis_os2.c **** 
 504:Firmware/Middlewares/Third_Party/FreeRTOS/Source/CMSIS_RTOS_V2/cmsis_os2.c ****   if (IS_IRQ() || (hTask == NULL)) {
 1876              		.loc 1 504 0
 1877 0014 002B     		cmp	r3, #0
 1878 0016 12D1     		bne	.L169
 1879              	.LBB400:
 1880              	.LBB401:
 386:Firmware/Drivers/CMSIS/Include/cmsis_gcc.h ****   return(result);
 1881              		.loc 2 386 0 discriminator 1
 1882              		.syntax unified
 1883              	@ 386 "Firmware/Drivers/CMSIS/Include/cmsis_gcc.h" 1
 1884 0018 EFF31083 		MRS r3, primask
 1885              	@ 0 "" 2
 1886              		.thumb
 1887              		.syntax unified
 1888 001c 3B61     		str	r3, [r7, #16]
 387:Firmware/Drivers/CMSIS/Include/cmsis_gcc.h **** }
 1889              		.loc 2 387 0 discriminator 1
 1890 001e 3B69     		ldr	r3, [r7, #16]
 1891              	.LBE401:
 1892              	.LBE400:
 1893              		.loc 1 504 0 discriminator 1
 1894 0020 002B     		cmp	r3, #0
 1895 0022 0CD1     		bne	.L169
 1896              		.loc 1 504 0 is_stmt 0 discriminator 2
 1897 0024 0C4B     		ldr	r3, .L176
 1898 0026 1B68     		ldr	r3, [r3]
 1899 0028 022B     		cmp	r3, #2
 1900 002a 05D1     		bne	.L171
 1901              	.LBB402:
 1902              	.LBB403:
 465:Firmware/Drivers/CMSIS/Include/cmsis_gcc.h ****   return(result);
 1903              		.loc 2 465 0 is_stmt 1 discriminator 3
 1904              		.syntax unified
 1905              	@ 465 "Firmware/Drivers/CMSIS/Include/cmsis_gcc.h" 1
ARM GAS  /tmp/ccB5BhZs.s 			page 56


 1906 002c EFF31183 		MRS r3, basepri
 1907              	@ 0 "" 2
 1908              		.thumb
 1909              		.syntax unified
 1910 0030 FB60     		str	r3, [r7, #12]
 1911              		.loc 2 466 0 discriminator 3
 1912 0032 FB68     		ldr	r3, [r7, #12]
 1913              	.LBE403:
 1914              	.LBE402:
 1915              		.loc 1 504 0 discriminator 3
 1916 0034 002B     		cmp	r3, #0
 1917 0036 02D1     		bne	.L169
 1918              	.L171:
 1919              		.loc 1 504 0 is_stmt 0 discriminator 5
 1920 0038 BB69     		ldr	r3, [r7, #24]
 1921 003a 002B     		cmp	r3, #0
 1922 003c 02D1     		bne	.L173
 1923              	.L169:
 505:Firmware/Middlewares/Third_Party/FreeRTOS/Source/CMSIS_RTOS_V2/cmsis_os2.c ****     sz = 0U;
 1924              		.loc 1 505 0 is_stmt 1
 1925 003e 0023     		movs	r3, #0
 1926 0040 FB61     		str	r3, [r7, #28]
 1927 0042 03E0     		b	.L174
 1928              	.L173:
 506:Firmware/Middlewares/Third_Party/FreeRTOS/Source/CMSIS_RTOS_V2/cmsis_os2.c ****   } else {
 507:Firmware/Middlewares/Third_Party/FreeRTOS/Source/CMSIS_RTOS_V2/cmsis_os2.c ****     sz = (uint32_t)uxTaskGetStackHighWaterMark (hTask);
 1929              		.loc 1 507 0
 1930 0044 B869     		ldr	r0, [r7, #24]
 1931 0046 FFF7FEFF 		bl	uxTaskGetStackHighWaterMark
 1932 004a F861     		str	r0, [r7, #28]
 1933              	.L174:
 508:Firmware/Middlewares/Third_Party/FreeRTOS/Source/CMSIS_RTOS_V2/cmsis_os2.c ****   }
 509:Firmware/Middlewares/Third_Party/FreeRTOS/Source/CMSIS_RTOS_V2/cmsis_os2.c **** 
 510:Firmware/Middlewares/Third_Party/FreeRTOS/Source/CMSIS_RTOS_V2/cmsis_os2.c ****   return (sz);
 1934              		.loc 1 510 0
 1935 004c FB69     		ldr	r3, [r7, #28]
 511:Firmware/Middlewares/Third_Party/FreeRTOS/Source/CMSIS_RTOS_V2/cmsis_os2.c **** }
 1936              		.loc 1 511 0
 1937 004e 1846     		mov	r0, r3
 1938 0050 2037     		adds	r7, r7, #32
 1939              	.LCFI77:
 1940              		.cfi_def_cfa_offset 8
 1941 0052 BD46     		mov	sp, r7
 1942              	.LCFI78:
 1943              		.cfi_def_cfa_register 13
 1944              		@ sp needed
 1945 0054 80BD     		pop	{r7, pc}
 1946              	.L177:
 1947 0056 00BF     		.align	2
 1948              	.L176:
 1949 0058 00000000 		.word	KernelState
 1950              		.cfi_endproc
 1951              	.LFE121:
 1953              		.section	.text.osThreadGetStackSize,"ax",%progbits
 1954              		.align	1
 1955              		.global	osThreadGetStackSize
 1956              		.syntax unified
ARM GAS  /tmp/ccB5BhZs.s 			page 57


 1957              		.thumb
 1958              		.thumb_func
 1959              		.fpu fpv4-sp-d16
 1961              	osThreadGetStackSize:
 1962              	.LFB122:
 512:Firmware/Middlewares/Third_Party/FreeRTOS/Source/CMSIS_RTOS_V2/cmsis_os2.c **** 
 513:Firmware/Middlewares/Third_Party/FreeRTOS/Source/CMSIS_RTOS_V2/cmsis_os2.c **** uint32_t osThreadGetStackSize	(osThreadId_t thread_id) {
 1963              		.loc 1 513 0
 1964              		.cfi_startproc
 1965              		@ args = 0, pretend = 0, frame = 8
 1966              		@ frame_needed = 1, uses_anonymous_args = 0
 1967              		@ link register save eliminated.
 1968 0000 80B4     		push	{r7}
 1969              	.LCFI79:
 1970              		.cfi_def_cfa_offset 4
 1971              		.cfi_offset 7, -4
 1972 0002 83B0     		sub	sp, sp, #12
 1973              	.LCFI80:
 1974              		.cfi_def_cfa_offset 16
 1975 0004 00AF     		add	r7, sp, #0
 1976              	.LCFI81:
 1977              		.cfi_def_cfa_register 7
 1978 0006 7860     		str	r0, [r7, #4]
 514:Firmware/Middlewares/Third_Party/FreeRTOS/Source/CMSIS_RTOS_V2/cmsis_os2.c ****   /*
 515:Firmware/Middlewares/Third_Party/FreeRTOS/Source/CMSIS_RTOS_V2/cmsis_os2.c ****    * this implmentation is not correct.
 516:Firmware/Middlewares/Third_Party/FreeRTOS/Source/CMSIS_RTOS_V2/cmsis_os2.c ****    * this function is implmented to avoid link errors (undefined reference)
 517:Firmware/Middlewares/Third_Party/FreeRTOS/Source/CMSIS_RTOS_V2/cmsis_os2.c ****    * Bug reported : https://github.com/ARM-software/CMSIS-FreeRTOS/issues/14
 518:Firmware/Middlewares/Third_Party/FreeRTOS/Source/CMSIS_RTOS_V2/cmsis_os2.c ****    */
 519:Firmware/Middlewares/Third_Party/FreeRTOS/Source/CMSIS_RTOS_V2/cmsis_os2.c ****   (void) thread_id;
 520:Firmware/Middlewares/Third_Party/FreeRTOS/Source/CMSIS_RTOS_V2/cmsis_os2.c ****   return 0;
 1979              		.loc 1 520 0
 1980 0008 0023     		movs	r3, #0
 521:Firmware/Middlewares/Third_Party/FreeRTOS/Source/CMSIS_RTOS_V2/cmsis_os2.c **** }
 1981              		.loc 1 521 0
 1982 000a 1846     		mov	r0, r3
 1983 000c 0C37     		adds	r7, r7, #12
 1984              	.LCFI82:
 1985              		.cfi_def_cfa_offset 4
 1986 000e BD46     		mov	sp, r7
 1987              	.LCFI83:
 1988              		.cfi_def_cfa_register 13
 1989              		@ sp needed
 1990 0010 5DF8047B 		ldr	r7, [sp], #4
 1991              	.LCFI84:
 1992              		.cfi_restore 7
 1993              		.cfi_def_cfa_offset 0
 1994 0014 7047     		bx	lr
 1995              		.cfi_endproc
 1996              	.LFE122:
 1998              		.section	.text.osThreadSetPriority,"ax",%progbits
 1999              		.align	1
 2000              		.global	osThreadSetPriority
 2001              		.syntax unified
 2002              		.thumb
 2003              		.thumb_func
 2004              		.fpu fpv4-sp-d16
 2006              	osThreadSetPriority:
ARM GAS  /tmp/ccB5BhZs.s 			page 58


 2007              	.LFB123:
 522:Firmware/Middlewares/Third_Party/FreeRTOS/Source/CMSIS_RTOS_V2/cmsis_os2.c **** 
 523:Firmware/Middlewares/Third_Party/FreeRTOS/Source/CMSIS_RTOS_V2/cmsis_os2.c **** osStatus_t osThreadSetPriority (osThreadId_t thread_id, osPriority_t priority) {
 2008              		.loc 1 523 0
 2009              		.cfi_startproc
 2010              		@ args = 0, pretend = 0, frame = 32
 2011              		@ frame_needed = 1, uses_anonymous_args = 0
 2012 0000 80B5     		push	{r7, lr}
 2013              	.LCFI85:
 2014              		.cfi_def_cfa_offset 8
 2015              		.cfi_offset 7, -8
 2016              		.cfi_offset 14, -4
 2017 0002 88B0     		sub	sp, sp, #32
 2018              	.LCFI86:
 2019              		.cfi_def_cfa_offset 40
 2020 0004 00AF     		add	r7, sp, #0
 2021              	.LCFI87:
 2022              		.cfi_def_cfa_register 7
 2023 0006 7860     		str	r0, [r7, #4]
 2024 0008 3960     		str	r1, [r7]
 524:Firmware/Middlewares/Third_Party/FreeRTOS/Source/CMSIS_RTOS_V2/cmsis_os2.c ****   TaskHandle_t hTask = (TaskHandle_t)thread_id;
 2025              		.loc 1 524 0
 2026 000a 7B68     		ldr	r3, [r7, #4]
 2027 000c BB61     		str	r3, [r7, #24]
 2028              	.LBB404:
 2029              	.LBB405:
 209:Firmware/Drivers/CMSIS/Include/cmsis_gcc.h ****   return(result);
 2030              		.loc 2 209 0
 2031              		.syntax unified
 2032              	@ 209 "Firmware/Drivers/CMSIS/Include/cmsis_gcc.h" 1
 2033 000e EFF30583 		MRS r3, ipsr
 2034              	@ 0 "" 2
 2035              		.thumb
 2036              		.syntax unified
 2037 0012 7B61     		str	r3, [r7, #20]
 210:Firmware/Drivers/CMSIS/Include/cmsis_gcc.h **** }
 2038              		.loc 2 210 0
 2039 0014 7B69     		ldr	r3, [r7, #20]
 2040              	.LBE405:
 2041              	.LBE404:
 525:Firmware/Middlewares/Third_Party/FreeRTOS/Source/CMSIS_RTOS_V2/cmsis_os2.c ****   osStatus_t stat;
 526:Firmware/Middlewares/Third_Party/FreeRTOS/Source/CMSIS_RTOS_V2/cmsis_os2.c **** 
 527:Firmware/Middlewares/Third_Party/FreeRTOS/Source/CMSIS_RTOS_V2/cmsis_os2.c ****   if (IS_IRQ()) {
 2042              		.loc 1 527 0
 2043 0016 002B     		cmp	r3, #0
 2044 0018 0FD1     		bne	.L182
 2045              	.LBB406:
 2046              	.LBB407:
 386:Firmware/Drivers/CMSIS/Include/cmsis_gcc.h ****   return(result);
 2047              		.loc 2 386 0 discriminator 1
 2048              		.syntax unified
 2049              	@ 386 "Firmware/Drivers/CMSIS/Include/cmsis_gcc.h" 1
 2050 001a EFF31083 		MRS r3, primask
 2051              	@ 0 "" 2
 2052              		.thumb
 2053              		.syntax unified
 2054 001e 3B61     		str	r3, [r7, #16]
ARM GAS  /tmp/ccB5BhZs.s 			page 59


 387:Firmware/Drivers/CMSIS/Include/cmsis_gcc.h **** }
 2055              		.loc 2 387 0 discriminator 1
 2056 0020 3B69     		ldr	r3, [r7, #16]
 2057              	.LBE407:
 2058              	.LBE406:
 2059              		.loc 1 527 0 discriminator 1
 2060 0022 002B     		cmp	r3, #0
 2061 0024 09D1     		bne	.L182
 2062              		.loc 1 527 0 is_stmt 0 discriminator 2
 2063 0026 134B     		ldr	r3, .L190
 2064 0028 1B68     		ldr	r3, [r3]
 2065 002a 022B     		cmp	r3, #2
 2066 002c 09D1     		bne	.L184
 2067              	.LBB408:
 2068              	.LBB409:
 465:Firmware/Drivers/CMSIS/Include/cmsis_gcc.h ****   return(result);
 2069              		.loc 2 465 0 is_stmt 1 discriminator 3
 2070              		.syntax unified
 2071              	@ 465 "Firmware/Drivers/CMSIS/Include/cmsis_gcc.h" 1
 2072 002e EFF31183 		MRS r3, basepri
 2073              	@ 0 "" 2
 2074              		.thumb
 2075              		.syntax unified
 2076 0032 FB60     		str	r3, [r7, #12]
 2077              		.loc 2 466 0 discriminator 3
 2078 0034 FB68     		ldr	r3, [r7, #12]
 2079              	.LBE409:
 2080              	.LBE408:
 2081              		.loc 1 527 0 discriminator 3
 2082 0036 002B     		cmp	r3, #0
 2083 0038 03D0     		beq	.L184
 2084              	.L182:
 528:Firmware/Middlewares/Third_Party/FreeRTOS/Source/CMSIS_RTOS_V2/cmsis_os2.c ****     stat = osErrorISR;
 2085              		.loc 1 528 0
 2086 003a 6FF00503 		mvn	r3, #5
 2087 003e FB61     		str	r3, [r7, #28]
 2088 0040 13E0     		b	.L186
 2089              	.L184:
 529:Firmware/Middlewares/Third_Party/FreeRTOS/Source/CMSIS_RTOS_V2/cmsis_os2.c ****   }
 530:Firmware/Middlewares/Third_Party/FreeRTOS/Source/CMSIS_RTOS_V2/cmsis_os2.c ****   else if ((hTask == NULL) || (priority < osPriorityIdle) || (priority > osPriorityISR)) {
 2090              		.loc 1 530 0
 2091 0042 BB69     		ldr	r3, [r7, #24]
 2092 0044 002B     		cmp	r3, #0
 2093 0046 05D0     		beq	.L187
 2094              		.loc 1 530 0 is_stmt 0 discriminator 1
 2095 0048 3B68     		ldr	r3, [r7]
 2096 004a 002B     		cmp	r3, #0
 2097 004c 02DD     		ble	.L187
 2098              		.loc 1 530 0 discriminator 2
 2099 004e 3B68     		ldr	r3, [r7]
 2100 0050 382B     		cmp	r3, #56
 2101 0052 03DD     		ble	.L188
 2102              	.L187:
 531:Firmware/Middlewares/Third_Party/FreeRTOS/Source/CMSIS_RTOS_V2/cmsis_os2.c ****     stat = osErrorParameter;
 2103              		.loc 1 531 0 is_stmt 1
 2104 0054 6FF00303 		mvn	r3, #3
 2105 0058 FB61     		str	r3, [r7, #28]
ARM GAS  /tmp/ccB5BhZs.s 			page 60


 2106 005a 06E0     		b	.L186
 2107              	.L188:
 532:Firmware/Middlewares/Third_Party/FreeRTOS/Source/CMSIS_RTOS_V2/cmsis_os2.c ****   }
 533:Firmware/Middlewares/Third_Party/FreeRTOS/Source/CMSIS_RTOS_V2/cmsis_os2.c ****   else {
 534:Firmware/Middlewares/Third_Party/FreeRTOS/Source/CMSIS_RTOS_V2/cmsis_os2.c ****     stat = osOK;
 2108              		.loc 1 534 0
 2109 005c 0023     		movs	r3, #0
 2110 005e FB61     		str	r3, [r7, #28]
 535:Firmware/Middlewares/Third_Party/FreeRTOS/Source/CMSIS_RTOS_V2/cmsis_os2.c ****     vTaskPrioritySet (hTask, (UBaseType_t)priority);
 2111              		.loc 1 535 0
 2112 0060 3B68     		ldr	r3, [r7]
 2113 0062 1946     		mov	r1, r3
 2114 0064 B869     		ldr	r0, [r7, #24]
 2115 0066 FFF7FEFF 		bl	vTaskPrioritySet
 2116              	.L186:
 536:Firmware/Middlewares/Third_Party/FreeRTOS/Source/CMSIS_RTOS_V2/cmsis_os2.c ****   }
 537:Firmware/Middlewares/Third_Party/FreeRTOS/Source/CMSIS_RTOS_V2/cmsis_os2.c **** 
 538:Firmware/Middlewares/Third_Party/FreeRTOS/Source/CMSIS_RTOS_V2/cmsis_os2.c ****   return (stat);
 2117              		.loc 1 538 0
 2118 006a FB69     		ldr	r3, [r7, #28]
 539:Firmware/Middlewares/Third_Party/FreeRTOS/Source/CMSIS_RTOS_V2/cmsis_os2.c **** }
 2119              		.loc 1 539 0
 2120 006c 1846     		mov	r0, r3
 2121 006e 2037     		adds	r7, r7, #32
 2122              	.LCFI88:
 2123              		.cfi_def_cfa_offset 8
 2124 0070 BD46     		mov	sp, r7
 2125              	.LCFI89:
 2126              		.cfi_def_cfa_register 13
 2127              		@ sp needed
 2128 0072 80BD     		pop	{r7, pc}
 2129              	.L191:
 2130              		.align	2
 2131              	.L190:
 2132 0074 00000000 		.word	KernelState
 2133              		.cfi_endproc
 2134              	.LFE123:
 2136              		.section	.text.osThreadGetPriority,"ax",%progbits
 2137              		.align	1
 2138              		.global	osThreadGetPriority
 2139              		.syntax unified
 2140              		.thumb
 2141              		.thumb_func
 2142              		.fpu fpv4-sp-d16
 2144              	osThreadGetPriority:
 2145              	.LFB124:
 540:Firmware/Middlewares/Third_Party/FreeRTOS/Source/CMSIS_RTOS_V2/cmsis_os2.c **** 
 541:Firmware/Middlewares/Third_Party/FreeRTOS/Source/CMSIS_RTOS_V2/cmsis_os2.c **** osPriority_t osThreadGetPriority (osThreadId_t thread_id) {
 2146              		.loc 1 541 0
 2147              		.cfi_startproc
 2148              		@ args = 0, pretend = 0, frame = 32
 2149              		@ frame_needed = 1, uses_anonymous_args = 0
 2150 0000 80B5     		push	{r7, lr}
 2151              	.LCFI90:
 2152              		.cfi_def_cfa_offset 8
 2153              		.cfi_offset 7, -8
 2154              		.cfi_offset 14, -4
ARM GAS  /tmp/ccB5BhZs.s 			page 61


 2155 0002 88B0     		sub	sp, sp, #32
 2156              	.LCFI91:
 2157              		.cfi_def_cfa_offset 40
 2158 0004 00AF     		add	r7, sp, #0
 2159              	.LCFI92:
 2160              		.cfi_def_cfa_register 7
 2161 0006 7860     		str	r0, [r7, #4]
 542:Firmware/Middlewares/Third_Party/FreeRTOS/Source/CMSIS_RTOS_V2/cmsis_os2.c ****   TaskHandle_t hTask = (TaskHandle_t)thread_id;
 2162              		.loc 1 542 0
 2163 0008 7B68     		ldr	r3, [r7, #4]
 2164 000a BB61     		str	r3, [r7, #24]
 2165              	.LBB410:
 2166              	.LBB411:
 209:Firmware/Drivers/CMSIS/Include/cmsis_gcc.h ****   return(result);
 2167              		.loc 2 209 0
 2168              		.syntax unified
 2169              	@ 209 "Firmware/Drivers/CMSIS/Include/cmsis_gcc.h" 1
 2170 000c EFF30583 		MRS r3, ipsr
 2171              	@ 0 "" 2
 2172              		.thumb
 2173              		.syntax unified
 2174 0010 7B61     		str	r3, [r7, #20]
 210:Firmware/Drivers/CMSIS/Include/cmsis_gcc.h **** }
 2175              		.loc 2 210 0
 2176 0012 7B69     		ldr	r3, [r7, #20]
 2177              	.LBE411:
 2178              	.LBE410:
 543:Firmware/Middlewares/Third_Party/FreeRTOS/Source/CMSIS_RTOS_V2/cmsis_os2.c ****   osPriority_t prio;
 544:Firmware/Middlewares/Third_Party/FreeRTOS/Source/CMSIS_RTOS_V2/cmsis_os2.c **** 
 545:Firmware/Middlewares/Third_Party/FreeRTOS/Source/CMSIS_RTOS_V2/cmsis_os2.c ****   if (IS_IRQ() || (hTask == NULL)) {
 2179              		.loc 1 545 0
 2180 0014 002B     		cmp	r3, #0
 2181 0016 12D1     		bne	.L194
 2182              	.LBB412:
 2183              	.LBB413:
 386:Firmware/Drivers/CMSIS/Include/cmsis_gcc.h ****   return(result);
 2184              		.loc 2 386 0 discriminator 1
 2185              		.syntax unified
 2186              	@ 386 "Firmware/Drivers/CMSIS/Include/cmsis_gcc.h" 1
 2187 0018 EFF31083 		MRS r3, primask
 2188              	@ 0 "" 2
 2189              		.thumb
 2190              		.syntax unified
 2191 001c 3B61     		str	r3, [r7, #16]
 387:Firmware/Drivers/CMSIS/Include/cmsis_gcc.h **** }
 2192              		.loc 2 387 0 discriminator 1
 2193 001e 3B69     		ldr	r3, [r7, #16]
 2194              	.LBE413:
 2195              	.LBE412:
 2196              		.loc 1 545 0 discriminator 1
 2197 0020 002B     		cmp	r3, #0
 2198 0022 0CD1     		bne	.L194
 2199              		.loc 1 545 0 is_stmt 0 discriminator 2
 2200 0024 0D4B     		ldr	r3, .L201
 2201 0026 1B68     		ldr	r3, [r3]
 2202 0028 022B     		cmp	r3, #2
 2203 002a 05D1     		bne	.L196
ARM GAS  /tmp/ccB5BhZs.s 			page 62


 2204              	.LBB414:
 2205              	.LBB415:
 465:Firmware/Drivers/CMSIS/Include/cmsis_gcc.h ****   return(result);
 2206              		.loc 2 465 0 is_stmt 1 discriminator 3
 2207              		.syntax unified
 2208              	@ 465 "Firmware/Drivers/CMSIS/Include/cmsis_gcc.h" 1
 2209 002c EFF31183 		MRS r3, basepri
 2210              	@ 0 "" 2
 2211              		.thumb
 2212              		.syntax unified
 2213 0030 FB60     		str	r3, [r7, #12]
 2214              		.loc 2 466 0 discriminator 3
 2215 0032 FB68     		ldr	r3, [r7, #12]
 2216              	.LBE415:
 2217              	.LBE414:
 2218              		.loc 1 545 0 discriminator 3
 2219 0034 002B     		cmp	r3, #0
 2220 0036 02D1     		bne	.L194
 2221              	.L196:
 2222              		.loc 1 545 0 is_stmt 0 discriminator 5
 2223 0038 BB69     		ldr	r3, [r7, #24]
 2224 003a 002B     		cmp	r3, #0
 2225 003c 03D1     		bne	.L198
 2226              	.L194:
 546:Firmware/Middlewares/Third_Party/FreeRTOS/Source/CMSIS_RTOS_V2/cmsis_os2.c ****     prio = osPriorityError;
 2227              		.loc 1 546 0 is_stmt 1
 2228 003e 4FF0FF33 		mov	r3, #-1
 2229 0042 FB61     		str	r3, [r7, #28]
 2230 0044 04E0     		b	.L199
 2231              	.L198:
 547:Firmware/Middlewares/Third_Party/FreeRTOS/Source/CMSIS_RTOS_V2/cmsis_os2.c ****   } else {
 548:Firmware/Middlewares/Third_Party/FreeRTOS/Source/CMSIS_RTOS_V2/cmsis_os2.c ****     prio = (osPriority_t)uxTaskPriorityGet (hTask);
 2232              		.loc 1 548 0
 2233 0046 B869     		ldr	r0, [r7, #24]
 2234 0048 FFF7FEFF 		bl	uxTaskPriorityGet
 2235 004c 0346     		mov	r3, r0
 2236 004e FB61     		str	r3, [r7, #28]
 2237              	.L199:
 549:Firmware/Middlewares/Third_Party/FreeRTOS/Source/CMSIS_RTOS_V2/cmsis_os2.c ****   }
 550:Firmware/Middlewares/Third_Party/FreeRTOS/Source/CMSIS_RTOS_V2/cmsis_os2.c **** 
 551:Firmware/Middlewares/Third_Party/FreeRTOS/Source/CMSIS_RTOS_V2/cmsis_os2.c ****   return (prio);
 2238              		.loc 1 551 0
 2239 0050 FB69     		ldr	r3, [r7, #28]
 552:Firmware/Middlewares/Third_Party/FreeRTOS/Source/CMSIS_RTOS_V2/cmsis_os2.c **** }
 2240              		.loc 1 552 0
 2241 0052 1846     		mov	r0, r3
 2242 0054 2037     		adds	r7, r7, #32
 2243              	.LCFI93:
 2244              		.cfi_def_cfa_offset 8
 2245 0056 BD46     		mov	sp, r7
 2246              	.LCFI94:
 2247              		.cfi_def_cfa_register 13
 2248              		@ sp needed
 2249 0058 80BD     		pop	{r7, pc}
 2250              	.L202:
 2251 005a 00BF     		.align	2
 2252              	.L201:
ARM GAS  /tmp/ccB5BhZs.s 			page 63


 2253 005c 00000000 		.word	KernelState
 2254              		.cfi_endproc
 2255              	.LFE124:
 2257              		.section	.text.osThreadYield,"ax",%progbits
 2258              		.align	1
 2259              		.global	osThreadYield
 2260              		.syntax unified
 2261              		.thumb
 2262              		.thumb_func
 2263              		.fpu fpv4-sp-d16
 2265              	osThreadYield:
 2266              	.LFB125:
 553:Firmware/Middlewares/Third_Party/FreeRTOS/Source/CMSIS_RTOS_V2/cmsis_os2.c **** 
 554:Firmware/Middlewares/Third_Party/FreeRTOS/Source/CMSIS_RTOS_V2/cmsis_os2.c **** osStatus_t osThreadYield (void) {
 2267              		.loc 1 554 0
 2268              		.cfi_startproc
 2269              		@ args = 0, pretend = 0, frame = 16
 2270              		@ frame_needed = 1, uses_anonymous_args = 0
 2271              		@ link register save eliminated.
 2272 0000 80B4     		push	{r7}
 2273              	.LCFI95:
 2274              		.cfi_def_cfa_offset 4
 2275              		.cfi_offset 7, -4
 2276 0002 85B0     		sub	sp, sp, #20
 2277              	.LCFI96:
 2278              		.cfi_def_cfa_offset 24
 2279 0004 00AF     		add	r7, sp, #0
 2280              	.LCFI97:
 2281              		.cfi_def_cfa_register 7
 2282              	.LBB416:
 2283              	.LBB417:
 209:Firmware/Drivers/CMSIS/Include/cmsis_gcc.h ****   return(result);
 2284              		.loc 2 209 0
 2285              		.syntax unified
 2286              	@ 209 "Firmware/Drivers/CMSIS/Include/cmsis_gcc.h" 1
 2287 0006 EFF30583 		MRS r3, ipsr
 2288              	@ 0 "" 2
 2289              		.thumb
 2290              		.syntax unified
 2291 000a BB60     		str	r3, [r7, #8]
 210:Firmware/Drivers/CMSIS/Include/cmsis_gcc.h **** }
 2292              		.loc 2 210 0
 2293 000c BB68     		ldr	r3, [r7, #8]
 2294              	.LBE417:
 2295              	.LBE416:
 555:Firmware/Middlewares/Third_Party/FreeRTOS/Source/CMSIS_RTOS_V2/cmsis_os2.c ****   osStatus_t stat;
 556:Firmware/Middlewares/Third_Party/FreeRTOS/Source/CMSIS_RTOS_V2/cmsis_os2.c **** 
 557:Firmware/Middlewares/Third_Party/FreeRTOS/Source/CMSIS_RTOS_V2/cmsis_os2.c ****   if (IS_IRQ()) {
 2296              		.loc 1 557 0
 2297 000e 002B     		cmp	r3, #0
 2298 0010 0FD1     		bne	.L205
 2299              	.LBB418:
 2300              	.LBB419:
 386:Firmware/Drivers/CMSIS/Include/cmsis_gcc.h ****   return(result);
 2301              		.loc 2 386 0 discriminator 1
 2302              		.syntax unified
 2303              	@ 386 "Firmware/Drivers/CMSIS/Include/cmsis_gcc.h" 1
ARM GAS  /tmp/ccB5BhZs.s 			page 64


 2304 0012 EFF31083 		MRS r3, primask
 2305              	@ 0 "" 2
 2306              		.thumb
 2307              		.syntax unified
 2308 0016 7B60     		str	r3, [r7, #4]
 387:Firmware/Drivers/CMSIS/Include/cmsis_gcc.h **** }
 2309              		.loc 2 387 0 discriminator 1
 2310 0018 7B68     		ldr	r3, [r7, #4]
 2311              	.LBE419:
 2312              	.LBE418:
 2313              		.loc 1 557 0 discriminator 1
 2314 001a 002B     		cmp	r3, #0
 2315 001c 09D1     		bne	.L205
 2316              		.loc 1 557 0 is_stmt 0 discriminator 2
 2317 001e 0F4B     		ldr	r3, .L211
 2318 0020 1B68     		ldr	r3, [r3]
 2319 0022 022B     		cmp	r3, #2
 2320 0024 09D1     		bne	.L207
 2321              	.LBB420:
 2322              	.LBB421:
 465:Firmware/Drivers/CMSIS/Include/cmsis_gcc.h ****   return(result);
 2323              		.loc 2 465 0 is_stmt 1 discriminator 3
 2324              		.syntax unified
 2325              	@ 465 "Firmware/Drivers/CMSIS/Include/cmsis_gcc.h" 1
 2326 0026 EFF31183 		MRS r3, basepri
 2327              	@ 0 "" 2
 2328              		.thumb
 2329              		.syntax unified
 2330 002a 3B60     		str	r3, [r7]
 2331              		.loc 2 466 0 discriminator 3
 2332 002c 3B68     		ldr	r3, [r7]
 2333              	.LBE421:
 2334              	.LBE420:
 2335              		.loc 1 557 0 discriminator 3
 2336 002e 002B     		cmp	r3, #0
 2337 0030 03D0     		beq	.L207
 2338              	.L205:
 558:Firmware/Middlewares/Third_Party/FreeRTOS/Source/CMSIS_RTOS_V2/cmsis_os2.c ****     stat = osErrorISR;
 2339              		.loc 1 558 0
 2340 0032 6FF00503 		mvn	r3, #5
 2341 0036 FB60     		str	r3, [r7, #12]
 2342 0038 09E0     		b	.L209
 2343              	.L207:
 559:Firmware/Middlewares/Third_Party/FreeRTOS/Source/CMSIS_RTOS_V2/cmsis_os2.c ****   } else {
 560:Firmware/Middlewares/Third_Party/FreeRTOS/Source/CMSIS_RTOS_V2/cmsis_os2.c ****     stat = osOK;
 2344              		.loc 1 560 0
 2345 003a 0023     		movs	r3, #0
 2346 003c FB60     		str	r3, [r7, #12]
 561:Firmware/Middlewares/Third_Party/FreeRTOS/Source/CMSIS_RTOS_V2/cmsis_os2.c ****     taskYIELD();
 2347              		.loc 1 561 0
 2348 003e 084B     		ldr	r3, .L211+4
 2349 0040 4FF08052 		mov	r2, #268435456
 2350 0044 1A60     		str	r2, [r3]
 2351              		.syntax unified
 2352              	@ 561 "Firmware/Middlewares/Third_Party/FreeRTOS/Source/CMSIS_RTOS_V2/cmsis_os2.c" 1
 2353 0046 BFF34F8F 		dsb
 2354              	@ 0 "" 2
ARM GAS  /tmp/ccB5BhZs.s 			page 65


 2355              	@ 561 "Firmware/Middlewares/Third_Party/FreeRTOS/Source/CMSIS_RTOS_V2/cmsis_os2.c" 1
 2356 004a BFF36F8F 		isb
 2357              	@ 0 "" 2
 2358              		.thumb
 2359              		.syntax unified
 2360              	.L209:
 562:Firmware/Middlewares/Third_Party/FreeRTOS/Source/CMSIS_RTOS_V2/cmsis_os2.c ****   }
 563:Firmware/Middlewares/Third_Party/FreeRTOS/Source/CMSIS_RTOS_V2/cmsis_os2.c **** 
 564:Firmware/Middlewares/Third_Party/FreeRTOS/Source/CMSIS_RTOS_V2/cmsis_os2.c ****   return (stat);
 2361              		.loc 1 564 0
 2362 004e FB68     		ldr	r3, [r7, #12]
 565:Firmware/Middlewares/Third_Party/FreeRTOS/Source/CMSIS_RTOS_V2/cmsis_os2.c **** }
 2363              		.loc 1 565 0
 2364 0050 1846     		mov	r0, r3
 2365 0052 1437     		adds	r7, r7, #20
 2366              	.LCFI98:
 2367              		.cfi_def_cfa_offset 4
 2368 0054 BD46     		mov	sp, r7
 2369              	.LCFI99:
 2370              		.cfi_def_cfa_register 13
 2371              		@ sp needed
 2372 0056 5DF8047B 		ldr	r7, [sp], #4
 2373              	.LCFI100:
 2374              		.cfi_restore 7
 2375              		.cfi_def_cfa_offset 0
 2376 005a 7047     		bx	lr
 2377              	.L212:
 2378              		.align	2
 2379              	.L211:
 2380 005c 00000000 		.word	KernelState
 2381 0060 04ED00E0 		.word	-536810236
 2382              		.cfi_endproc
 2383              	.LFE125:
 2385              		.section	.text.osThreadSuspend,"ax",%progbits
 2386              		.align	1
 2387              		.global	osThreadSuspend
 2388              		.syntax unified
 2389              		.thumb
 2390              		.thumb_func
 2391              		.fpu fpv4-sp-d16
 2393              	osThreadSuspend:
 2394              	.LFB126:
 566:Firmware/Middlewares/Third_Party/FreeRTOS/Source/CMSIS_RTOS_V2/cmsis_os2.c **** 
 567:Firmware/Middlewares/Third_Party/FreeRTOS/Source/CMSIS_RTOS_V2/cmsis_os2.c **** osStatus_t osThreadSuspend (osThreadId_t thread_id) {
 2395              		.loc 1 567 0
 2396              		.cfi_startproc
 2397              		@ args = 0, pretend = 0, frame = 32
 2398              		@ frame_needed = 1, uses_anonymous_args = 0
 2399 0000 80B5     		push	{r7, lr}
 2400              	.LCFI101:
 2401              		.cfi_def_cfa_offset 8
 2402              		.cfi_offset 7, -8
 2403              		.cfi_offset 14, -4
 2404 0002 88B0     		sub	sp, sp, #32
 2405              	.LCFI102:
 2406              		.cfi_def_cfa_offset 40
 2407 0004 00AF     		add	r7, sp, #0
ARM GAS  /tmp/ccB5BhZs.s 			page 66


 2408              	.LCFI103:
 2409              		.cfi_def_cfa_register 7
 2410 0006 7860     		str	r0, [r7, #4]
 568:Firmware/Middlewares/Third_Party/FreeRTOS/Source/CMSIS_RTOS_V2/cmsis_os2.c ****   TaskHandle_t hTask = (TaskHandle_t)thread_id;
 2411              		.loc 1 568 0
 2412 0008 7B68     		ldr	r3, [r7, #4]
 2413 000a BB61     		str	r3, [r7, #24]
 2414              	.LBB422:
 2415              	.LBB423:
 209:Firmware/Drivers/CMSIS/Include/cmsis_gcc.h ****   return(result);
 2416              		.loc 2 209 0
 2417              		.syntax unified
 2418              	@ 209 "Firmware/Drivers/CMSIS/Include/cmsis_gcc.h" 1
 2419 000c EFF30583 		MRS r3, ipsr
 2420              	@ 0 "" 2
 2421              		.thumb
 2422              		.syntax unified
 2423 0010 7B61     		str	r3, [r7, #20]
 210:Firmware/Drivers/CMSIS/Include/cmsis_gcc.h **** }
 2424              		.loc 2 210 0
 2425 0012 7B69     		ldr	r3, [r7, #20]
 2426              	.LBE423:
 2427              	.LBE422:
 569:Firmware/Middlewares/Third_Party/FreeRTOS/Source/CMSIS_RTOS_V2/cmsis_os2.c ****   osStatus_t stat;
 570:Firmware/Middlewares/Third_Party/FreeRTOS/Source/CMSIS_RTOS_V2/cmsis_os2.c **** 
 571:Firmware/Middlewares/Third_Party/FreeRTOS/Source/CMSIS_RTOS_V2/cmsis_os2.c ****   if (IS_IRQ()) {
 2428              		.loc 1 571 0
 2429 0014 002B     		cmp	r3, #0
 2430 0016 0FD1     		bne	.L215
 2431              	.LBB424:
 2432              	.LBB425:
 386:Firmware/Drivers/CMSIS/Include/cmsis_gcc.h ****   return(result);
 2433              		.loc 2 386 0 discriminator 1
 2434              		.syntax unified
 2435              	@ 386 "Firmware/Drivers/CMSIS/Include/cmsis_gcc.h" 1
 2436 0018 EFF31083 		MRS r3, primask
 2437              	@ 0 "" 2
 2438              		.thumb
 2439              		.syntax unified
 2440 001c 3B61     		str	r3, [r7, #16]
 387:Firmware/Drivers/CMSIS/Include/cmsis_gcc.h **** }
 2441              		.loc 2 387 0 discriminator 1
 2442 001e 3B69     		ldr	r3, [r7, #16]
 2443              	.LBE425:
 2444              	.LBE424:
 2445              		.loc 1 571 0 discriminator 1
 2446 0020 002B     		cmp	r3, #0
 2447 0022 09D1     		bne	.L215
 2448              		.loc 1 571 0 is_stmt 0 discriminator 2
 2449 0024 0F4B     		ldr	r3, .L222
 2450 0026 1B68     		ldr	r3, [r3]
 2451 0028 022B     		cmp	r3, #2
 2452 002a 09D1     		bne	.L217
 2453              	.LBB426:
 2454              	.LBB427:
 465:Firmware/Drivers/CMSIS/Include/cmsis_gcc.h ****   return(result);
 2455              		.loc 2 465 0 is_stmt 1 discriminator 3
ARM GAS  /tmp/ccB5BhZs.s 			page 67


 2456              		.syntax unified
 2457              	@ 465 "Firmware/Drivers/CMSIS/Include/cmsis_gcc.h" 1
 2458 002c EFF31183 		MRS r3, basepri
 2459              	@ 0 "" 2
 2460              		.thumb
 2461              		.syntax unified
 2462 0030 FB60     		str	r3, [r7, #12]
 2463              		.loc 2 466 0 discriminator 3
 2464 0032 FB68     		ldr	r3, [r7, #12]
 2465              	.LBE427:
 2466              	.LBE426:
 2467              		.loc 1 571 0 discriminator 3
 2468 0034 002B     		cmp	r3, #0
 2469 0036 03D0     		beq	.L217
 2470              	.L215:
 572:Firmware/Middlewares/Third_Party/FreeRTOS/Source/CMSIS_RTOS_V2/cmsis_os2.c ****     stat = osErrorISR;
 2471              		.loc 1 572 0
 2472 0038 6FF00503 		mvn	r3, #5
 2473 003c FB61     		str	r3, [r7, #28]
 2474 003e 0BE0     		b	.L219
 2475              	.L217:
 573:Firmware/Middlewares/Third_Party/FreeRTOS/Source/CMSIS_RTOS_V2/cmsis_os2.c ****   }
 574:Firmware/Middlewares/Third_Party/FreeRTOS/Source/CMSIS_RTOS_V2/cmsis_os2.c ****   else if (hTask == NULL) {
 2476              		.loc 1 574 0
 2477 0040 BB69     		ldr	r3, [r7, #24]
 2478 0042 002B     		cmp	r3, #0
 2479 0044 03D1     		bne	.L220
 575:Firmware/Middlewares/Third_Party/FreeRTOS/Source/CMSIS_RTOS_V2/cmsis_os2.c ****     stat = osErrorParameter;
 2480              		.loc 1 575 0
 2481 0046 6FF00303 		mvn	r3, #3
 2482 004a FB61     		str	r3, [r7, #28]
 2483 004c 04E0     		b	.L219
 2484              	.L220:
 576:Firmware/Middlewares/Third_Party/FreeRTOS/Source/CMSIS_RTOS_V2/cmsis_os2.c ****   }
 577:Firmware/Middlewares/Third_Party/FreeRTOS/Source/CMSIS_RTOS_V2/cmsis_os2.c ****   else {
 578:Firmware/Middlewares/Third_Party/FreeRTOS/Source/CMSIS_RTOS_V2/cmsis_os2.c ****     stat = osOK;
 2485              		.loc 1 578 0
 2486 004e 0023     		movs	r3, #0
 2487 0050 FB61     		str	r3, [r7, #28]
 579:Firmware/Middlewares/Third_Party/FreeRTOS/Source/CMSIS_RTOS_V2/cmsis_os2.c ****     vTaskSuspend (hTask);
 2488              		.loc 1 579 0
 2489 0052 B869     		ldr	r0, [r7, #24]
 2490 0054 FFF7FEFF 		bl	vTaskSuspend
 2491              	.L219:
 580:Firmware/Middlewares/Third_Party/FreeRTOS/Source/CMSIS_RTOS_V2/cmsis_os2.c ****   }
 581:Firmware/Middlewares/Third_Party/FreeRTOS/Source/CMSIS_RTOS_V2/cmsis_os2.c **** 
 582:Firmware/Middlewares/Third_Party/FreeRTOS/Source/CMSIS_RTOS_V2/cmsis_os2.c ****   return (stat);
 2492              		.loc 1 582 0
 2493 0058 FB69     		ldr	r3, [r7, #28]
 583:Firmware/Middlewares/Third_Party/FreeRTOS/Source/CMSIS_RTOS_V2/cmsis_os2.c **** }
 2494              		.loc 1 583 0
 2495 005a 1846     		mov	r0, r3
 2496 005c 2037     		adds	r7, r7, #32
 2497              	.LCFI104:
 2498              		.cfi_def_cfa_offset 8
 2499 005e BD46     		mov	sp, r7
 2500              	.LCFI105:
ARM GAS  /tmp/ccB5BhZs.s 			page 68


 2501              		.cfi_def_cfa_register 13
 2502              		@ sp needed
 2503 0060 80BD     		pop	{r7, pc}
 2504              	.L223:
 2505 0062 00BF     		.align	2
 2506              	.L222:
 2507 0064 00000000 		.word	KernelState
 2508              		.cfi_endproc
 2509              	.LFE126:
 2511              		.section	.text.osThreadResume,"ax",%progbits
 2512              		.align	1
 2513              		.global	osThreadResume
 2514              		.syntax unified
 2515              		.thumb
 2516              		.thumb_func
 2517              		.fpu fpv4-sp-d16
 2519              	osThreadResume:
 2520              	.LFB127:
 584:Firmware/Middlewares/Third_Party/FreeRTOS/Source/CMSIS_RTOS_V2/cmsis_os2.c **** 
 585:Firmware/Middlewares/Third_Party/FreeRTOS/Source/CMSIS_RTOS_V2/cmsis_os2.c **** osStatus_t osThreadResume (osThreadId_t thread_id) {
 2521              		.loc 1 585 0
 2522              		.cfi_startproc
 2523              		@ args = 0, pretend = 0, frame = 32
 2524              		@ frame_needed = 1, uses_anonymous_args = 0
 2525 0000 80B5     		push	{r7, lr}
 2526              	.LCFI106:
 2527              		.cfi_def_cfa_offset 8
 2528              		.cfi_offset 7, -8
 2529              		.cfi_offset 14, -4
 2530 0002 88B0     		sub	sp, sp, #32
 2531              	.LCFI107:
 2532              		.cfi_def_cfa_offset 40
 2533 0004 00AF     		add	r7, sp, #0
 2534              	.LCFI108:
 2535              		.cfi_def_cfa_register 7
 2536 0006 7860     		str	r0, [r7, #4]
 586:Firmware/Middlewares/Third_Party/FreeRTOS/Source/CMSIS_RTOS_V2/cmsis_os2.c ****   TaskHandle_t hTask = (TaskHandle_t)thread_id;
 2537              		.loc 1 586 0
 2538 0008 7B68     		ldr	r3, [r7, #4]
 2539 000a BB61     		str	r3, [r7, #24]
 2540              	.LBB428:
 2541              	.LBB429:
 209:Firmware/Drivers/CMSIS/Include/cmsis_gcc.h ****   return(result);
 2542              		.loc 2 209 0
 2543              		.syntax unified
 2544              	@ 209 "Firmware/Drivers/CMSIS/Include/cmsis_gcc.h" 1
 2545 000c EFF30583 		MRS r3, ipsr
 2546              	@ 0 "" 2
 2547              		.thumb
 2548              		.syntax unified
 2549 0010 7B61     		str	r3, [r7, #20]
 210:Firmware/Drivers/CMSIS/Include/cmsis_gcc.h **** }
 2550              		.loc 2 210 0
 2551 0012 7B69     		ldr	r3, [r7, #20]
 2552              	.LBE429:
 2553              	.LBE428:
 587:Firmware/Middlewares/Third_Party/FreeRTOS/Source/CMSIS_RTOS_V2/cmsis_os2.c ****   osStatus_t stat;
ARM GAS  /tmp/ccB5BhZs.s 			page 69


 588:Firmware/Middlewares/Third_Party/FreeRTOS/Source/CMSIS_RTOS_V2/cmsis_os2.c **** 
 589:Firmware/Middlewares/Third_Party/FreeRTOS/Source/CMSIS_RTOS_V2/cmsis_os2.c ****   if (IS_IRQ()) {
 2554              		.loc 1 589 0
 2555 0014 002B     		cmp	r3, #0
 2556 0016 0FD1     		bne	.L226
 2557              	.LBB430:
 2558              	.LBB431:
 386:Firmware/Drivers/CMSIS/Include/cmsis_gcc.h ****   return(result);
 2559              		.loc 2 386 0 discriminator 1
 2560              		.syntax unified
 2561              	@ 386 "Firmware/Drivers/CMSIS/Include/cmsis_gcc.h" 1
 2562 0018 EFF31083 		MRS r3, primask
 2563              	@ 0 "" 2
 2564              		.thumb
 2565              		.syntax unified
 2566 001c 3B61     		str	r3, [r7, #16]
 387:Firmware/Drivers/CMSIS/Include/cmsis_gcc.h **** }
 2567              		.loc 2 387 0 discriminator 1
 2568 001e 3B69     		ldr	r3, [r7, #16]
 2569              	.LBE431:
 2570              	.LBE430:
 2571              		.loc 1 589 0 discriminator 1
 2572 0020 002B     		cmp	r3, #0
 2573 0022 09D1     		bne	.L226
 2574              		.loc 1 589 0 is_stmt 0 discriminator 2
 2575 0024 0F4B     		ldr	r3, .L233
 2576 0026 1B68     		ldr	r3, [r3]
 2577 0028 022B     		cmp	r3, #2
 2578 002a 09D1     		bne	.L228
 2579              	.LBB432:
 2580              	.LBB433:
 465:Firmware/Drivers/CMSIS/Include/cmsis_gcc.h ****   return(result);
 2581              		.loc 2 465 0 is_stmt 1 discriminator 3
 2582              		.syntax unified
 2583              	@ 465 "Firmware/Drivers/CMSIS/Include/cmsis_gcc.h" 1
 2584 002c EFF31183 		MRS r3, basepri
 2585              	@ 0 "" 2
 2586              		.thumb
 2587              		.syntax unified
 2588 0030 FB60     		str	r3, [r7, #12]
 2589              		.loc 2 466 0 discriminator 3
 2590 0032 FB68     		ldr	r3, [r7, #12]
 2591              	.LBE433:
 2592              	.LBE432:
 2593              		.loc 1 589 0 discriminator 3
 2594 0034 002B     		cmp	r3, #0
 2595 0036 03D0     		beq	.L228
 2596              	.L226:
 590:Firmware/Middlewares/Third_Party/FreeRTOS/Source/CMSIS_RTOS_V2/cmsis_os2.c ****     stat = osErrorISR;
 2597              		.loc 1 590 0
 2598 0038 6FF00503 		mvn	r3, #5
 2599 003c FB61     		str	r3, [r7, #28]
 2600 003e 0BE0     		b	.L230
 2601              	.L228:
 591:Firmware/Middlewares/Third_Party/FreeRTOS/Source/CMSIS_RTOS_V2/cmsis_os2.c ****   }
 592:Firmware/Middlewares/Third_Party/FreeRTOS/Source/CMSIS_RTOS_V2/cmsis_os2.c ****   else if (hTask == NULL) {
 2602              		.loc 1 592 0
ARM GAS  /tmp/ccB5BhZs.s 			page 70


 2603 0040 BB69     		ldr	r3, [r7, #24]
 2604 0042 002B     		cmp	r3, #0
 2605 0044 03D1     		bne	.L231
 593:Firmware/Middlewares/Third_Party/FreeRTOS/Source/CMSIS_RTOS_V2/cmsis_os2.c ****     stat = osErrorParameter;
 2606              		.loc 1 593 0
 2607 0046 6FF00303 		mvn	r3, #3
 2608 004a FB61     		str	r3, [r7, #28]
 2609 004c 04E0     		b	.L230
 2610              	.L231:
 594:Firmware/Middlewares/Third_Party/FreeRTOS/Source/CMSIS_RTOS_V2/cmsis_os2.c ****   }
 595:Firmware/Middlewares/Third_Party/FreeRTOS/Source/CMSIS_RTOS_V2/cmsis_os2.c ****   else {
 596:Firmware/Middlewares/Third_Party/FreeRTOS/Source/CMSIS_RTOS_V2/cmsis_os2.c ****     stat = osOK;
 2611              		.loc 1 596 0
 2612 004e 0023     		movs	r3, #0
 2613 0050 FB61     		str	r3, [r7, #28]
 597:Firmware/Middlewares/Third_Party/FreeRTOS/Source/CMSIS_RTOS_V2/cmsis_os2.c ****     vTaskResume (hTask);
 2614              		.loc 1 597 0
 2615 0052 B869     		ldr	r0, [r7, #24]
 2616 0054 FFF7FEFF 		bl	vTaskResume
 2617              	.L230:
 598:Firmware/Middlewares/Third_Party/FreeRTOS/Source/CMSIS_RTOS_V2/cmsis_os2.c ****   }
 599:Firmware/Middlewares/Third_Party/FreeRTOS/Source/CMSIS_RTOS_V2/cmsis_os2.c **** 
 600:Firmware/Middlewares/Third_Party/FreeRTOS/Source/CMSIS_RTOS_V2/cmsis_os2.c ****   return (stat);
 2618              		.loc 1 600 0
 2619 0058 FB69     		ldr	r3, [r7, #28]
 601:Firmware/Middlewares/Third_Party/FreeRTOS/Source/CMSIS_RTOS_V2/cmsis_os2.c **** }
 2620              		.loc 1 601 0
 2621 005a 1846     		mov	r0, r3
 2622 005c 2037     		adds	r7, r7, #32
 2623              	.LCFI109:
 2624              		.cfi_def_cfa_offset 8
 2625 005e BD46     		mov	sp, r7
 2626              	.LCFI110:
 2627              		.cfi_def_cfa_register 13
 2628              		@ sp needed
 2629 0060 80BD     		pop	{r7, pc}
 2630              	.L234:
 2631 0062 00BF     		.align	2
 2632              	.L233:
 2633 0064 00000000 		.word	KernelState
 2634              		.cfi_endproc
 2635              	.LFE127:
 2637              		.section	.text.osThreadExit,"ax",%progbits
 2638              		.align	1
 2639              		.global	osThreadExit
 2640              		.syntax unified
 2641              		.thumb
 2642              		.thumb_func
 2643              		.fpu fpv4-sp-d16
 2645              	osThreadExit:
 2646              	.LFB128:
 602:Firmware/Middlewares/Third_Party/FreeRTOS/Source/CMSIS_RTOS_V2/cmsis_os2.c **** 
 603:Firmware/Middlewares/Third_Party/FreeRTOS/Source/CMSIS_RTOS_V2/cmsis_os2.c **** __NO_RETURN void osThreadExit (void) {
 2647              		.loc 1 603 0
 2648              		.cfi_startproc
 2649              		@ args = 0, pretend = 0, frame = 0
 2650              		@ frame_needed = 1, uses_anonymous_args = 0
ARM GAS  /tmp/ccB5BhZs.s 			page 71


 2651 0000 80B5     		push	{r7, lr}
 2652              	.LCFI111:
 2653              		.cfi_def_cfa_offset 8
 2654              		.cfi_offset 7, -8
 2655              		.cfi_offset 14, -4
 2656 0002 00AF     		add	r7, sp, #0
 2657              	.LCFI112:
 2658              		.cfi_def_cfa_register 7
 604:Firmware/Middlewares/Third_Party/FreeRTOS/Source/CMSIS_RTOS_V2/cmsis_os2.c **** #ifndef USE_FreeRTOS_HEAP_1
 605:Firmware/Middlewares/Third_Party/FreeRTOS/Source/CMSIS_RTOS_V2/cmsis_os2.c ****   vTaskDelete (NULL);
 2659              		.loc 1 605 0
 2660 0004 0020     		movs	r0, #0
 2661 0006 FFF7FEFF 		bl	vTaskDelete
 2662              	.L236:
 606:Firmware/Middlewares/Third_Party/FreeRTOS/Source/CMSIS_RTOS_V2/cmsis_os2.c **** #endif
 607:Firmware/Middlewares/Third_Party/FreeRTOS/Source/CMSIS_RTOS_V2/cmsis_os2.c ****   for (;;);
 2663              		.loc 1 607 0 discriminator 1
 2664 000a FEE7     		b	.L236
 2665              		.cfi_endproc
 2666              	.LFE128:
 2668              		.section	.text.osThreadTerminate,"ax",%progbits
 2669              		.align	1
 2670              		.global	osThreadTerminate
 2671              		.syntax unified
 2672              		.thumb
 2673              		.thumb_func
 2674              		.fpu fpv4-sp-d16
 2676              	osThreadTerminate:
 2677              	.LFB129:
 608:Firmware/Middlewares/Third_Party/FreeRTOS/Source/CMSIS_RTOS_V2/cmsis_os2.c **** }
 609:Firmware/Middlewares/Third_Party/FreeRTOS/Source/CMSIS_RTOS_V2/cmsis_os2.c **** 
 610:Firmware/Middlewares/Third_Party/FreeRTOS/Source/CMSIS_RTOS_V2/cmsis_os2.c **** osStatus_t osThreadTerminate (osThreadId_t thread_id) {
 2678              		.loc 1 610 0
 2679              		.cfi_startproc
 2680              		@ args = 0, pretend = 0, frame = 32
 2681              		@ frame_needed = 1, uses_anonymous_args = 0
 2682 0000 80B5     		push	{r7, lr}
 2683              	.LCFI113:
 2684              		.cfi_def_cfa_offset 8
 2685              		.cfi_offset 7, -8
 2686              		.cfi_offset 14, -4
 2687 0002 88B0     		sub	sp, sp, #32
 2688              	.LCFI114:
 2689              		.cfi_def_cfa_offset 40
 2690 0004 00AF     		add	r7, sp, #0
 2691              	.LCFI115:
 2692              		.cfi_def_cfa_register 7
 2693 0006 7860     		str	r0, [r7, #4]
 611:Firmware/Middlewares/Third_Party/FreeRTOS/Source/CMSIS_RTOS_V2/cmsis_os2.c ****   TaskHandle_t hTask = (TaskHandle_t)thread_id;
 2694              		.loc 1 611 0
 2695 0008 7B68     		ldr	r3, [r7, #4]
 2696 000a BB61     		str	r3, [r7, #24]
 2697              	.LBB434:
 2698              	.LBB435:
 209:Firmware/Drivers/CMSIS/Include/cmsis_gcc.h ****   return(result);
 2699              		.loc 2 209 0
 2700              		.syntax unified
ARM GAS  /tmp/ccB5BhZs.s 			page 72


 2701              	@ 209 "Firmware/Drivers/CMSIS/Include/cmsis_gcc.h" 1
 2702 000c EFF30583 		MRS r3, ipsr
 2703              	@ 0 "" 2
 2704              		.thumb
 2705              		.syntax unified
 2706 0010 3B61     		str	r3, [r7, #16]
 210:Firmware/Drivers/CMSIS/Include/cmsis_gcc.h **** }
 2707              		.loc 2 210 0
 2708 0012 3B69     		ldr	r3, [r7, #16]
 2709              	.LBE435:
 2710              	.LBE434:
 612:Firmware/Middlewares/Third_Party/FreeRTOS/Source/CMSIS_RTOS_V2/cmsis_os2.c ****   osStatus_t stat;
 613:Firmware/Middlewares/Third_Party/FreeRTOS/Source/CMSIS_RTOS_V2/cmsis_os2.c **** #ifndef USE_FreeRTOS_HEAP_1
 614:Firmware/Middlewares/Third_Party/FreeRTOS/Source/CMSIS_RTOS_V2/cmsis_os2.c ****   eTaskState tstate;
 615:Firmware/Middlewares/Third_Party/FreeRTOS/Source/CMSIS_RTOS_V2/cmsis_os2.c **** 
 616:Firmware/Middlewares/Third_Party/FreeRTOS/Source/CMSIS_RTOS_V2/cmsis_os2.c ****   if (IS_IRQ()) {
 2711              		.loc 1 616 0
 2712 0014 002B     		cmp	r3, #0
 2713 0016 0FD1     		bne	.L239
 2714              	.LBB436:
 2715              	.LBB437:
 386:Firmware/Drivers/CMSIS/Include/cmsis_gcc.h ****   return(result);
 2716              		.loc 2 386 0 discriminator 1
 2717              		.syntax unified
 2718              	@ 386 "Firmware/Drivers/CMSIS/Include/cmsis_gcc.h" 1
 2719 0018 EFF31083 		MRS r3, primask
 2720              	@ 0 "" 2
 2721              		.thumb
 2722              		.syntax unified
 2723 001c FB60     		str	r3, [r7, #12]
 387:Firmware/Drivers/CMSIS/Include/cmsis_gcc.h **** }
 2724              		.loc 2 387 0 discriminator 1
 2725 001e FB68     		ldr	r3, [r7, #12]
 2726              	.LBE437:
 2727              	.LBE436:
 2728              		.loc 1 616 0 discriminator 1
 2729 0020 002B     		cmp	r3, #0
 2730 0022 09D1     		bne	.L239
 2731              		.loc 1 616 0 is_stmt 0 discriminator 2
 2732 0024 154B     		ldr	r3, .L247
 2733 0026 1B68     		ldr	r3, [r3]
 2734 0028 022B     		cmp	r3, #2
 2735 002a 09D1     		bne	.L241
 2736              	.LBB438:
 2737              	.LBB439:
 465:Firmware/Drivers/CMSIS/Include/cmsis_gcc.h ****   return(result);
 2738              		.loc 2 465 0 is_stmt 1 discriminator 3
 2739              		.syntax unified
 2740              	@ 465 "Firmware/Drivers/CMSIS/Include/cmsis_gcc.h" 1
 2741 002c EFF31183 		MRS r3, basepri
 2742              	@ 0 "" 2
 2743              		.thumb
 2744              		.syntax unified
 2745 0030 BB60     		str	r3, [r7, #8]
 2746              		.loc 2 466 0 discriminator 3
 2747 0032 BB68     		ldr	r3, [r7, #8]
 2748              	.LBE439:
ARM GAS  /tmp/ccB5BhZs.s 			page 73


 2749              	.LBE438:
 2750              		.loc 1 616 0 discriminator 3
 2751 0034 002B     		cmp	r3, #0
 2752 0036 03D0     		beq	.L241
 2753              	.L239:
 617:Firmware/Middlewares/Third_Party/FreeRTOS/Source/CMSIS_RTOS_V2/cmsis_os2.c ****     stat = osErrorISR;
 2754              		.loc 1 617 0
 2755 0038 6FF00503 		mvn	r3, #5
 2756 003c FB61     		str	r3, [r7, #28]
 2757 003e 17E0     		b	.L243
 2758              	.L241:
 618:Firmware/Middlewares/Third_Party/FreeRTOS/Source/CMSIS_RTOS_V2/cmsis_os2.c ****   }
 619:Firmware/Middlewares/Third_Party/FreeRTOS/Source/CMSIS_RTOS_V2/cmsis_os2.c ****   else if (hTask == NULL) {
 2759              		.loc 1 619 0
 2760 0040 BB69     		ldr	r3, [r7, #24]
 2761 0042 002B     		cmp	r3, #0
 2762 0044 03D1     		bne	.L244
 620:Firmware/Middlewares/Third_Party/FreeRTOS/Source/CMSIS_RTOS_V2/cmsis_os2.c ****     stat = osErrorParameter;
 2763              		.loc 1 620 0
 2764 0046 6FF00303 		mvn	r3, #3
 2765 004a FB61     		str	r3, [r7, #28]
 2766 004c 10E0     		b	.L243
 2767              	.L244:
 621:Firmware/Middlewares/Third_Party/FreeRTOS/Source/CMSIS_RTOS_V2/cmsis_os2.c ****   }
 622:Firmware/Middlewares/Third_Party/FreeRTOS/Source/CMSIS_RTOS_V2/cmsis_os2.c ****   else {
 623:Firmware/Middlewares/Third_Party/FreeRTOS/Source/CMSIS_RTOS_V2/cmsis_os2.c ****     tstate = eTaskGetState (hTask);
 2768              		.loc 1 623 0
 2769 004e B869     		ldr	r0, [r7, #24]
 2770 0050 FFF7FEFF 		bl	eTaskGetState
 2771 0054 0346     		mov	r3, r0
 2772 0056 FB75     		strb	r3, [r7, #23]
 624:Firmware/Middlewares/Third_Party/FreeRTOS/Source/CMSIS_RTOS_V2/cmsis_os2.c **** 
 625:Firmware/Middlewares/Third_Party/FreeRTOS/Source/CMSIS_RTOS_V2/cmsis_os2.c ****     if (tstate != eDeleted) {
 2773              		.loc 1 625 0
 2774 0058 FB7D     		ldrb	r3, [r7, #23]	@ zero_extendqisi2
 2775 005a 042B     		cmp	r3, #4
 2776 005c 05D0     		beq	.L245
 626:Firmware/Middlewares/Third_Party/FreeRTOS/Source/CMSIS_RTOS_V2/cmsis_os2.c ****       stat = osOK;
 2777              		.loc 1 626 0
 2778 005e 0023     		movs	r3, #0
 2779 0060 FB61     		str	r3, [r7, #28]
 627:Firmware/Middlewares/Third_Party/FreeRTOS/Source/CMSIS_RTOS_V2/cmsis_os2.c ****       vTaskDelete (hTask);
 2780              		.loc 1 627 0
 2781 0062 B869     		ldr	r0, [r7, #24]
 2782 0064 FFF7FEFF 		bl	vTaskDelete
 2783 0068 02E0     		b	.L243
 2784              	.L245:
 628:Firmware/Middlewares/Third_Party/FreeRTOS/Source/CMSIS_RTOS_V2/cmsis_os2.c ****     } else {
 629:Firmware/Middlewares/Third_Party/FreeRTOS/Source/CMSIS_RTOS_V2/cmsis_os2.c ****       stat = osErrorResource;
 2785              		.loc 1 629 0
 2786 006a 6FF00203 		mvn	r3, #2
 2787 006e FB61     		str	r3, [r7, #28]
 2788              	.L243:
 630:Firmware/Middlewares/Third_Party/FreeRTOS/Source/CMSIS_RTOS_V2/cmsis_os2.c ****     }
 631:Firmware/Middlewares/Third_Party/FreeRTOS/Source/CMSIS_RTOS_V2/cmsis_os2.c ****   }
 632:Firmware/Middlewares/Third_Party/FreeRTOS/Source/CMSIS_RTOS_V2/cmsis_os2.c **** #else
 633:Firmware/Middlewares/Third_Party/FreeRTOS/Source/CMSIS_RTOS_V2/cmsis_os2.c ****   stat = osError;
ARM GAS  /tmp/ccB5BhZs.s 			page 74


 634:Firmware/Middlewares/Third_Party/FreeRTOS/Source/CMSIS_RTOS_V2/cmsis_os2.c **** #endif
 635:Firmware/Middlewares/Third_Party/FreeRTOS/Source/CMSIS_RTOS_V2/cmsis_os2.c **** 
 636:Firmware/Middlewares/Third_Party/FreeRTOS/Source/CMSIS_RTOS_V2/cmsis_os2.c ****   return (stat);
 2789              		.loc 1 636 0
 2790 0070 FB69     		ldr	r3, [r7, #28]
 637:Firmware/Middlewares/Third_Party/FreeRTOS/Source/CMSIS_RTOS_V2/cmsis_os2.c **** }
 2791              		.loc 1 637 0
 2792 0072 1846     		mov	r0, r3
 2793 0074 2037     		adds	r7, r7, #32
 2794              	.LCFI116:
 2795              		.cfi_def_cfa_offset 8
 2796 0076 BD46     		mov	sp, r7
 2797              	.LCFI117:
 2798              		.cfi_def_cfa_register 13
 2799              		@ sp needed
 2800 0078 80BD     		pop	{r7, pc}
 2801              	.L248:
 2802 007a 00BF     		.align	2
 2803              	.L247:
 2804 007c 00000000 		.word	KernelState
 2805              		.cfi_endproc
 2806              	.LFE129:
 2808              		.section	.text.osThreadGetCount,"ax",%progbits
 2809              		.align	1
 2810              		.global	osThreadGetCount
 2811              		.syntax unified
 2812              		.thumb
 2813              		.thumb_func
 2814              		.fpu fpv4-sp-d16
 2816              	osThreadGetCount:
 2817              	.LFB130:
 638:Firmware/Middlewares/Third_Party/FreeRTOS/Source/CMSIS_RTOS_V2/cmsis_os2.c **** 
 639:Firmware/Middlewares/Third_Party/FreeRTOS/Source/CMSIS_RTOS_V2/cmsis_os2.c **** uint32_t osThreadGetCount (void) {
 2818              		.loc 1 639 0
 2819              		.cfi_startproc
 2820              		@ args = 0, pretend = 0, frame = 16
 2821              		@ frame_needed = 1, uses_anonymous_args = 0
 2822 0000 80B5     		push	{r7, lr}
 2823              	.LCFI118:
 2824              		.cfi_def_cfa_offset 8
 2825              		.cfi_offset 7, -8
 2826              		.cfi_offset 14, -4
 2827 0002 84B0     		sub	sp, sp, #16
 2828              	.LCFI119:
 2829              		.cfi_def_cfa_offset 24
 2830 0004 00AF     		add	r7, sp, #0
 2831              	.LCFI120:
 2832              		.cfi_def_cfa_register 7
 2833              	.LBB440:
 2834              	.LBB441:
 209:Firmware/Drivers/CMSIS/Include/cmsis_gcc.h ****   return(result);
 2835              		.loc 2 209 0
 2836              		.syntax unified
 2837              	@ 209 "Firmware/Drivers/CMSIS/Include/cmsis_gcc.h" 1
 2838 0006 EFF30583 		MRS r3, ipsr
 2839              	@ 0 "" 2
 2840              		.thumb
ARM GAS  /tmp/ccB5BhZs.s 			page 75


 2841              		.syntax unified
 2842 000a BB60     		str	r3, [r7, #8]
 210:Firmware/Drivers/CMSIS/Include/cmsis_gcc.h **** }
 2843              		.loc 2 210 0
 2844 000c BB68     		ldr	r3, [r7, #8]
 2845              	.LBE441:
 2846              	.LBE440:
 640:Firmware/Middlewares/Third_Party/FreeRTOS/Source/CMSIS_RTOS_V2/cmsis_os2.c ****   uint32_t count;
 641:Firmware/Middlewares/Third_Party/FreeRTOS/Source/CMSIS_RTOS_V2/cmsis_os2.c **** 
 642:Firmware/Middlewares/Third_Party/FreeRTOS/Source/CMSIS_RTOS_V2/cmsis_os2.c ****   if (IS_IRQ()) {
 2847              		.loc 1 642 0
 2848 000e 002B     		cmp	r3, #0
 2849 0010 0FD1     		bne	.L251
 2850              	.LBB442:
 2851              	.LBB443:
 386:Firmware/Drivers/CMSIS/Include/cmsis_gcc.h ****   return(result);
 2852              		.loc 2 386 0 discriminator 1
 2853              		.syntax unified
 2854              	@ 386 "Firmware/Drivers/CMSIS/Include/cmsis_gcc.h" 1
 2855 0012 EFF31083 		MRS r3, primask
 2856              	@ 0 "" 2
 2857              		.thumb
 2858              		.syntax unified
 2859 0016 7B60     		str	r3, [r7, #4]
 387:Firmware/Drivers/CMSIS/Include/cmsis_gcc.h **** }
 2860              		.loc 2 387 0 discriminator 1
 2861 0018 7B68     		ldr	r3, [r7, #4]
 2862              	.LBE443:
 2863              	.LBE442:
 2864              		.loc 1 642 0 discriminator 1
 2865 001a 002B     		cmp	r3, #0
 2866 001c 09D1     		bne	.L251
 2867              		.loc 1 642 0 is_stmt 0 discriminator 2
 2868 001e 0A4B     		ldr	r3, .L257
 2869 0020 1B68     		ldr	r3, [r3]
 2870 0022 022B     		cmp	r3, #2
 2871 0024 08D1     		bne	.L253
 2872              	.LBB444:
 2873              	.LBB445:
 465:Firmware/Drivers/CMSIS/Include/cmsis_gcc.h ****   return(result);
 2874              		.loc 2 465 0 is_stmt 1 discriminator 3
 2875              		.syntax unified
 2876              	@ 465 "Firmware/Drivers/CMSIS/Include/cmsis_gcc.h" 1
 2877 0026 EFF31183 		MRS r3, basepri
 2878              	@ 0 "" 2
 2879              		.thumb
 2880              		.syntax unified
 2881 002a 3B60     		str	r3, [r7]
 2882              		.loc 2 466 0 discriminator 3
 2883 002c 3B68     		ldr	r3, [r7]
 2884              	.LBE445:
 2885              	.LBE444:
 2886              		.loc 1 642 0 discriminator 3
 2887 002e 002B     		cmp	r3, #0
 2888 0030 02D0     		beq	.L253
 2889              	.L251:
 643:Firmware/Middlewares/Third_Party/FreeRTOS/Source/CMSIS_RTOS_V2/cmsis_os2.c ****     count = 0U;
ARM GAS  /tmp/ccB5BhZs.s 			page 76


 2890              		.loc 1 643 0
 2891 0032 0023     		movs	r3, #0
 2892 0034 FB60     		str	r3, [r7, #12]
 2893 0036 02E0     		b	.L255
 2894              	.L253:
 644:Firmware/Middlewares/Third_Party/FreeRTOS/Source/CMSIS_RTOS_V2/cmsis_os2.c ****   } else {
 645:Firmware/Middlewares/Third_Party/FreeRTOS/Source/CMSIS_RTOS_V2/cmsis_os2.c ****     count = uxTaskGetNumberOfTasks();
 2895              		.loc 1 645 0
 2896 0038 FFF7FEFF 		bl	uxTaskGetNumberOfTasks
 2897 003c F860     		str	r0, [r7, #12]
 2898              	.L255:
 646:Firmware/Middlewares/Third_Party/FreeRTOS/Source/CMSIS_RTOS_V2/cmsis_os2.c ****   }
 647:Firmware/Middlewares/Third_Party/FreeRTOS/Source/CMSIS_RTOS_V2/cmsis_os2.c **** 
 648:Firmware/Middlewares/Third_Party/FreeRTOS/Source/CMSIS_RTOS_V2/cmsis_os2.c ****   return (count);
 2899              		.loc 1 648 0
 2900 003e FB68     		ldr	r3, [r7, #12]
 649:Firmware/Middlewares/Third_Party/FreeRTOS/Source/CMSIS_RTOS_V2/cmsis_os2.c **** }
 2901              		.loc 1 649 0
 2902 0040 1846     		mov	r0, r3
 2903 0042 1037     		adds	r7, r7, #16
 2904              	.LCFI121:
 2905              		.cfi_def_cfa_offset 8
 2906 0044 BD46     		mov	sp, r7
 2907              	.LCFI122:
 2908              		.cfi_def_cfa_register 13
 2909              		@ sp needed
 2910 0046 80BD     		pop	{r7, pc}
 2911              	.L258:
 2912              		.align	2
 2913              	.L257:
 2914 0048 00000000 		.word	KernelState
 2915              		.cfi_endproc
 2916              	.LFE130:
 2918              		.section	.text.osThreadEnumerate,"ax",%progbits
 2919              		.align	1
 2920              		.global	osThreadEnumerate
 2921              		.syntax unified
 2922              		.thumb
 2923              		.thumb_func
 2924              		.fpu fpv4-sp-d16
 2926              	osThreadEnumerate:
 2927              	.LFB131:
 650:Firmware/Middlewares/Third_Party/FreeRTOS/Source/CMSIS_RTOS_V2/cmsis_os2.c **** 
 651:Firmware/Middlewares/Third_Party/FreeRTOS/Source/CMSIS_RTOS_V2/cmsis_os2.c **** uint32_t osThreadEnumerate (osThreadId_t *thread_array, uint32_t array_items) {
 2928              		.loc 1 651 0
 2929              		.cfi_startproc
 2930              		@ args = 0, pretend = 0, frame = 32
 2931              		@ frame_needed = 1, uses_anonymous_args = 0
 2932 0000 80B5     		push	{r7, lr}
 2933              	.LCFI123:
 2934              		.cfi_def_cfa_offset 8
 2935              		.cfi_offset 7, -8
 2936              		.cfi_offset 14, -4
 2937 0002 88B0     		sub	sp, sp, #32
 2938              	.LCFI124:
 2939              		.cfi_def_cfa_offset 40
 2940 0004 00AF     		add	r7, sp, #0
ARM GAS  /tmp/ccB5BhZs.s 			page 77


 2941              	.LCFI125:
 2942              		.cfi_def_cfa_register 7
 2943 0006 7860     		str	r0, [r7, #4]
 2944 0008 3960     		str	r1, [r7]
 2945              	.LBB446:
 2946              	.LBB447:
 209:Firmware/Drivers/CMSIS/Include/cmsis_gcc.h ****   return(result);
 2947              		.loc 2 209 0
 2948              		.syntax unified
 2949              	@ 209 "Firmware/Drivers/CMSIS/Include/cmsis_gcc.h" 1
 2950 000a EFF30583 		MRS r3, ipsr
 2951              	@ 0 "" 2
 2952              		.thumb
 2953              		.syntax unified
 2954 000e 3B61     		str	r3, [r7, #16]
 210:Firmware/Drivers/CMSIS/Include/cmsis_gcc.h **** }
 2955              		.loc 2 210 0
 2956 0010 3B69     		ldr	r3, [r7, #16]
 2957              	.LBE447:
 2958              	.LBE446:
 652:Firmware/Middlewares/Third_Party/FreeRTOS/Source/CMSIS_RTOS_V2/cmsis_os2.c ****   uint32_t i, count;
 653:Firmware/Middlewares/Third_Party/FreeRTOS/Source/CMSIS_RTOS_V2/cmsis_os2.c ****   TaskStatus_t *task;
 654:Firmware/Middlewares/Third_Party/FreeRTOS/Source/CMSIS_RTOS_V2/cmsis_os2.c **** 
 655:Firmware/Middlewares/Third_Party/FreeRTOS/Source/CMSIS_RTOS_V2/cmsis_os2.c ****   if (IS_IRQ() || (thread_array == NULL) || (array_items == 0U)) {
 2959              		.loc 1 655 0
 2960 0012 002B     		cmp	r3, #0
 2961 0014 15D1     		bne	.L261
 2962              	.LBB448:
 2963              	.LBB449:
 386:Firmware/Drivers/CMSIS/Include/cmsis_gcc.h ****   return(result);
 2964              		.loc 2 386 0 discriminator 1
 2965              		.syntax unified
 2966              	@ 386 "Firmware/Drivers/CMSIS/Include/cmsis_gcc.h" 1
 2967 0016 EFF31083 		MRS r3, primask
 2968              	@ 0 "" 2
 2969              		.thumb
 2970              		.syntax unified
 2971 001a FB60     		str	r3, [r7, #12]
 387:Firmware/Drivers/CMSIS/Include/cmsis_gcc.h **** }
 2972              		.loc 2 387 0 discriminator 1
 2973 001c FB68     		ldr	r3, [r7, #12]
 2974              	.LBE449:
 2975              	.LBE448:
 2976              		.loc 1 655 0 discriminator 1
 2977 001e 002B     		cmp	r3, #0
 2978 0020 0FD1     		bne	.L261
 2979              		.loc 1 655 0 is_stmt 0 discriminator 2
 2980 0022 294B     		ldr	r3, .L272
 2981 0024 1B68     		ldr	r3, [r3]
 2982 0026 022B     		cmp	r3, #2
 2983 0028 05D1     		bne	.L263
 2984              	.LBB450:
 2985              	.LBB451:
 465:Firmware/Drivers/CMSIS/Include/cmsis_gcc.h ****   return(result);
 2986              		.loc 2 465 0 is_stmt 1 discriminator 3
 2987              		.syntax unified
 2988              	@ 465 "Firmware/Drivers/CMSIS/Include/cmsis_gcc.h" 1
ARM GAS  /tmp/ccB5BhZs.s 			page 78


 2989 002a EFF31183 		MRS r3, basepri
 2990              	@ 0 "" 2
 2991              		.thumb
 2992              		.syntax unified
 2993 002e BB60     		str	r3, [r7, #8]
 2994              		.loc 2 466 0 discriminator 3
 2995 0030 BB68     		ldr	r3, [r7, #8]
 2996              	.LBE451:
 2997              	.LBE450:
 2998              		.loc 1 655 0 discriminator 3
 2999 0032 002B     		cmp	r3, #0
 3000 0034 05D1     		bne	.L261
 3001              	.L263:
 3002              		.loc 1 655 0 is_stmt 0 discriminator 5
 3003 0036 7B68     		ldr	r3, [r7, #4]
 3004 0038 002B     		cmp	r3, #0
 3005 003a 02D0     		beq	.L261
 3006              		.loc 1 655 0 discriminator 6
 3007 003c 3B68     		ldr	r3, [r7]
 3008 003e 002B     		cmp	r3, #0
 3009 0040 02D1     		bne	.L265
 3010              	.L261:
 656:Firmware/Middlewares/Third_Party/FreeRTOS/Source/CMSIS_RTOS_V2/cmsis_os2.c ****     count = 0U;
 3011              		.loc 1 656 0 is_stmt 1
 3012 0042 0023     		movs	r3, #0
 3013 0044 BB61     		str	r3, [r7, #24]
 3014 0046 39E0     		b	.L266
 3015              	.L265:
 657:Firmware/Middlewares/Third_Party/FreeRTOS/Source/CMSIS_RTOS_V2/cmsis_os2.c ****   } else {
 658:Firmware/Middlewares/Third_Party/FreeRTOS/Source/CMSIS_RTOS_V2/cmsis_os2.c ****     vTaskSuspendAll();
 3016              		.loc 1 658 0
 3017 0048 FFF7FEFF 		bl	vTaskSuspendAll
 659:Firmware/Middlewares/Third_Party/FreeRTOS/Source/CMSIS_RTOS_V2/cmsis_os2.c **** 
 660:Firmware/Middlewares/Third_Party/FreeRTOS/Source/CMSIS_RTOS_V2/cmsis_os2.c ****     count = uxTaskGetNumberOfTasks();
 3018              		.loc 1 660 0
 3019 004c FFF7FEFF 		bl	uxTaskGetNumberOfTasks
 3020 0050 B861     		str	r0, [r7, #24]
 661:Firmware/Middlewares/Third_Party/FreeRTOS/Source/CMSIS_RTOS_V2/cmsis_os2.c ****     task  = pvPortMalloc (count * sizeof(TaskStatus_t));
 3021              		.loc 1 661 0
 3022 0052 BA69     		ldr	r2, [r7, #24]
 3023 0054 1346     		mov	r3, r2
 3024 0056 DB00     		lsls	r3, r3, #3
 3025 0058 1344     		add	r3, r3, r2
 3026 005a 9B00     		lsls	r3, r3, #2
 3027 005c 1846     		mov	r0, r3
 3028 005e FFF7FEFF 		bl	pvPortMalloc
 3029 0062 7861     		str	r0, [r7, #20]
 662:Firmware/Middlewares/Third_Party/FreeRTOS/Source/CMSIS_RTOS_V2/cmsis_os2.c **** 
 663:Firmware/Middlewares/Third_Party/FreeRTOS/Source/CMSIS_RTOS_V2/cmsis_os2.c ****     if (task != NULL) {
 3030              		.loc 1 663 0
 3031 0064 7B69     		ldr	r3, [r7, #20]
 3032 0066 002B     		cmp	r3, #0
 3033 0068 23D0     		beq	.L267
 664:Firmware/Middlewares/Third_Party/FreeRTOS/Source/CMSIS_RTOS_V2/cmsis_os2.c ****       count = uxTaskGetSystemState (task, count, NULL);
 3034              		.loc 1 664 0
 3035 006a 0022     		movs	r2, #0
 3036 006c B969     		ldr	r1, [r7, #24]
ARM GAS  /tmp/ccB5BhZs.s 			page 79


 3037 006e 7869     		ldr	r0, [r7, #20]
 3038 0070 FFF7FEFF 		bl	uxTaskGetSystemState
 3039 0074 B861     		str	r0, [r7, #24]
 665:Firmware/Middlewares/Third_Party/FreeRTOS/Source/CMSIS_RTOS_V2/cmsis_os2.c **** 
 666:Firmware/Middlewares/Third_Party/FreeRTOS/Source/CMSIS_RTOS_V2/cmsis_os2.c ****       for (i = 0U; (i < count) && (i < array_items); i++) {
 3040              		.loc 1 666 0
 3041 0076 0023     		movs	r3, #0
 3042 0078 FB61     		str	r3, [r7, #28]
 3043 007a 10E0     		b	.L268
 3044              	.L270:
 667:Firmware/Middlewares/Third_Party/FreeRTOS/Source/CMSIS_RTOS_V2/cmsis_os2.c ****         thread_array[i] = (osThreadId_t)task[i].xHandle;
 3045              		.loc 1 667 0 discriminator 4
 3046 007c FA69     		ldr	r2, [r7, #28]
 3047 007e 1346     		mov	r3, r2
 3048 0080 DB00     		lsls	r3, r3, #3
 3049 0082 1344     		add	r3, r3, r2
 3050 0084 9B00     		lsls	r3, r3, #2
 3051 0086 1A46     		mov	r2, r3
 3052 0088 7B69     		ldr	r3, [r7, #20]
 3053 008a 1A44     		add	r2, r2, r3
 3054 008c FB69     		ldr	r3, [r7, #28]
 3055 008e 9B00     		lsls	r3, r3, #2
 3056 0090 7968     		ldr	r1, [r7, #4]
 3057 0092 0B44     		add	r3, r3, r1
 3058 0094 1268     		ldr	r2, [r2]
 3059 0096 1A60     		str	r2, [r3]
 666:Firmware/Middlewares/Third_Party/FreeRTOS/Source/CMSIS_RTOS_V2/cmsis_os2.c ****         thread_array[i] = (osThreadId_t)task[i].xHandle;
 3060              		.loc 1 666 0 discriminator 4
 3061 0098 FB69     		ldr	r3, [r7, #28]
 3062 009a 0133     		adds	r3, r3, #1
 3063 009c FB61     		str	r3, [r7, #28]
 3064              	.L268:
 666:Firmware/Middlewares/Third_Party/FreeRTOS/Source/CMSIS_RTOS_V2/cmsis_os2.c ****         thread_array[i] = (osThreadId_t)task[i].xHandle;
 3065              		.loc 1 666 0 is_stmt 0 discriminator 1
 3066 009e FA69     		ldr	r2, [r7, #28]
 3067 00a0 BB69     		ldr	r3, [r7, #24]
 3068 00a2 9A42     		cmp	r2, r3
 3069 00a4 03D2     		bcs	.L269
 666:Firmware/Middlewares/Third_Party/FreeRTOS/Source/CMSIS_RTOS_V2/cmsis_os2.c ****         thread_array[i] = (osThreadId_t)task[i].xHandle;
 3070              		.loc 1 666 0 discriminator 3
 3071 00a6 FA69     		ldr	r2, [r7, #28]
 3072 00a8 3B68     		ldr	r3, [r7]
 3073 00aa 9A42     		cmp	r2, r3
 3074 00ac E6D3     		bcc	.L270
 3075              	.L269:
 668:Firmware/Middlewares/Third_Party/FreeRTOS/Source/CMSIS_RTOS_V2/cmsis_os2.c ****       }
 669:Firmware/Middlewares/Third_Party/FreeRTOS/Source/CMSIS_RTOS_V2/cmsis_os2.c ****       count = i;
 3076              		.loc 1 669 0 is_stmt 1
 3077 00ae FB69     		ldr	r3, [r7, #28]
 3078 00b0 BB61     		str	r3, [r7, #24]
 3079              	.L267:
 670:Firmware/Middlewares/Third_Party/FreeRTOS/Source/CMSIS_RTOS_V2/cmsis_os2.c ****     }
 671:Firmware/Middlewares/Third_Party/FreeRTOS/Source/CMSIS_RTOS_V2/cmsis_os2.c ****     (void)xTaskResumeAll();
 3080              		.loc 1 671 0
 3081 00b2 FFF7FEFF 		bl	xTaskResumeAll
 672:Firmware/Middlewares/Third_Party/FreeRTOS/Source/CMSIS_RTOS_V2/cmsis_os2.c **** 
 673:Firmware/Middlewares/Third_Party/FreeRTOS/Source/CMSIS_RTOS_V2/cmsis_os2.c ****     vPortFree (task);
ARM GAS  /tmp/ccB5BhZs.s 			page 80


 3082              		.loc 1 673 0
 3083 00b6 7869     		ldr	r0, [r7, #20]
 3084 00b8 FFF7FEFF 		bl	vPortFree
 3085              	.L266:
 674:Firmware/Middlewares/Third_Party/FreeRTOS/Source/CMSIS_RTOS_V2/cmsis_os2.c ****   }
 675:Firmware/Middlewares/Third_Party/FreeRTOS/Source/CMSIS_RTOS_V2/cmsis_os2.c **** 
 676:Firmware/Middlewares/Third_Party/FreeRTOS/Source/CMSIS_RTOS_V2/cmsis_os2.c ****   return (count);
 3086              		.loc 1 676 0
 3087 00bc BB69     		ldr	r3, [r7, #24]
 677:Firmware/Middlewares/Third_Party/FreeRTOS/Source/CMSIS_RTOS_V2/cmsis_os2.c **** }
 3088              		.loc 1 677 0
 3089 00be 1846     		mov	r0, r3
 3090 00c0 2037     		adds	r7, r7, #32
 3091              	.LCFI126:
 3092              		.cfi_def_cfa_offset 8
 3093 00c2 BD46     		mov	sp, r7
 3094              	.LCFI127:
 3095              		.cfi_def_cfa_register 13
 3096              		@ sp needed
 3097 00c4 80BD     		pop	{r7, pc}
 3098              	.L273:
 3099 00c6 00BF     		.align	2
 3100              	.L272:
 3101 00c8 00000000 		.word	KernelState
 3102              		.cfi_endproc
 3103              	.LFE131:
 3105              		.section	.text.osThreadFlagsSet,"ax",%progbits
 3106              		.align	1
 3107              		.global	osThreadFlagsSet
 3108              		.syntax unified
 3109              		.thumb
 3110              		.thumb_func
 3111              		.fpu fpv4-sp-d16
 3113              	osThreadFlagsSet:
 3114              	.LFB132:
 678:Firmware/Middlewares/Third_Party/FreeRTOS/Source/CMSIS_RTOS_V2/cmsis_os2.c **** 
 679:Firmware/Middlewares/Third_Party/FreeRTOS/Source/CMSIS_RTOS_V2/cmsis_os2.c **** uint32_t osThreadFlagsSet (osThreadId_t thread_id, uint32_t flags) {
 3115              		.loc 1 679 0
 3116              		.cfi_startproc
 3117              		@ args = 0, pretend = 0, frame = 32
 3118              		@ frame_needed = 1, uses_anonymous_args = 0
 3119 0000 80B5     		push	{r7, lr}
 3120              	.LCFI128:
 3121              		.cfi_def_cfa_offset 8
 3122              		.cfi_offset 7, -8
 3123              		.cfi_offset 14, -4
 3124 0002 8AB0     		sub	sp, sp, #40
 3125              	.LCFI129:
 3126              		.cfi_def_cfa_offset 48
 3127 0004 02AF     		add	r7, sp, #8
 3128              	.LCFI130:
 3129              		.cfi_def_cfa 7, 40
 3130 0006 7860     		str	r0, [r7, #4]
 3131 0008 3960     		str	r1, [r7]
 680:Firmware/Middlewares/Third_Party/FreeRTOS/Source/CMSIS_RTOS_V2/cmsis_os2.c ****   TaskHandle_t hTask = (TaskHandle_t)thread_id;
 3132              		.loc 1 680 0
 3133 000a 7B68     		ldr	r3, [r7, #4]
ARM GAS  /tmp/ccB5BhZs.s 			page 81


 3134 000c FB61     		str	r3, [r7, #28]
 681:Firmware/Middlewares/Third_Party/FreeRTOS/Source/CMSIS_RTOS_V2/cmsis_os2.c ****   uint32_t rflags;
 682:Firmware/Middlewares/Third_Party/FreeRTOS/Source/CMSIS_RTOS_V2/cmsis_os2.c ****   BaseType_t yield;
 683:Firmware/Middlewares/Third_Party/FreeRTOS/Source/CMSIS_RTOS_V2/cmsis_os2.c **** 
 684:Firmware/Middlewares/Third_Party/FreeRTOS/Source/CMSIS_RTOS_V2/cmsis_os2.c ****   if ((hTask == NULL) || ((flags & THREAD_FLAGS_INVALID_BITS) != 0U)) {
 3135              		.loc 1 684 0
 3136 000e FB69     		ldr	r3, [r7, #28]
 3137 0010 002B     		cmp	r3, #0
 3138 0012 02D0     		beq	.L275
 3139              		.loc 1 684 0 is_stmt 0 discriminator 1
 3140 0014 3B68     		ldr	r3, [r7]
 3141 0016 002B     		cmp	r3, #0
 3142 0018 03DA     		bge	.L276
 3143              	.L275:
 685:Firmware/Middlewares/Third_Party/FreeRTOS/Source/CMSIS_RTOS_V2/cmsis_os2.c ****     rflags = (uint32_t)osErrorParameter;
 3144              		.loc 1 685 0 is_stmt 1
 3145 001a 6FF00303 		mvn	r3, #3
 3146 001e FB60     		str	r3, [r7, #12]
 3147 0020 46E0     		b	.L277
 3148              	.L276:
 686:Firmware/Middlewares/Third_Party/FreeRTOS/Source/CMSIS_RTOS_V2/cmsis_os2.c ****   }
 687:Firmware/Middlewares/Third_Party/FreeRTOS/Source/CMSIS_RTOS_V2/cmsis_os2.c ****   else {
 688:Firmware/Middlewares/Third_Party/FreeRTOS/Source/CMSIS_RTOS_V2/cmsis_os2.c ****     rflags = (uint32_t)osError;
 3149              		.loc 1 688 0
 3150 0022 4FF0FF33 		mov	r3, #-1
 3151 0026 FB60     		str	r3, [r7, #12]
 3152              	.LBB452:
 3153              	.LBB453:
 209:Firmware/Drivers/CMSIS/Include/cmsis_gcc.h ****   return(result);
 3154              		.loc 2 209 0
 3155              		.syntax unified
 3156              	@ 209 "Firmware/Drivers/CMSIS/Include/cmsis_gcc.h" 1
 3157 0028 EFF30583 		MRS r3, ipsr
 3158              	@ 0 "" 2
 3159              		.thumb
 3160              		.syntax unified
 3161 002c BB61     		str	r3, [r7, #24]
 210:Firmware/Drivers/CMSIS/Include/cmsis_gcc.h **** }
 3162              		.loc 2 210 0
 3163 002e BB69     		ldr	r3, [r7, #24]
 3164              	.LBE453:
 3165              	.LBE452:
 689:Firmware/Middlewares/Third_Party/FreeRTOS/Source/CMSIS_RTOS_V2/cmsis_os2.c **** 
 690:Firmware/Middlewares/Third_Party/FreeRTOS/Source/CMSIS_RTOS_V2/cmsis_os2.c ****     if (IS_IRQ()) {
 3166              		.loc 1 690 0
 3167 0030 002B     		cmp	r3, #0
 3168 0032 0FD1     		bne	.L279
 3169              	.LBB454:
 3170              	.LBB455:
 386:Firmware/Drivers/CMSIS/Include/cmsis_gcc.h ****   return(result);
 3171              		.loc 2 386 0 discriminator 1
 3172              		.syntax unified
 3173              	@ 386 "Firmware/Drivers/CMSIS/Include/cmsis_gcc.h" 1
 3174 0034 EFF31083 		MRS r3, primask
 3175              	@ 0 "" 2
 3176              		.thumb
 3177              		.syntax unified
ARM GAS  /tmp/ccB5BhZs.s 			page 82


 3178 0038 7B61     		str	r3, [r7, #20]
 387:Firmware/Drivers/CMSIS/Include/cmsis_gcc.h **** }
 3179              		.loc 2 387 0 discriminator 1
 3180 003a 7B69     		ldr	r3, [r7, #20]
 3181              	.LBE455:
 3182              	.LBE454:
 3183              		.loc 1 690 0 discriminator 1
 3184 003c 002B     		cmp	r3, #0
 3185 003e 09D1     		bne	.L279
 3186              		.loc 1 690 0 is_stmt 0 discriminator 2
 3187 0040 1E4B     		ldr	r3, .L285
 3188 0042 1B68     		ldr	r3, [r3]
 3189 0044 022B     		cmp	r3, #2
 3190 0046 26D1     		bne	.L281
 3191              	.LBB456:
 3192              	.LBB457:
 465:Firmware/Drivers/CMSIS/Include/cmsis_gcc.h ****   return(result);
 3193              		.loc 2 465 0 is_stmt 1 discriminator 3
 3194              		.syntax unified
 3195              	@ 465 "Firmware/Drivers/CMSIS/Include/cmsis_gcc.h" 1
 3196 0048 EFF31183 		MRS r3, basepri
 3197              	@ 0 "" 2
 3198              		.thumb
 3199              		.syntax unified
 3200 004c 3B61     		str	r3, [r7, #16]
 3201              		.loc 2 466 0 discriminator 3
 3202 004e 3B69     		ldr	r3, [r7, #16]
 3203              	.LBE457:
 3204              	.LBE456:
 3205              		.loc 1 690 0 discriminator 3
 3206 0050 002B     		cmp	r3, #0
 3207 0052 20D0     		beq	.L281
 3208              	.L279:
 691:Firmware/Middlewares/Third_Party/FreeRTOS/Source/CMSIS_RTOS_V2/cmsis_os2.c ****       yield = pdFALSE;
 3209              		.loc 1 691 0
 3210 0054 0023     		movs	r3, #0
 3211 0056 BB60     		str	r3, [r7, #8]
 692:Firmware/Middlewares/Third_Party/FreeRTOS/Source/CMSIS_RTOS_V2/cmsis_os2.c **** 
 693:Firmware/Middlewares/Third_Party/FreeRTOS/Source/CMSIS_RTOS_V2/cmsis_os2.c ****       (void)xTaskNotifyFromISR (hTask, flags, eSetBits, &yield);
 3212              		.loc 1 693 0
 3213 0058 07F10803 		add	r3, r7, #8
 3214 005c 0093     		str	r3, [sp]
 3215 005e 0023     		movs	r3, #0
 3216 0060 0122     		movs	r2, #1
 3217 0062 3968     		ldr	r1, [r7]
 3218 0064 F869     		ldr	r0, [r7, #28]
 3219 0066 FFF7FEFF 		bl	xTaskGenericNotifyFromISR
 694:Firmware/Middlewares/Third_Party/FreeRTOS/Source/CMSIS_RTOS_V2/cmsis_os2.c ****       (void)xTaskNotifyAndQueryFromISR (hTask, 0, eNoAction, &rflags, NULL);
 3220              		.loc 1 694 0
 3221 006a 07F10C02 		add	r2, r7, #12
 3222 006e 0023     		movs	r3, #0
 3223 0070 0093     		str	r3, [sp]
 3224 0072 1346     		mov	r3, r2
 3225 0074 0022     		movs	r2, #0
 3226 0076 0021     		movs	r1, #0
 3227 0078 F869     		ldr	r0, [r7, #28]
 3228 007a FFF7FEFF 		bl	xTaskGenericNotifyFromISR
ARM GAS  /tmp/ccB5BhZs.s 			page 83


 695:Firmware/Middlewares/Third_Party/FreeRTOS/Source/CMSIS_RTOS_V2/cmsis_os2.c **** 
 696:Firmware/Middlewares/Third_Party/FreeRTOS/Source/CMSIS_RTOS_V2/cmsis_os2.c ****       portYIELD_FROM_ISR (yield);
 3229              		.loc 1 696 0
 3230 007e BB68     		ldr	r3, [r7, #8]
 3231 0080 002B     		cmp	r3, #0
 3232 0082 15D0     		beq	.L277
 3233              		.loc 1 696 0 is_stmt 0 discriminator 1
 3234 0084 0E4B     		ldr	r3, .L285+4
 3235 0086 4FF08052 		mov	r2, #268435456
 3236 008a 1A60     		str	r2, [r3]
 3237              		.syntax unified
 3238              	@ 696 "Firmware/Middlewares/Third_Party/FreeRTOS/Source/CMSIS_RTOS_V2/cmsis_os2.c" 1
 3239 008c BFF34F8F 		dsb
 3240              	@ 0 "" 2
 3241              	@ 696 "Firmware/Middlewares/Third_Party/FreeRTOS/Source/CMSIS_RTOS_V2/cmsis_os2.c" 1
 3242 0090 BFF36F8F 		isb
 3243              	@ 0 "" 2
 3244              		.thumb
 3245              		.syntax unified
 3246 0094 0CE0     		b	.L277
 3247              	.L281:
 697:Firmware/Middlewares/Third_Party/FreeRTOS/Source/CMSIS_RTOS_V2/cmsis_os2.c ****     }
 698:Firmware/Middlewares/Third_Party/FreeRTOS/Source/CMSIS_RTOS_V2/cmsis_os2.c ****     else {
 699:Firmware/Middlewares/Third_Party/FreeRTOS/Source/CMSIS_RTOS_V2/cmsis_os2.c ****       (void)xTaskNotify (hTask, flags, eSetBits);
 3248              		.loc 1 699 0 is_stmt 1
 3249 0096 0023     		movs	r3, #0
 3250 0098 0122     		movs	r2, #1
 3251 009a 3968     		ldr	r1, [r7]
 3252 009c F869     		ldr	r0, [r7, #28]
 3253 009e FFF7FEFF 		bl	xTaskGenericNotify
 700:Firmware/Middlewares/Third_Party/FreeRTOS/Source/CMSIS_RTOS_V2/cmsis_os2.c ****       (void)xTaskNotifyAndQuery (hTask, 0, eNoAction, &rflags);
 3254              		.loc 1 700 0
 3255 00a2 07F10C03 		add	r3, r7, #12
 3256 00a6 0022     		movs	r2, #0
 3257 00a8 0021     		movs	r1, #0
 3258 00aa F869     		ldr	r0, [r7, #28]
 3259 00ac FFF7FEFF 		bl	xTaskGenericNotify
 3260              	.L277:
 701:Firmware/Middlewares/Third_Party/FreeRTOS/Source/CMSIS_RTOS_V2/cmsis_os2.c ****     }
 702:Firmware/Middlewares/Third_Party/FreeRTOS/Source/CMSIS_RTOS_V2/cmsis_os2.c ****   }
 703:Firmware/Middlewares/Third_Party/FreeRTOS/Source/CMSIS_RTOS_V2/cmsis_os2.c ****   /* Return flags after setting */
 704:Firmware/Middlewares/Third_Party/FreeRTOS/Source/CMSIS_RTOS_V2/cmsis_os2.c ****   return (rflags);
 3261              		.loc 1 704 0
 3262 00b0 FB68     		ldr	r3, [r7, #12]
 705:Firmware/Middlewares/Third_Party/FreeRTOS/Source/CMSIS_RTOS_V2/cmsis_os2.c **** }
 3263              		.loc 1 705 0
 3264 00b2 1846     		mov	r0, r3
 3265 00b4 2037     		adds	r7, r7, #32
 3266              	.LCFI131:
 3267              		.cfi_def_cfa_offset 8
 3268 00b6 BD46     		mov	sp, r7
 3269              	.LCFI132:
 3270              		.cfi_def_cfa_register 13
 3271              		@ sp needed
 3272 00b8 80BD     		pop	{r7, pc}
 3273              	.L286:
 3274 00ba 00BF     		.align	2
ARM GAS  /tmp/ccB5BhZs.s 			page 84


 3275              	.L285:
 3276 00bc 00000000 		.word	KernelState
 3277 00c0 04ED00E0 		.word	-536810236
 3278              		.cfi_endproc
 3279              	.LFE132:
 3281              		.section	.text.osThreadFlagsClear,"ax",%progbits
 3282              		.align	1
 3283              		.global	osThreadFlagsClear
 3284              		.syntax unified
 3285              		.thumb
 3286              		.thumb_func
 3287              		.fpu fpv4-sp-d16
 3289              	osThreadFlagsClear:
 3290              	.LFB133:
 706:Firmware/Middlewares/Third_Party/FreeRTOS/Source/CMSIS_RTOS_V2/cmsis_os2.c **** 
 707:Firmware/Middlewares/Third_Party/FreeRTOS/Source/CMSIS_RTOS_V2/cmsis_os2.c **** uint32_t osThreadFlagsClear (uint32_t flags) {
 3291              		.loc 1 707 0
 3292              		.cfi_startproc
 3293              		@ args = 0, pretend = 0, frame = 32
 3294              		@ frame_needed = 1, uses_anonymous_args = 0
 3295 0000 80B5     		push	{r7, lr}
 3296              	.LCFI133:
 3297              		.cfi_def_cfa_offset 8
 3298              		.cfi_offset 7, -8
 3299              		.cfi_offset 14, -4
 3300 0002 88B0     		sub	sp, sp, #32
 3301              	.LCFI134:
 3302              		.cfi_def_cfa_offset 40
 3303 0004 00AF     		add	r7, sp, #0
 3304              	.LCFI135:
 3305              		.cfi_def_cfa_register 7
 3306 0006 7860     		str	r0, [r7, #4]
 3307              	.LBB458:
 3308              	.LBB459:
 209:Firmware/Drivers/CMSIS/Include/cmsis_gcc.h ****   return(result);
 3309              		.loc 2 209 0
 3310              		.syntax unified
 3311              	@ 209 "Firmware/Drivers/CMSIS/Include/cmsis_gcc.h" 1
 3312 0008 EFF30583 		MRS r3, ipsr
 3313              	@ 0 "" 2
 3314              		.thumb
 3315              		.syntax unified
 3316 000c 7B61     		str	r3, [r7, #20]
 210:Firmware/Drivers/CMSIS/Include/cmsis_gcc.h **** }
 3317              		.loc 2 210 0
 3318 000e 7B69     		ldr	r3, [r7, #20]
 3319              	.LBE459:
 3320              	.LBE458:
 708:Firmware/Middlewares/Third_Party/FreeRTOS/Source/CMSIS_RTOS_V2/cmsis_os2.c ****   TaskHandle_t hTask;
 709:Firmware/Middlewares/Third_Party/FreeRTOS/Source/CMSIS_RTOS_V2/cmsis_os2.c ****   uint32_t rflags, cflags;
 710:Firmware/Middlewares/Third_Party/FreeRTOS/Source/CMSIS_RTOS_V2/cmsis_os2.c **** 
 711:Firmware/Middlewares/Third_Party/FreeRTOS/Source/CMSIS_RTOS_V2/cmsis_os2.c ****   if (IS_IRQ()) {
 3321              		.loc 1 711 0
 3322 0010 002B     		cmp	r3, #0
 3323 0012 0FD1     		bne	.L289
 3324              	.LBB460:
 3325              	.LBB461:
ARM GAS  /tmp/ccB5BhZs.s 			page 85


 386:Firmware/Drivers/CMSIS/Include/cmsis_gcc.h ****   return(result);
 3326              		.loc 2 386 0 discriminator 1
 3327              		.syntax unified
 3328              	@ 386 "Firmware/Drivers/CMSIS/Include/cmsis_gcc.h" 1
 3329 0014 EFF31083 		MRS r3, primask
 3330              	@ 0 "" 2
 3331              		.thumb
 3332              		.syntax unified
 3333 0018 3B61     		str	r3, [r7, #16]
 387:Firmware/Drivers/CMSIS/Include/cmsis_gcc.h **** }
 3334              		.loc 2 387 0 discriminator 1
 3335 001a 3B69     		ldr	r3, [r7, #16]
 3336              	.LBE461:
 3337              	.LBE460:
 3338              		.loc 1 711 0 discriminator 1
 3339 001c 002B     		cmp	r3, #0
 3340 001e 09D1     		bne	.L289
 3341              		.loc 1 711 0 is_stmt 0 discriminator 2
 3342 0020 1E4B     		ldr	r3, .L298
 3343 0022 1B68     		ldr	r3, [r3]
 3344 0024 022B     		cmp	r3, #2
 3345 0026 09D1     		bne	.L291
 3346              	.LBB462:
 3347              	.LBB463:
 465:Firmware/Drivers/CMSIS/Include/cmsis_gcc.h ****   return(result);
 3348              		.loc 2 465 0 is_stmt 1 discriminator 3
 3349              		.syntax unified
 3350              	@ 465 "Firmware/Drivers/CMSIS/Include/cmsis_gcc.h" 1
 3351 0028 EFF31183 		MRS r3, basepri
 3352              	@ 0 "" 2
 3353              		.thumb
 3354              		.syntax unified
 3355 002c FB60     		str	r3, [r7, #12]
 3356              		.loc 2 466 0 discriminator 3
 3357 002e FB68     		ldr	r3, [r7, #12]
 3358              	.LBE463:
 3359              	.LBE462:
 3360              		.loc 1 711 0 discriminator 3
 3361 0030 002B     		cmp	r3, #0
 3362 0032 03D0     		beq	.L291
 3363              	.L289:
 712:Firmware/Middlewares/Third_Party/FreeRTOS/Source/CMSIS_RTOS_V2/cmsis_os2.c ****     rflags = (uint32_t)osErrorISR;
 3364              		.loc 1 712 0
 3365 0034 6FF00503 		mvn	r3, #5
 3366 0038 FB61     		str	r3, [r7, #28]
 3367 003a 2AE0     		b	.L293
 3368              	.L291:
 713:Firmware/Middlewares/Third_Party/FreeRTOS/Source/CMSIS_RTOS_V2/cmsis_os2.c ****   }
 714:Firmware/Middlewares/Third_Party/FreeRTOS/Source/CMSIS_RTOS_V2/cmsis_os2.c ****   else if ((flags & THREAD_FLAGS_INVALID_BITS) != 0U) {
 3369              		.loc 1 714 0
 3370 003c 7B68     		ldr	r3, [r7, #4]
 3371 003e 002B     		cmp	r3, #0
 3372 0040 03DA     		bge	.L294
 715:Firmware/Middlewares/Third_Party/FreeRTOS/Source/CMSIS_RTOS_V2/cmsis_os2.c ****     rflags = (uint32_t)osErrorParameter;
 3373              		.loc 1 715 0
 3374 0042 6FF00303 		mvn	r3, #3
 3375 0046 FB61     		str	r3, [r7, #28]
ARM GAS  /tmp/ccB5BhZs.s 			page 86


 3376 0048 23E0     		b	.L293
 3377              	.L294:
 716:Firmware/Middlewares/Third_Party/FreeRTOS/Source/CMSIS_RTOS_V2/cmsis_os2.c ****   }
 717:Firmware/Middlewares/Third_Party/FreeRTOS/Source/CMSIS_RTOS_V2/cmsis_os2.c ****   else {
 718:Firmware/Middlewares/Third_Party/FreeRTOS/Source/CMSIS_RTOS_V2/cmsis_os2.c ****     hTask = xTaskGetCurrentTaskHandle();
 3378              		.loc 1 718 0
 3379 004a FFF7FEFF 		bl	xTaskGetCurrentTaskHandle
 3380 004e B861     		str	r0, [r7, #24]
 719:Firmware/Middlewares/Third_Party/FreeRTOS/Source/CMSIS_RTOS_V2/cmsis_os2.c **** 
 720:Firmware/Middlewares/Third_Party/FreeRTOS/Source/CMSIS_RTOS_V2/cmsis_os2.c ****     if (xTaskNotifyAndQuery (hTask, 0, eNoAction, &cflags) == pdPASS) {
 3381              		.loc 1 720 0
 3382 0050 07F10803 		add	r3, r7, #8
 3383 0054 0022     		movs	r2, #0
 3384 0056 0021     		movs	r1, #0
 3385 0058 B869     		ldr	r0, [r7, #24]
 3386 005a FFF7FEFF 		bl	xTaskGenericNotify
 3387 005e 0346     		mov	r3, r0
 3388 0060 012B     		cmp	r3, #1
 3389 0062 13D1     		bne	.L295
 721:Firmware/Middlewares/Third_Party/FreeRTOS/Source/CMSIS_RTOS_V2/cmsis_os2.c ****       rflags = cflags;
 3390              		.loc 1 721 0
 3391 0064 BB68     		ldr	r3, [r7, #8]
 3392 0066 FB61     		str	r3, [r7, #28]
 722:Firmware/Middlewares/Third_Party/FreeRTOS/Source/CMSIS_RTOS_V2/cmsis_os2.c ****       cflags &= ~flags;
 3393              		.loc 1 722 0
 3394 0068 7B68     		ldr	r3, [r7, #4]
 3395 006a DA43     		mvns	r2, r3
 3396 006c BB68     		ldr	r3, [r7, #8]
 3397 006e 1340     		ands	r3, r3, r2
 3398 0070 BB60     		str	r3, [r7, #8]
 723:Firmware/Middlewares/Third_Party/FreeRTOS/Source/CMSIS_RTOS_V2/cmsis_os2.c **** 
 724:Firmware/Middlewares/Third_Party/FreeRTOS/Source/CMSIS_RTOS_V2/cmsis_os2.c ****       if (xTaskNotify (hTask, cflags, eSetValueWithOverwrite) != pdPASS) {
 3399              		.loc 1 724 0
 3400 0072 B968     		ldr	r1, [r7, #8]
 3401 0074 0023     		movs	r3, #0
 3402 0076 0322     		movs	r2, #3
 3403 0078 B869     		ldr	r0, [r7, #24]
 3404 007a FFF7FEFF 		bl	xTaskGenericNotify
 3405 007e 0346     		mov	r3, r0
 3406 0080 012B     		cmp	r3, #1
 3407 0082 06D0     		beq	.L293
 725:Firmware/Middlewares/Third_Party/FreeRTOS/Source/CMSIS_RTOS_V2/cmsis_os2.c ****         rflags = (uint32_t)osError;
 3408              		.loc 1 725 0
 3409 0084 4FF0FF33 		mov	r3, #-1
 3410 0088 FB61     		str	r3, [r7, #28]
 3411 008a 02E0     		b	.L293
 3412              	.L295:
 726:Firmware/Middlewares/Third_Party/FreeRTOS/Source/CMSIS_RTOS_V2/cmsis_os2.c ****       }
 727:Firmware/Middlewares/Third_Party/FreeRTOS/Source/CMSIS_RTOS_V2/cmsis_os2.c ****     }
 728:Firmware/Middlewares/Third_Party/FreeRTOS/Source/CMSIS_RTOS_V2/cmsis_os2.c ****     else {
 729:Firmware/Middlewares/Third_Party/FreeRTOS/Source/CMSIS_RTOS_V2/cmsis_os2.c ****       rflags = (uint32_t)osError;
 3413              		.loc 1 729 0
 3414 008c 4FF0FF33 		mov	r3, #-1
 3415 0090 FB61     		str	r3, [r7, #28]
 3416              	.L293:
 730:Firmware/Middlewares/Third_Party/FreeRTOS/Source/CMSIS_RTOS_V2/cmsis_os2.c ****     }
 731:Firmware/Middlewares/Third_Party/FreeRTOS/Source/CMSIS_RTOS_V2/cmsis_os2.c ****   }
ARM GAS  /tmp/ccB5BhZs.s 			page 87


 732:Firmware/Middlewares/Third_Party/FreeRTOS/Source/CMSIS_RTOS_V2/cmsis_os2.c **** 
 733:Firmware/Middlewares/Third_Party/FreeRTOS/Source/CMSIS_RTOS_V2/cmsis_os2.c ****   /* Return flags before clearing */
 734:Firmware/Middlewares/Third_Party/FreeRTOS/Source/CMSIS_RTOS_V2/cmsis_os2.c ****   return (rflags);
 3417              		.loc 1 734 0
 3418 0092 FB69     		ldr	r3, [r7, #28]
 735:Firmware/Middlewares/Third_Party/FreeRTOS/Source/CMSIS_RTOS_V2/cmsis_os2.c **** }
 3419              		.loc 1 735 0
 3420 0094 1846     		mov	r0, r3
 3421 0096 2037     		adds	r7, r7, #32
 3422              	.LCFI136:
 3423              		.cfi_def_cfa_offset 8
 3424 0098 BD46     		mov	sp, r7
 3425              	.LCFI137:
 3426              		.cfi_def_cfa_register 13
 3427              		@ sp needed
 3428 009a 80BD     		pop	{r7, pc}
 3429              	.L299:
 3430              		.align	2
 3431              	.L298:
 3432 009c 00000000 		.word	KernelState
 3433              		.cfi_endproc
 3434              	.LFE133:
 3436              		.section	.text.osThreadFlagsGet,"ax",%progbits
 3437              		.align	1
 3438              		.global	osThreadFlagsGet
 3439              		.syntax unified
 3440              		.thumb
 3441              		.thumb_func
 3442              		.fpu fpv4-sp-d16
 3444              	osThreadFlagsGet:
 3445              	.LFB134:
 736:Firmware/Middlewares/Third_Party/FreeRTOS/Source/CMSIS_RTOS_V2/cmsis_os2.c **** 
 737:Firmware/Middlewares/Third_Party/FreeRTOS/Source/CMSIS_RTOS_V2/cmsis_os2.c **** uint32_t osThreadFlagsGet (void) {
 3446              		.loc 1 737 0
 3447              		.cfi_startproc
 3448              		@ args = 0, pretend = 0, frame = 24
 3449              		@ frame_needed = 1, uses_anonymous_args = 0
 3450 0000 80B5     		push	{r7, lr}
 3451              	.LCFI138:
 3452              		.cfi_def_cfa_offset 8
 3453              		.cfi_offset 7, -8
 3454              		.cfi_offset 14, -4
 3455 0002 86B0     		sub	sp, sp, #24
 3456              	.LCFI139:
 3457              		.cfi_def_cfa_offset 32
 3458 0004 00AF     		add	r7, sp, #0
 3459              	.LCFI140:
 3460              		.cfi_def_cfa_register 7
 3461              	.LBB464:
 3462              	.LBB465:
 209:Firmware/Drivers/CMSIS/Include/cmsis_gcc.h ****   return(result);
 3463              		.loc 2 209 0
 3464              		.syntax unified
 3465              	@ 209 "Firmware/Drivers/CMSIS/Include/cmsis_gcc.h" 1
 3466 0006 EFF30583 		MRS r3, ipsr
 3467              	@ 0 "" 2
 3468              		.thumb
ARM GAS  /tmp/ccB5BhZs.s 			page 88


 3469              		.syntax unified
 3470 000a 3B61     		str	r3, [r7, #16]
 210:Firmware/Drivers/CMSIS/Include/cmsis_gcc.h **** }
 3471              		.loc 2 210 0
 3472 000c 3B69     		ldr	r3, [r7, #16]
 3473              	.LBE465:
 3474              	.LBE464:
 738:Firmware/Middlewares/Third_Party/FreeRTOS/Source/CMSIS_RTOS_V2/cmsis_os2.c ****   TaskHandle_t hTask;
 739:Firmware/Middlewares/Third_Party/FreeRTOS/Source/CMSIS_RTOS_V2/cmsis_os2.c ****   uint32_t rflags;
 740:Firmware/Middlewares/Third_Party/FreeRTOS/Source/CMSIS_RTOS_V2/cmsis_os2.c **** 
 741:Firmware/Middlewares/Third_Party/FreeRTOS/Source/CMSIS_RTOS_V2/cmsis_os2.c ****   if (IS_IRQ()) {
 3475              		.loc 1 741 0
 3476 000e 002B     		cmp	r3, #0
 3477 0010 0FD1     		bne	.L302
 3478              	.LBB466:
 3479              	.LBB467:
 386:Firmware/Drivers/CMSIS/Include/cmsis_gcc.h ****   return(result);
 3480              		.loc 2 386 0 discriminator 1
 3481              		.syntax unified
 3482              	@ 386 "Firmware/Drivers/CMSIS/Include/cmsis_gcc.h" 1
 3483 0012 EFF31083 		MRS r3, primask
 3484              	@ 0 "" 2
 3485              		.thumb
 3486              		.syntax unified
 3487 0016 FB60     		str	r3, [r7, #12]
 387:Firmware/Drivers/CMSIS/Include/cmsis_gcc.h **** }
 3488              		.loc 2 387 0 discriminator 1
 3489 0018 FB68     		ldr	r3, [r7, #12]
 3490              	.LBE467:
 3491              	.LBE466:
 3492              		.loc 1 741 0 discriminator 1
 3493 001a 002B     		cmp	r3, #0
 3494 001c 09D1     		bne	.L302
 3495              		.loc 1 741 0 is_stmt 0 discriminator 2
 3496 001e 114B     		ldr	r3, .L308
 3497 0020 1B68     		ldr	r3, [r3]
 3498 0022 022B     		cmp	r3, #2
 3499 0024 09D1     		bne	.L304
 3500              	.LBB468:
 3501              	.LBB469:
 465:Firmware/Drivers/CMSIS/Include/cmsis_gcc.h ****   return(result);
 3502              		.loc 2 465 0 is_stmt 1 discriminator 3
 3503              		.syntax unified
 3504              	@ 465 "Firmware/Drivers/CMSIS/Include/cmsis_gcc.h" 1
 3505 0026 EFF31183 		MRS r3, basepri
 3506              	@ 0 "" 2
 3507              		.thumb
 3508              		.syntax unified
 3509 002a BB60     		str	r3, [r7, #8]
 3510              		.loc 2 466 0 discriminator 3
 3511 002c BB68     		ldr	r3, [r7, #8]
 3512              	.LBE469:
 3513              	.LBE468:
 3514              		.loc 1 741 0 discriminator 3
 3515 002e 002B     		cmp	r3, #0
 3516 0030 03D0     		beq	.L304
 3517              	.L302:
ARM GAS  /tmp/ccB5BhZs.s 			page 89


 742:Firmware/Middlewares/Third_Party/FreeRTOS/Source/CMSIS_RTOS_V2/cmsis_os2.c ****     rflags = (uint32_t)osErrorISR;
 3518              		.loc 1 742 0
 3519 0032 6FF00503 		mvn	r3, #5
 3520 0036 7B60     		str	r3, [r7, #4]
 3521 0038 0EE0     		b	.L306
 3522              	.L304:
 743:Firmware/Middlewares/Third_Party/FreeRTOS/Source/CMSIS_RTOS_V2/cmsis_os2.c ****   }
 744:Firmware/Middlewares/Third_Party/FreeRTOS/Source/CMSIS_RTOS_V2/cmsis_os2.c ****   else {
 745:Firmware/Middlewares/Third_Party/FreeRTOS/Source/CMSIS_RTOS_V2/cmsis_os2.c ****     hTask = xTaskGetCurrentTaskHandle();
 3523              		.loc 1 745 0
 3524 003a FFF7FEFF 		bl	xTaskGetCurrentTaskHandle
 3525 003e 7861     		str	r0, [r7, #20]
 746:Firmware/Middlewares/Third_Party/FreeRTOS/Source/CMSIS_RTOS_V2/cmsis_os2.c **** 
 747:Firmware/Middlewares/Third_Party/FreeRTOS/Source/CMSIS_RTOS_V2/cmsis_os2.c ****     if (xTaskNotifyAndQuery (hTask, 0, eNoAction, &rflags) != pdPASS) {
 3526              		.loc 1 747 0
 3527 0040 3B1D     		adds	r3, r7, #4
 3528 0042 0022     		movs	r2, #0
 3529 0044 0021     		movs	r1, #0
 3530 0046 7869     		ldr	r0, [r7, #20]
 3531 0048 FFF7FEFF 		bl	xTaskGenericNotify
 3532 004c 0346     		mov	r3, r0
 3533 004e 012B     		cmp	r3, #1
 3534 0050 02D0     		beq	.L306
 748:Firmware/Middlewares/Third_Party/FreeRTOS/Source/CMSIS_RTOS_V2/cmsis_os2.c ****       rflags = (uint32_t)osError;
 3535              		.loc 1 748 0
 3536 0052 4FF0FF33 		mov	r3, #-1
 3537 0056 7B60     		str	r3, [r7, #4]
 3538              	.L306:
 749:Firmware/Middlewares/Third_Party/FreeRTOS/Source/CMSIS_RTOS_V2/cmsis_os2.c ****     }
 750:Firmware/Middlewares/Third_Party/FreeRTOS/Source/CMSIS_RTOS_V2/cmsis_os2.c ****   }
 751:Firmware/Middlewares/Third_Party/FreeRTOS/Source/CMSIS_RTOS_V2/cmsis_os2.c **** 
 752:Firmware/Middlewares/Third_Party/FreeRTOS/Source/CMSIS_RTOS_V2/cmsis_os2.c ****   return (rflags);
 3539              		.loc 1 752 0
 3540 0058 7B68     		ldr	r3, [r7, #4]
 753:Firmware/Middlewares/Third_Party/FreeRTOS/Source/CMSIS_RTOS_V2/cmsis_os2.c **** }
 3541              		.loc 1 753 0
 3542 005a 1846     		mov	r0, r3
 3543 005c 1837     		adds	r7, r7, #24
 3544              	.LCFI141:
 3545              		.cfi_def_cfa_offset 8
 3546 005e BD46     		mov	sp, r7
 3547              	.LCFI142:
 3548              		.cfi_def_cfa_register 13
 3549              		@ sp needed
 3550 0060 80BD     		pop	{r7, pc}
 3551              	.L309:
 3552 0062 00BF     		.align	2
 3553              	.L308:
 3554 0064 00000000 		.word	KernelState
 3555              		.cfi_endproc
 3556              	.LFE134:
 3558              		.section	.text.osThreadFlagsWait,"ax",%progbits
 3559              		.align	1
 3560              		.global	osThreadFlagsWait
 3561              		.syntax unified
 3562              		.thumb
 3563              		.thumb_func
ARM GAS  /tmp/ccB5BhZs.s 			page 90


 3564              		.fpu fpv4-sp-d16
 3566              	osThreadFlagsWait:
 3567              	.LFB135:
 754:Firmware/Middlewares/Third_Party/FreeRTOS/Source/CMSIS_RTOS_V2/cmsis_os2.c **** 
 755:Firmware/Middlewares/Third_Party/FreeRTOS/Source/CMSIS_RTOS_V2/cmsis_os2.c **** uint32_t osThreadFlagsWait (uint32_t flags, uint32_t options, uint32_t timeout) {
 3568              		.loc 1 755 0
 3569              		.cfi_startproc
 3570              		@ args = 0, pretend = 0, frame = 56
 3571              		@ frame_needed = 1, uses_anonymous_args = 0
 3572 0000 80B5     		push	{r7, lr}
 3573              	.LCFI143:
 3574              		.cfi_def_cfa_offset 8
 3575              		.cfi_offset 7, -8
 3576              		.cfi_offset 14, -4
 3577 0002 8EB0     		sub	sp, sp, #56
 3578              	.LCFI144:
 3579              		.cfi_def_cfa_offset 64
 3580 0004 00AF     		add	r7, sp, #0
 3581              	.LCFI145:
 3582              		.cfi_def_cfa_register 7
 3583 0006 F860     		str	r0, [r7, #12]
 3584 0008 B960     		str	r1, [r7, #8]
 3585 000a 7A60     		str	r2, [r7, #4]
 3586              	.LBB470:
 3587              	.LBB471:
 209:Firmware/Drivers/CMSIS/Include/cmsis_gcc.h ****   return(result);
 3588              		.loc 2 209 0
 3589              		.syntax unified
 3590              	@ 209 "Firmware/Drivers/CMSIS/Include/cmsis_gcc.h" 1
 3591 000c EFF30583 		MRS r3, ipsr
 3592              	@ 0 "" 2
 3593              		.thumb
 3594              		.syntax unified
 3595 0010 FB61     		str	r3, [r7, #28]
 210:Firmware/Drivers/CMSIS/Include/cmsis_gcc.h **** }
 3596              		.loc 2 210 0
 3597 0012 FB69     		ldr	r3, [r7, #28]
 3598              	.LBE471:
 3599              	.LBE470:
 756:Firmware/Middlewares/Third_Party/FreeRTOS/Source/CMSIS_RTOS_V2/cmsis_os2.c ****   uint32_t rflags, nval;
 757:Firmware/Middlewares/Third_Party/FreeRTOS/Source/CMSIS_RTOS_V2/cmsis_os2.c ****   uint32_t clear;
 758:Firmware/Middlewares/Third_Party/FreeRTOS/Source/CMSIS_RTOS_V2/cmsis_os2.c ****   TickType_t t0, td, tout;
 759:Firmware/Middlewares/Third_Party/FreeRTOS/Source/CMSIS_RTOS_V2/cmsis_os2.c ****   BaseType_t rval;
 760:Firmware/Middlewares/Third_Party/FreeRTOS/Source/CMSIS_RTOS_V2/cmsis_os2.c **** 
 761:Firmware/Middlewares/Third_Party/FreeRTOS/Source/CMSIS_RTOS_V2/cmsis_os2.c ****   if (IS_IRQ()) {
 3600              		.loc 1 761 0
 3601 0014 002B     		cmp	r3, #0
 3602 0016 0FD1     		bne	.L312
 3603              	.LBB472:
 3604              	.LBB473:
 386:Firmware/Drivers/CMSIS/Include/cmsis_gcc.h ****   return(result);
 3605              		.loc 2 386 0 discriminator 1
 3606              		.syntax unified
 3607              	@ 386 "Firmware/Drivers/CMSIS/Include/cmsis_gcc.h" 1
 3608 0018 EFF31083 		MRS r3, primask
 3609              	@ 0 "" 2
 3610              		.thumb
ARM GAS  /tmp/ccB5BhZs.s 			page 91


 3611              		.syntax unified
 3612 001c BB61     		str	r3, [r7, #24]
 387:Firmware/Drivers/CMSIS/Include/cmsis_gcc.h **** }
 3613              		.loc 2 387 0 discriminator 1
 3614 001e BB69     		ldr	r3, [r7, #24]
 3615              	.LBE473:
 3616              	.LBE472:
 3617              		.loc 1 761 0 discriminator 1
 3618 0020 002B     		cmp	r3, #0
 3619 0022 09D1     		bne	.L312
 3620              		.loc 1 761 0 is_stmt 0 discriminator 2
 3621 0024 3F4B     		ldr	r3, .L333
 3622 0026 1B68     		ldr	r3, [r3]
 3623 0028 022B     		cmp	r3, #2
 3624 002a 09D1     		bne	.L314
 3625              	.LBB474:
 3626              	.LBB475:
 465:Firmware/Drivers/CMSIS/Include/cmsis_gcc.h ****   return(result);
 3627              		.loc 2 465 0 is_stmt 1 discriminator 3
 3628              		.syntax unified
 3629              	@ 465 "Firmware/Drivers/CMSIS/Include/cmsis_gcc.h" 1
 3630 002c EFF31183 		MRS r3, basepri
 3631              	@ 0 "" 2
 3632              		.thumb
 3633              		.syntax unified
 3634 0030 7B61     		str	r3, [r7, #20]
 3635              		.loc 2 466 0 discriminator 3
 3636 0032 7B69     		ldr	r3, [r7, #20]
 3637              	.LBE475:
 3638              	.LBE474:
 3639              		.loc 1 761 0 discriminator 3
 3640 0034 002B     		cmp	r3, #0
 3641 0036 03D0     		beq	.L314
 3642              	.L312:
 762:Firmware/Middlewares/Third_Party/FreeRTOS/Source/CMSIS_RTOS_V2/cmsis_os2.c ****     rflags = (uint32_t)osErrorISR;
 3643              		.loc 1 762 0
 3644 0038 6FF00503 		mvn	r3, #5
 3645 003c 7B63     		str	r3, [r7, #52]
 3646 003e 6BE0     		b	.L316
 3647              	.L314:
 763:Firmware/Middlewares/Third_Party/FreeRTOS/Source/CMSIS_RTOS_V2/cmsis_os2.c ****   }
 764:Firmware/Middlewares/Third_Party/FreeRTOS/Source/CMSIS_RTOS_V2/cmsis_os2.c ****   else if ((flags & THREAD_FLAGS_INVALID_BITS) != 0U) {
 3648              		.loc 1 764 0
 3649 0040 FB68     		ldr	r3, [r7, #12]
 3650 0042 002B     		cmp	r3, #0
 3651 0044 03DA     		bge	.L317
 765:Firmware/Middlewares/Third_Party/FreeRTOS/Source/CMSIS_RTOS_V2/cmsis_os2.c ****     rflags = (uint32_t)osErrorParameter;
 3652              		.loc 1 765 0
 3653 0046 6FF00303 		mvn	r3, #3
 3654 004a 7B63     		str	r3, [r7, #52]
 3655 004c 64E0     		b	.L316
 3656              	.L317:
 766:Firmware/Middlewares/Third_Party/FreeRTOS/Source/CMSIS_RTOS_V2/cmsis_os2.c ****   }
 767:Firmware/Middlewares/Third_Party/FreeRTOS/Source/CMSIS_RTOS_V2/cmsis_os2.c ****   else {
 768:Firmware/Middlewares/Third_Party/FreeRTOS/Source/CMSIS_RTOS_V2/cmsis_os2.c ****     if ((options & osFlagsNoClear) == osFlagsNoClear) {
 3657              		.loc 1 768 0
 3658 004e BB68     		ldr	r3, [r7, #8]
ARM GAS  /tmp/ccB5BhZs.s 			page 92


 3659 0050 03F00203 		and	r3, r3, #2
 3660 0054 002B     		cmp	r3, #0
 3661 0056 02D0     		beq	.L318
 769:Firmware/Middlewares/Third_Party/FreeRTOS/Source/CMSIS_RTOS_V2/cmsis_os2.c ****       clear = 0U;
 3662              		.loc 1 769 0
 3663 0058 0023     		movs	r3, #0
 3664 005a 3B63     		str	r3, [r7, #48]
 3665 005c 01E0     		b	.L319
 3666              	.L318:
 770:Firmware/Middlewares/Third_Party/FreeRTOS/Source/CMSIS_RTOS_V2/cmsis_os2.c ****     } else {
 771:Firmware/Middlewares/Third_Party/FreeRTOS/Source/CMSIS_RTOS_V2/cmsis_os2.c ****       clear = flags;
 3667              		.loc 1 771 0
 3668 005e FB68     		ldr	r3, [r7, #12]
 3669 0060 3B63     		str	r3, [r7, #48]
 3670              	.L319:
 772:Firmware/Middlewares/Third_Party/FreeRTOS/Source/CMSIS_RTOS_V2/cmsis_os2.c ****     }
 773:Firmware/Middlewares/Third_Party/FreeRTOS/Source/CMSIS_RTOS_V2/cmsis_os2.c **** 
 774:Firmware/Middlewares/Third_Party/FreeRTOS/Source/CMSIS_RTOS_V2/cmsis_os2.c ****     rflags = 0U;
 3671              		.loc 1 774 0
 3672 0062 0023     		movs	r3, #0
 3673 0064 7B63     		str	r3, [r7, #52]
 775:Firmware/Middlewares/Third_Party/FreeRTOS/Source/CMSIS_RTOS_V2/cmsis_os2.c ****     tout   = timeout;
 3674              		.loc 1 775 0
 3675 0066 7B68     		ldr	r3, [r7, #4]
 3676 0068 FB62     		str	r3, [r7, #44]
 776:Firmware/Middlewares/Third_Party/FreeRTOS/Source/CMSIS_RTOS_V2/cmsis_os2.c **** 
 777:Firmware/Middlewares/Third_Party/FreeRTOS/Source/CMSIS_RTOS_V2/cmsis_os2.c ****     t0 = xTaskGetTickCount();
 3677              		.loc 1 777 0
 3678 006a FFF7FEFF 		bl	xTaskGetTickCount
 3679 006e B862     		str	r0, [r7, #40]
 3680              	.L329:
 778:Firmware/Middlewares/Third_Party/FreeRTOS/Source/CMSIS_RTOS_V2/cmsis_os2.c ****     do {
 779:Firmware/Middlewares/Third_Party/FreeRTOS/Source/CMSIS_RTOS_V2/cmsis_os2.c ****       rval = xTaskNotifyWait (0, clear, &nval, tout);
 3681              		.loc 1 779 0
 3682 0070 07F11002 		add	r2, r7, #16
 3683 0074 FB6A     		ldr	r3, [r7, #44]
 3684 0076 396B     		ldr	r1, [r7, #48]
 3685 0078 0020     		movs	r0, #0
 3686 007a FFF7FEFF 		bl	xTaskNotifyWait
 3687 007e 7862     		str	r0, [r7, #36]
 780:Firmware/Middlewares/Third_Party/FreeRTOS/Source/CMSIS_RTOS_V2/cmsis_os2.c **** 
 781:Firmware/Middlewares/Third_Party/FreeRTOS/Source/CMSIS_RTOS_V2/cmsis_os2.c ****       if (rval == pdPASS) {
 3688              		.loc 1 781 0
 3689 0080 7B6A     		ldr	r3, [r7, #36]
 3690 0082 012B     		cmp	r3, #1
 3691 0084 37D1     		bne	.L320
 782:Firmware/Middlewares/Third_Party/FreeRTOS/Source/CMSIS_RTOS_V2/cmsis_os2.c ****         rflags &= flags;
 3692              		.loc 1 782 0
 3693 0086 7A6B     		ldr	r2, [r7, #52]
 3694 0088 FB68     		ldr	r3, [r7, #12]
 3695 008a 1340     		ands	r3, r3, r2
 3696 008c 7B63     		str	r3, [r7, #52]
 783:Firmware/Middlewares/Third_Party/FreeRTOS/Source/CMSIS_RTOS_V2/cmsis_os2.c ****         rflags |= nval;
 3697              		.loc 1 783 0
 3698 008e 3B69     		ldr	r3, [r7, #16]
 3699 0090 7A6B     		ldr	r2, [r7, #52]
 3700 0092 1343     		orrs	r3, r3, r2
ARM GAS  /tmp/ccB5BhZs.s 			page 93


 3701 0094 7B63     		str	r3, [r7, #52]
 784:Firmware/Middlewares/Third_Party/FreeRTOS/Source/CMSIS_RTOS_V2/cmsis_os2.c **** 
 785:Firmware/Middlewares/Third_Party/FreeRTOS/Source/CMSIS_RTOS_V2/cmsis_os2.c ****         if ((options & osFlagsWaitAll) == osFlagsWaitAll) {
 3702              		.loc 1 785 0
 3703 0096 BB68     		ldr	r3, [r7, #8]
 3704 0098 03F00103 		and	r3, r3, #1
 3705 009c 002B     		cmp	r3, #0
 3706 009e 0CD0     		beq	.L321
 786:Firmware/Middlewares/Third_Party/FreeRTOS/Source/CMSIS_RTOS_V2/cmsis_os2.c ****           if ((flags & rflags) == flags) {
 3707              		.loc 1 786 0
 3708 00a0 FA68     		ldr	r2, [r7, #12]
 3709 00a2 7B6B     		ldr	r3, [r7, #52]
 3710 00a4 1340     		ands	r3, r3, r2
 3711 00a6 FA68     		ldr	r2, [r7, #12]
 3712 00a8 9A42     		cmp	r2, r3
 3713 00aa 32D0     		beq	.L331
 787:Firmware/Middlewares/Third_Party/FreeRTOS/Source/CMSIS_RTOS_V2/cmsis_os2.c ****             break;
 788:Firmware/Middlewares/Third_Party/FreeRTOS/Source/CMSIS_RTOS_V2/cmsis_os2.c ****           } else {
 789:Firmware/Middlewares/Third_Party/FreeRTOS/Source/CMSIS_RTOS_V2/cmsis_os2.c ****             if (timeout == 0U) {
 3714              		.loc 1 789 0
 3715 00ac 7B68     		ldr	r3, [r7, #4]
 3716 00ae 002B     		cmp	r3, #0
 3717 00b0 0FD1     		bne	.L323
 790:Firmware/Middlewares/Third_Party/FreeRTOS/Source/CMSIS_RTOS_V2/cmsis_os2.c ****               rflags = (uint32_t)osErrorResource;
 3718              		.loc 1 790 0
 3719 00b2 6FF00203 		mvn	r3, #2
 3720 00b6 7B63     		str	r3, [r7, #52]
 791:Firmware/Middlewares/Third_Party/FreeRTOS/Source/CMSIS_RTOS_V2/cmsis_os2.c ****               break;
 3721              		.loc 1 791 0
 3722 00b8 2EE0     		b	.L316
 3723              	.L321:
 792:Firmware/Middlewares/Third_Party/FreeRTOS/Source/CMSIS_RTOS_V2/cmsis_os2.c ****             }
 793:Firmware/Middlewares/Third_Party/FreeRTOS/Source/CMSIS_RTOS_V2/cmsis_os2.c ****           }
 794:Firmware/Middlewares/Third_Party/FreeRTOS/Source/CMSIS_RTOS_V2/cmsis_os2.c ****         }
 795:Firmware/Middlewares/Third_Party/FreeRTOS/Source/CMSIS_RTOS_V2/cmsis_os2.c ****         else {
 796:Firmware/Middlewares/Third_Party/FreeRTOS/Source/CMSIS_RTOS_V2/cmsis_os2.c ****           if ((flags & rflags) != 0) {
 3724              		.loc 1 796 0
 3725 00ba FA68     		ldr	r2, [r7, #12]
 3726 00bc 7B6B     		ldr	r3, [r7, #52]
 3727 00be 1340     		ands	r3, r3, r2
 3728 00c0 002B     		cmp	r3, #0
 3729 00c2 28D1     		bne	.L332
 797:Firmware/Middlewares/Third_Party/FreeRTOS/Source/CMSIS_RTOS_V2/cmsis_os2.c ****             break;
 798:Firmware/Middlewares/Third_Party/FreeRTOS/Source/CMSIS_RTOS_V2/cmsis_os2.c ****           } else {
 799:Firmware/Middlewares/Third_Party/FreeRTOS/Source/CMSIS_RTOS_V2/cmsis_os2.c ****             if (timeout == 0U) {
 3730              		.loc 1 799 0
 3731 00c4 7B68     		ldr	r3, [r7, #4]
 3732 00c6 002B     		cmp	r3, #0
 3733 00c8 03D1     		bne	.L323
 800:Firmware/Middlewares/Third_Party/FreeRTOS/Source/CMSIS_RTOS_V2/cmsis_os2.c ****               rflags = (uint32_t)osErrorResource;
 3734              		.loc 1 800 0
 3735 00ca 6FF00203 		mvn	r3, #2
 3736 00ce 7B63     		str	r3, [r7, #52]
 801:Firmware/Middlewares/Third_Party/FreeRTOS/Source/CMSIS_RTOS_V2/cmsis_os2.c ****               break;
 3737              		.loc 1 801 0
 3738 00d0 22E0     		b	.L316
 3739              	.L323:
ARM GAS  /tmp/ccB5BhZs.s 			page 94


 802:Firmware/Middlewares/Third_Party/FreeRTOS/Source/CMSIS_RTOS_V2/cmsis_os2.c ****             }
 803:Firmware/Middlewares/Third_Party/FreeRTOS/Source/CMSIS_RTOS_V2/cmsis_os2.c ****           }
 804:Firmware/Middlewares/Third_Party/FreeRTOS/Source/CMSIS_RTOS_V2/cmsis_os2.c ****         }
 805:Firmware/Middlewares/Third_Party/FreeRTOS/Source/CMSIS_RTOS_V2/cmsis_os2.c **** 
 806:Firmware/Middlewares/Third_Party/FreeRTOS/Source/CMSIS_RTOS_V2/cmsis_os2.c ****         /* Update timeout */
 807:Firmware/Middlewares/Third_Party/FreeRTOS/Source/CMSIS_RTOS_V2/cmsis_os2.c ****         td = xTaskGetTickCount() - t0;
 3740              		.loc 1 807 0
 3741 00d2 FFF7FEFF 		bl	xTaskGetTickCount
 3742 00d6 0246     		mov	r2, r0
 3743 00d8 BB6A     		ldr	r3, [r7, #40]
 3744 00da D31A     		subs	r3, r2, r3
 3745 00dc 3B62     		str	r3, [r7, #32]
 808:Firmware/Middlewares/Third_Party/FreeRTOS/Source/CMSIS_RTOS_V2/cmsis_os2.c **** 
 809:Firmware/Middlewares/Third_Party/FreeRTOS/Source/CMSIS_RTOS_V2/cmsis_os2.c ****         if (td > tout) {
 3746              		.loc 1 809 0
 3747 00de 3A6A     		ldr	r2, [r7, #32]
 3748 00e0 FB6A     		ldr	r3, [r7, #44]
 3749 00e2 9A42     		cmp	r2, r3
 3750 00e4 02D9     		bls	.L325
 810:Firmware/Middlewares/Third_Party/FreeRTOS/Source/CMSIS_RTOS_V2/cmsis_os2.c ****           tout  = 0;
 3751              		.loc 1 810 0
 3752 00e6 0023     		movs	r3, #0
 3753 00e8 FB62     		str	r3, [r7, #44]
 3754 00ea 0EE0     		b	.L327
 3755              	.L325:
 811:Firmware/Middlewares/Third_Party/FreeRTOS/Source/CMSIS_RTOS_V2/cmsis_os2.c ****         } else {
 812:Firmware/Middlewares/Third_Party/FreeRTOS/Source/CMSIS_RTOS_V2/cmsis_os2.c ****           tout -= td;
 3756              		.loc 1 812 0
 3757 00ec FA6A     		ldr	r2, [r7, #44]
 3758 00ee 3B6A     		ldr	r3, [r7, #32]
 3759 00f0 D31A     		subs	r3, r2, r3
 3760 00f2 FB62     		str	r3, [r7, #44]
 3761 00f4 09E0     		b	.L327
 3762              	.L320:
 813:Firmware/Middlewares/Third_Party/FreeRTOS/Source/CMSIS_RTOS_V2/cmsis_os2.c ****         }
 814:Firmware/Middlewares/Third_Party/FreeRTOS/Source/CMSIS_RTOS_V2/cmsis_os2.c ****       }
 815:Firmware/Middlewares/Third_Party/FreeRTOS/Source/CMSIS_RTOS_V2/cmsis_os2.c ****       else {
 816:Firmware/Middlewares/Third_Party/FreeRTOS/Source/CMSIS_RTOS_V2/cmsis_os2.c ****         if (timeout == 0) {
 3763              		.loc 1 816 0
 3764 00f6 7B68     		ldr	r3, [r7, #4]
 3765 00f8 002B     		cmp	r3, #0
 3766 00fa 03D1     		bne	.L328
 817:Firmware/Middlewares/Third_Party/FreeRTOS/Source/CMSIS_RTOS_V2/cmsis_os2.c ****           rflags = (uint32_t)osErrorResource;
 3767              		.loc 1 817 0
 3768 00fc 6FF00203 		mvn	r3, #2
 3769 0100 7B63     		str	r3, [r7, #52]
 3770 0102 02E0     		b	.L327
 3771              	.L328:
 818:Firmware/Middlewares/Third_Party/FreeRTOS/Source/CMSIS_RTOS_V2/cmsis_os2.c ****         } else {
 819:Firmware/Middlewares/Third_Party/FreeRTOS/Source/CMSIS_RTOS_V2/cmsis_os2.c ****           rflags = (uint32_t)osErrorTimeout;
 3772              		.loc 1 819 0
 3773 0104 6FF00103 		mvn	r3, #1
 3774 0108 7B63     		str	r3, [r7, #52]
 3775              	.L327:
 820:Firmware/Middlewares/Third_Party/FreeRTOS/Source/CMSIS_RTOS_V2/cmsis_os2.c ****         }
 821:Firmware/Middlewares/Third_Party/FreeRTOS/Source/CMSIS_RTOS_V2/cmsis_os2.c ****       }
 822:Firmware/Middlewares/Third_Party/FreeRTOS/Source/CMSIS_RTOS_V2/cmsis_os2.c ****     }
ARM GAS  /tmp/ccB5BhZs.s 			page 95


 823:Firmware/Middlewares/Third_Party/FreeRTOS/Source/CMSIS_RTOS_V2/cmsis_os2.c ****     while (rval != pdFAIL);
 3776              		.loc 1 823 0
 3777 010a 7B6A     		ldr	r3, [r7, #36]
 3778 010c 002B     		cmp	r3, #0
 3779 010e AFD1     		bne	.L329
 3780 0110 02E0     		b	.L316
 3781              	.L331:
 787:Firmware/Middlewares/Third_Party/FreeRTOS/Source/CMSIS_RTOS_V2/cmsis_os2.c ****           } else {
 3782              		.loc 1 787 0
 3783 0112 00BF     		nop
 3784 0114 00E0     		b	.L316
 3785              	.L332:
 797:Firmware/Middlewares/Third_Party/FreeRTOS/Source/CMSIS_RTOS_V2/cmsis_os2.c ****           } else {
 3786              		.loc 1 797 0
 3787 0116 00BF     		nop
 3788              	.L316:
 824:Firmware/Middlewares/Third_Party/FreeRTOS/Source/CMSIS_RTOS_V2/cmsis_os2.c ****   }
 825:Firmware/Middlewares/Third_Party/FreeRTOS/Source/CMSIS_RTOS_V2/cmsis_os2.c **** 
 826:Firmware/Middlewares/Third_Party/FreeRTOS/Source/CMSIS_RTOS_V2/cmsis_os2.c ****   /* Return flags before clearing */
 827:Firmware/Middlewares/Third_Party/FreeRTOS/Source/CMSIS_RTOS_V2/cmsis_os2.c ****   return (rflags);
 3789              		.loc 1 827 0
 3790 0118 7B6B     		ldr	r3, [r7, #52]
 828:Firmware/Middlewares/Third_Party/FreeRTOS/Source/CMSIS_RTOS_V2/cmsis_os2.c **** }
 3791              		.loc 1 828 0
 3792 011a 1846     		mov	r0, r3
 3793 011c 3837     		adds	r7, r7, #56
 3794              	.LCFI146:
 3795              		.cfi_def_cfa_offset 8
 3796 011e BD46     		mov	sp, r7
 3797              	.LCFI147:
 3798              		.cfi_def_cfa_register 13
 3799              		@ sp needed
 3800 0120 80BD     		pop	{r7, pc}
 3801              	.L334:
 3802 0122 00BF     		.align	2
 3803              	.L333:
 3804 0124 00000000 		.word	KernelState
 3805              		.cfi_endproc
 3806              	.LFE135:
 3808              		.section	.text.osDelay,"ax",%progbits
 3809              		.align	1
 3810              		.global	osDelay
 3811              		.syntax unified
 3812              		.thumb
 3813              		.thumb_func
 3814              		.fpu fpv4-sp-d16
 3816              	osDelay:
 3817              	.LFB136:
 829:Firmware/Middlewares/Third_Party/FreeRTOS/Source/CMSIS_RTOS_V2/cmsis_os2.c **** 
 830:Firmware/Middlewares/Third_Party/FreeRTOS/Source/CMSIS_RTOS_V2/cmsis_os2.c **** osStatus_t osDelay (uint32_t ticks) {
 3818              		.loc 1 830 0
 3819              		.cfi_startproc
 3820              		@ args = 0, pretend = 0, frame = 24
 3821              		@ frame_needed = 1, uses_anonymous_args = 0
 3822 0000 80B5     		push	{r7, lr}
 3823              	.LCFI148:
 3824              		.cfi_def_cfa_offset 8
ARM GAS  /tmp/ccB5BhZs.s 			page 96


 3825              		.cfi_offset 7, -8
 3826              		.cfi_offset 14, -4
 3827 0002 86B0     		sub	sp, sp, #24
 3828              	.LCFI149:
 3829              		.cfi_def_cfa_offset 32
 3830 0004 00AF     		add	r7, sp, #0
 3831              	.LCFI150:
 3832              		.cfi_def_cfa_register 7
 3833 0006 7860     		str	r0, [r7, #4]
 3834              	.LBB476:
 3835              	.LBB477:
 209:Firmware/Drivers/CMSIS/Include/cmsis_gcc.h ****   return(result);
 3836              		.loc 2 209 0
 3837              		.syntax unified
 3838              	@ 209 "Firmware/Drivers/CMSIS/Include/cmsis_gcc.h" 1
 3839 0008 EFF30583 		MRS r3, ipsr
 3840              	@ 0 "" 2
 3841              		.thumb
 3842              		.syntax unified
 3843 000c 3B61     		str	r3, [r7, #16]
 210:Firmware/Drivers/CMSIS/Include/cmsis_gcc.h **** }
 3844              		.loc 2 210 0
 3845 000e 3B69     		ldr	r3, [r7, #16]
 3846              	.LBE477:
 3847              	.LBE476:
 831:Firmware/Middlewares/Third_Party/FreeRTOS/Source/CMSIS_RTOS_V2/cmsis_os2.c ****   osStatus_t stat;
 832:Firmware/Middlewares/Third_Party/FreeRTOS/Source/CMSIS_RTOS_V2/cmsis_os2.c **** 
 833:Firmware/Middlewares/Third_Party/FreeRTOS/Source/CMSIS_RTOS_V2/cmsis_os2.c ****   if (IS_IRQ()) {
 3848              		.loc 1 833 0
 3849 0010 002B     		cmp	r3, #0
 3850 0012 0FD1     		bne	.L337
 3851              	.LBB478:
 3852              	.LBB479:
 386:Firmware/Drivers/CMSIS/Include/cmsis_gcc.h ****   return(result);
 3853              		.loc 2 386 0 discriminator 1
 3854              		.syntax unified
 3855              	@ 386 "Firmware/Drivers/CMSIS/Include/cmsis_gcc.h" 1
 3856 0014 EFF31083 		MRS r3, primask
 3857              	@ 0 "" 2
 3858              		.thumb
 3859              		.syntax unified
 3860 0018 FB60     		str	r3, [r7, #12]
 387:Firmware/Drivers/CMSIS/Include/cmsis_gcc.h **** }
 3861              		.loc 2 387 0 discriminator 1
 3862 001a FB68     		ldr	r3, [r7, #12]
 3863              	.LBE479:
 3864              	.LBE478:
 3865              		.loc 1 833 0 discriminator 1
 3866 001c 002B     		cmp	r3, #0
 3867 001e 09D1     		bne	.L337
 3868              		.loc 1 833 0 is_stmt 0 discriminator 2
 3869 0020 0D4B     		ldr	r3, .L343
 3870 0022 1B68     		ldr	r3, [r3]
 3871 0024 022B     		cmp	r3, #2
 3872 0026 09D1     		bne	.L339
 3873              	.LBB480:
 3874              	.LBB481:
ARM GAS  /tmp/ccB5BhZs.s 			page 97


 465:Firmware/Drivers/CMSIS/Include/cmsis_gcc.h ****   return(result);
 3875              		.loc 2 465 0 is_stmt 1 discriminator 3
 3876              		.syntax unified
 3877              	@ 465 "Firmware/Drivers/CMSIS/Include/cmsis_gcc.h" 1
 3878 0028 EFF31183 		MRS r3, basepri
 3879              	@ 0 "" 2
 3880              		.thumb
 3881              		.syntax unified
 3882 002c BB60     		str	r3, [r7, #8]
 3883              		.loc 2 466 0 discriminator 3
 3884 002e BB68     		ldr	r3, [r7, #8]
 3885              	.LBE481:
 3886              	.LBE480:
 3887              		.loc 1 833 0 discriminator 3
 3888 0030 002B     		cmp	r3, #0
 3889 0032 03D0     		beq	.L339
 3890              	.L337:
 834:Firmware/Middlewares/Third_Party/FreeRTOS/Source/CMSIS_RTOS_V2/cmsis_os2.c ****     stat = osErrorISR;
 3891              		.loc 1 834 0
 3892 0034 6FF00503 		mvn	r3, #5
 3893 0038 7B61     		str	r3, [r7, #20]
 3894 003a 07E0     		b	.L341
 3895              	.L339:
 835:Firmware/Middlewares/Third_Party/FreeRTOS/Source/CMSIS_RTOS_V2/cmsis_os2.c ****   }
 836:Firmware/Middlewares/Third_Party/FreeRTOS/Source/CMSIS_RTOS_V2/cmsis_os2.c ****   else {
 837:Firmware/Middlewares/Third_Party/FreeRTOS/Source/CMSIS_RTOS_V2/cmsis_os2.c ****     stat = osOK;
 3896              		.loc 1 837 0
 3897 003c 0023     		movs	r3, #0
 3898 003e 7B61     		str	r3, [r7, #20]
 838:Firmware/Middlewares/Third_Party/FreeRTOS/Source/CMSIS_RTOS_V2/cmsis_os2.c **** 
 839:Firmware/Middlewares/Third_Party/FreeRTOS/Source/CMSIS_RTOS_V2/cmsis_os2.c ****     if (ticks != 0U) {
 3899              		.loc 1 839 0
 3900 0040 7B68     		ldr	r3, [r7, #4]
 3901 0042 002B     		cmp	r3, #0
 3902 0044 02D0     		beq	.L341
 840:Firmware/Middlewares/Third_Party/FreeRTOS/Source/CMSIS_RTOS_V2/cmsis_os2.c ****       vTaskDelay(ticks);
 3903              		.loc 1 840 0
 3904 0046 7868     		ldr	r0, [r7, #4]
 3905 0048 FFF7FEFF 		bl	vTaskDelay
 3906              	.L341:
 841:Firmware/Middlewares/Third_Party/FreeRTOS/Source/CMSIS_RTOS_V2/cmsis_os2.c ****     }
 842:Firmware/Middlewares/Third_Party/FreeRTOS/Source/CMSIS_RTOS_V2/cmsis_os2.c ****   }
 843:Firmware/Middlewares/Third_Party/FreeRTOS/Source/CMSIS_RTOS_V2/cmsis_os2.c **** 
 844:Firmware/Middlewares/Third_Party/FreeRTOS/Source/CMSIS_RTOS_V2/cmsis_os2.c ****   return (stat);
 3907              		.loc 1 844 0
 3908 004c 7B69     		ldr	r3, [r7, #20]
 845:Firmware/Middlewares/Third_Party/FreeRTOS/Source/CMSIS_RTOS_V2/cmsis_os2.c **** }
 3909              		.loc 1 845 0
 3910 004e 1846     		mov	r0, r3
 3911 0050 1837     		adds	r7, r7, #24
 3912              	.LCFI151:
 3913              		.cfi_def_cfa_offset 8
 3914 0052 BD46     		mov	sp, r7
 3915              	.LCFI152:
 3916              		.cfi_def_cfa_register 13
 3917              		@ sp needed
 3918 0054 80BD     		pop	{r7, pc}
ARM GAS  /tmp/ccB5BhZs.s 			page 98


 3919              	.L344:
 3920 0056 00BF     		.align	2
 3921              	.L343:
 3922 0058 00000000 		.word	KernelState
 3923              		.cfi_endproc
 3924              	.LFE136:
 3926              		.section	.text.osDelayUntil,"ax",%progbits
 3927              		.align	1
 3928              		.global	osDelayUntil
 3929              		.syntax unified
 3930              		.thumb
 3931              		.thumb_func
 3932              		.fpu fpv4-sp-d16
 3934              	osDelayUntil:
 3935              	.LFB137:
 846:Firmware/Middlewares/Third_Party/FreeRTOS/Source/CMSIS_RTOS_V2/cmsis_os2.c **** 
 847:Firmware/Middlewares/Third_Party/FreeRTOS/Source/CMSIS_RTOS_V2/cmsis_os2.c **** osStatus_t osDelayUntil (uint32_t ticks) {
 3936              		.loc 1 847 0
 3937              		.cfi_startproc
 3938              		@ args = 0, pretend = 0, frame = 32
 3939              		@ frame_needed = 1, uses_anonymous_args = 0
 3940 0000 80B5     		push	{r7, lr}
 3941              	.LCFI153:
 3942              		.cfi_def_cfa_offset 8
 3943              		.cfi_offset 7, -8
 3944              		.cfi_offset 14, -4
 3945 0002 88B0     		sub	sp, sp, #32
 3946              	.LCFI154:
 3947              		.cfi_def_cfa_offset 40
 3948 0004 00AF     		add	r7, sp, #0
 3949              	.LCFI155:
 3950              		.cfi_def_cfa_register 7
 3951 0006 7860     		str	r0, [r7, #4]
 3952              	.LBB482:
 3953              	.LBB483:
 209:Firmware/Drivers/CMSIS/Include/cmsis_gcc.h ****   return(result);
 3954              		.loc 2 209 0
 3955              		.syntax unified
 3956              	@ 209 "Firmware/Drivers/CMSIS/Include/cmsis_gcc.h" 1
 3957 0008 EFF30583 		MRS r3, ipsr
 3958              	@ 0 "" 2
 3959              		.thumb
 3960              		.syntax unified
 3961 000c BB61     		str	r3, [r7, #24]
 210:Firmware/Drivers/CMSIS/Include/cmsis_gcc.h **** }
 3962              		.loc 2 210 0
 3963 000e BB69     		ldr	r3, [r7, #24]
 3964              	.LBE483:
 3965              	.LBE482:
 848:Firmware/Middlewares/Third_Party/FreeRTOS/Source/CMSIS_RTOS_V2/cmsis_os2.c ****   TickType_t tcnt;
 849:Firmware/Middlewares/Third_Party/FreeRTOS/Source/CMSIS_RTOS_V2/cmsis_os2.c ****   osStatus_t stat;
 850:Firmware/Middlewares/Third_Party/FreeRTOS/Source/CMSIS_RTOS_V2/cmsis_os2.c **** 
 851:Firmware/Middlewares/Third_Party/FreeRTOS/Source/CMSIS_RTOS_V2/cmsis_os2.c ****   if (IS_IRQ()) {
 3966              		.loc 1 851 0
 3967 0010 002B     		cmp	r3, #0
 3968 0012 0FD1     		bne	.L347
 3969              	.LBB484:
ARM GAS  /tmp/ccB5BhZs.s 			page 99


 3970              	.LBB485:
 386:Firmware/Drivers/CMSIS/Include/cmsis_gcc.h ****   return(result);
 3971              		.loc 2 386 0 discriminator 1
 3972              		.syntax unified
 3973              	@ 386 "Firmware/Drivers/CMSIS/Include/cmsis_gcc.h" 1
 3974 0014 EFF31083 		MRS r3, primask
 3975              	@ 0 "" 2
 3976              		.thumb
 3977              		.syntax unified
 3978 0018 7B61     		str	r3, [r7, #20]
 387:Firmware/Drivers/CMSIS/Include/cmsis_gcc.h **** }
 3979              		.loc 2 387 0 discriminator 1
 3980 001a 7B69     		ldr	r3, [r7, #20]
 3981              	.LBE485:
 3982              	.LBE484:
 3983              		.loc 1 851 0 discriminator 1
 3984 001c 002B     		cmp	r3, #0
 3985 001e 09D1     		bne	.L347
 3986              		.loc 1 851 0 is_stmt 0 discriminator 2
 3987 0020 104B     		ldr	r3, .L353
 3988 0022 1B68     		ldr	r3, [r3]
 3989 0024 022B     		cmp	r3, #2
 3990 0026 09D1     		bne	.L349
 3991              	.LBB486:
 3992              	.LBB487:
 465:Firmware/Drivers/CMSIS/Include/cmsis_gcc.h ****   return(result);
 3993              		.loc 2 465 0 is_stmt 1 discriminator 3
 3994              		.syntax unified
 3995              	@ 465 "Firmware/Drivers/CMSIS/Include/cmsis_gcc.h" 1
 3996 0028 EFF31183 		MRS r3, basepri
 3997              	@ 0 "" 2
 3998              		.thumb
 3999              		.syntax unified
 4000 002c 3B61     		str	r3, [r7, #16]
 4001              		.loc 2 466 0 discriminator 3
 4002 002e 3B69     		ldr	r3, [r7, #16]
 4003              	.LBE487:
 4004              	.LBE486:
 4005              		.loc 1 851 0 discriminator 3
 4006 0030 002B     		cmp	r3, #0
 4007 0032 03D0     		beq	.L349
 4008              	.L347:
 852:Firmware/Middlewares/Third_Party/FreeRTOS/Source/CMSIS_RTOS_V2/cmsis_os2.c ****     stat = osErrorISR;
 4009              		.loc 1 852 0
 4010 0034 6FF00503 		mvn	r3, #5
 4011 0038 FB61     		str	r3, [r7, #28]
 4012 003a 0EE0     		b	.L351
 4013              	.L349:
 853:Firmware/Middlewares/Third_Party/FreeRTOS/Source/CMSIS_RTOS_V2/cmsis_os2.c ****   }
 854:Firmware/Middlewares/Third_Party/FreeRTOS/Source/CMSIS_RTOS_V2/cmsis_os2.c ****   else {
 855:Firmware/Middlewares/Third_Party/FreeRTOS/Source/CMSIS_RTOS_V2/cmsis_os2.c ****     stat = osOK;
 4014              		.loc 1 855 0
 4015 003c 0023     		movs	r3, #0
 4016 003e FB61     		str	r3, [r7, #28]
 856:Firmware/Middlewares/Third_Party/FreeRTOS/Source/CMSIS_RTOS_V2/cmsis_os2.c ****     tcnt = xTaskGetTickCount();
 4017              		.loc 1 856 0
 4018 0040 FFF7FEFF 		bl	xTaskGetTickCount
ARM GAS  /tmp/ccB5BhZs.s 			page 100


 4019 0044 0346     		mov	r3, r0
 4020 0046 FB60     		str	r3, [r7, #12]
 857:Firmware/Middlewares/Third_Party/FreeRTOS/Source/CMSIS_RTOS_V2/cmsis_os2.c **** 
 858:Firmware/Middlewares/Third_Party/FreeRTOS/Source/CMSIS_RTOS_V2/cmsis_os2.c ****     vTaskDelayUntil (&tcnt, (TickType_t)(ticks - tcnt));
 4021              		.loc 1 858 0
 4022 0048 FB68     		ldr	r3, [r7, #12]
 4023 004a 7A68     		ldr	r2, [r7, #4]
 4024 004c D21A     		subs	r2, r2, r3
 4025 004e 07F10C03 		add	r3, r7, #12
 4026 0052 1146     		mov	r1, r2
 4027 0054 1846     		mov	r0, r3
 4028 0056 FFF7FEFF 		bl	vTaskDelayUntil
 4029              	.L351:
 859:Firmware/Middlewares/Third_Party/FreeRTOS/Source/CMSIS_RTOS_V2/cmsis_os2.c ****   }
 860:Firmware/Middlewares/Third_Party/FreeRTOS/Source/CMSIS_RTOS_V2/cmsis_os2.c **** 
 861:Firmware/Middlewares/Third_Party/FreeRTOS/Source/CMSIS_RTOS_V2/cmsis_os2.c ****   return (stat);
 4030              		.loc 1 861 0
 4031 005a FB69     		ldr	r3, [r7, #28]
 862:Firmware/Middlewares/Third_Party/FreeRTOS/Source/CMSIS_RTOS_V2/cmsis_os2.c **** }
 4032              		.loc 1 862 0
 4033 005c 1846     		mov	r0, r3
 4034 005e 2037     		adds	r7, r7, #32
 4035              	.LCFI156:
 4036              		.cfi_def_cfa_offset 8
 4037 0060 BD46     		mov	sp, r7
 4038              	.LCFI157:
 4039              		.cfi_def_cfa_register 13
 4040              		@ sp needed
 4041 0062 80BD     		pop	{r7, pc}
 4042              	.L354:
 4043              		.align	2
 4044              	.L353:
 4045 0064 00000000 		.word	KernelState
 4046              		.cfi_endproc
 4047              	.LFE137:
 4049              		.section	.text.TimerCallback,"ax",%progbits
 4050              		.align	1
 4051              		.syntax unified
 4052              		.thumb
 4053              		.thumb_func
 4054              		.fpu fpv4-sp-d16
 4056              	TimerCallback:
 4057              	.LFB138:
 863:Firmware/Middlewares/Third_Party/FreeRTOS/Source/CMSIS_RTOS_V2/cmsis_os2.c **** 
 864:Firmware/Middlewares/Third_Party/FreeRTOS/Source/CMSIS_RTOS_V2/cmsis_os2.c **** /*---------------------------------------------------------------------------*/
 865:Firmware/Middlewares/Third_Party/FreeRTOS/Source/CMSIS_RTOS_V2/cmsis_os2.c **** 
 866:Firmware/Middlewares/Third_Party/FreeRTOS/Source/CMSIS_RTOS_V2/cmsis_os2.c **** static void TimerCallback (TimerHandle_t hTimer) {
 4058              		.loc 1 866 0
 4059              		.cfi_startproc
 4060              		@ args = 0, pretend = 0, frame = 16
 4061              		@ frame_needed = 1, uses_anonymous_args = 0
 4062 0000 80B5     		push	{r7, lr}
 4063              	.LCFI158:
 4064              		.cfi_def_cfa_offset 8
 4065              		.cfi_offset 7, -8
 4066              		.cfi_offset 14, -4
 4067 0002 84B0     		sub	sp, sp, #16
ARM GAS  /tmp/ccB5BhZs.s 			page 101


 4068              	.LCFI159:
 4069              		.cfi_def_cfa_offset 24
 4070 0004 00AF     		add	r7, sp, #0
 4071              	.LCFI160:
 4072              		.cfi_def_cfa_register 7
 4073 0006 7860     		str	r0, [r7, #4]
 867:Firmware/Middlewares/Third_Party/FreeRTOS/Source/CMSIS_RTOS_V2/cmsis_os2.c ****   TimerCallback_t *callb;
 868:Firmware/Middlewares/Third_Party/FreeRTOS/Source/CMSIS_RTOS_V2/cmsis_os2.c **** 
 869:Firmware/Middlewares/Third_Party/FreeRTOS/Source/CMSIS_RTOS_V2/cmsis_os2.c ****   callb = (TimerCallback_t *)pvTimerGetTimerID (hTimer);
 4074              		.loc 1 869 0
 4075 0008 7868     		ldr	r0, [r7, #4]
 4076 000a FFF7FEFF 		bl	pvTimerGetTimerID
 4077 000e F860     		str	r0, [r7, #12]
 870:Firmware/Middlewares/Third_Party/FreeRTOS/Source/CMSIS_RTOS_V2/cmsis_os2.c **** 
 871:Firmware/Middlewares/Third_Party/FreeRTOS/Source/CMSIS_RTOS_V2/cmsis_os2.c ****   if (callb != NULL) {
 4078              		.loc 1 871 0
 4079 0010 FB68     		ldr	r3, [r7, #12]
 4080 0012 002B     		cmp	r3, #0
 4081 0014 05D0     		beq	.L357
 872:Firmware/Middlewares/Third_Party/FreeRTOS/Source/CMSIS_RTOS_V2/cmsis_os2.c ****     callb->func (callb->arg);
 4082              		.loc 1 872 0
 4083 0016 FB68     		ldr	r3, [r7, #12]
 4084 0018 1B68     		ldr	r3, [r3]
 4085 001a FA68     		ldr	r2, [r7, #12]
 4086 001c 5268     		ldr	r2, [r2, #4]
 4087 001e 1046     		mov	r0, r2
 4088 0020 9847     		blx	r3
 4089              	.LVL0:
 4090              	.L357:
 873:Firmware/Middlewares/Third_Party/FreeRTOS/Source/CMSIS_RTOS_V2/cmsis_os2.c ****   }
 874:Firmware/Middlewares/Third_Party/FreeRTOS/Source/CMSIS_RTOS_V2/cmsis_os2.c **** }
 4091              		.loc 1 874 0
 4092 0022 00BF     		nop
 4093 0024 1037     		adds	r7, r7, #16
 4094              	.LCFI161:
 4095              		.cfi_def_cfa_offset 8
 4096 0026 BD46     		mov	sp, r7
 4097              	.LCFI162:
 4098              		.cfi_def_cfa_register 13
 4099              		@ sp needed
 4100 0028 80BD     		pop	{r7, pc}
 4101              		.cfi_endproc
 4102              	.LFE138:
 4104              		.section	.text.osTimerNew,"ax",%progbits
 4105              		.align	1
 4106              		.global	osTimerNew
 4107              		.syntax unified
 4108              		.thumb
 4109              		.thumb_func
 4110              		.fpu fpv4-sp-d16
 4112              	osTimerNew:
 4113              	.LFB139:
 875:Firmware/Middlewares/Third_Party/FreeRTOS/Source/CMSIS_RTOS_V2/cmsis_os2.c **** 
 876:Firmware/Middlewares/Third_Party/FreeRTOS/Source/CMSIS_RTOS_V2/cmsis_os2.c **** osTimerId_t osTimerNew (osTimerFunc_t func, osTimerType_t type, void *argument, const osTimerAttr_t
 4114              		.loc 1 876 0
 4115              		.cfi_startproc
 4116              		@ args = 0, pretend = 0, frame = 48
ARM GAS  /tmp/ccB5BhZs.s 			page 102


 4117              		@ frame_needed = 1, uses_anonymous_args = 0
 4118 0000 80B5     		push	{r7, lr}
 4119              	.LCFI163:
 4120              		.cfi_def_cfa_offset 8
 4121              		.cfi_offset 7, -8
 4122              		.cfi_offset 14, -4
 4123 0002 8EB0     		sub	sp, sp, #56
 4124              	.LCFI164:
 4125              		.cfi_def_cfa_offset 64
 4126 0004 02AF     		add	r7, sp, #8
 4127              	.LCFI165:
 4128              		.cfi_def_cfa 7, 56
 4129 0006 F860     		str	r0, [r7, #12]
 4130 0008 7A60     		str	r2, [r7, #4]
 4131 000a 3B60     		str	r3, [r7]
 4132 000c 0B46     		mov	r3, r1
 4133 000e FB72     		strb	r3, [r7, #11]
 877:Firmware/Middlewares/Third_Party/FreeRTOS/Source/CMSIS_RTOS_V2/cmsis_os2.c ****   const char *name;
 878:Firmware/Middlewares/Third_Party/FreeRTOS/Source/CMSIS_RTOS_V2/cmsis_os2.c ****   TimerHandle_t hTimer;
 879:Firmware/Middlewares/Third_Party/FreeRTOS/Source/CMSIS_RTOS_V2/cmsis_os2.c ****   TimerCallback_t *callb;
 880:Firmware/Middlewares/Third_Party/FreeRTOS/Source/CMSIS_RTOS_V2/cmsis_os2.c ****   UBaseType_t reload;
 881:Firmware/Middlewares/Third_Party/FreeRTOS/Source/CMSIS_RTOS_V2/cmsis_os2.c ****   int32_t mem;
 882:Firmware/Middlewares/Third_Party/FreeRTOS/Source/CMSIS_RTOS_V2/cmsis_os2.c **** 
 883:Firmware/Middlewares/Third_Party/FreeRTOS/Source/CMSIS_RTOS_V2/cmsis_os2.c ****   hTimer = NULL;
 4134              		.loc 1 883 0
 4135 0010 0023     		movs	r3, #0
 4136 0012 BB62     		str	r3, [r7, #40]
 4137              	.LBB488:
 4138              	.LBB489:
 209:Firmware/Drivers/CMSIS/Include/cmsis_gcc.h ****   return(result);
 4139              		.loc 2 209 0
 4140              		.syntax unified
 4141              	@ 209 "Firmware/Drivers/CMSIS/Include/cmsis_gcc.h" 1
 4142 0014 EFF30583 		MRS r3, ipsr
 4143              	@ 0 "" 2
 4144              		.thumb
 4145              		.syntax unified
 4146 0018 BB61     		str	r3, [r7, #24]
 210:Firmware/Drivers/CMSIS/Include/cmsis_gcc.h **** }
 4147              		.loc 2 210 0
 4148 001a BB69     		ldr	r3, [r7, #24]
 4149              	.LBE489:
 4150              	.LBE488:
 884:Firmware/Middlewares/Third_Party/FreeRTOS/Source/CMSIS_RTOS_V2/cmsis_os2.c **** 
 885:Firmware/Middlewares/Third_Party/FreeRTOS/Source/CMSIS_RTOS_V2/cmsis_os2.c ****   if (!IS_IRQ() && (func != NULL)) {
 4151              		.loc 1 885 0
 4152 001c 002B     		cmp	r3, #0
 4153 001e 6AD1     		bne	.L360
 4154              	.LBB490:
 4155              	.LBB491:
 386:Firmware/Drivers/CMSIS/Include/cmsis_gcc.h ****   return(result);
 4156              		.loc 2 386 0 discriminator 1
 4157              		.syntax unified
 4158              	@ 386 "Firmware/Drivers/CMSIS/Include/cmsis_gcc.h" 1
 4159 0020 EFF31083 		MRS r3, primask
 4160              	@ 0 "" 2
 4161              		.thumb
ARM GAS  /tmp/ccB5BhZs.s 			page 103


 4162              		.syntax unified
 4163 0024 7B61     		str	r3, [r7, #20]
 387:Firmware/Drivers/CMSIS/Include/cmsis_gcc.h **** }
 4164              		.loc 2 387 0 discriminator 1
 4165 0026 7B69     		ldr	r3, [r7, #20]
 4166              	.LBE491:
 4167              	.LBE490:
 4168              		.loc 1 885 0 discriminator 1
 4169 0028 002B     		cmp	r3, #0
 4170 002a 64D1     		bne	.L360
 4171              		.loc 1 885 0 is_stmt 0 discriminator 2
 4172 002c 344B     		ldr	r3, .L373
 4173 002e 1B68     		ldr	r3, [r3]
 4174 0030 022B     		cmp	r3, #2
 4175 0032 05D1     		bne	.L362
 4176              	.LBB492:
 4177              	.LBB493:
 465:Firmware/Drivers/CMSIS/Include/cmsis_gcc.h ****   return(result);
 4178              		.loc 2 465 0 is_stmt 1 discriminator 4
 4179              		.syntax unified
 4180              	@ 465 "Firmware/Drivers/CMSIS/Include/cmsis_gcc.h" 1
 4181 0034 EFF31183 		MRS r3, basepri
 4182              	@ 0 "" 2
 4183              		.thumb
 4184              		.syntax unified
 4185 0038 3B61     		str	r3, [r7, #16]
 4186              		.loc 2 466 0 discriminator 4
 4187 003a 3B69     		ldr	r3, [r7, #16]
 4188              	.LBE493:
 4189              	.LBE492:
 4190              		.loc 1 885 0 discriminator 4
 4191 003c 002B     		cmp	r3, #0
 4192 003e 5AD1     		bne	.L360
 4193              	.L362:
 4194              		.loc 1 885 0 is_stmt 0 discriminator 5
 4195 0040 FB68     		ldr	r3, [r7, #12]
 4196 0042 002B     		cmp	r3, #0
 4197 0044 57D0     		beq	.L360
 886:Firmware/Middlewares/Third_Party/FreeRTOS/Source/CMSIS_RTOS_V2/cmsis_os2.c ****     /* Allocate memory to store callback function and argument */
 887:Firmware/Middlewares/Third_Party/FreeRTOS/Source/CMSIS_RTOS_V2/cmsis_os2.c ****     callb = pvPortMalloc (sizeof(TimerCallback_t));
 4198              		.loc 1 887 0 is_stmt 1
 4199 0046 0820     		movs	r0, #8
 4200 0048 FFF7FEFF 		bl	pvPortMalloc
 4201 004c F861     		str	r0, [r7, #28]
 888:Firmware/Middlewares/Third_Party/FreeRTOS/Source/CMSIS_RTOS_V2/cmsis_os2.c **** 
 889:Firmware/Middlewares/Third_Party/FreeRTOS/Source/CMSIS_RTOS_V2/cmsis_os2.c ****     if (callb != NULL) {
 4202              		.loc 1 889 0
 4203 004e FB69     		ldr	r3, [r7, #28]
 4204 0050 002B     		cmp	r3, #0
 4205 0052 50D0     		beq	.L360
 890:Firmware/Middlewares/Third_Party/FreeRTOS/Source/CMSIS_RTOS_V2/cmsis_os2.c ****       callb->func = func;
 4206              		.loc 1 890 0
 4207 0054 FB69     		ldr	r3, [r7, #28]
 4208 0056 FA68     		ldr	r2, [r7, #12]
 4209 0058 1A60     		str	r2, [r3]
 891:Firmware/Middlewares/Third_Party/FreeRTOS/Source/CMSIS_RTOS_V2/cmsis_os2.c ****       callb->arg  = argument;
 4210              		.loc 1 891 0
ARM GAS  /tmp/ccB5BhZs.s 			page 104


 4211 005a FB69     		ldr	r3, [r7, #28]
 4212 005c 7A68     		ldr	r2, [r7, #4]
 4213 005e 5A60     		str	r2, [r3, #4]
 892:Firmware/Middlewares/Third_Party/FreeRTOS/Source/CMSIS_RTOS_V2/cmsis_os2.c **** 
 893:Firmware/Middlewares/Third_Party/FreeRTOS/Source/CMSIS_RTOS_V2/cmsis_os2.c ****       if (type == osTimerOnce) {
 4214              		.loc 1 893 0
 4215 0060 FB7A     		ldrb	r3, [r7, #11]	@ zero_extendqisi2
 4216 0062 002B     		cmp	r3, #0
 4217 0064 02D1     		bne	.L364
 894:Firmware/Middlewares/Third_Party/FreeRTOS/Source/CMSIS_RTOS_V2/cmsis_os2.c ****         reload = pdFALSE;
 4218              		.loc 1 894 0
 4219 0066 0023     		movs	r3, #0
 4220 0068 7B62     		str	r3, [r7, #36]
 4221 006a 01E0     		b	.L365
 4222              	.L364:
 895:Firmware/Middlewares/Third_Party/FreeRTOS/Source/CMSIS_RTOS_V2/cmsis_os2.c ****       } else {
 896:Firmware/Middlewares/Third_Party/FreeRTOS/Source/CMSIS_RTOS_V2/cmsis_os2.c ****         reload = pdTRUE;
 4223              		.loc 1 896 0
 4224 006c 0123     		movs	r3, #1
 4225 006e 7B62     		str	r3, [r7, #36]
 4226              	.L365:
 897:Firmware/Middlewares/Third_Party/FreeRTOS/Source/CMSIS_RTOS_V2/cmsis_os2.c ****       }
 898:Firmware/Middlewares/Third_Party/FreeRTOS/Source/CMSIS_RTOS_V2/cmsis_os2.c **** 
 899:Firmware/Middlewares/Third_Party/FreeRTOS/Source/CMSIS_RTOS_V2/cmsis_os2.c ****       mem  = -1;
 4227              		.loc 1 899 0
 4228 0070 4FF0FF33 		mov	r3, #-1
 4229 0074 3B62     		str	r3, [r7, #32]
 900:Firmware/Middlewares/Third_Party/FreeRTOS/Source/CMSIS_RTOS_V2/cmsis_os2.c ****       name = NULL;
 4230              		.loc 1 900 0
 4231 0076 0023     		movs	r3, #0
 4232 0078 FB62     		str	r3, [r7, #44]
 901:Firmware/Middlewares/Third_Party/FreeRTOS/Source/CMSIS_RTOS_V2/cmsis_os2.c **** 
 902:Firmware/Middlewares/Third_Party/FreeRTOS/Source/CMSIS_RTOS_V2/cmsis_os2.c ****       if (attr != NULL) {
 4233              		.loc 1 902 0
 4234 007a 3B68     		ldr	r3, [r7]
 4235 007c 002B     		cmp	r3, #0
 4236 007e 1CD0     		beq	.L366
 903:Firmware/Middlewares/Third_Party/FreeRTOS/Source/CMSIS_RTOS_V2/cmsis_os2.c ****         if (attr->name != NULL) {
 4237              		.loc 1 903 0
 4238 0080 3B68     		ldr	r3, [r7]
 4239 0082 1B68     		ldr	r3, [r3]
 4240 0084 002B     		cmp	r3, #0
 4241 0086 02D0     		beq	.L367
 904:Firmware/Middlewares/Third_Party/FreeRTOS/Source/CMSIS_RTOS_V2/cmsis_os2.c ****           name = attr->name;
 4242              		.loc 1 904 0
 4243 0088 3B68     		ldr	r3, [r7]
 4244 008a 1B68     		ldr	r3, [r3]
 4245 008c FB62     		str	r3, [r7, #44]
 4246              	.L367:
 905:Firmware/Middlewares/Third_Party/FreeRTOS/Source/CMSIS_RTOS_V2/cmsis_os2.c ****         }
 906:Firmware/Middlewares/Third_Party/FreeRTOS/Source/CMSIS_RTOS_V2/cmsis_os2.c **** 
 907:Firmware/Middlewares/Third_Party/FreeRTOS/Source/CMSIS_RTOS_V2/cmsis_os2.c ****         if ((attr->cb_mem != NULL) && (attr->cb_size >= sizeof(StaticTimer_t))) {
 4247              		.loc 1 907 0
 4248 008e 3B68     		ldr	r3, [r7]
 4249 0090 9B68     		ldr	r3, [r3, #8]
 4250 0092 002B     		cmp	r3, #0
 4251 0094 06D0     		beq	.L368
ARM GAS  /tmp/ccB5BhZs.s 			page 105


 4252              		.loc 1 907 0 is_stmt 0 discriminator 1
 4253 0096 3B68     		ldr	r3, [r7]
 4254 0098 DB68     		ldr	r3, [r3, #12]
 4255 009a 2F2B     		cmp	r3, #47
 4256 009c 02D9     		bls	.L368
 908:Firmware/Middlewares/Third_Party/FreeRTOS/Source/CMSIS_RTOS_V2/cmsis_os2.c ****           mem = 1;
 4257              		.loc 1 908 0 is_stmt 1
 4258 009e 0123     		movs	r3, #1
 4259 00a0 3B62     		str	r3, [r7, #32]
 4260 00a2 0CE0     		b	.L370
 4261              	.L368:
 909:Firmware/Middlewares/Third_Party/FreeRTOS/Source/CMSIS_RTOS_V2/cmsis_os2.c ****         }
 910:Firmware/Middlewares/Third_Party/FreeRTOS/Source/CMSIS_RTOS_V2/cmsis_os2.c ****         else {
 911:Firmware/Middlewares/Third_Party/FreeRTOS/Source/CMSIS_RTOS_V2/cmsis_os2.c ****           if ((attr->cb_mem == NULL) && (attr->cb_size == 0U)) {
 4262              		.loc 1 911 0
 4263 00a4 3B68     		ldr	r3, [r7]
 4264 00a6 9B68     		ldr	r3, [r3, #8]
 4265 00a8 002B     		cmp	r3, #0
 4266 00aa 08D1     		bne	.L370
 4267              		.loc 1 911 0 is_stmt 0 discriminator 1
 4268 00ac 3B68     		ldr	r3, [r7]
 4269 00ae DB68     		ldr	r3, [r3, #12]
 4270 00b0 002B     		cmp	r3, #0
 4271 00b2 04D1     		bne	.L370
 912:Firmware/Middlewares/Third_Party/FreeRTOS/Source/CMSIS_RTOS_V2/cmsis_os2.c ****             mem = 0;
 4272              		.loc 1 912 0 is_stmt 1
 4273 00b4 0023     		movs	r3, #0
 4274 00b6 3B62     		str	r3, [r7, #32]
 4275 00b8 01E0     		b	.L370
 4276              	.L366:
 913:Firmware/Middlewares/Third_Party/FreeRTOS/Source/CMSIS_RTOS_V2/cmsis_os2.c ****           }
 914:Firmware/Middlewares/Third_Party/FreeRTOS/Source/CMSIS_RTOS_V2/cmsis_os2.c ****         }
 915:Firmware/Middlewares/Third_Party/FreeRTOS/Source/CMSIS_RTOS_V2/cmsis_os2.c ****       }
 916:Firmware/Middlewares/Third_Party/FreeRTOS/Source/CMSIS_RTOS_V2/cmsis_os2.c ****       else {
 917:Firmware/Middlewares/Third_Party/FreeRTOS/Source/CMSIS_RTOS_V2/cmsis_os2.c ****         mem = 0;
 4277              		.loc 1 917 0
 4278 00ba 0023     		movs	r3, #0
 4279 00bc 3B62     		str	r3, [r7, #32]
 4280              	.L370:
 918:Firmware/Middlewares/Third_Party/FreeRTOS/Source/CMSIS_RTOS_V2/cmsis_os2.c ****       }
 919:Firmware/Middlewares/Third_Party/FreeRTOS/Source/CMSIS_RTOS_V2/cmsis_os2.c **** 
 920:Firmware/Middlewares/Third_Party/FreeRTOS/Source/CMSIS_RTOS_V2/cmsis_os2.c ****       if (mem == 1) {
 4281              		.loc 1 920 0
 4282 00be 3B6A     		ldr	r3, [r7, #32]
 4283 00c0 012B     		cmp	r3, #1
 4284 00c2 0CD1     		bne	.L371
 921:Firmware/Middlewares/Third_Party/FreeRTOS/Source/CMSIS_RTOS_V2/cmsis_os2.c ****         hTimer = xTimerCreateStatic (name, 1, reload, callb, TimerCallback, (StaticTimer_t *)attr->
 4285              		.loc 1 921 0
 4286 00c4 3B68     		ldr	r3, [r7]
 4287 00c6 9B68     		ldr	r3, [r3, #8]
 4288 00c8 0193     		str	r3, [sp, #4]
 4289 00ca 0E4B     		ldr	r3, .L373+4
 4290 00cc 0093     		str	r3, [sp]
 4291 00ce FB69     		ldr	r3, [r7, #28]
 4292 00d0 7A6A     		ldr	r2, [r7, #36]
 4293 00d2 0121     		movs	r1, #1
 4294 00d4 F86A     		ldr	r0, [r7, #44]
ARM GAS  /tmp/ccB5BhZs.s 			page 106


 4295 00d6 FFF7FEFF 		bl	xTimerCreateStatic
 4296 00da B862     		str	r0, [r7, #40]
 4297 00dc 0BE0     		b	.L360
 4298              	.L371:
 922:Firmware/Middlewares/Third_Party/FreeRTOS/Source/CMSIS_RTOS_V2/cmsis_os2.c ****       }
 923:Firmware/Middlewares/Third_Party/FreeRTOS/Source/CMSIS_RTOS_V2/cmsis_os2.c ****       else {
 924:Firmware/Middlewares/Third_Party/FreeRTOS/Source/CMSIS_RTOS_V2/cmsis_os2.c ****         if (mem == 0) {
 4299              		.loc 1 924 0
 4300 00de 3B6A     		ldr	r3, [r7, #32]
 4301 00e0 002B     		cmp	r3, #0
 4302 00e2 08D1     		bne	.L360
 925:Firmware/Middlewares/Third_Party/FreeRTOS/Source/CMSIS_RTOS_V2/cmsis_os2.c ****           hTimer = xTimerCreate (name, 1, reload, callb, TimerCallback);
 4303              		.loc 1 925 0
 4304 00e4 074B     		ldr	r3, .L373+4
 4305 00e6 0093     		str	r3, [sp]
 4306 00e8 FB69     		ldr	r3, [r7, #28]
 4307 00ea 7A6A     		ldr	r2, [r7, #36]
 4308 00ec 0121     		movs	r1, #1
 4309 00ee F86A     		ldr	r0, [r7, #44]
 4310 00f0 FFF7FEFF 		bl	xTimerCreate
 4311 00f4 B862     		str	r0, [r7, #40]
 4312              	.L360:
 926:Firmware/Middlewares/Third_Party/FreeRTOS/Source/CMSIS_RTOS_V2/cmsis_os2.c ****         }
 927:Firmware/Middlewares/Third_Party/FreeRTOS/Source/CMSIS_RTOS_V2/cmsis_os2.c ****       }
 928:Firmware/Middlewares/Third_Party/FreeRTOS/Source/CMSIS_RTOS_V2/cmsis_os2.c ****     }
 929:Firmware/Middlewares/Third_Party/FreeRTOS/Source/CMSIS_RTOS_V2/cmsis_os2.c ****   }
 930:Firmware/Middlewares/Third_Party/FreeRTOS/Source/CMSIS_RTOS_V2/cmsis_os2.c **** 
 931:Firmware/Middlewares/Third_Party/FreeRTOS/Source/CMSIS_RTOS_V2/cmsis_os2.c ****   return ((osTimerId_t)hTimer);
 4313              		.loc 1 931 0
 4314 00f6 BB6A     		ldr	r3, [r7, #40]
 932:Firmware/Middlewares/Third_Party/FreeRTOS/Source/CMSIS_RTOS_V2/cmsis_os2.c **** }
 4315              		.loc 1 932 0
 4316 00f8 1846     		mov	r0, r3
 4317 00fa 3037     		adds	r7, r7, #48
 4318              	.LCFI166:
 4319              		.cfi_def_cfa_offset 8
 4320 00fc BD46     		mov	sp, r7
 4321              	.LCFI167:
 4322              		.cfi_def_cfa_register 13
 4323              		@ sp needed
 4324 00fe 80BD     		pop	{r7, pc}
 4325              	.L374:
 4326              		.align	2
 4327              	.L373:
 4328 0100 00000000 		.word	KernelState
 4329 0104 00000000 		.word	TimerCallback
 4330              		.cfi_endproc
 4331              	.LFE139:
 4333              		.section	.text.osTimerGetName,"ax",%progbits
 4334              		.align	1
 4335              		.global	osTimerGetName
 4336              		.syntax unified
 4337              		.thumb
 4338              		.thumb_func
 4339              		.fpu fpv4-sp-d16
 4341              	osTimerGetName:
 4342              	.LFB140:
ARM GAS  /tmp/ccB5BhZs.s 			page 107


 933:Firmware/Middlewares/Third_Party/FreeRTOS/Source/CMSIS_RTOS_V2/cmsis_os2.c **** 
 934:Firmware/Middlewares/Third_Party/FreeRTOS/Source/CMSIS_RTOS_V2/cmsis_os2.c **** const char *osTimerGetName (osTimerId_t timer_id) {
 4343              		.loc 1 934 0
 4344              		.cfi_startproc
 4345              		@ args = 0, pretend = 0, frame = 32
 4346              		@ frame_needed = 1, uses_anonymous_args = 0
 4347 0000 80B5     		push	{r7, lr}
 4348              	.LCFI168:
 4349              		.cfi_def_cfa_offset 8
 4350              		.cfi_offset 7, -8
 4351              		.cfi_offset 14, -4
 4352 0002 88B0     		sub	sp, sp, #32
 4353              	.LCFI169:
 4354              		.cfi_def_cfa_offset 40
 4355 0004 00AF     		add	r7, sp, #0
 4356              	.LCFI170:
 4357              		.cfi_def_cfa_register 7
 4358 0006 7860     		str	r0, [r7, #4]
 935:Firmware/Middlewares/Third_Party/FreeRTOS/Source/CMSIS_RTOS_V2/cmsis_os2.c ****   TimerHandle_t hTimer = (TimerHandle_t)timer_id;
 4359              		.loc 1 935 0
 4360 0008 7B68     		ldr	r3, [r7, #4]
 4361 000a BB61     		str	r3, [r7, #24]
 4362              	.LBB494:
 4363              	.LBB495:
 209:Firmware/Drivers/CMSIS/Include/cmsis_gcc.h ****   return(result);
 4364              		.loc 2 209 0
 4365              		.syntax unified
 4366              	@ 209 "Firmware/Drivers/CMSIS/Include/cmsis_gcc.h" 1
 4367 000c EFF30583 		MRS r3, ipsr
 4368              	@ 0 "" 2
 4369              		.thumb
 4370              		.syntax unified
 4371 0010 7B61     		str	r3, [r7, #20]
 210:Firmware/Drivers/CMSIS/Include/cmsis_gcc.h **** }
 4372              		.loc 2 210 0
 4373 0012 7B69     		ldr	r3, [r7, #20]
 4374              	.LBE495:
 4375              	.LBE494:
 936:Firmware/Middlewares/Third_Party/FreeRTOS/Source/CMSIS_RTOS_V2/cmsis_os2.c ****   const char *p;
 937:Firmware/Middlewares/Third_Party/FreeRTOS/Source/CMSIS_RTOS_V2/cmsis_os2.c **** 
 938:Firmware/Middlewares/Third_Party/FreeRTOS/Source/CMSIS_RTOS_V2/cmsis_os2.c ****   if (IS_IRQ() || (hTimer == NULL)) {
 4376              		.loc 1 938 0
 4377 0014 002B     		cmp	r3, #0
 4378 0016 12D1     		bne	.L377
 4379              	.LBB496:
 4380              	.LBB497:
 386:Firmware/Drivers/CMSIS/Include/cmsis_gcc.h ****   return(result);
 4381              		.loc 2 386 0 discriminator 1
 4382              		.syntax unified
 4383              	@ 386 "Firmware/Drivers/CMSIS/Include/cmsis_gcc.h" 1
 4384 0018 EFF31083 		MRS r3, primask
 4385              	@ 0 "" 2
 4386              		.thumb
 4387              		.syntax unified
 4388 001c 3B61     		str	r3, [r7, #16]
 387:Firmware/Drivers/CMSIS/Include/cmsis_gcc.h **** }
 4389              		.loc 2 387 0 discriminator 1
ARM GAS  /tmp/ccB5BhZs.s 			page 108


 4390 001e 3B69     		ldr	r3, [r7, #16]
 4391              	.LBE497:
 4392              	.LBE496:
 4393              		.loc 1 938 0 discriminator 1
 4394 0020 002B     		cmp	r3, #0
 4395 0022 0CD1     		bne	.L377
 4396              		.loc 1 938 0 is_stmt 0 discriminator 2
 4397 0024 0C4B     		ldr	r3, .L384
 4398 0026 1B68     		ldr	r3, [r3]
 4399 0028 022B     		cmp	r3, #2
 4400 002a 05D1     		bne	.L379
 4401              	.LBB498:
 4402              	.LBB499:
 465:Firmware/Drivers/CMSIS/Include/cmsis_gcc.h ****   return(result);
 4403              		.loc 2 465 0 is_stmt 1 discriminator 3
 4404              		.syntax unified
 4405              	@ 465 "Firmware/Drivers/CMSIS/Include/cmsis_gcc.h" 1
 4406 002c EFF31183 		MRS r3, basepri
 4407              	@ 0 "" 2
 4408              		.thumb
 4409              		.syntax unified
 4410 0030 FB60     		str	r3, [r7, #12]
 4411              		.loc 2 466 0 discriminator 3
 4412 0032 FB68     		ldr	r3, [r7, #12]
 4413              	.LBE499:
 4414              	.LBE498:
 4415              		.loc 1 938 0 discriminator 3
 4416 0034 002B     		cmp	r3, #0
 4417 0036 02D1     		bne	.L377
 4418              	.L379:
 4419              		.loc 1 938 0 is_stmt 0 discriminator 5
 4420 0038 BB69     		ldr	r3, [r7, #24]
 4421 003a 002B     		cmp	r3, #0
 4422 003c 02D1     		bne	.L381
 4423              	.L377:
 939:Firmware/Middlewares/Third_Party/FreeRTOS/Source/CMSIS_RTOS_V2/cmsis_os2.c ****     p = NULL;
 4424              		.loc 1 939 0 is_stmt 1
 4425 003e 0023     		movs	r3, #0
 4426 0040 FB61     		str	r3, [r7, #28]
 4427 0042 03E0     		b	.L382
 4428              	.L381:
 940:Firmware/Middlewares/Third_Party/FreeRTOS/Source/CMSIS_RTOS_V2/cmsis_os2.c ****   } else {
 941:Firmware/Middlewares/Third_Party/FreeRTOS/Source/CMSIS_RTOS_V2/cmsis_os2.c ****     p = pcTimerGetName (hTimer);
 4429              		.loc 1 941 0
 4430 0044 B869     		ldr	r0, [r7, #24]
 4431 0046 FFF7FEFF 		bl	pcTimerGetName
 4432 004a F861     		str	r0, [r7, #28]
 4433              	.L382:
 942:Firmware/Middlewares/Third_Party/FreeRTOS/Source/CMSIS_RTOS_V2/cmsis_os2.c ****   }
 943:Firmware/Middlewares/Third_Party/FreeRTOS/Source/CMSIS_RTOS_V2/cmsis_os2.c **** 
 944:Firmware/Middlewares/Third_Party/FreeRTOS/Source/CMSIS_RTOS_V2/cmsis_os2.c ****   return (p);
 4434              		.loc 1 944 0
 4435 004c FB69     		ldr	r3, [r7, #28]
 945:Firmware/Middlewares/Third_Party/FreeRTOS/Source/CMSIS_RTOS_V2/cmsis_os2.c **** }
 4436              		.loc 1 945 0
 4437 004e 1846     		mov	r0, r3
 4438 0050 2037     		adds	r7, r7, #32
ARM GAS  /tmp/ccB5BhZs.s 			page 109


 4439              	.LCFI171:
 4440              		.cfi_def_cfa_offset 8
 4441 0052 BD46     		mov	sp, r7
 4442              	.LCFI172:
 4443              		.cfi_def_cfa_register 13
 4444              		@ sp needed
 4445 0054 80BD     		pop	{r7, pc}
 4446              	.L385:
 4447 0056 00BF     		.align	2
 4448              	.L384:
 4449 0058 00000000 		.word	KernelState
 4450              		.cfi_endproc
 4451              	.LFE140:
 4453              		.section	.text.osTimerStart,"ax",%progbits
 4454              		.align	1
 4455              		.global	osTimerStart
 4456              		.syntax unified
 4457              		.thumb
 4458              		.thumb_func
 4459              		.fpu fpv4-sp-d16
 4461              	osTimerStart:
 4462              	.LFB141:
 946:Firmware/Middlewares/Third_Party/FreeRTOS/Source/CMSIS_RTOS_V2/cmsis_os2.c **** 
 947:Firmware/Middlewares/Third_Party/FreeRTOS/Source/CMSIS_RTOS_V2/cmsis_os2.c **** osStatus_t osTimerStart (osTimerId_t timer_id, uint32_t ticks) {
 4463              		.loc 1 947 0
 4464              		.cfi_startproc
 4465              		@ args = 0, pretend = 0, frame = 32
 4466              		@ frame_needed = 1, uses_anonymous_args = 0
 4467 0000 80B5     		push	{r7, lr}
 4468              	.LCFI173:
 4469              		.cfi_def_cfa_offset 8
 4470              		.cfi_offset 7, -8
 4471              		.cfi_offset 14, -4
 4472 0002 8AB0     		sub	sp, sp, #40
 4473              	.LCFI174:
 4474              		.cfi_def_cfa_offset 48
 4475 0004 02AF     		add	r7, sp, #8
 4476              	.LCFI175:
 4477              		.cfi_def_cfa 7, 40
 4478 0006 7860     		str	r0, [r7, #4]
 4479 0008 3960     		str	r1, [r7]
 948:Firmware/Middlewares/Third_Party/FreeRTOS/Source/CMSIS_RTOS_V2/cmsis_os2.c ****   TimerHandle_t hTimer = (TimerHandle_t)timer_id;
 4480              		.loc 1 948 0
 4481 000a 7B68     		ldr	r3, [r7, #4]
 4482 000c BB61     		str	r3, [r7, #24]
 4483              	.LBB500:
 4484              	.LBB501:
 209:Firmware/Drivers/CMSIS/Include/cmsis_gcc.h ****   return(result);
 4485              		.loc 2 209 0
 4486              		.syntax unified
 4487              	@ 209 "Firmware/Drivers/CMSIS/Include/cmsis_gcc.h" 1
 4488 000e EFF30583 		MRS r3, ipsr
 4489              	@ 0 "" 2
 4490              		.thumb
 4491              		.syntax unified
 4492 0012 7B61     		str	r3, [r7, #20]
 210:Firmware/Drivers/CMSIS/Include/cmsis_gcc.h **** }
ARM GAS  /tmp/ccB5BhZs.s 			page 110


 4493              		.loc 2 210 0
 4494 0014 7B69     		ldr	r3, [r7, #20]
 4495              	.LBE501:
 4496              	.LBE500:
 949:Firmware/Middlewares/Third_Party/FreeRTOS/Source/CMSIS_RTOS_V2/cmsis_os2.c ****   osStatus_t stat;
 950:Firmware/Middlewares/Third_Party/FreeRTOS/Source/CMSIS_RTOS_V2/cmsis_os2.c **** 
 951:Firmware/Middlewares/Third_Party/FreeRTOS/Source/CMSIS_RTOS_V2/cmsis_os2.c ****   if (IS_IRQ()) {
 4497              		.loc 1 951 0
 4498 0016 002B     		cmp	r3, #0
 4499 0018 0FD1     		bne	.L388
 4500              	.LBB502:
 4501              	.LBB503:
 386:Firmware/Drivers/CMSIS/Include/cmsis_gcc.h ****   return(result);
 4502              		.loc 2 386 0 discriminator 1
 4503              		.syntax unified
 4504              	@ 386 "Firmware/Drivers/CMSIS/Include/cmsis_gcc.h" 1
 4505 001a EFF31083 		MRS r3, primask
 4506              	@ 0 "" 2
 4507              		.thumb
 4508              		.syntax unified
 4509 001e 3B61     		str	r3, [r7, #16]
 387:Firmware/Drivers/CMSIS/Include/cmsis_gcc.h **** }
 4510              		.loc 2 387 0 discriminator 1
 4511 0020 3B69     		ldr	r3, [r7, #16]
 4512              	.LBE503:
 4513              	.LBE502:
 4514              		.loc 1 951 0 discriminator 1
 4515 0022 002B     		cmp	r3, #0
 4516 0024 09D1     		bne	.L388
 4517              		.loc 1 951 0 is_stmt 0 discriminator 2
 4518 0026 154B     		ldr	r3, .L396
 4519 0028 1B68     		ldr	r3, [r3]
 4520 002a 022B     		cmp	r3, #2
 4521 002c 09D1     		bne	.L390
 4522              	.LBB504:
 4523              	.LBB505:
 465:Firmware/Drivers/CMSIS/Include/cmsis_gcc.h ****   return(result);
 4524              		.loc 2 465 0 is_stmt 1 discriminator 3
 4525              		.syntax unified
 4526              	@ 465 "Firmware/Drivers/CMSIS/Include/cmsis_gcc.h" 1
 4527 002e EFF31183 		MRS r3, basepri
 4528              	@ 0 "" 2
 4529              		.thumb
 4530              		.syntax unified
 4531 0032 FB60     		str	r3, [r7, #12]
 4532              		.loc 2 466 0 discriminator 3
 4533 0034 FB68     		ldr	r3, [r7, #12]
 4534              	.LBE505:
 4535              	.LBE504:
 4536              		.loc 1 951 0 discriminator 3
 4537 0036 002B     		cmp	r3, #0
 4538 0038 03D0     		beq	.L390
 4539              	.L388:
 952:Firmware/Middlewares/Third_Party/FreeRTOS/Source/CMSIS_RTOS_V2/cmsis_os2.c ****     stat = osErrorISR;
 4540              		.loc 1 952 0
 4541 003a 6FF00503 		mvn	r3, #5
 4542 003e FB61     		str	r3, [r7, #28]
ARM GAS  /tmp/ccB5BhZs.s 			page 111


 4543 0040 17E0     		b	.L392
 4544              	.L390:
 953:Firmware/Middlewares/Third_Party/FreeRTOS/Source/CMSIS_RTOS_V2/cmsis_os2.c ****   }
 954:Firmware/Middlewares/Third_Party/FreeRTOS/Source/CMSIS_RTOS_V2/cmsis_os2.c ****   else if (hTimer == NULL) {
 4545              		.loc 1 954 0
 4546 0042 BB69     		ldr	r3, [r7, #24]
 4547 0044 002B     		cmp	r3, #0
 4548 0046 03D1     		bne	.L393
 955:Firmware/Middlewares/Third_Party/FreeRTOS/Source/CMSIS_RTOS_V2/cmsis_os2.c ****     stat = osErrorParameter;
 4549              		.loc 1 955 0
 4550 0048 6FF00303 		mvn	r3, #3
 4551 004c FB61     		str	r3, [r7, #28]
 4552 004e 10E0     		b	.L392
 4553              	.L393:
 956:Firmware/Middlewares/Third_Party/FreeRTOS/Source/CMSIS_RTOS_V2/cmsis_os2.c ****   }
 957:Firmware/Middlewares/Third_Party/FreeRTOS/Source/CMSIS_RTOS_V2/cmsis_os2.c ****   else {
 958:Firmware/Middlewares/Third_Party/FreeRTOS/Source/CMSIS_RTOS_V2/cmsis_os2.c ****     if (xTimerChangePeriod (hTimer, ticks, 0) == pdPASS) {
 4554              		.loc 1 958 0
 4555 0050 0023     		movs	r3, #0
 4556 0052 0093     		str	r3, [sp]
 4557 0054 0023     		movs	r3, #0
 4558 0056 3A68     		ldr	r2, [r7]
 4559 0058 0421     		movs	r1, #4
 4560 005a B869     		ldr	r0, [r7, #24]
 4561 005c FFF7FEFF 		bl	xTimerGenericCommand
 4562 0060 0346     		mov	r3, r0
 4563 0062 012B     		cmp	r3, #1
 4564 0064 02D1     		bne	.L394
 959:Firmware/Middlewares/Third_Party/FreeRTOS/Source/CMSIS_RTOS_V2/cmsis_os2.c ****       stat = osOK;
 4565              		.loc 1 959 0
 4566 0066 0023     		movs	r3, #0
 4567 0068 FB61     		str	r3, [r7, #28]
 4568 006a 02E0     		b	.L392
 4569              	.L394:
 960:Firmware/Middlewares/Third_Party/FreeRTOS/Source/CMSIS_RTOS_V2/cmsis_os2.c ****     } else {
 961:Firmware/Middlewares/Third_Party/FreeRTOS/Source/CMSIS_RTOS_V2/cmsis_os2.c ****       stat = osErrorResource;
 4570              		.loc 1 961 0
 4571 006c 6FF00203 		mvn	r3, #2
 4572 0070 FB61     		str	r3, [r7, #28]
 4573              	.L392:
 962:Firmware/Middlewares/Third_Party/FreeRTOS/Source/CMSIS_RTOS_V2/cmsis_os2.c ****     }
 963:Firmware/Middlewares/Third_Party/FreeRTOS/Source/CMSIS_RTOS_V2/cmsis_os2.c ****   }
 964:Firmware/Middlewares/Third_Party/FreeRTOS/Source/CMSIS_RTOS_V2/cmsis_os2.c **** 
 965:Firmware/Middlewares/Third_Party/FreeRTOS/Source/CMSIS_RTOS_V2/cmsis_os2.c ****   return (stat);
 4574              		.loc 1 965 0
 4575 0072 FB69     		ldr	r3, [r7, #28]
 966:Firmware/Middlewares/Third_Party/FreeRTOS/Source/CMSIS_RTOS_V2/cmsis_os2.c **** }
 4576              		.loc 1 966 0
 4577 0074 1846     		mov	r0, r3
 4578 0076 2037     		adds	r7, r7, #32
 4579              	.LCFI176:
 4580              		.cfi_def_cfa_offset 8
 4581 0078 BD46     		mov	sp, r7
 4582              	.LCFI177:
 4583              		.cfi_def_cfa_register 13
 4584              		@ sp needed
 4585 007a 80BD     		pop	{r7, pc}
ARM GAS  /tmp/ccB5BhZs.s 			page 112


 4586              	.L397:
 4587              		.align	2
 4588              	.L396:
 4589 007c 00000000 		.word	KernelState
 4590              		.cfi_endproc
 4591              	.LFE141:
 4593              		.section	.text.osTimerStop,"ax",%progbits
 4594              		.align	1
 4595              		.global	osTimerStop
 4596              		.syntax unified
 4597              		.thumb
 4598              		.thumb_func
 4599              		.fpu fpv4-sp-d16
 4601              	osTimerStop:
 4602              	.LFB142:
 967:Firmware/Middlewares/Third_Party/FreeRTOS/Source/CMSIS_RTOS_V2/cmsis_os2.c **** 
 968:Firmware/Middlewares/Third_Party/FreeRTOS/Source/CMSIS_RTOS_V2/cmsis_os2.c **** osStatus_t osTimerStop (osTimerId_t timer_id) {
 4603              		.loc 1 968 0
 4604              		.cfi_startproc
 4605              		@ args = 0, pretend = 0, frame = 32
 4606              		@ frame_needed = 1, uses_anonymous_args = 0
 4607 0000 80B5     		push	{r7, lr}
 4608              	.LCFI178:
 4609              		.cfi_def_cfa_offset 8
 4610              		.cfi_offset 7, -8
 4611              		.cfi_offset 14, -4
 4612 0002 8AB0     		sub	sp, sp, #40
 4613              	.LCFI179:
 4614              		.cfi_def_cfa_offset 48
 4615 0004 02AF     		add	r7, sp, #8
 4616              	.LCFI180:
 4617              		.cfi_def_cfa 7, 40
 4618 0006 7860     		str	r0, [r7, #4]
 969:Firmware/Middlewares/Third_Party/FreeRTOS/Source/CMSIS_RTOS_V2/cmsis_os2.c ****   TimerHandle_t hTimer = (TimerHandle_t)timer_id;
 4619              		.loc 1 969 0
 4620 0008 7B68     		ldr	r3, [r7, #4]
 4621 000a BB61     		str	r3, [r7, #24]
 4622              	.LBB506:
 4623              	.LBB507:
 209:Firmware/Drivers/CMSIS/Include/cmsis_gcc.h ****   return(result);
 4624              		.loc 2 209 0
 4625              		.syntax unified
 4626              	@ 209 "Firmware/Drivers/CMSIS/Include/cmsis_gcc.h" 1
 4627 000c EFF30583 		MRS r3, ipsr
 4628              	@ 0 "" 2
 4629              		.thumb
 4630              		.syntax unified
 4631 0010 7B61     		str	r3, [r7, #20]
 210:Firmware/Drivers/CMSIS/Include/cmsis_gcc.h **** }
 4632              		.loc 2 210 0
 4633 0012 7B69     		ldr	r3, [r7, #20]
 4634              	.LBE507:
 4635              	.LBE506:
 970:Firmware/Middlewares/Third_Party/FreeRTOS/Source/CMSIS_RTOS_V2/cmsis_os2.c ****   osStatus_t stat;
 971:Firmware/Middlewares/Third_Party/FreeRTOS/Source/CMSIS_RTOS_V2/cmsis_os2.c **** 
 972:Firmware/Middlewares/Third_Party/FreeRTOS/Source/CMSIS_RTOS_V2/cmsis_os2.c ****   if (IS_IRQ()) {
 4636              		.loc 1 972 0
ARM GAS  /tmp/ccB5BhZs.s 			page 113


 4637 0014 002B     		cmp	r3, #0
 4638 0016 0FD1     		bne	.L400
 4639              	.LBB508:
 4640              	.LBB509:
 386:Firmware/Drivers/CMSIS/Include/cmsis_gcc.h ****   return(result);
 4641              		.loc 2 386 0 discriminator 1
 4642              		.syntax unified
 4643              	@ 386 "Firmware/Drivers/CMSIS/Include/cmsis_gcc.h" 1
 4644 0018 EFF31083 		MRS r3, primask
 4645              	@ 0 "" 2
 4646              		.thumb
 4647              		.syntax unified
 4648 001c 3B61     		str	r3, [r7, #16]
 387:Firmware/Drivers/CMSIS/Include/cmsis_gcc.h **** }
 4649              		.loc 2 387 0 discriminator 1
 4650 001e 3B69     		ldr	r3, [r7, #16]
 4651              	.LBE509:
 4652              	.LBE508:
 4653              		.loc 1 972 0 discriminator 1
 4654 0020 002B     		cmp	r3, #0
 4655 0022 09D1     		bne	.L400
 4656              		.loc 1 972 0 is_stmt 0 discriminator 2
 4657 0024 1A4B     		ldr	r3, .L409
 4658 0026 1B68     		ldr	r3, [r3]
 4659 0028 022B     		cmp	r3, #2
 4660 002a 09D1     		bne	.L402
 4661              	.LBB510:
 4662              	.LBB511:
 465:Firmware/Drivers/CMSIS/Include/cmsis_gcc.h ****   return(result);
 4663              		.loc 2 465 0 is_stmt 1 discriminator 3
 4664              		.syntax unified
 4665              	@ 465 "Firmware/Drivers/CMSIS/Include/cmsis_gcc.h" 1
 4666 002c EFF31183 		MRS r3, basepri
 4667              	@ 0 "" 2
 4668              		.thumb
 4669              		.syntax unified
 4670 0030 FB60     		str	r3, [r7, #12]
 4671              		.loc 2 466 0 discriminator 3
 4672 0032 FB68     		ldr	r3, [r7, #12]
 4673              	.LBE511:
 4674              	.LBE510:
 4675              		.loc 1 972 0 discriminator 3
 4676 0034 002B     		cmp	r3, #0
 4677 0036 03D0     		beq	.L402
 4678              	.L400:
 973:Firmware/Middlewares/Third_Party/FreeRTOS/Source/CMSIS_RTOS_V2/cmsis_os2.c ****     stat = osErrorISR;
 4679              		.loc 1 973 0
 4680 0038 6FF00503 		mvn	r3, #5
 4681 003c FB61     		str	r3, [r7, #28]
 4682 003e 21E0     		b	.L404
 4683              	.L402:
 974:Firmware/Middlewares/Third_Party/FreeRTOS/Source/CMSIS_RTOS_V2/cmsis_os2.c ****   }
 975:Firmware/Middlewares/Third_Party/FreeRTOS/Source/CMSIS_RTOS_V2/cmsis_os2.c ****   else if (hTimer == NULL) {
 4684              		.loc 1 975 0
 4685 0040 BB69     		ldr	r3, [r7, #24]
 4686 0042 002B     		cmp	r3, #0
 4687 0044 03D1     		bne	.L405
ARM GAS  /tmp/ccB5BhZs.s 			page 114


 976:Firmware/Middlewares/Third_Party/FreeRTOS/Source/CMSIS_RTOS_V2/cmsis_os2.c ****     stat = osErrorParameter;
 4688              		.loc 1 976 0
 4689 0046 6FF00303 		mvn	r3, #3
 4690 004a FB61     		str	r3, [r7, #28]
 4691 004c 1AE0     		b	.L404
 4692              	.L405:
 977:Firmware/Middlewares/Third_Party/FreeRTOS/Source/CMSIS_RTOS_V2/cmsis_os2.c ****   }
 978:Firmware/Middlewares/Third_Party/FreeRTOS/Source/CMSIS_RTOS_V2/cmsis_os2.c ****   else {
 979:Firmware/Middlewares/Third_Party/FreeRTOS/Source/CMSIS_RTOS_V2/cmsis_os2.c ****     if (xTimerIsTimerActive (hTimer) == pdFALSE) {
 4693              		.loc 1 979 0
 4694 004e B869     		ldr	r0, [r7, #24]
 4695 0050 FFF7FEFF 		bl	xTimerIsTimerActive
 4696 0054 0346     		mov	r3, r0
 4697 0056 002B     		cmp	r3, #0
 4698 0058 03D1     		bne	.L406
 980:Firmware/Middlewares/Third_Party/FreeRTOS/Source/CMSIS_RTOS_V2/cmsis_os2.c ****       stat = osErrorResource;
 4699              		.loc 1 980 0
 4700 005a 6FF00203 		mvn	r3, #2
 4701 005e FB61     		str	r3, [r7, #28]
 4702 0060 10E0     		b	.L404
 4703              	.L406:
 981:Firmware/Middlewares/Third_Party/FreeRTOS/Source/CMSIS_RTOS_V2/cmsis_os2.c ****     }
 982:Firmware/Middlewares/Third_Party/FreeRTOS/Source/CMSIS_RTOS_V2/cmsis_os2.c ****     else {
 983:Firmware/Middlewares/Third_Party/FreeRTOS/Source/CMSIS_RTOS_V2/cmsis_os2.c ****       if (xTimerStop (hTimer, 0) == pdPASS) {
 4704              		.loc 1 983 0
 4705 0062 0023     		movs	r3, #0
 4706 0064 0093     		str	r3, [sp]
 4707 0066 0023     		movs	r3, #0
 4708 0068 0022     		movs	r2, #0
 4709 006a 0321     		movs	r1, #3
 4710 006c B869     		ldr	r0, [r7, #24]
 4711 006e FFF7FEFF 		bl	xTimerGenericCommand
 4712 0072 0346     		mov	r3, r0
 4713 0074 012B     		cmp	r3, #1
 4714 0076 02D1     		bne	.L407
 984:Firmware/Middlewares/Third_Party/FreeRTOS/Source/CMSIS_RTOS_V2/cmsis_os2.c ****         stat = osOK;
 4715              		.loc 1 984 0
 4716 0078 0023     		movs	r3, #0
 4717 007a FB61     		str	r3, [r7, #28]
 4718 007c 02E0     		b	.L404
 4719              	.L407:
 985:Firmware/Middlewares/Third_Party/FreeRTOS/Source/CMSIS_RTOS_V2/cmsis_os2.c ****       } else {
 986:Firmware/Middlewares/Third_Party/FreeRTOS/Source/CMSIS_RTOS_V2/cmsis_os2.c ****         stat = osError;
 4720              		.loc 1 986 0
 4721 007e 4FF0FF33 		mov	r3, #-1
 4722 0082 FB61     		str	r3, [r7, #28]
 4723              	.L404:
 987:Firmware/Middlewares/Third_Party/FreeRTOS/Source/CMSIS_RTOS_V2/cmsis_os2.c ****       }
 988:Firmware/Middlewares/Third_Party/FreeRTOS/Source/CMSIS_RTOS_V2/cmsis_os2.c ****     }
 989:Firmware/Middlewares/Third_Party/FreeRTOS/Source/CMSIS_RTOS_V2/cmsis_os2.c ****   }
 990:Firmware/Middlewares/Third_Party/FreeRTOS/Source/CMSIS_RTOS_V2/cmsis_os2.c **** 
 991:Firmware/Middlewares/Third_Party/FreeRTOS/Source/CMSIS_RTOS_V2/cmsis_os2.c ****   return (stat);
 4724              		.loc 1 991 0
 4725 0084 FB69     		ldr	r3, [r7, #28]
 992:Firmware/Middlewares/Third_Party/FreeRTOS/Source/CMSIS_RTOS_V2/cmsis_os2.c **** }
 4726              		.loc 1 992 0
 4727 0086 1846     		mov	r0, r3
ARM GAS  /tmp/ccB5BhZs.s 			page 115


 4728 0088 2037     		adds	r7, r7, #32
 4729              	.LCFI181:
 4730              		.cfi_def_cfa_offset 8
 4731 008a BD46     		mov	sp, r7
 4732              	.LCFI182:
 4733              		.cfi_def_cfa_register 13
 4734              		@ sp needed
 4735 008c 80BD     		pop	{r7, pc}
 4736              	.L410:
 4737 008e 00BF     		.align	2
 4738              	.L409:
 4739 0090 00000000 		.word	KernelState
 4740              		.cfi_endproc
 4741              	.LFE142:
 4743              		.section	.text.osTimerIsRunning,"ax",%progbits
 4744              		.align	1
 4745              		.global	osTimerIsRunning
 4746              		.syntax unified
 4747              		.thumb
 4748              		.thumb_func
 4749              		.fpu fpv4-sp-d16
 4751              	osTimerIsRunning:
 4752              	.LFB143:
 993:Firmware/Middlewares/Third_Party/FreeRTOS/Source/CMSIS_RTOS_V2/cmsis_os2.c **** 
 994:Firmware/Middlewares/Third_Party/FreeRTOS/Source/CMSIS_RTOS_V2/cmsis_os2.c **** uint32_t osTimerIsRunning (osTimerId_t timer_id) {
 4753              		.loc 1 994 0
 4754              		.cfi_startproc
 4755              		@ args = 0, pretend = 0, frame = 32
 4756              		@ frame_needed = 1, uses_anonymous_args = 0
 4757 0000 80B5     		push	{r7, lr}
 4758              	.LCFI183:
 4759              		.cfi_def_cfa_offset 8
 4760              		.cfi_offset 7, -8
 4761              		.cfi_offset 14, -4
 4762 0002 88B0     		sub	sp, sp, #32
 4763              	.LCFI184:
 4764              		.cfi_def_cfa_offset 40
 4765 0004 00AF     		add	r7, sp, #0
 4766              	.LCFI185:
 4767              		.cfi_def_cfa_register 7
 4768 0006 7860     		str	r0, [r7, #4]
 995:Firmware/Middlewares/Third_Party/FreeRTOS/Source/CMSIS_RTOS_V2/cmsis_os2.c ****   TimerHandle_t hTimer = (TimerHandle_t)timer_id;
 4769              		.loc 1 995 0
 4770 0008 7B68     		ldr	r3, [r7, #4]
 4771 000a BB61     		str	r3, [r7, #24]
 4772              	.LBB512:
 4773              	.LBB513:
 209:Firmware/Drivers/CMSIS/Include/cmsis_gcc.h ****   return(result);
 4774              		.loc 2 209 0
 4775              		.syntax unified
 4776              	@ 209 "Firmware/Drivers/CMSIS/Include/cmsis_gcc.h" 1
 4777 000c EFF30583 		MRS r3, ipsr
 4778              	@ 0 "" 2
 4779              		.thumb
 4780              		.syntax unified
 4781 0010 7B61     		str	r3, [r7, #20]
 210:Firmware/Drivers/CMSIS/Include/cmsis_gcc.h **** }
ARM GAS  /tmp/ccB5BhZs.s 			page 116


 4782              		.loc 2 210 0
 4783 0012 7B69     		ldr	r3, [r7, #20]
 4784              	.LBE513:
 4785              	.LBE512:
 996:Firmware/Middlewares/Third_Party/FreeRTOS/Source/CMSIS_RTOS_V2/cmsis_os2.c ****   uint32_t running;
 997:Firmware/Middlewares/Third_Party/FreeRTOS/Source/CMSIS_RTOS_V2/cmsis_os2.c **** 
 998:Firmware/Middlewares/Third_Party/FreeRTOS/Source/CMSIS_RTOS_V2/cmsis_os2.c ****   if (IS_IRQ() || (hTimer == NULL)) {
 4786              		.loc 1 998 0
 4787 0014 002B     		cmp	r3, #0
 4788 0016 12D1     		bne	.L413
 4789              	.LBB514:
 4790              	.LBB515:
 386:Firmware/Drivers/CMSIS/Include/cmsis_gcc.h ****   return(result);
 4791              		.loc 2 386 0 discriminator 1
 4792              		.syntax unified
 4793              	@ 386 "Firmware/Drivers/CMSIS/Include/cmsis_gcc.h" 1
 4794 0018 EFF31083 		MRS r3, primask
 4795              	@ 0 "" 2
 4796              		.thumb
 4797              		.syntax unified
 4798 001c 3B61     		str	r3, [r7, #16]
 387:Firmware/Drivers/CMSIS/Include/cmsis_gcc.h **** }
 4799              		.loc 2 387 0 discriminator 1
 4800 001e 3B69     		ldr	r3, [r7, #16]
 4801              	.LBE515:
 4802              	.LBE514:
 4803              		.loc 1 998 0 discriminator 1
 4804 0020 002B     		cmp	r3, #0
 4805 0022 0CD1     		bne	.L413
 4806              		.loc 1 998 0 is_stmt 0 discriminator 2
 4807 0024 0C4B     		ldr	r3, .L420
 4808 0026 1B68     		ldr	r3, [r3]
 4809 0028 022B     		cmp	r3, #2
 4810 002a 05D1     		bne	.L415
 4811              	.LBB516:
 4812              	.LBB517:
 465:Firmware/Drivers/CMSIS/Include/cmsis_gcc.h ****   return(result);
 4813              		.loc 2 465 0 is_stmt 1 discriminator 3
 4814              		.syntax unified
 4815              	@ 465 "Firmware/Drivers/CMSIS/Include/cmsis_gcc.h" 1
 4816 002c EFF31183 		MRS r3, basepri
 4817              	@ 0 "" 2
 4818              		.thumb
 4819              		.syntax unified
 4820 0030 FB60     		str	r3, [r7, #12]
 4821              		.loc 2 466 0 discriminator 3
 4822 0032 FB68     		ldr	r3, [r7, #12]
 4823              	.LBE517:
 4824              	.LBE516:
 4825              		.loc 1 998 0 discriminator 3
 4826 0034 002B     		cmp	r3, #0
 4827 0036 02D1     		bne	.L413
 4828              	.L415:
 4829              		.loc 1 998 0 is_stmt 0 discriminator 5
 4830 0038 BB69     		ldr	r3, [r7, #24]
 4831 003a 002B     		cmp	r3, #0
 4832 003c 02D1     		bne	.L417
ARM GAS  /tmp/ccB5BhZs.s 			page 117


 4833              	.L413:
 999:Firmware/Middlewares/Third_Party/FreeRTOS/Source/CMSIS_RTOS_V2/cmsis_os2.c ****     running = 0U;
 4834              		.loc 1 999 0 is_stmt 1
 4835 003e 0023     		movs	r3, #0
 4836 0040 FB61     		str	r3, [r7, #28]
 4837 0042 04E0     		b	.L418
 4838              	.L417:
1000:Firmware/Middlewares/Third_Party/FreeRTOS/Source/CMSIS_RTOS_V2/cmsis_os2.c ****   } else {
1001:Firmware/Middlewares/Third_Party/FreeRTOS/Source/CMSIS_RTOS_V2/cmsis_os2.c ****     running = (uint32_t)xTimerIsTimerActive (hTimer);
 4839              		.loc 1 1001 0
 4840 0044 B869     		ldr	r0, [r7, #24]
 4841 0046 FFF7FEFF 		bl	xTimerIsTimerActive
 4842 004a 0346     		mov	r3, r0
 4843 004c FB61     		str	r3, [r7, #28]
 4844              	.L418:
1002:Firmware/Middlewares/Third_Party/FreeRTOS/Source/CMSIS_RTOS_V2/cmsis_os2.c ****   }
1003:Firmware/Middlewares/Third_Party/FreeRTOS/Source/CMSIS_RTOS_V2/cmsis_os2.c **** 
1004:Firmware/Middlewares/Third_Party/FreeRTOS/Source/CMSIS_RTOS_V2/cmsis_os2.c ****   return (running);
 4845              		.loc 1 1004 0
 4846 004e FB69     		ldr	r3, [r7, #28]
1005:Firmware/Middlewares/Third_Party/FreeRTOS/Source/CMSIS_RTOS_V2/cmsis_os2.c **** }
 4847              		.loc 1 1005 0
 4848 0050 1846     		mov	r0, r3
 4849 0052 2037     		adds	r7, r7, #32
 4850              	.LCFI186:
 4851              		.cfi_def_cfa_offset 8
 4852 0054 BD46     		mov	sp, r7
 4853              	.LCFI187:
 4854              		.cfi_def_cfa_register 13
 4855              		@ sp needed
 4856 0056 80BD     		pop	{r7, pc}
 4857              	.L421:
 4858              		.align	2
 4859              	.L420:
 4860 0058 00000000 		.word	KernelState
 4861              		.cfi_endproc
 4862              	.LFE143:
 4864              		.section	.text.osTimerDelete,"ax",%progbits
 4865              		.align	1
 4866              		.global	osTimerDelete
 4867              		.syntax unified
 4868              		.thumb
 4869              		.thumb_func
 4870              		.fpu fpv4-sp-d16
 4872              	osTimerDelete:
 4873              	.LFB144:
1006:Firmware/Middlewares/Third_Party/FreeRTOS/Source/CMSIS_RTOS_V2/cmsis_os2.c **** 
1007:Firmware/Middlewares/Third_Party/FreeRTOS/Source/CMSIS_RTOS_V2/cmsis_os2.c **** osStatus_t osTimerDelete (osTimerId_t timer_id) {
 4874              		.loc 1 1007 0
 4875              		.cfi_startproc
 4876              		@ args = 0, pretend = 0, frame = 32
 4877              		@ frame_needed = 1, uses_anonymous_args = 0
 4878 0000 80B5     		push	{r7, lr}
 4879              	.LCFI188:
 4880              		.cfi_def_cfa_offset 8
 4881              		.cfi_offset 7, -8
 4882              		.cfi_offset 14, -4
ARM GAS  /tmp/ccB5BhZs.s 			page 118


 4883 0002 8AB0     		sub	sp, sp, #40
 4884              	.LCFI189:
 4885              		.cfi_def_cfa_offset 48
 4886 0004 02AF     		add	r7, sp, #8
 4887              	.LCFI190:
 4888              		.cfi_def_cfa 7, 40
 4889 0006 7860     		str	r0, [r7, #4]
1008:Firmware/Middlewares/Third_Party/FreeRTOS/Source/CMSIS_RTOS_V2/cmsis_os2.c ****   TimerHandle_t hTimer = (TimerHandle_t)timer_id;
 4890              		.loc 1 1008 0
 4891 0008 7B68     		ldr	r3, [r7, #4]
 4892 000a BB61     		str	r3, [r7, #24]
 4893              	.LBB518:
 4894              	.LBB519:
 209:Firmware/Drivers/CMSIS/Include/cmsis_gcc.h ****   return(result);
 4895              		.loc 2 209 0
 4896              		.syntax unified
 4897              	@ 209 "Firmware/Drivers/CMSIS/Include/cmsis_gcc.h" 1
 4898 000c EFF30583 		MRS r3, ipsr
 4899              	@ 0 "" 2
 4900              		.thumb
 4901              		.syntax unified
 4902 0010 3B61     		str	r3, [r7, #16]
 210:Firmware/Drivers/CMSIS/Include/cmsis_gcc.h **** }
 4903              		.loc 2 210 0
 4904 0012 3B69     		ldr	r3, [r7, #16]
 4905              	.LBE519:
 4906              	.LBE518:
1009:Firmware/Middlewares/Third_Party/FreeRTOS/Source/CMSIS_RTOS_V2/cmsis_os2.c ****   osStatus_t stat;
1010:Firmware/Middlewares/Third_Party/FreeRTOS/Source/CMSIS_RTOS_V2/cmsis_os2.c **** #ifndef USE_FreeRTOS_HEAP_1
1011:Firmware/Middlewares/Third_Party/FreeRTOS/Source/CMSIS_RTOS_V2/cmsis_os2.c ****   TimerCallback_t *callb;
1012:Firmware/Middlewares/Third_Party/FreeRTOS/Source/CMSIS_RTOS_V2/cmsis_os2.c **** 
1013:Firmware/Middlewares/Third_Party/FreeRTOS/Source/CMSIS_RTOS_V2/cmsis_os2.c ****   if (IS_IRQ()) {
 4907              		.loc 1 1013 0
 4908 0014 002B     		cmp	r3, #0
 4909 0016 0FD1     		bne	.L424
 4910              	.LBB520:
 4911              	.LBB521:
 386:Firmware/Drivers/CMSIS/Include/cmsis_gcc.h ****   return(result);
 4912              		.loc 2 386 0 discriminator 1
 4913              		.syntax unified
 4914              	@ 386 "Firmware/Drivers/CMSIS/Include/cmsis_gcc.h" 1
 4915 0018 EFF31083 		MRS r3, primask
 4916              	@ 0 "" 2
 4917              		.thumb
 4918              		.syntax unified
 4919 001c FB60     		str	r3, [r7, #12]
 387:Firmware/Drivers/CMSIS/Include/cmsis_gcc.h **** }
 4920              		.loc 2 387 0 discriminator 1
 4921 001e FB68     		ldr	r3, [r7, #12]
 4922              	.LBE521:
 4923              	.LBE520:
 4924              		.loc 1 1013 0 discriminator 1
 4925 0020 002B     		cmp	r3, #0
 4926 0022 09D1     		bne	.L424
 4927              		.loc 1 1013 0 is_stmt 0 discriminator 2
 4928 0024 184B     		ldr	r3, .L432
 4929 0026 1B68     		ldr	r3, [r3]
ARM GAS  /tmp/ccB5BhZs.s 			page 119


 4930 0028 022B     		cmp	r3, #2
 4931 002a 09D1     		bne	.L426
 4932              	.LBB522:
 4933              	.LBB523:
 465:Firmware/Drivers/CMSIS/Include/cmsis_gcc.h ****   return(result);
 4934              		.loc 2 465 0 is_stmt 1 discriminator 3
 4935              		.syntax unified
 4936              	@ 465 "Firmware/Drivers/CMSIS/Include/cmsis_gcc.h" 1
 4937 002c EFF31183 		MRS r3, basepri
 4938              	@ 0 "" 2
 4939              		.thumb
 4940              		.syntax unified
 4941 0030 BB60     		str	r3, [r7, #8]
 4942              		.loc 2 466 0 discriminator 3
 4943 0032 BB68     		ldr	r3, [r7, #8]
 4944              	.LBE523:
 4945              	.LBE522:
 4946              		.loc 1 1013 0 discriminator 3
 4947 0034 002B     		cmp	r3, #0
 4948 0036 03D0     		beq	.L426
 4949              	.L424:
1014:Firmware/Middlewares/Third_Party/FreeRTOS/Source/CMSIS_RTOS_V2/cmsis_os2.c ****     stat = osErrorISR;
 4950              		.loc 1 1014 0
 4951 0038 6FF00503 		mvn	r3, #5
 4952 003c FB61     		str	r3, [r7, #28]
 4953 003e 1EE0     		b	.L428
 4954              	.L426:
1015:Firmware/Middlewares/Third_Party/FreeRTOS/Source/CMSIS_RTOS_V2/cmsis_os2.c ****   }
1016:Firmware/Middlewares/Third_Party/FreeRTOS/Source/CMSIS_RTOS_V2/cmsis_os2.c ****   else if (hTimer == NULL) {
 4955              		.loc 1 1016 0
 4956 0040 BB69     		ldr	r3, [r7, #24]
 4957 0042 002B     		cmp	r3, #0
 4958 0044 03D1     		bne	.L429
1017:Firmware/Middlewares/Third_Party/FreeRTOS/Source/CMSIS_RTOS_V2/cmsis_os2.c ****     stat = osErrorParameter;
 4959              		.loc 1 1017 0
 4960 0046 6FF00303 		mvn	r3, #3
 4961 004a FB61     		str	r3, [r7, #28]
 4962 004c 17E0     		b	.L428
 4963              	.L429:
1018:Firmware/Middlewares/Third_Party/FreeRTOS/Source/CMSIS_RTOS_V2/cmsis_os2.c ****   }
1019:Firmware/Middlewares/Third_Party/FreeRTOS/Source/CMSIS_RTOS_V2/cmsis_os2.c ****   else {
1020:Firmware/Middlewares/Third_Party/FreeRTOS/Source/CMSIS_RTOS_V2/cmsis_os2.c ****     callb = (TimerCallback_t *)pvTimerGetTimerID (hTimer);
 4964              		.loc 1 1020 0
 4965 004e B869     		ldr	r0, [r7, #24]
 4966 0050 FFF7FEFF 		bl	pvTimerGetTimerID
 4967 0054 7861     		str	r0, [r7, #20]
1021:Firmware/Middlewares/Third_Party/FreeRTOS/Source/CMSIS_RTOS_V2/cmsis_os2.c **** 
1022:Firmware/Middlewares/Third_Party/FreeRTOS/Source/CMSIS_RTOS_V2/cmsis_os2.c ****     if (xTimerDelete (hTimer, 0) == pdPASS) {
 4968              		.loc 1 1022 0
 4969 0056 0023     		movs	r3, #0
 4970 0058 0093     		str	r3, [sp]
 4971 005a 0023     		movs	r3, #0
 4972 005c 0022     		movs	r2, #0
 4973 005e 0521     		movs	r1, #5
 4974 0060 B869     		ldr	r0, [r7, #24]
 4975 0062 FFF7FEFF 		bl	xTimerGenericCommand
 4976 0066 0346     		mov	r3, r0
ARM GAS  /tmp/ccB5BhZs.s 			page 120


 4977 0068 012B     		cmp	r3, #1
 4978 006a 05D1     		bne	.L430
1023:Firmware/Middlewares/Third_Party/FreeRTOS/Source/CMSIS_RTOS_V2/cmsis_os2.c ****       vPortFree (callb);
 4979              		.loc 1 1023 0
 4980 006c 7869     		ldr	r0, [r7, #20]
 4981 006e FFF7FEFF 		bl	vPortFree
1024:Firmware/Middlewares/Third_Party/FreeRTOS/Source/CMSIS_RTOS_V2/cmsis_os2.c ****       stat = osOK;
 4982              		.loc 1 1024 0
 4983 0072 0023     		movs	r3, #0
 4984 0074 FB61     		str	r3, [r7, #28]
 4985 0076 02E0     		b	.L428
 4986              	.L430:
1025:Firmware/Middlewares/Third_Party/FreeRTOS/Source/CMSIS_RTOS_V2/cmsis_os2.c ****     } else {
1026:Firmware/Middlewares/Third_Party/FreeRTOS/Source/CMSIS_RTOS_V2/cmsis_os2.c ****       stat = osErrorResource;
 4987              		.loc 1 1026 0
 4988 0078 6FF00203 		mvn	r3, #2
 4989 007c FB61     		str	r3, [r7, #28]
 4990              	.L428:
1027:Firmware/Middlewares/Third_Party/FreeRTOS/Source/CMSIS_RTOS_V2/cmsis_os2.c ****     }
1028:Firmware/Middlewares/Third_Party/FreeRTOS/Source/CMSIS_RTOS_V2/cmsis_os2.c ****   }
1029:Firmware/Middlewares/Third_Party/FreeRTOS/Source/CMSIS_RTOS_V2/cmsis_os2.c **** #else
1030:Firmware/Middlewares/Third_Party/FreeRTOS/Source/CMSIS_RTOS_V2/cmsis_os2.c ****   stat = osError;
1031:Firmware/Middlewares/Third_Party/FreeRTOS/Source/CMSIS_RTOS_V2/cmsis_os2.c **** #endif
1032:Firmware/Middlewares/Third_Party/FreeRTOS/Source/CMSIS_RTOS_V2/cmsis_os2.c **** 
1033:Firmware/Middlewares/Third_Party/FreeRTOS/Source/CMSIS_RTOS_V2/cmsis_os2.c ****   return (stat);
 4991              		.loc 1 1033 0
 4992 007e FB69     		ldr	r3, [r7, #28]
1034:Firmware/Middlewares/Third_Party/FreeRTOS/Source/CMSIS_RTOS_V2/cmsis_os2.c **** }
 4993              		.loc 1 1034 0
 4994 0080 1846     		mov	r0, r3
 4995 0082 2037     		adds	r7, r7, #32
 4996              	.LCFI191:
 4997              		.cfi_def_cfa_offset 8
 4998 0084 BD46     		mov	sp, r7
 4999              	.LCFI192:
 5000              		.cfi_def_cfa_register 13
 5001              		@ sp needed
 5002 0086 80BD     		pop	{r7, pc}
 5003              	.L433:
 5004              		.align	2
 5005              	.L432:
 5006 0088 00000000 		.word	KernelState
 5007              		.cfi_endproc
 5008              	.LFE144:
 5010              		.section	.text.osEventFlagsNew,"ax",%progbits
 5011              		.align	1
 5012              		.global	osEventFlagsNew
 5013              		.syntax unified
 5014              		.thumb
 5015              		.thumb_func
 5016              		.fpu fpv4-sp-d16
 5018              	osEventFlagsNew:
 5019              	.LFB145:
1035:Firmware/Middlewares/Third_Party/FreeRTOS/Source/CMSIS_RTOS_V2/cmsis_os2.c **** 
1036:Firmware/Middlewares/Third_Party/FreeRTOS/Source/CMSIS_RTOS_V2/cmsis_os2.c **** /*---------------------------------------------------------------------------*/
1037:Firmware/Middlewares/Third_Party/FreeRTOS/Source/CMSIS_RTOS_V2/cmsis_os2.c **** 
1038:Firmware/Middlewares/Third_Party/FreeRTOS/Source/CMSIS_RTOS_V2/cmsis_os2.c **** osEventFlagsId_t osEventFlagsNew (const osEventFlagsAttr_t *attr) {
ARM GAS  /tmp/ccB5BhZs.s 			page 121


 5020              		.loc 1 1038 0
 5021              		.cfi_startproc
 5022              		@ args = 0, pretend = 0, frame = 32
 5023              		@ frame_needed = 1, uses_anonymous_args = 0
 5024 0000 80B5     		push	{r7, lr}
 5025              	.LCFI193:
 5026              		.cfi_def_cfa_offset 8
 5027              		.cfi_offset 7, -8
 5028              		.cfi_offset 14, -4
 5029 0002 88B0     		sub	sp, sp, #32
 5030              	.LCFI194:
 5031              		.cfi_def_cfa_offset 40
 5032 0004 00AF     		add	r7, sp, #0
 5033              	.LCFI195:
 5034              		.cfi_def_cfa_register 7
 5035 0006 7860     		str	r0, [r7, #4]
1039:Firmware/Middlewares/Third_Party/FreeRTOS/Source/CMSIS_RTOS_V2/cmsis_os2.c ****   EventGroupHandle_t hEventGroup;
1040:Firmware/Middlewares/Third_Party/FreeRTOS/Source/CMSIS_RTOS_V2/cmsis_os2.c ****   int32_t mem;
1041:Firmware/Middlewares/Third_Party/FreeRTOS/Source/CMSIS_RTOS_V2/cmsis_os2.c **** 
1042:Firmware/Middlewares/Third_Party/FreeRTOS/Source/CMSIS_RTOS_V2/cmsis_os2.c ****   hEventGroup = NULL;
 5036              		.loc 1 1042 0
 5037 0008 0023     		movs	r3, #0
 5038 000a FB61     		str	r3, [r7, #28]
 5039              	.LBB524:
 5040              	.LBB525:
 209:Firmware/Drivers/CMSIS/Include/cmsis_gcc.h ****   return(result);
 5041              		.loc 2 209 0
 5042              		.syntax unified
 5043              	@ 209 "Firmware/Drivers/CMSIS/Include/cmsis_gcc.h" 1
 5044 000c EFF30583 		MRS r3, ipsr
 5045              	@ 0 "" 2
 5046              		.thumb
 5047              		.syntax unified
 5048 0010 7B61     		str	r3, [r7, #20]
 210:Firmware/Drivers/CMSIS/Include/cmsis_gcc.h **** }
 5049              		.loc 2 210 0
 5050 0012 7B69     		ldr	r3, [r7, #20]
 5051              	.LBE525:
 5052              	.LBE524:
1043:Firmware/Middlewares/Third_Party/FreeRTOS/Source/CMSIS_RTOS_V2/cmsis_os2.c **** 
1044:Firmware/Middlewares/Third_Party/FreeRTOS/Source/CMSIS_RTOS_V2/cmsis_os2.c ****   if (!IS_IRQ()) {
 5053              		.loc 1 1044 0
 5054 0014 002B     		cmp	r3, #0
 5055 0016 3DD1     		bne	.L436
 5056              	.LBB526:
 5057              	.LBB527:
 386:Firmware/Drivers/CMSIS/Include/cmsis_gcc.h ****   return(result);
 5058              		.loc 2 386 0 discriminator 1
 5059              		.syntax unified
 5060              	@ 386 "Firmware/Drivers/CMSIS/Include/cmsis_gcc.h" 1
 5061 0018 EFF31083 		MRS r3, primask
 5062              	@ 0 "" 2
 5063              		.thumb
 5064              		.syntax unified
 5065 001c 3B61     		str	r3, [r7, #16]
 387:Firmware/Drivers/CMSIS/Include/cmsis_gcc.h **** }
 5066              		.loc 2 387 0 discriminator 1
ARM GAS  /tmp/ccB5BhZs.s 			page 122


 5067 001e 3B69     		ldr	r3, [r7, #16]
 5068              	.LBE527:
 5069              	.LBE526:
 5070              		.loc 1 1044 0 discriminator 1
 5071 0020 002B     		cmp	r3, #0
 5072 0022 37D1     		bne	.L436
 5073              		.loc 1 1044 0 is_stmt 0 discriminator 2
 5074 0024 1E4B     		ldr	r3, .L446
 5075 0026 1B68     		ldr	r3, [r3]
 5076 0028 022B     		cmp	r3, #2
 5077 002a 05D1     		bne	.L438
 5078              	.LBB528:
 5079              	.LBB529:
 465:Firmware/Drivers/CMSIS/Include/cmsis_gcc.h ****   return(result);
 5080              		.loc 2 465 0 is_stmt 1 discriminator 3
 5081              		.syntax unified
 5082              	@ 465 "Firmware/Drivers/CMSIS/Include/cmsis_gcc.h" 1
 5083 002c EFF31183 		MRS r3, basepri
 5084              	@ 0 "" 2
 5085              		.thumb
 5086              		.syntax unified
 5087 0030 FB60     		str	r3, [r7, #12]
 5088              		.loc 2 466 0 discriminator 3
 5089 0032 FB68     		ldr	r3, [r7, #12]
 5090              	.LBE529:
 5091              	.LBE528:
 5092              		.loc 1 1044 0 discriminator 3
 5093 0034 002B     		cmp	r3, #0
 5094 0036 2DD1     		bne	.L436
 5095              	.L438:
1045:Firmware/Middlewares/Third_Party/FreeRTOS/Source/CMSIS_RTOS_V2/cmsis_os2.c ****     mem = -1;
 5096              		.loc 1 1045 0
 5097 0038 4FF0FF33 		mov	r3, #-1
 5098 003c BB61     		str	r3, [r7, #24]
1046:Firmware/Middlewares/Third_Party/FreeRTOS/Source/CMSIS_RTOS_V2/cmsis_os2.c **** 
1047:Firmware/Middlewares/Third_Party/FreeRTOS/Source/CMSIS_RTOS_V2/cmsis_os2.c ****     if (attr != NULL) {
 5099              		.loc 1 1047 0
 5100 003e 7B68     		ldr	r3, [r7, #4]
 5101 0040 002B     		cmp	r3, #0
 5102 0042 15D0     		beq	.L440
1048:Firmware/Middlewares/Third_Party/FreeRTOS/Source/CMSIS_RTOS_V2/cmsis_os2.c ****       if ((attr->cb_mem != NULL) && (attr->cb_size >= sizeof(StaticEventGroup_t))) {
 5103              		.loc 1 1048 0
 5104 0044 7B68     		ldr	r3, [r7, #4]
 5105 0046 9B68     		ldr	r3, [r3, #8]
 5106 0048 002B     		cmp	r3, #0
 5107 004a 06D0     		beq	.L441
 5108              		.loc 1 1048 0 is_stmt 0 discriminator 1
 5109 004c 7B68     		ldr	r3, [r7, #4]
 5110 004e DB68     		ldr	r3, [r3, #12]
 5111 0050 1F2B     		cmp	r3, #31
 5112 0052 02D9     		bls	.L441
1049:Firmware/Middlewares/Third_Party/FreeRTOS/Source/CMSIS_RTOS_V2/cmsis_os2.c ****         mem = 1;
 5113              		.loc 1 1049 0 is_stmt 1
 5114 0054 0123     		movs	r3, #1
 5115 0056 BB61     		str	r3, [r7, #24]
 5116 0058 0CE0     		b	.L443
 5117              	.L441:
ARM GAS  /tmp/ccB5BhZs.s 			page 123


1050:Firmware/Middlewares/Third_Party/FreeRTOS/Source/CMSIS_RTOS_V2/cmsis_os2.c ****       }
1051:Firmware/Middlewares/Third_Party/FreeRTOS/Source/CMSIS_RTOS_V2/cmsis_os2.c ****       else {
1052:Firmware/Middlewares/Third_Party/FreeRTOS/Source/CMSIS_RTOS_V2/cmsis_os2.c ****         if ((attr->cb_mem == NULL) && (attr->cb_size == 0U)) {
 5118              		.loc 1 1052 0
 5119 005a 7B68     		ldr	r3, [r7, #4]
 5120 005c 9B68     		ldr	r3, [r3, #8]
 5121 005e 002B     		cmp	r3, #0
 5122 0060 08D1     		bne	.L443
 5123              		.loc 1 1052 0 is_stmt 0 discriminator 1
 5124 0062 7B68     		ldr	r3, [r7, #4]
 5125 0064 DB68     		ldr	r3, [r3, #12]
 5126 0066 002B     		cmp	r3, #0
 5127 0068 04D1     		bne	.L443
1053:Firmware/Middlewares/Third_Party/FreeRTOS/Source/CMSIS_RTOS_V2/cmsis_os2.c ****           mem = 0;
 5128              		.loc 1 1053 0 is_stmt 1
 5129 006a 0023     		movs	r3, #0
 5130 006c BB61     		str	r3, [r7, #24]
 5131 006e 01E0     		b	.L443
 5132              	.L440:
1054:Firmware/Middlewares/Third_Party/FreeRTOS/Source/CMSIS_RTOS_V2/cmsis_os2.c ****         }
1055:Firmware/Middlewares/Third_Party/FreeRTOS/Source/CMSIS_RTOS_V2/cmsis_os2.c ****       }
1056:Firmware/Middlewares/Third_Party/FreeRTOS/Source/CMSIS_RTOS_V2/cmsis_os2.c ****     }
1057:Firmware/Middlewares/Third_Party/FreeRTOS/Source/CMSIS_RTOS_V2/cmsis_os2.c ****     else {
1058:Firmware/Middlewares/Third_Party/FreeRTOS/Source/CMSIS_RTOS_V2/cmsis_os2.c ****       mem = 0;
 5133              		.loc 1 1058 0
 5134 0070 0023     		movs	r3, #0
 5135 0072 BB61     		str	r3, [r7, #24]
 5136              	.L443:
1059:Firmware/Middlewares/Third_Party/FreeRTOS/Source/CMSIS_RTOS_V2/cmsis_os2.c ****     }
1060:Firmware/Middlewares/Third_Party/FreeRTOS/Source/CMSIS_RTOS_V2/cmsis_os2.c **** 
1061:Firmware/Middlewares/Third_Party/FreeRTOS/Source/CMSIS_RTOS_V2/cmsis_os2.c ****     if (mem == 1) {
 5137              		.loc 1 1061 0
 5138 0074 BB69     		ldr	r3, [r7, #24]
 5139 0076 012B     		cmp	r3, #1
 5140 0078 06D1     		bne	.L444
1062:Firmware/Middlewares/Third_Party/FreeRTOS/Source/CMSIS_RTOS_V2/cmsis_os2.c ****       hEventGroup = xEventGroupCreateStatic (attr->cb_mem);
 5141              		.loc 1 1062 0
 5142 007a 7B68     		ldr	r3, [r7, #4]
 5143 007c 9B68     		ldr	r3, [r3, #8]
 5144 007e 1846     		mov	r0, r3
 5145 0080 FFF7FEFF 		bl	xEventGroupCreateStatic
 5146 0084 F861     		str	r0, [r7, #28]
 5147 0086 05E0     		b	.L436
 5148              	.L444:
1063:Firmware/Middlewares/Third_Party/FreeRTOS/Source/CMSIS_RTOS_V2/cmsis_os2.c ****     }
1064:Firmware/Middlewares/Third_Party/FreeRTOS/Source/CMSIS_RTOS_V2/cmsis_os2.c ****     else {
1065:Firmware/Middlewares/Third_Party/FreeRTOS/Source/CMSIS_RTOS_V2/cmsis_os2.c ****       if (mem == 0) {
 5149              		.loc 1 1065 0
 5150 0088 BB69     		ldr	r3, [r7, #24]
 5151 008a 002B     		cmp	r3, #0
 5152 008c 02D1     		bne	.L436
1066:Firmware/Middlewares/Third_Party/FreeRTOS/Source/CMSIS_RTOS_V2/cmsis_os2.c ****         hEventGroup = xEventGroupCreate();
 5153              		.loc 1 1066 0
 5154 008e FFF7FEFF 		bl	xEventGroupCreate
 5155 0092 F861     		str	r0, [r7, #28]
 5156              	.L436:
1067:Firmware/Middlewares/Third_Party/FreeRTOS/Source/CMSIS_RTOS_V2/cmsis_os2.c ****       }
ARM GAS  /tmp/ccB5BhZs.s 			page 124


1068:Firmware/Middlewares/Third_Party/FreeRTOS/Source/CMSIS_RTOS_V2/cmsis_os2.c ****     }
1069:Firmware/Middlewares/Third_Party/FreeRTOS/Source/CMSIS_RTOS_V2/cmsis_os2.c ****   }
1070:Firmware/Middlewares/Third_Party/FreeRTOS/Source/CMSIS_RTOS_V2/cmsis_os2.c **** 
1071:Firmware/Middlewares/Third_Party/FreeRTOS/Source/CMSIS_RTOS_V2/cmsis_os2.c ****   return ((osEventFlagsId_t)hEventGroup);
 5157              		.loc 1 1071 0
 5158 0094 FB69     		ldr	r3, [r7, #28]
1072:Firmware/Middlewares/Third_Party/FreeRTOS/Source/CMSIS_RTOS_V2/cmsis_os2.c **** }
 5159              		.loc 1 1072 0
 5160 0096 1846     		mov	r0, r3
 5161 0098 2037     		adds	r7, r7, #32
 5162              	.LCFI196:
 5163              		.cfi_def_cfa_offset 8
 5164 009a BD46     		mov	sp, r7
 5165              	.LCFI197:
 5166              		.cfi_def_cfa_register 13
 5167              		@ sp needed
 5168 009c 80BD     		pop	{r7, pc}
 5169              	.L447:
 5170 009e 00BF     		.align	2
 5171              	.L446:
 5172 00a0 00000000 		.word	KernelState
 5173              		.cfi_endproc
 5174              	.LFE145:
 5176              		.section	.text.osEventFlagsSet,"ax",%progbits
 5177              		.align	1
 5178              		.global	osEventFlagsSet
 5179              		.syntax unified
 5180              		.thumb
 5181              		.thumb_func
 5182              		.fpu fpv4-sp-d16
 5184              	osEventFlagsSet:
 5185              	.LFB146:
1073:Firmware/Middlewares/Third_Party/FreeRTOS/Source/CMSIS_RTOS_V2/cmsis_os2.c **** 
1074:Firmware/Middlewares/Third_Party/FreeRTOS/Source/CMSIS_RTOS_V2/cmsis_os2.c **** uint32_t osEventFlagsSet (osEventFlagsId_t ef_id, uint32_t flags) {
 5186              		.loc 1 1074 0
 5187              		.cfi_startproc
 5188              		@ args = 0, pretend = 0, frame = 32
 5189              		@ frame_needed = 1, uses_anonymous_args = 0
 5190 0000 80B5     		push	{r7, lr}
 5191              	.LCFI198:
 5192              		.cfi_def_cfa_offset 8
 5193              		.cfi_offset 7, -8
 5194              		.cfi_offset 14, -4
 5195 0002 88B0     		sub	sp, sp, #32
 5196              	.LCFI199:
 5197              		.cfi_def_cfa_offset 40
 5198 0004 00AF     		add	r7, sp, #0
 5199              	.LCFI200:
 5200              		.cfi_def_cfa_register 7
 5201 0006 7860     		str	r0, [r7, #4]
 5202 0008 3960     		str	r1, [r7]
1075:Firmware/Middlewares/Third_Party/FreeRTOS/Source/CMSIS_RTOS_V2/cmsis_os2.c ****   EventGroupHandle_t hEventGroup = (EventGroupHandle_t)ef_id;
 5203              		.loc 1 1075 0
 5204 000a 7B68     		ldr	r3, [r7, #4]
 5205 000c BB61     		str	r3, [r7, #24]
1076:Firmware/Middlewares/Third_Party/FreeRTOS/Source/CMSIS_RTOS_V2/cmsis_os2.c ****   uint32_t rflags;
1077:Firmware/Middlewares/Third_Party/FreeRTOS/Source/CMSIS_RTOS_V2/cmsis_os2.c ****   BaseType_t yield;
ARM GAS  /tmp/ccB5BhZs.s 			page 125


1078:Firmware/Middlewares/Third_Party/FreeRTOS/Source/CMSIS_RTOS_V2/cmsis_os2.c **** 
1079:Firmware/Middlewares/Third_Party/FreeRTOS/Source/CMSIS_RTOS_V2/cmsis_os2.c ****   if ((hEventGroup == NULL) || ((flags & EVENT_FLAGS_INVALID_BITS) != 0U)) {
 5206              		.loc 1 1079 0
 5207 000e BB69     		ldr	r3, [r7, #24]
 5208 0010 002B     		cmp	r3, #0
 5209 0012 04D0     		beq	.L449
 5210              		.loc 1 1079 0 is_stmt 0 discriminator 1
 5211 0014 3B68     		ldr	r3, [r7]
 5212 0016 03F07F43 		and	r3, r3, #-16777216
 5213 001a 002B     		cmp	r3, #0
 5214 001c 03D0     		beq	.L450
 5215              	.L449:
1080:Firmware/Middlewares/Third_Party/FreeRTOS/Source/CMSIS_RTOS_V2/cmsis_os2.c ****     rflags = (uint32_t)osErrorParameter;
 5216              		.loc 1 1080 0 is_stmt 1
 5217 001e 6FF00303 		mvn	r3, #3
 5218 0022 FB61     		str	r3, [r7, #28]
 5219 0024 3AE0     		b	.L451
 5220              	.L450:
 5221              	.LBB530:
 5222              	.LBB531:
 209:Firmware/Drivers/CMSIS/Include/cmsis_gcc.h ****   return(result);
 5223              		.loc 2 209 0
 5224              		.syntax unified
 5225              	@ 209 "Firmware/Drivers/CMSIS/Include/cmsis_gcc.h" 1
 5226 0026 EFF30583 		MRS r3, ipsr
 5227              	@ 0 "" 2
 5228              		.thumb
 5229              		.syntax unified
 5230 002a 7B61     		str	r3, [r7, #20]
 210:Firmware/Drivers/CMSIS/Include/cmsis_gcc.h **** }
 5231              		.loc 2 210 0
 5232 002c 7B69     		ldr	r3, [r7, #20]
 5233              	.LBE531:
 5234              	.LBE530:
1081:Firmware/Middlewares/Third_Party/FreeRTOS/Source/CMSIS_RTOS_V2/cmsis_os2.c ****   }
1082:Firmware/Middlewares/Third_Party/FreeRTOS/Source/CMSIS_RTOS_V2/cmsis_os2.c ****   else if (IS_IRQ()) {
 5235              		.loc 1 1082 0
 5236 002e 002B     		cmp	r3, #0
 5237 0030 0FD1     		bne	.L453
 5238              	.LBB532:
 5239              	.LBB533:
 386:Firmware/Drivers/CMSIS/Include/cmsis_gcc.h ****   return(result);
 5240              		.loc 2 386 0 discriminator 1
 5241              		.syntax unified
 5242              	@ 386 "Firmware/Drivers/CMSIS/Include/cmsis_gcc.h" 1
 5243 0032 EFF31083 		MRS r3, primask
 5244              	@ 0 "" 2
 5245              		.thumb
 5246              		.syntax unified
 5247 0036 3B61     		str	r3, [r7, #16]
 387:Firmware/Drivers/CMSIS/Include/cmsis_gcc.h **** }
 5248              		.loc 2 387 0 discriminator 1
 5249 0038 3B69     		ldr	r3, [r7, #16]
 5250              	.LBE533:
 5251              	.LBE532:
 5252              		.loc 1 1082 0 discriminator 1
 5253 003a 002B     		cmp	r3, #0
ARM GAS  /tmp/ccB5BhZs.s 			page 126


 5254 003c 09D1     		bne	.L453
 5255              		.loc 1 1082 0 is_stmt 0 discriminator 2
 5256 003e 1A4B     		ldr	r3, .L461
 5257 0040 1B68     		ldr	r3, [r3]
 5258 0042 022B     		cmp	r3, #2
 5259 0044 23D1     		bne	.L455
 5260              	.LBB534:
 5261              	.LBB535:
 465:Firmware/Drivers/CMSIS/Include/cmsis_gcc.h ****   return(result);
 5262              		.loc 2 465 0 is_stmt 1 discriminator 3
 5263              		.syntax unified
 5264              	@ 465 "Firmware/Drivers/CMSIS/Include/cmsis_gcc.h" 1
 5265 0046 EFF31183 		MRS r3, basepri
 5266              	@ 0 "" 2
 5267              		.thumb
 5268              		.syntax unified
 5269 004a FB60     		str	r3, [r7, #12]
 5270              		.loc 2 466 0 discriminator 3
 5271 004c FB68     		ldr	r3, [r7, #12]
 5272              	.LBE535:
 5273              	.LBE534:
 5274              		.loc 1 1082 0 discriminator 3
 5275 004e 002B     		cmp	r3, #0
 5276 0050 1DD0     		beq	.L455
 5277              	.L453:
1083:Firmware/Middlewares/Third_Party/FreeRTOS/Source/CMSIS_RTOS_V2/cmsis_os2.c ****     yield = pdFALSE;
 5278              		.loc 1 1083 0
 5279 0052 0023     		movs	r3, #0
 5280 0054 BB60     		str	r3, [r7, #8]
1084:Firmware/Middlewares/Third_Party/FreeRTOS/Source/CMSIS_RTOS_V2/cmsis_os2.c **** 
1085:Firmware/Middlewares/Third_Party/FreeRTOS/Source/CMSIS_RTOS_V2/cmsis_os2.c ****     if (xEventGroupSetBitsFromISR (hEventGroup, (EventBits_t)flags, &yield) != pdFAIL) {
 5281              		.loc 1 1085 0
 5282 0056 07F10803 		add	r3, r7, #8
 5283 005a 1A46     		mov	r2, r3
 5284 005c 3968     		ldr	r1, [r7]
 5285 005e B869     		ldr	r0, [r7, #24]
 5286 0060 FFF7FEFF 		bl	xEventGroupSetBitsFromISR
 5287 0064 0346     		mov	r3, r0
 5288 0066 002B     		cmp	r3, #0
 5289 0068 03D0     		beq	.L457
1086:Firmware/Middlewares/Third_Party/FreeRTOS/Source/CMSIS_RTOS_V2/cmsis_os2.c ****       rflags = (uint32_t)osErrorResource;
 5290              		.loc 1 1086 0
 5291 006a 6FF00203 		mvn	r3, #2
 5292 006e FB61     		str	r3, [r7, #28]
1085:Firmware/Middlewares/Third_Party/FreeRTOS/Source/CMSIS_RTOS_V2/cmsis_os2.c ****       rflags = (uint32_t)osErrorResource;
 5293              		.loc 1 1085 0
 5294 0070 13E0     		b	.L460
 5295              	.L457:
1087:Firmware/Middlewares/Third_Party/FreeRTOS/Source/CMSIS_RTOS_V2/cmsis_os2.c ****     } else {
1088:Firmware/Middlewares/Third_Party/FreeRTOS/Source/CMSIS_RTOS_V2/cmsis_os2.c ****       rflags = flags;
 5296              		.loc 1 1088 0
 5297 0072 3B68     		ldr	r3, [r7]
 5298 0074 FB61     		str	r3, [r7, #28]
1089:Firmware/Middlewares/Third_Party/FreeRTOS/Source/CMSIS_RTOS_V2/cmsis_os2.c ****       portYIELD_FROM_ISR (yield);
 5299              		.loc 1 1089 0
 5300 0076 BB68     		ldr	r3, [r7, #8]
 5301 0078 002B     		cmp	r3, #0
ARM GAS  /tmp/ccB5BhZs.s 			page 127


 5302 007a 0ED0     		beq	.L460
 5303              		.loc 1 1089 0 is_stmt 0 discriminator 1
 5304 007c 0B4B     		ldr	r3, .L461+4
 5305 007e 4FF08052 		mov	r2, #268435456
 5306 0082 1A60     		str	r2, [r3]
 5307              		.syntax unified
 5308              	@ 1089 "Firmware/Middlewares/Third_Party/FreeRTOS/Source/CMSIS_RTOS_V2/cmsis_os2.c" 1
 5309 0084 BFF34F8F 		dsb
 5310              	@ 0 "" 2
 5311              	@ 1089 "Firmware/Middlewares/Third_Party/FreeRTOS/Source/CMSIS_RTOS_V2/cmsis_os2.c" 1
 5312 0088 BFF36F8F 		isb
 5313              	@ 0 "" 2
1085:Firmware/Middlewares/Third_Party/FreeRTOS/Source/CMSIS_RTOS_V2/cmsis_os2.c ****       rflags = (uint32_t)osErrorResource;
 5314              		.loc 1 1085 0 is_stmt 1 discriminator 1
 5315              		.thumb
 5316              		.syntax unified
 5317 008c 05E0     		b	.L460
 5318              	.L455:
1090:Firmware/Middlewares/Third_Party/FreeRTOS/Source/CMSIS_RTOS_V2/cmsis_os2.c ****     }
1091:Firmware/Middlewares/Third_Party/FreeRTOS/Source/CMSIS_RTOS_V2/cmsis_os2.c ****   }
1092:Firmware/Middlewares/Third_Party/FreeRTOS/Source/CMSIS_RTOS_V2/cmsis_os2.c ****   else {
1093:Firmware/Middlewares/Third_Party/FreeRTOS/Source/CMSIS_RTOS_V2/cmsis_os2.c ****     rflags = xEventGroupSetBits (hEventGroup, (EventBits_t)flags);
 5319              		.loc 1 1093 0
 5320 008e 3968     		ldr	r1, [r7]
 5321 0090 B869     		ldr	r0, [r7, #24]
 5322 0092 FFF7FEFF 		bl	xEventGroupSetBits
 5323 0096 F861     		str	r0, [r7, #28]
 5324 0098 00E0     		b	.L451
 5325              	.L460:
1085:Firmware/Middlewares/Third_Party/FreeRTOS/Source/CMSIS_RTOS_V2/cmsis_os2.c ****       rflags = (uint32_t)osErrorResource;
 5326              		.loc 1 1085 0
 5327 009a 00BF     		nop
 5328              	.L451:
1094:Firmware/Middlewares/Third_Party/FreeRTOS/Source/CMSIS_RTOS_V2/cmsis_os2.c ****   }
1095:Firmware/Middlewares/Third_Party/FreeRTOS/Source/CMSIS_RTOS_V2/cmsis_os2.c **** 
1096:Firmware/Middlewares/Third_Party/FreeRTOS/Source/CMSIS_RTOS_V2/cmsis_os2.c ****   return (rflags);
 5329              		.loc 1 1096 0
 5330 009c FB69     		ldr	r3, [r7, #28]
1097:Firmware/Middlewares/Third_Party/FreeRTOS/Source/CMSIS_RTOS_V2/cmsis_os2.c **** }
 5331              		.loc 1 1097 0
 5332 009e 1846     		mov	r0, r3
 5333 00a0 2037     		adds	r7, r7, #32
 5334              	.LCFI201:
 5335              		.cfi_def_cfa_offset 8
 5336 00a2 BD46     		mov	sp, r7
 5337              	.LCFI202:
 5338              		.cfi_def_cfa_register 13
 5339              		@ sp needed
 5340 00a4 80BD     		pop	{r7, pc}
 5341              	.L462:
 5342 00a6 00BF     		.align	2
 5343              	.L461:
 5344 00a8 00000000 		.word	KernelState
 5345 00ac 04ED00E0 		.word	-536810236
 5346              		.cfi_endproc
 5347              	.LFE146:
 5349              		.section	.text.osEventFlagsClear,"ax",%progbits
ARM GAS  /tmp/ccB5BhZs.s 			page 128


 5350              		.align	1
 5351              		.global	osEventFlagsClear
 5352              		.syntax unified
 5353              		.thumb
 5354              		.thumb_func
 5355              		.fpu fpv4-sp-d16
 5357              	osEventFlagsClear:
 5358              	.LFB147:
1098:Firmware/Middlewares/Third_Party/FreeRTOS/Source/CMSIS_RTOS_V2/cmsis_os2.c **** 
1099:Firmware/Middlewares/Third_Party/FreeRTOS/Source/CMSIS_RTOS_V2/cmsis_os2.c **** uint32_t osEventFlagsClear (osEventFlagsId_t ef_id, uint32_t flags) {
 5359              		.loc 1 1099 0
 5360              		.cfi_startproc
 5361              		@ args = 0, pretend = 0, frame = 32
 5362              		@ frame_needed = 1, uses_anonymous_args = 0
 5363 0000 80B5     		push	{r7, lr}
 5364              	.LCFI203:
 5365              		.cfi_def_cfa_offset 8
 5366              		.cfi_offset 7, -8
 5367              		.cfi_offset 14, -4
 5368 0002 88B0     		sub	sp, sp, #32
 5369              	.LCFI204:
 5370              		.cfi_def_cfa_offset 40
 5371 0004 00AF     		add	r7, sp, #0
 5372              	.LCFI205:
 5373              		.cfi_def_cfa_register 7
 5374 0006 7860     		str	r0, [r7, #4]
 5375 0008 3960     		str	r1, [r7]
1100:Firmware/Middlewares/Third_Party/FreeRTOS/Source/CMSIS_RTOS_V2/cmsis_os2.c ****   EventGroupHandle_t hEventGroup = (EventGroupHandle_t)ef_id;
 5376              		.loc 1 1100 0
 5377 000a 7B68     		ldr	r3, [r7, #4]
 5378 000c BB61     		str	r3, [r7, #24]
1101:Firmware/Middlewares/Third_Party/FreeRTOS/Source/CMSIS_RTOS_V2/cmsis_os2.c ****   uint32_t rflags;
1102:Firmware/Middlewares/Third_Party/FreeRTOS/Source/CMSIS_RTOS_V2/cmsis_os2.c **** 
1103:Firmware/Middlewares/Third_Party/FreeRTOS/Source/CMSIS_RTOS_V2/cmsis_os2.c ****   if ((hEventGroup == NULL) || ((flags & EVENT_FLAGS_INVALID_BITS) != 0U)) {
 5379              		.loc 1 1103 0
 5380 000e BB69     		ldr	r3, [r7, #24]
 5381 0010 002B     		cmp	r3, #0
 5382 0012 04D0     		beq	.L464
 5383              		.loc 1 1103 0 is_stmt 0 discriminator 1
 5384 0014 3B68     		ldr	r3, [r7]
 5385 0016 03F07F43 		and	r3, r3, #-16777216
 5386 001a 002B     		cmp	r3, #0
 5387 001c 03D0     		beq	.L465
 5388              	.L464:
1104:Firmware/Middlewares/Third_Party/FreeRTOS/Source/CMSIS_RTOS_V2/cmsis_os2.c ****     rflags = (uint32_t)osErrorParameter;
 5389              		.loc 1 1104 0 is_stmt 1
 5390 001e 6FF00303 		mvn	r3, #3
 5391 0022 FB61     		str	r3, [r7, #28]
 5392 0024 29E0     		b	.L466
 5393              	.L465:
 5394              	.LBB536:
 5395              	.LBB537:
 209:Firmware/Drivers/CMSIS/Include/cmsis_gcc.h ****   return(result);
 5396              		.loc 2 209 0
 5397              		.syntax unified
 5398              	@ 209 "Firmware/Drivers/CMSIS/Include/cmsis_gcc.h" 1
 5399 0026 EFF30583 		MRS r3, ipsr
ARM GAS  /tmp/ccB5BhZs.s 			page 129


 5400              	@ 0 "" 2
 5401              		.thumb
 5402              		.syntax unified
 5403 002a 7B61     		str	r3, [r7, #20]
 210:Firmware/Drivers/CMSIS/Include/cmsis_gcc.h **** }
 5404              		.loc 2 210 0
 5405 002c 7B69     		ldr	r3, [r7, #20]
 5406              	.LBE537:
 5407              	.LBE536:
1105:Firmware/Middlewares/Third_Party/FreeRTOS/Source/CMSIS_RTOS_V2/cmsis_os2.c ****   }
1106:Firmware/Middlewares/Third_Party/FreeRTOS/Source/CMSIS_RTOS_V2/cmsis_os2.c ****   else if (IS_IRQ()) {
 5408              		.loc 1 1106 0
 5409 002e 002B     		cmp	r3, #0
 5410 0030 0FD1     		bne	.L468
 5411              	.LBB538:
 5412              	.LBB539:
 386:Firmware/Drivers/CMSIS/Include/cmsis_gcc.h ****   return(result);
 5413              		.loc 2 386 0 discriminator 1
 5414              		.syntax unified
 5415              	@ 386 "Firmware/Drivers/CMSIS/Include/cmsis_gcc.h" 1
 5416 0032 EFF31083 		MRS r3, primask
 5417              	@ 0 "" 2
 5418              		.thumb
 5419              		.syntax unified
 5420 0036 3B61     		str	r3, [r7, #16]
 387:Firmware/Drivers/CMSIS/Include/cmsis_gcc.h **** }
 5421              		.loc 2 387 0 discriminator 1
 5422 0038 3B69     		ldr	r3, [r7, #16]
 5423              	.LBE539:
 5424              	.LBE538:
 5425              		.loc 1 1106 0 discriminator 1
 5426 003a 002B     		cmp	r3, #0
 5427 003c 09D1     		bne	.L468
 5428              		.loc 1 1106 0 is_stmt 0 discriminator 2
 5429 003e 114B     		ldr	r3, .L474
 5430 0040 1B68     		ldr	r3, [r3]
 5431 0042 022B     		cmp	r3, #2
 5432 0044 14D1     		bne	.L470
 5433              	.LBB540:
 5434              	.LBB541:
 465:Firmware/Drivers/CMSIS/Include/cmsis_gcc.h ****   return(result);
 5435              		.loc 2 465 0 is_stmt 1 discriminator 3
 5436              		.syntax unified
 5437              	@ 465 "Firmware/Drivers/CMSIS/Include/cmsis_gcc.h" 1
 5438 0046 EFF31183 		MRS r3, basepri
 5439              	@ 0 "" 2
 5440              		.thumb
 5441              		.syntax unified
 5442 004a FB60     		str	r3, [r7, #12]
 5443              		.loc 2 466 0 discriminator 3
 5444 004c FB68     		ldr	r3, [r7, #12]
 5445              	.LBE541:
 5446              	.LBE540:
 5447              		.loc 1 1106 0 discriminator 3
 5448 004e 002B     		cmp	r3, #0
 5449 0050 0ED0     		beq	.L470
 5450              	.L468:
ARM GAS  /tmp/ccB5BhZs.s 			page 130


1107:Firmware/Middlewares/Third_Party/FreeRTOS/Source/CMSIS_RTOS_V2/cmsis_os2.c ****     rflags = xEventGroupGetBitsFromISR (hEventGroup);
 5451              		.loc 1 1107 0
 5452 0052 B869     		ldr	r0, [r7, #24]
 5453 0054 FFF7FEFF 		bl	xEventGroupGetBitsFromISR
 5454 0058 F861     		str	r0, [r7, #28]
1108:Firmware/Middlewares/Third_Party/FreeRTOS/Source/CMSIS_RTOS_V2/cmsis_os2.c **** 
1109:Firmware/Middlewares/Third_Party/FreeRTOS/Source/CMSIS_RTOS_V2/cmsis_os2.c ****     if (xEventGroupClearBitsFromISR (hEventGroup, (EventBits_t)flags) == pdFAIL) {
 5455              		.loc 1 1109 0
 5456 005a 3968     		ldr	r1, [r7]
 5457 005c B869     		ldr	r0, [r7, #24]
 5458 005e FFF7FEFF 		bl	xEventGroupClearBitsFromISR
 5459 0062 0346     		mov	r3, r0
 5460 0064 002B     		cmp	r3, #0
 5461 0066 08D1     		bne	.L466
1110:Firmware/Middlewares/Third_Party/FreeRTOS/Source/CMSIS_RTOS_V2/cmsis_os2.c ****       rflags = (uint32_t)osErrorResource;
 5462              		.loc 1 1110 0
 5463 0068 6FF00203 		mvn	r3, #2
 5464 006c FB61     		str	r3, [r7, #28]
1109:Firmware/Middlewares/Third_Party/FreeRTOS/Source/CMSIS_RTOS_V2/cmsis_os2.c ****       rflags = (uint32_t)osErrorResource;
 5465              		.loc 1 1109 0
 5466 006e 04E0     		b	.L466
 5467              	.L470:
1111:Firmware/Middlewares/Third_Party/FreeRTOS/Source/CMSIS_RTOS_V2/cmsis_os2.c ****     }
1112:Firmware/Middlewares/Third_Party/FreeRTOS/Source/CMSIS_RTOS_V2/cmsis_os2.c ****   }
1113:Firmware/Middlewares/Third_Party/FreeRTOS/Source/CMSIS_RTOS_V2/cmsis_os2.c ****   else {
1114:Firmware/Middlewares/Third_Party/FreeRTOS/Source/CMSIS_RTOS_V2/cmsis_os2.c ****     rflags = xEventGroupClearBits (hEventGroup, (EventBits_t)flags);
 5468              		.loc 1 1114 0
 5469 0070 3968     		ldr	r1, [r7]
 5470 0072 B869     		ldr	r0, [r7, #24]
 5471 0074 FFF7FEFF 		bl	xEventGroupClearBits
 5472 0078 F861     		str	r0, [r7, #28]
 5473              	.L466:
1115:Firmware/Middlewares/Third_Party/FreeRTOS/Source/CMSIS_RTOS_V2/cmsis_os2.c ****   }
1116:Firmware/Middlewares/Third_Party/FreeRTOS/Source/CMSIS_RTOS_V2/cmsis_os2.c **** 
1117:Firmware/Middlewares/Third_Party/FreeRTOS/Source/CMSIS_RTOS_V2/cmsis_os2.c ****   return (rflags);
 5474              		.loc 1 1117 0
 5475 007a FB69     		ldr	r3, [r7, #28]
1118:Firmware/Middlewares/Third_Party/FreeRTOS/Source/CMSIS_RTOS_V2/cmsis_os2.c **** }
 5476              		.loc 1 1118 0
 5477 007c 1846     		mov	r0, r3
 5478 007e 2037     		adds	r7, r7, #32
 5479              	.LCFI206:
 5480              		.cfi_def_cfa_offset 8
 5481 0080 BD46     		mov	sp, r7
 5482              	.LCFI207:
 5483              		.cfi_def_cfa_register 13
 5484              		@ sp needed
 5485 0082 80BD     		pop	{r7, pc}
 5486              	.L475:
 5487              		.align	2
 5488              	.L474:
 5489 0084 00000000 		.word	KernelState
 5490              		.cfi_endproc
 5491              	.LFE147:
 5493              		.section	.text.osEventFlagsGet,"ax",%progbits
 5494              		.align	1
 5495              		.global	osEventFlagsGet
ARM GAS  /tmp/ccB5BhZs.s 			page 131


 5496              		.syntax unified
 5497              		.thumb
 5498              		.thumb_func
 5499              		.fpu fpv4-sp-d16
 5501              	osEventFlagsGet:
 5502              	.LFB148:
1119:Firmware/Middlewares/Third_Party/FreeRTOS/Source/CMSIS_RTOS_V2/cmsis_os2.c **** 
1120:Firmware/Middlewares/Third_Party/FreeRTOS/Source/CMSIS_RTOS_V2/cmsis_os2.c **** uint32_t osEventFlagsGet (osEventFlagsId_t ef_id) {
 5503              		.loc 1 1120 0
 5504              		.cfi_startproc
 5505              		@ args = 0, pretend = 0, frame = 32
 5506              		@ frame_needed = 1, uses_anonymous_args = 0
 5507 0000 80B5     		push	{r7, lr}
 5508              	.LCFI208:
 5509              		.cfi_def_cfa_offset 8
 5510              		.cfi_offset 7, -8
 5511              		.cfi_offset 14, -4
 5512 0002 88B0     		sub	sp, sp, #32
 5513              	.LCFI209:
 5514              		.cfi_def_cfa_offset 40
 5515 0004 00AF     		add	r7, sp, #0
 5516              	.LCFI210:
 5517              		.cfi_def_cfa_register 7
 5518 0006 7860     		str	r0, [r7, #4]
1121:Firmware/Middlewares/Third_Party/FreeRTOS/Source/CMSIS_RTOS_V2/cmsis_os2.c ****   EventGroupHandle_t hEventGroup = (EventGroupHandle_t)ef_id;
 5519              		.loc 1 1121 0
 5520 0008 7B68     		ldr	r3, [r7, #4]
 5521 000a BB61     		str	r3, [r7, #24]
1122:Firmware/Middlewares/Third_Party/FreeRTOS/Source/CMSIS_RTOS_V2/cmsis_os2.c ****   uint32_t rflags;
1123:Firmware/Middlewares/Third_Party/FreeRTOS/Source/CMSIS_RTOS_V2/cmsis_os2.c **** 
1124:Firmware/Middlewares/Third_Party/FreeRTOS/Source/CMSIS_RTOS_V2/cmsis_os2.c ****   if (ef_id == NULL) {
 5522              		.loc 1 1124 0
 5523 000c 7B68     		ldr	r3, [r7, #4]
 5524 000e 002B     		cmp	r3, #0
 5525 0010 02D1     		bne	.L477
1125:Firmware/Middlewares/Third_Party/FreeRTOS/Source/CMSIS_RTOS_V2/cmsis_os2.c ****     rflags = 0U;
 5526              		.loc 1 1125 0
 5527 0012 0023     		movs	r3, #0
 5528 0014 FB61     		str	r3, [r7, #28]
 5529 0016 1FE0     		b	.L478
 5530              	.L477:
 5531              	.LBB542:
 5532              	.LBB543:
 209:Firmware/Drivers/CMSIS/Include/cmsis_gcc.h ****   return(result);
 5533              		.loc 2 209 0
 5534              		.syntax unified
 5535              	@ 209 "Firmware/Drivers/CMSIS/Include/cmsis_gcc.h" 1
 5536 0018 EFF30583 		MRS r3, ipsr
 5537              	@ 0 "" 2
 5538              		.thumb
 5539              		.syntax unified
 5540 001c 7B61     		str	r3, [r7, #20]
 210:Firmware/Drivers/CMSIS/Include/cmsis_gcc.h **** }
 5541              		.loc 2 210 0
 5542 001e 7B69     		ldr	r3, [r7, #20]
 5543              	.LBE543:
 5544              	.LBE542:
ARM GAS  /tmp/ccB5BhZs.s 			page 132


1126:Firmware/Middlewares/Third_Party/FreeRTOS/Source/CMSIS_RTOS_V2/cmsis_os2.c ****   }
1127:Firmware/Middlewares/Third_Party/FreeRTOS/Source/CMSIS_RTOS_V2/cmsis_os2.c ****   else if (IS_IRQ()) {
 5545              		.loc 1 1127 0
 5546 0020 002B     		cmp	r3, #0
 5547 0022 0FD1     		bne	.L480
 5548              	.LBB544:
 5549              	.LBB545:
 386:Firmware/Drivers/CMSIS/Include/cmsis_gcc.h ****   return(result);
 5550              		.loc 2 386 0 discriminator 1
 5551              		.syntax unified
 5552              	@ 386 "Firmware/Drivers/CMSIS/Include/cmsis_gcc.h" 1
 5553 0024 EFF31083 		MRS r3, primask
 5554              	@ 0 "" 2
 5555              		.thumb
 5556              		.syntax unified
 5557 0028 3B61     		str	r3, [r7, #16]
 387:Firmware/Drivers/CMSIS/Include/cmsis_gcc.h **** }
 5558              		.loc 2 387 0 discriminator 1
 5559 002a 3B69     		ldr	r3, [r7, #16]
 5560              	.LBE545:
 5561              	.LBE544:
 5562              		.loc 1 1127 0 discriminator 1
 5563 002c 002B     		cmp	r3, #0
 5564 002e 09D1     		bne	.L480
 5565              		.loc 1 1127 0 is_stmt 0 discriminator 2
 5566 0030 0C4B     		ldr	r3, .L485
 5567 0032 1B68     		ldr	r3, [r3]
 5568 0034 022B     		cmp	r3, #2
 5569 0036 0AD1     		bne	.L482
 5570              	.LBB546:
 5571              	.LBB547:
 465:Firmware/Drivers/CMSIS/Include/cmsis_gcc.h ****   return(result);
 5572              		.loc 2 465 0 is_stmt 1 discriminator 3
 5573              		.syntax unified
 5574              	@ 465 "Firmware/Drivers/CMSIS/Include/cmsis_gcc.h" 1
 5575 0038 EFF31183 		MRS r3, basepri
 5576              	@ 0 "" 2
 5577              		.thumb
 5578              		.syntax unified
 5579 003c FB60     		str	r3, [r7, #12]
 5580              		.loc 2 466 0 discriminator 3
 5581 003e FB68     		ldr	r3, [r7, #12]
 5582              	.LBE547:
 5583              	.LBE546:
 5584              		.loc 1 1127 0 discriminator 3
 5585 0040 002B     		cmp	r3, #0
 5586 0042 04D0     		beq	.L482
 5587              	.L480:
1128:Firmware/Middlewares/Third_Party/FreeRTOS/Source/CMSIS_RTOS_V2/cmsis_os2.c ****     rflags = xEventGroupGetBitsFromISR (hEventGroup);
 5588              		.loc 1 1128 0
 5589 0044 B869     		ldr	r0, [r7, #24]
 5590 0046 FFF7FEFF 		bl	xEventGroupGetBitsFromISR
 5591 004a F861     		str	r0, [r7, #28]
 5592 004c 04E0     		b	.L478
 5593              	.L482:
1129:Firmware/Middlewares/Third_Party/FreeRTOS/Source/CMSIS_RTOS_V2/cmsis_os2.c ****   }
1130:Firmware/Middlewares/Third_Party/FreeRTOS/Source/CMSIS_RTOS_V2/cmsis_os2.c ****   else {
ARM GAS  /tmp/ccB5BhZs.s 			page 133


1131:Firmware/Middlewares/Third_Party/FreeRTOS/Source/CMSIS_RTOS_V2/cmsis_os2.c ****     rflags = xEventGroupGetBits (hEventGroup);
 5594              		.loc 1 1131 0
 5595 004e 0021     		movs	r1, #0
 5596 0050 B869     		ldr	r0, [r7, #24]
 5597 0052 FFF7FEFF 		bl	xEventGroupClearBits
 5598 0056 F861     		str	r0, [r7, #28]
 5599              	.L478:
1132:Firmware/Middlewares/Third_Party/FreeRTOS/Source/CMSIS_RTOS_V2/cmsis_os2.c ****   }
1133:Firmware/Middlewares/Third_Party/FreeRTOS/Source/CMSIS_RTOS_V2/cmsis_os2.c **** 
1134:Firmware/Middlewares/Third_Party/FreeRTOS/Source/CMSIS_RTOS_V2/cmsis_os2.c ****   return (rflags);
 5600              		.loc 1 1134 0
 5601 0058 FB69     		ldr	r3, [r7, #28]
1135:Firmware/Middlewares/Third_Party/FreeRTOS/Source/CMSIS_RTOS_V2/cmsis_os2.c **** }
 5602              		.loc 1 1135 0
 5603 005a 1846     		mov	r0, r3
 5604 005c 2037     		adds	r7, r7, #32
 5605              	.LCFI211:
 5606              		.cfi_def_cfa_offset 8
 5607 005e BD46     		mov	sp, r7
 5608              	.LCFI212:
 5609              		.cfi_def_cfa_register 13
 5610              		@ sp needed
 5611 0060 80BD     		pop	{r7, pc}
 5612              	.L486:
 5613 0062 00BF     		.align	2
 5614              	.L485:
 5615 0064 00000000 		.word	KernelState
 5616              		.cfi_endproc
 5617              	.LFE148:
 5619              		.section	.text.osEventFlagsWait,"ax",%progbits
 5620              		.align	1
 5621              		.global	osEventFlagsWait
 5622              		.syntax unified
 5623              		.thumb
 5624              		.thumb_func
 5625              		.fpu fpv4-sp-d16
 5627              	osEventFlagsWait:
 5628              	.LFB149:
1136:Firmware/Middlewares/Third_Party/FreeRTOS/Source/CMSIS_RTOS_V2/cmsis_os2.c **** 
1137:Firmware/Middlewares/Third_Party/FreeRTOS/Source/CMSIS_RTOS_V2/cmsis_os2.c **** uint32_t osEventFlagsWait (osEventFlagsId_t ef_id, uint32_t flags, uint32_t options, uint32_t timeo
 5629              		.loc 1 1137 0
 5630              		.cfi_startproc
 5631              		@ args = 0, pretend = 0, frame = 48
 5632              		@ frame_needed = 1, uses_anonymous_args = 0
 5633 0000 80B5     		push	{r7, lr}
 5634              	.LCFI213:
 5635              		.cfi_def_cfa_offset 8
 5636              		.cfi_offset 7, -8
 5637              		.cfi_offset 14, -4
 5638 0002 8EB0     		sub	sp, sp, #56
 5639              	.LCFI214:
 5640              		.cfi_def_cfa_offset 64
 5641 0004 02AF     		add	r7, sp, #8
 5642              	.LCFI215:
 5643              		.cfi_def_cfa 7, 56
 5644 0006 F860     		str	r0, [r7, #12]
 5645 0008 B960     		str	r1, [r7, #8]
ARM GAS  /tmp/ccB5BhZs.s 			page 134


 5646 000a 7A60     		str	r2, [r7, #4]
 5647 000c 3B60     		str	r3, [r7]
1138:Firmware/Middlewares/Third_Party/FreeRTOS/Source/CMSIS_RTOS_V2/cmsis_os2.c ****   EventGroupHandle_t hEventGroup = (EventGroupHandle_t)ef_id;
 5648              		.loc 1 1138 0
 5649 000e FB68     		ldr	r3, [r7, #12]
 5650 0010 3B62     		str	r3, [r7, #32]
1139:Firmware/Middlewares/Third_Party/FreeRTOS/Source/CMSIS_RTOS_V2/cmsis_os2.c ****   BaseType_t wait_all;
1140:Firmware/Middlewares/Third_Party/FreeRTOS/Source/CMSIS_RTOS_V2/cmsis_os2.c ****   BaseType_t exit_clr;
1141:Firmware/Middlewares/Third_Party/FreeRTOS/Source/CMSIS_RTOS_V2/cmsis_os2.c ****   uint32_t rflags;
1142:Firmware/Middlewares/Third_Party/FreeRTOS/Source/CMSIS_RTOS_V2/cmsis_os2.c **** 
1143:Firmware/Middlewares/Third_Party/FreeRTOS/Source/CMSIS_RTOS_V2/cmsis_os2.c ****   if ((hEventGroup == NULL) || ((flags & EVENT_FLAGS_INVALID_BITS) != 0U)) {
 5651              		.loc 1 1143 0
 5652 0012 3B6A     		ldr	r3, [r7, #32]
 5653 0014 002B     		cmp	r3, #0
 5654 0016 04D0     		beq	.L488
 5655              		.loc 1 1143 0 is_stmt 0 discriminator 1
 5656 0018 BB68     		ldr	r3, [r7, #8]
 5657 001a 03F07F43 		and	r3, r3, #-16777216
 5658 001e 002B     		cmp	r3, #0
 5659 0020 03D0     		beq	.L489
 5660              	.L488:
1144:Firmware/Middlewares/Third_Party/FreeRTOS/Source/CMSIS_RTOS_V2/cmsis_os2.c ****     rflags = (uint32_t)osErrorParameter;
 5661              		.loc 1 1144 0 is_stmt 1
 5662 0022 6FF00303 		mvn	r3, #3
 5663 0026 7B62     		str	r3, [r7, #36]
 5664 0028 59E0     		b	.L490
 5665              	.L489:
 5666              	.LBB548:
 5667              	.LBB549:
 209:Firmware/Drivers/CMSIS/Include/cmsis_gcc.h ****   return(result);
 5668              		.loc 2 209 0
 5669              		.syntax unified
 5670              	@ 209 "Firmware/Drivers/CMSIS/Include/cmsis_gcc.h" 1
 5671 002a EFF30583 		MRS r3, ipsr
 5672              	@ 0 "" 2
 5673              		.thumb
 5674              		.syntax unified
 5675 002e FB61     		str	r3, [r7, #28]
 210:Firmware/Drivers/CMSIS/Include/cmsis_gcc.h **** }
 5676              		.loc 2 210 0
 5677 0030 FB69     		ldr	r3, [r7, #28]
 5678              	.LBE549:
 5679              	.LBE548:
1145:Firmware/Middlewares/Third_Party/FreeRTOS/Source/CMSIS_RTOS_V2/cmsis_os2.c ****   }
1146:Firmware/Middlewares/Third_Party/FreeRTOS/Source/CMSIS_RTOS_V2/cmsis_os2.c ****   else if (IS_IRQ()) {
 5680              		.loc 1 1146 0
 5681 0032 002B     		cmp	r3, #0
 5682 0034 0FD1     		bne	.L492
 5683              	.LBB550:
 5684              	.LBB551:
 386:Firmware/Drivers/CMSIS/Include/cmsis_gcc.h ****   return(result);
 5685              		.loc 2 386 0 discriminator 1
 5686              		.syntax unified
 5687              	@ 386 "Firmware/Drivers/CMSIS/Include/cmsis_gcc.h" 1
 5688 0036 EFF31083 		MRS r3, primask
 5689              	@ 0 "" 2
 5690              		.thumb
ARM GAS  /tmp/ccB5BhZs.s 			page 135


 5691              		.syntax unified
 5692 003a BB61     		str	r3, [r7, #24]
 387:Firmware/Drivers/CMSIS/Include/cmsis_gcc.h **** }
 5693              		.loc 2 387 0 discriminator 1
 5694 003c BB69     		ldr	r3, [r7, #24]
 5695              	.LBE551:
 5696              	.LBE550:
 5697              		.loc 1 1146 0 discriminator 1
 5698 003e 002B     		cmp	r3, #0
 5699 0040 09D1     		bne	.L492
 5700              		.loc 1 1146 0 is_stmt 0 discriminator 2
 5701 0042 294B     		ldr	r3, .L505
 5702 0044 1B68     		ldr	r3, [r3]
 5703 0046 022B     		cmp	r3, #2
 5704 0048 09D1     		bne	.L494
 5705              	.LBB552:
 5706              	.LBB553:
 465:Firmware/Drivers/CMSIS/Include/cmsis_gcc.h ****   return(result);
 5707              		.loc 2 465 0 is_stmt 1 discriminator 3
 5708              		.syntax unified
 5709              	@ 465 "Firmware/Drivers/CMSIS/Include/cmsis_gcc.h" 1
 5710 004a EFF31183 		MRS r3, basepri
 5711              	@ 0 "" 2
 5712              		.thumb
 5713              		.syntax unified
 5714 004e 7B61     		str	r3, [r7, #20]
 5715              		.loc 2 466 0 discriminator 3
 5716 0050 7B69     		ldr	r3, [r7, #20]
 5717              	.LBE553:
 5718              	.LBE552:
 5719              		.loc 1 1146 0 discriminator 3
 5720 0052 002B     		cmp	r3, #0
 5721 0054 03D0     		beq	.L494
 5722              	.L492:
1147:Firmware/Middlewares/Third_Party/FreeRTOS/Source/CMSIS_RTOS_V2/cmsis_os2.c ****     rflags = (uint32_t)osErrorISR;
 5723              		.loc 1 1147 0
 5724 0056 6FF00503 		mvn	r3, #5
 5725 005a 7B62     		str	r3, [r7, #36]
 5726 005c 3FE0     		b	.L490
 5727              	.L494:
1148:Firmware/Middlewares/Third_Party/FreeRTOS/Source/CMSIS_RTOS_V2/cmsis_os2.c ****   }
1149:Firmware/Middlewares/Third_Party/FreeRTOS/Source/CMSIS_RTOS_V2/cmsis_os2.c ****   else {
1150:Firmware/Middlewares/Third_Party/FreeRTOS/Source/CMSIS_RTOS_V2/cmsis_os2.c ****     if (options & osFlagsWaitAll) {
 5728              		.loc 1 1150 0
 5729 005e 7B68     		ldr	r3, [r7, #4]
 5730 0060 03F00103 		and	r3, r3, #1
 5731 0064 002B     		cmp	r3, #0
 5732 0066 02D0     		beq	.L496
1151:Firmware/Middlewares/Third_Party/FreeRTOS/Source/CMSIS_RTOS_V2/cmsis_os2.c ****       wait_all = pdTRUE;
 5733              		.loc 1 1151 0
 5734 0068 0123     		movs	r3, #1
 5735 006a FB62     		str	r3, [r7, #44]
 5736 006c 01E0     		b	.L497
 5737              	.L496:
1152:Firmware/Middlewares/Third_Party/FreeRTOS/Source/CMSIS_RTOS_V2/cmsis_os2.c ****     } else {
1153:Firmware/Middlewares/Third_Party/FreeRTOS/Source/CMSIS_RTOS_V2/cmsis_os2.c ****       wait_all = pdFAIL;
 5738              		.loc 1 1153 0
ARM GAS  /tmp/ccB5BhZs.s 			page 136


 5739 006e 0023     		movs	r3, #0
 5740 0070 FB62     		str	r3, [r7, #44]
 5741              	.L497:
1154:Firmware/Middlewares/Third_Party/FreeRTOS/Source/CMSIS_RTOS_V2/cmsis_os2.c ****     }
1155:Firmware/Middlewares/Third_Party/FreeRTOS/Source/CMSIS_RTOS_V2/cmsis_os2.c **** 
1156:Firmware/Middlewares/Third_Party/FreeRTOS/Source/CMSIS_RTOS_V2/cmsis_os2.c ****     if (options & osFlagsNoClear) {
 5742              		.loc 1 1156 0
 5743 0072 7B68     		ldr	r3, [r7, #4]
 5744 0074 03F00203 		and	r3, r3, #2
 5745 0078 002B     		cmp	r3, #0
 5746 007a 02D0     		beq	.L498
1157:Firmware/Middlewares/Third_Party/FreeRTOS/Source/CMSIS_RTOS_V2/cmsis_os2.c ****       exit_clr = pdFAIL;
 5747              		.loc 1 1157 0
 5748 007c 0023     		movs	r3, #0
 5749 007e BB62     		str	r3, [r7, #40]
 5750 0080 01E0     		b	.L499
 5751              	.L498:
1158:Firmware/Middlewares/Third_Party/FreeRTOS/Source/CMSIS_RTOS_V2/cmsis_os2.c ****     } else {
1159:Firmware/Middlewares/Third_Party/FreeRTOS/Source/CMSIS_RTOS_V2/cmsis_os2.c ****       exit_clr = pdTRUE;
 5752              		.loc 1 1159 0
 5753 0082 0123     		movs	r3, #1
 5754 0084 BB62     		str	r3, [r7, #40]
 5755              	.L499:
1160:Firmware/Middlewares/Third_Party/FreeRTOS/Source/CMSIS_RTOS_V2/cmsis_os2.c ****     }
1161:Firmware/Middlewares/Third_Party/FreeRTOS/Source/CMSIS_RTOS_V2/cmsis_os2.c **** 
1162:Firmware/Middlewares/Third_Party/FreeRTOS/Source/CMSIS_RTOS_V2/cmsis_os2.c ****     rflags = xEventGroupWaitBits (hEventGroup, (EventBits_t)flags, exit_clr, wait_all, (TickType_t)
 5756              		.loc 1 1162 0
 5757 0086 3B68     		ldr	r3, [r7]
 5758 0088 0093     		str	r3, [sp]
 5759 008a FB6A     		ldr	r3, [r7, #44]
 5760 008c BA6A     		ldr	r2, [r7, #40]
 5761 008e B968     		ldr	r1, [r7, #8]
 5762 0090 386A     		ldr	r0, [r7, #32]
 5763 0092 FFF7FEFF 		bl	xEventGroupWaitBits
 5764 0096 7862     		str	r0, [r7, #36]
1163:Firmware/Middlewares/Third_Party/FreeRTOS/Source/CMSIS_RTOS_V2/cmsis_os2.c **** 
1164:Firmware/Middlewares/Third_Party/FreeRTOS/Source/CMSIS_RTOS_V2/cmsis_os2.c ****     if (options & osFlagsWaitAll) {
 5765              		.loc 1 1164 0
 5766 0098 7B68     		ldr	r3, [r7, #4]
 5767 009a 03F00103 		and	r3, r3, #1
 5768 009e 002B     		cmp	r3, #0
 5769 00a0 0ED0     		beq	.L500
1165:Firmware/Middlewares/Third_Party/FreeRTOS/Source/CMSIS_RTOS_V2/cmsis_os2.c ****       if (flags != rflags) {
 5770              		.loc 1 1165 0
 5771 00a2 BA68     		ldr	r2, [r7, #8]
 5772 00a4 7B6A     		ldr	r3, [r7, #36]
 5773 00a6 9A42     		cmp	r2, r3
 5774 00a8 19D0     		beq	.L490
1166:Firmware/Middlewares/Third_Party/FreeRTOS/Source/CMSIS_RTOS_V2/cmsis_os2.c ****         if (timeout > 0U) {
 5775              		.loc 1 1166 0
 5776 00aa 3B68     		ldr	r3, [r7]
 5777 00ac 002B     		cmp	r3, #0
 5778 00ae 03D0     		beq	.L502
1167:Firmware/Middlewares/Third_Party/FreeRTOS/Source/CMSIS_RTOS_V2/cmsis_os2.c ****           rflags = (uint32_t)osErrorTimeout;
 5779              		.loc 1 1167 0
 5780 00b0 6FF00103 		mvn	r3, #1
 5781 00b4 7B62     		str	r3, [r7, #36]
ARM GAS  /tmp/ccB5BhZs.s 			page 137


 5782 00b6 12E0     		b	.L490
 5783              	.L502:
1168:Firmware/Middlewares/Third_Party/FreeRTOS/Source/CMSIS_RTOS_V2/cmsis_os2.c ****         } else {
1169:Firmware/Middlewares/Third_Party/FreeRTOS/Source/CMSIS_RTOS_V2/cmsis_os2.c ****           rflags = (uint32_t)osErrorResource;
 5784              		.loc 1 1169 0
 5785 00b8 6FF00203 		mvn	r3, #2
 5786 00bc 7B62     		str	r3, [r7, #36]
 5787 00be 0EE0     		b	.L490
 5788              	.L500:
1170:Firmware/Middlewares/Third_Party/FreeRTOS/Source/CMSIS_RTOS_V2/cmsis_os2.c ****         }
1171:Firmware/Middlewares/Third_Party/FreeRTOS/Source/CMSIS_RTOS_V2/cmsis_os2.c ****       }
1172:Firmware/Middlewares/Third_Party/FreeRTOS/Source/CMSIS_RTOS_V2/cmsis_os2.c ****     }
1173:Firmware/Middlewares/Third_Party/FreeRTOS/Source/CMSIS_RTOS_V2/cmsis_os2.c ****     else {
1174:Firmware/Middlewares/Third_Party/FreeRTOS/Source/CMSIS_RTOS_V2/cmsis_os2.c ****       if ((flags & rflags) == 0U) {
 5789              		.loc 1 1174 0
 5790 00c0 BA68     		ldr	r2, [r7, #8]
 5791 00c2 7B6A     		ldr	r3, [r7, #36]
 5792 00c4 1340     		ands	r3, r3, r2
 5793 00c6 002B     		cmp	r3, #0
 5794 00c8 09D1     		bne	.L490
1175:Firmware/Middlewares/Third_Party/FreeRTOS/Source/CMSIS_RTOS_V2/cmsis_os2.c ****         if (timeout > 0U) {
 5795              		.loc 1 1175 0
 5796 00ca 3B68     		ldr	r3, [r7]
 5797 00cc 002B     		cmp	r3, #0
 5798 00ce 03D0     		beq	.L503
1176:Firmware/Middlewares/Third_Party/FreeRTOS/Source/CMSIS_RTOS_V2/cmsis_os2.c ****           rflags = (uint32_t)osErrorTimeout;
 5799              		.loc 1 1176 0
 5800 00d0 6FF00103 		mvn	r3, #1
 5801 00d4 7B62     		str	r3, [r7, #36]
 5802 00d6 02E0     		b	.L490
 5803              	.L503:
1177:Firmware/Middlewares/Third_Party/FreeRTOS/Source/CMSIS_RTOS_V2/cmsis_os2.c ****         } else {
1178:Firmware/Middlewares/Third_Party/FreeRTOS/Source/CMSIS_RTOS_V2/cmsis_os2.c ****           rflags = (uint32_t)osErrorResource;
 5804              		.loc 1 1178 0
 5805 00d8 6FF00203 		mvn	r3, #2
 5806 00dc 7B62     		str	r3, [r7, #36]
 5807              	.L490:
1179:Firmware/Middlewares/Third_Party/FreeRTOS/Source/CMSIS_RTOS_V2/cmsis_os2.c ****         }
1180:Firmware/Middlewares/Third_Party/FreeRTOS/Source/CMSIS_RTOS_V2/cmsis_os2.c ****       }
1181:Firmware/Middlewares/Third_Party/FreeRTOS/Source/CMSIS_RTOS_V2/cmsis_os2.c ****     }
1182:Firmware/Middlewares/Third_Party/FreeRTOS/Source/CMSIS_RTOS_V2/cmsis_os2.c ****   }
1183:Firmware/Middlewares/Third_Party/FreeRTOS/Source/CMSIS_RTOS_V2/cmsis_os2.c **** 
1184:Firmware/Middlewares/Third_Party/FreeRTOS/Source/CMSIS_RTOS_V2/cmsis_os2.c ****   return (rflags);
 5808              		.loc 1 1184 0
 5809 00de 7B6A     		ldr	r3, [r7, #36]
1185:Firmware/Middlewares/Third_Party/FreeRTOS/Source/CMSIS_RTOS_V2/cmsis_os2.c **** }
 5810              		.loc 1 1185 0
 5811 00e0 1846     		mov	r0, r3
 5812 00e2 3037     		adds	r7, r7, #48
 5813              	.LCFI216:
 5814              		.cfi_def_cfa_offset 8
 5815 00e4 BD46     		mov	sp, r7
 5816              	.LCFI217:
 5817              		.cfi_def_cfa_register 13
 5818              		@ sp needed
 5819 00e6 80BD     		pop	{r7, pc}
 5820              	.L506:
ARM GAS  /tmp/ccB5BhZs.s 			page 138


 5821              		.align	2
 5822              	.L505:
 5823 00e8 00000000 		.word	KernelState
 5824              		.cfi_endproc
 5825              	.LFE149:
 5827              		.section	.text.osEventFlagsDelete,"ax",%progbits
 5828              		.align	1
 5829              		.global	osEventFlagsDelete
 5830              		.syntax unified
 5831              		.thumb
 5832              		.thumb_func
 5833              		.fpu fpv4-sp-d16
 5835              	osEventFlagsDelete:
 5836              	.LFB150:
1186:Firmware/Middlewares/Third_Party/FreeRTOS/Source/CMSIS_RTOS_V2/cmsis_os2.c **** 
1187:Firmware/Middlewares/Third_Party/FreeRTOS/Source/CMSIS_RTOS_V2/cmsis_os2.c **** osStatus_t osEventFlagsDelete (osEventFlagsId_t ef_id) {
 5837              		.loc 1 1187 0
 5838              		.cfi_startproc
 5839              		@ args = 0, pretend = 0, frame = 32
 5840              		@ frame_needed = 1, uses_anonymous_args = 0
 5841 0000 80B5     		push	{r7, lr}
 5842              	.LCFI218:
 5843              		.cfi_def_cfa_offset 8
 5844              		.cfi_offset 7, -8
 5845              		.cfi_offset 14, -4
 5846 0002 88B0     		sub	sp, sp, #32
 5847              	.LCFI219:
 5848              		.cfi_def_cfa_offset 40
 5849 0004 00AF     		add	r7, sp, #0
 5850              	.LCFI220:
 5851              		.cfi_def_cfa_register 7
 5852 0006 7860     		str	r0, [r7, #4]
1188:Firmware/Middlewares/Third_Party/FreeRTOS/Source/CMSIS_RTOS_V2/cmsis_os2.c ****   EventGroupHandle_t hEventGroup = (EventGroupHandle_t)ef_id;
 5853              		.loc 1 1188 0
 5854 0008 7B68     		ldr	r3, [r7, #4]
 5855 000a BB61     		str	r3, [r7, #24]
 5856              	.LBB554:
 5857              	.LBB555:
 209:Firmware/Drivers/CMSIS/Include/cmsis_gcc.h ****   return(result);
 5858              		.loc 2 209 0
 5859              		.syntax unified
 5860              	@ 209 "Firmware/Drivers/CMSIS/Include/cmsis_gcc.h" 1
 5861 000c EFF30583 		MRS r3, ipsr
 5862              	@ 0 "" 2
 5863              		.thumb
 5864              		.syntax unified
 5865 0010 7B61     		str	r3, [r7, #20]
 210:Firmware/Drivers/CMSIS/Include/cmsis_gcc.h **** }
 5866              		.loc 2 210 0
 5867 0012 7B69     		ldr	r3, [r7, #20]
 5868              	.LBE555:
 5869              	.LBE554:
1189:Firmware/Middlewares/Third_Party/FreeRTOS/Source/CMSIS_RTOS_V2/cmsis_os2.c ****   osStatus_t stat;
1190:Firmware/Middlewares/Third_Party/FreeRTOS/Source/CMSIS_RTOS_V2/cmsis_os2.c **** 
1191:Firmware/Middlewares/Third_Party/FreeRTOS/Source/CMSIS_RTOS_V2/cmsis_os2.c **** #ifndef USE_FreeRTOS_HEAP_1
1192:Firmware/Middlewares/Third_Party/FreeRTOS/Source/CMSIS_RTOS_V2/cmsis_os2.c ****   if (IS_IRQ()) {
 5870              		.loc 1 1192 0
ARM GAS  /tmp/ccB5BhZs.s 			page 139


 5871 0014 002B     		cmp	r3, #0
 5872 0016 0FD1     		bne	.L509
 5873              	.LBB556:
 5874              	.LBB557:
 386:Firmware/Drivers/CMSIS/Include/cmsis_gcc.h ****   return(result);
 5875              		.loc 2 386 0 discriminator 1
 5876              		.syntax unified
 5877              	@ 386 "Firmware/Drivers/CMSIS/Include/cmsis_gcc.h" 1
 5878 0018 EFF31083 		MRS r3, primask
 5879              	@ 0 "" 2
 5880              		.thumb
 5881              		.syntax unified
 5882 001c 3B61     		str	r3, [r7, #16]
 387:Firmware/Drivers/CMSIS/Include/cmsis_gcc.h **** }
 5883              		.loc 2 387 0 discriminator 1
 5884 001e 3B69     		ldr	r3, [r7, #16]
 5885              	.LBE557:
 5886              	.LBE556:
 5887              		.loc 1 1192 0 discriminator 1
 5888 0020 002B     		cmp	r3, #0
 5889 0022 09D1     		bne	.L509
 5890              		.loc 1 1192 0 is_stmt 0 discriminator 2
 5891 0024 0F4B     		ldr	r3, .L516
 5892 0026 1B68     		ldr	r3, [r3]
 5893 0028 022B     		cmp	r3, #2
 5894 002a 09D1     		bne	.L511
 5895              	.LBB558:
 5896              	.LBB559:
 465:Firmware/Drivers/CMSIS/Include/cmsis_gcc.h ****   return(result);
 5897              		.loc 2 465 0 is_stmt 1 discriminator 3
 5898              		.syntax unified
 5899              	@ 465 "Firmware/Drivers/CMSIS/Include/cmsis_gcc.h" 1
 5900 002c EFF31183 		MRS r3, basepri
 5901              	@ 0 "" 2
 5902              		.thumb
 5903              		.syntax unified
 5904 0030 FB60     		str	r3, [r7, #12]
 5905              		.loc 2 466 0 discriminator 3
 5906 0032 FB68     		ldr	r3, [r7, #12]
 5907              	.LBE559:
 5908              	.LBE558:
 5909              		.loc 1 1192 0 discriminator 3
 5910 0034 002B     		cmp	r3, #0
 5911 0036 03D0     		beq	.L511
 5912              	.L509:
1193:Firmware/Middlewares/Third_Party/FreeRTOS/Source/CMSIS_RTOS_V2/cmsis_os2.c ****     stat = osErrorISR;
 5913              		.loc 1 1193 0
 5914 0038 6FF00503 		mvn	r3, #5
 5915 003c FB61     		str	r3, [r7, #28]
 5916 003e 0BE0     		b	.L513
 5917              	.L511:
1194:Firmware/Middlewares/Third_Party/FreeRTOS/Source/CMSIS_RTOS_V2/cmsis_os2.c ****   }
1195:Firmware/Middlewares/Third_Party/FreeRTOS/Source/CMSIS_RTOS_V2/cmsis_os2.c ****   else if (hEventGroup == NULL) {
 5918              		.loc 1 1195 0
 5919 0040 BB69     		ldr	r3, [r7, #24]
 5920 0042 002B     		cmp	r3, #0
 5921 0044 03D1     		bne	.L514
ARM GAS  /tmp/ccB5BhZs.s 			page 140


1196:Firmware/Middlewares/Third_Party/FreeRTOS/Source/CMSIS_RTOS_V2/cmsis_os2.c ****     stat = osErrorParameter;
 5922              		.loc 1 1196 0
 5923 0046 6FF00303 		mvn	r3, #3
 5924 004a FB61     		str	r3, [r7, #28]
 5925 004c 04E0     		b	.L513
 5926              	.L514:
1197:Firmware/Middlewares/Third_Party/FreeRTOS/Source/CMSIS_RTOS_V2/cmsis_os2.c ****   }
1198:Firmware/Middlewares/Third_Party/FreeRTOS/Source/CMSIS_RTOS_V2/cmsis_os2.c ****   else {
1199:Firmware/Middlewares/Third_Party/FreeRTOS/Source/CMSIS_RTOS_V2/cmsis_os2.c ****     stat = osOK;
 5927              		.loc 1 1199 0
 5928 004e 0023     		movs	r3, #0
 5929 0050 FB61     		str	r3, [r7, #28]
1200:Firmware/Middlewares/Third_Party/FreeRTOS/Source/CMSIS_RTOS_V2/cmsis_os2.c ****     vEventGroupDelete (hEventGroup);
 5930              		.loc 1 1200 0
 5931 0052 B869     		ldr	r0, [r7, #24]
 5932 0054 FFF7FEFF 		bl	vEventGroupDelete
 5933              	.L513:
1201:Firmware/Middlewares/Third_Party/FreeRTOS/Source/CMSIS_RTOS_V2/cmsis_os2.c ****   }
1202:Firmware/Middlewares/Third_Party/FreeRTOS/Source/CMSIS_RTOS_V2/cmsis_os2.c **** #else
1203:Firmware/Middlewares/Third_Party/FreeRTOS/Source/CMSIS_RTOS_V2/cmsis_os2.c ****   stat = osError;
1204:Firmware/Middlewares/Third_Party/FreeRTOS/Source/CMSIS_RTOS_V2/cmsis_os2.c **** #endif
1205:Firmware/Middlewares/Third_Party/FreeRTOS/Source/CMSIS_RTOS_V2/cmsis_os2.c **** 
1206:Firmware/Middlewares/Third_Party/FreeRTOS/Source/CMSIS_RTOS_V2/cmsis_os2.c ****   return (stat);
 5934              		.loc 1 1206 0
 5935 0058 FB69     		ldr	r3, [r7, #28]
1207:Firmware/Middlewares/Third_Party/FreeRTOS/Source/CMSIS_RTOS_V2/cmsis_os2.c **** }
 5936              		.loc 1 1207 0
 5937 005a 1846     		mov	r0, r3
 5938 005c 2037     		adds	r7, r7, #32
 5939              	.LCFI221:
 5940              		.cfi_def_cfa_offset 8
 5941 005e BD46     		mov	sp, r7
 5942              	.LCFI222:
 5943              		.cfi_def_cfa_register 13
 5944              		@ sp needed
 5945 0060 80BD     		pop	{r7, pc}
 5946              	.L517:
 5947 0062 00BF     		.align	2
 5948              	.L516:
 5949 0064 00000000 		.word	KernelState
 5950              		.cfi_endproc
 5951              	.LFE150:
 5953              		.section	.text.osMutexNew,"ax",%progbits
 5954              		.align	1
 5955              		.global	osMutexNew
 5956              		.syntax unified
 5957              		.thumb
 5958              		.thumb_func
 5959              		.fpu fpv4-sp-d16
 5961              	osMutexNew:
 5962              	.LFB151:
1208:Firmware/Middlewares/Third_Party/FreeRTOS/Source/CMSIS_RTOS_V2/cmsis_os2.c **** 
1209:Firmware/Middlewares/Third_Party/FreeRTOS/Source/CMSIS_RTOS_V2/cmsis_os2.c **** /*---------------------------------------------------------------------------*/
1210:Firmware/Middlewares/Third_Party/FreeRTOS/Source/CMSIS_RTOS_V2/cmsis_os2.c **** 
1211:Firmware/Middlewares/Third_Party/FreeRTOS/Source/CMSIS_RTOS_V2/cmsis_os2.c **** osMutexId_t osMutexNew (const osMutexAttr_t *attr) {
 5963              		.loc 1 1211 0
 5964              		.cfi_startproc
ARM GAS  /tmp/ccB5BhZs.s 			page 141


 5965              		@ args = 0, pretend = 0, frame = 40
 5966              		@ frame_needed = 1, uses_anonymous_args = 0
 5967 0000 80B5     		push	{r7, lr}
 5968              	.LCFI223:
 5969              		.cfi_def_cfa_offset 8
 5970              		.cfi_offset 7, -8
 5971              		.cfi_offset 14, -4
 5972 0002 8AB0     		sub	sp, sp, #40
 5973              	.LCFI224:
 5974              		.cfi_def_cfa_offset 48
 5975 0004 00AF     		add	r7, sp, #0
 5976              	.LCFI225:
 5977              		.cfi_def_cfa_register 7
 5978 0006 7860     		str	r0, [r7, #4]
1212:Firmware/Middlewares/Third_Party/FreeRTOS/Source/CMSIS_RTOS_V2/cmsis_os2.c ****   SemaphoreHandle_t hMutex;
1213:Firmware/Middlewares/Third_Party/FreeRTOS/Source/CMSIS_RTOS_V2/cmsis_os2.c ****   uint32_t type;
1214:Firmware/Middlewares/Third_Party/FreeRTOS/Source/CMSIS_RTOS_V2/cmsis_os2.c ****   uint32_t rmtx;
1215:Firmware/Middlewares/Third_Party/FreeRTOS/Source/CMSIS_RTOS_V2/cmsis_os2.c ****   int32_t  mem;
1216:Firmware/Middlewares/Third_Party/FreeRTOS/Source/CMSIS_RTOS_V2/cmsis_os2.c ****   #if (configQUEUE_REGISTRY_SIZE > 0)
1217:Firmware/Middlewares/Third_Party/FreeRTOS/Source/CMSIS_RTOS_V2/cmsis_os2.c ****   const char *name;
1218:Firmware/Middlewares/Third_Party/FreeRTOS/Source/CMSIS_RTOS_V2/cmsis_os2.c ****   #endif
1219:Firmware/Middlewares/Third_Party/FreeRTOS/Source/CMSIS_RTOS_V2/cmsis_os2.c **** 
1220:Firmware/Middlewares/Third_Party/FreeRTOS/Source/CMSIS_RTOS_V2/cmsis_os2.c ****   hMutex = NULL;
 5979              		.loc 1 1220 0
 5980 0008 0023     		movs	r3, #0
 5981 000a 7B62     		str	r3, [r7, #36]
 5982              	.LBB560:
 5983              	.LBB561:
 209:Firmware/Drivers/CMSIS/Include/cmsis_gcc.h ****   return(result);
 5984              		.loc 2 209 0
 5985              		.syntax unified
 5986              	@ 209 "Firmware/Drivers/CMSIS/Include/cmsis_gcc.h" 1
 5987 000c EFF30583 		MRS r3, ipsr
 5988              	@ 0 "" 2
 5989              		.thumb
 5990              		.syntax unified
 5991 0010 3B61     		str	r3, [r7, #16]
 210:Firmware/Drivers/CMSIS/Include/cmsis_gcc.h **** }
 5992              		.loc 2 210 0
 5993 0012 3B69     		ldr	r3, [r7, #16]
 5994              	.LBE561:
 5995              	.LBE560:
1221:Firmware/Middlewares/Third_Party/FreeRTOS/Source/CMSIS_RTOS_V2/cmsis_os2.c **** 
1222:Firmware/Middlewares/Third_Party/FreeRTOS/Source/CMSIS_RTOS_V2/cmsis_os2.c ****   if (!IS_IRQ()) {
 5996              		.loc 1 1222 0
 5997 0014 002B     		cmp	r3, #0
 5998 0016 40F08580 		bne	.L520
 5999              	.LBB562:
 6000              	.LBB563:
 386:Firmware/Drivers/CMSIS/Include/cmsis_gcc.h ****   return(result);
 6001              		.loc 2 386 0 discriminator 1
 6002              		.syntax unified
 6003              	@ 386 "Firmware/Drivers/CMSIS/Include/cmsis_gcc.h" 1
 6004 001a EFF31083 		MRS r3, primask
 6005              	@ 0 "" 2
 6006              		.thumb
 6007              		.syntax unified
ARM GAS  /tmp/ccB5BhZs.s 			page 142


 6008 001e FB60     		str	r3, [r7, #12]
 387:Firmware/Drivers/CMSIS/Include/cmsis_gcc.h **** }
 6009              		.loc 2 387 0 discriminator 1
 6010 0020 FB68     		ldr	r3, [r7, #12]
 6011              	.LBE563:
 6012              	.LBE562:
 6013              		.loc 1 1222 0 discriminator 1
 6014 0022 002B     		cmp	r3, #0
 6015 0024 7ED1     		bne	.L520
 6016              		.loc 1 1222 0 is_stmt 0 discriminator 2
 6017 0026 424B     		ldr	r3, .L541
 6018 0028 1B68     		ldr	r3, [r3]
 6019 002a 022B     		cmp	r3, #2
 6020 002c 05D1     		bne	.L522
 6021              	.LBB564:
 6022              	.LBB565:
 465:Firmware/Drivers/CMSIS/Include/cmsis_gcc.h ****   return(result);
 6023              		.loc 2 465 0 is_stmt 1 discriminator 3
 6024              		.syntax unified
 6025              	@ 465 "Firmware/Drivers/CMSIS/Include/cmsis_gcc.h" 1
 6026 002e EFF31183 		MRS r3, basepri
 6027              	@ 0 "" 2
 6028              		.thumb
 6029              		.syntax unified
 6030 0032 BB60     		str	r3, [r7, #8]
 6031              		.loc 2 466 0 discriminator 3
 6032 0034 BB68     		ldr	r3, [r7, #8]
 6033              	.LBE565:
 6034              	.LBE564:
 6035              		.loc 1 1222 0 discriminator 3
 6036 0036 002B     		cmp	r3, #0
 6037 0038 74D1     		bne	.L520
 6038              	.L522:
1223:Firmware/Middlewares/Third_Party/FreeRTOS/Source/CMSIS_RTOS_V2/cmsis_os2.c ****     if (attr != NULL) {
 6039              		.loc 1 1223 0
 6040 003a 7B68     		ldr	r3, [r7, #4]
 6041 003c 002B     		cmp	r3, #0
 6042 003e 03D0     		beq	.L524
1224:Firmware/Middlewares/Third_Party/FreeRTOS/Source/CMSIS_RTOS_V2/cmsis_os2.c ****       type = attr->attr_bits;
 6043              		.loc 1 1224 0
 6044 0040 7B68     		ldr	r3, [r7, #4]
 6045 0042 5B68     		ldr	r3, [r3, #4]
 6046 0044 3B62     		str	r3, [r7, #32]
 6047 0046 01E0     		b	.L525
 6048              	.L524:
1225:Firmware/Middlewares/Third_Party/FreeRTOS/Source/CMSIS_RTOS_V2/cmsis_os2.c ****     } else {
1226:Firmware/Middlewares/Third_Party/FreeRTOS/Source/CMSIS_RTOS_V2/cmsis_os2.c ****       type = 0U;
 6049              		.loc 1 1226 0
 6050 0048 0023     		movs	r3, #0
 6051 004a 3B62     		str	r3, [r7, #32]
 6052              	.L525:
1227:Firmware/Middlewares/Third_Party/FreeRTOS/Source/CMSIS_RTOS_V2/cmsis_os2.c ****     }
1228:Firmware/Middlewares/Third_Party/FreeRTOS/Source/CMSIS_RTOS_V2/cmsis_os2.c **** 
1229:Firmware/Middlewares/Third_Party/FreeRTOS/Source/CMSIS_RTOS_V2/cmsis_os2.c ****     if ((type & osMutexRecursive) == osMutexRecursive) {
 6053              		.loc 1 1229 0
 6054 004c 3B6A     		ldr	r3, [r7, #32]
 6055 004e 03F00103 		and	r3, r3, #1
ARM GAS  /tmp/ccB5BhZs.s 			page 143


 6056 0052 002B     		cmp	r3, #0
 6057 0054 02D0     		beq	.L526
1230:Firmware/Middlewares/Third_Party/FreeRTOS/Source/CMSIS_RTOS_V2/cmsis_os2.c ****       rmtx = 1U;
 6058              		.loc 1 1230 0
 6059 0056 0123     		movs	r3, #1
 6060 0058 FB61     		str	r3, [r7, #28]
 6061 005a 01E0     		b	.L527
 6062              	.L526:
1231:Firmware/Middlewares/Third_Party/FreeRTOS/Source/CMSIS_RTOS_V2/cmsis_os2.c ****     } else {
1232:Firmware/Middlewares/Third_Party/FreeRTOS/Source/CMSIS_RTOS_V2/cmsis_os2.c ****       rmtx = 0U;
 6063              		.loc 1 1232 0
 6064 005c 0023     		movs	r3, #0
 6065 005e FB61     		str	r3, [r7, #28]
 6066              	.L527:
1233:Firmware/Middlewares/Third_Party/FreeRTOS/Source/CMSIS_RTOS_V2/cmsis_os2.c ****     }
1234:Firmware/Middlewares/Third_Party/FreeRTOS/Source/CMSIS_RTOS_V2/cmsis_os2.c **** 
1235:Firmware/Middlewares/Third_Party/FreeRTOS/Source/CMSIS_RTOS_V2/cmsis_os2.c ****     if ((type & osMutexRobust) != osMutexRobust) {
 6067              		.loc 1 1235 0
 6068 0060 3B6A     		ldr	r3, [r7, #32]
 6069 0062 03F00803 		and	r3, r3, #8
 6070 0066 002B     		cmp	r3, #0
 6071 0068 5CD1     		bne	.L520
1236:Firmware/Middlewares/Third_Party/FreeRTOS/Source/CMSIS_RTOS_V2/cmsis_os2.c ****       mem = -1;
 6072              		.loc 1 1236 0
 6073 006a 4FF0FF33 		mov	r3, #-1
 6074 006e BB61     		str	r3, [r7, #24]
1237:Firmware/Middlewares/Third_Party/FreeRTOS/Source/CMSIS_RTOS_V2/cmsis_os2.c **** 
1238:Firmware/Middlewares/Third_Party/FreeRTOS/Source/CMSIS_RTOS_V2/cmsis_os2.c ****       if (attr != NULL) {
 6075              		.loc 1 1238 0
 6076 0070 7B68     		ldr	r3, [r7, #4]
 6077 0072 002B     		cmp	r3, #0
 6078 0074 15D0     		beq	.L528
1239:Firmware/Middlewares/Third_Party/FreeRTOS/Source/CMSIS_RTOS_V2/cmsis_os2.c ****         if ((attr->cb_mem != NULL) && (attr->cb_size >= sizeof(StaticSemaphore_t))) {
 6079              		.loc 1 1239 0
 6080 0076 7B68     		ldr	r3, [r7, #4]
 6081 0078 9B68     		ldr	r3, [r3, #8]
 6082 007a 002B     		cmp	r3, #0
 6083 007c 06D0     		beq	.L529
 6084              		.loc 1 1239 0 is_stmt 0 discriminator 1
 6085 007e 7B68     		ldr	r3, [r7, #4]
 6086 0080 DB68     		ldr	r3, [r3, #12]
 6087 0082 4F2B     		cmp	r3, #79
 6088 0084 02D9     		bls	.L529
1240:Firmware/Middlewares/Third_Party/FreeRTOS/Source/CMSIS_RTOS_V2/cmsis_os2.c ****           mem = 1;
 6089              		.loc 1 1240 0 is_stmt 1
 6090 0086 0123     		movs	r3, #1
 6091 0088 BB61     		str	r3, [r7, #24]
 6092 008a 0CE0     		b	.L531
 6093              	.L529:
1241:Firmware/Middlewares/Third_Party/FreeRTOS/Source/CMSIS_RTOS_V2/cmsis_os2.c ****         }
1242:Firmware/Middlewares/Third_Party/FreeRTOS/Source/CMSIS_RTOS_V2/cmsis_os2.c ****         else {
1243:Firmware/Middlewares/Third_Party/FreeRTOS/Source/CMSIS_RTOS_V2/cmsis_os2.c ****           if ((attr->cb_mem == NULL) && (attr->cb_size == 0U)) {
 6094              		.loc 1 1243 0
 6095 008c 7B68     		ldr	r3, [r7, #4]
 6096 008e 9B68     		ldr	r3, [r3, #8]
 6097 0090 002B     		cmp	r3, #0
 6098 0092 08D1     		bne	.L531
ARM GAS  /tmp/ccB5BhZs.s 			page 144


 6099              		.loc 1 1243 0 is_stmt 0 discriminator 1
 6100 0094 7B68     		ldr	r3, [r7, #4]
 6101 0096 DB68     		ldr	r3, [r3, #12]
 6102 0098 002B     		cmp	r3, #0
 6103 009a 04D1     		bne	.L531
1244:Firmware/Middlewares/Third_Party/FreeRTOS/Source/CMSIS_RTOS_V2/cmsis_os2.c ****             mem = 0;
 6104              		.loc 1 1244 0 is_stmt 1
 6105 009c 0023     		movs	r3, #0
 6106 009e BB61     		str	r3, [r7, #24]
 6107 00a0 01E0     		b	.L531
 6108              	.L528:
1245:Firmware/Middlewares/Third_Party/FreeRTOS/Source/CMSIS_RTOS_V2/cmsis_os2.c ****           }
1246:Firmware/Middlewares/Third_Party/FreeRTOS/Source/CMSIS_RTOS_V2/cmsis_os2.c ****         }
1247:Firmware/Middlewares/Third_Party/FreeRTOS/Source/CMSIS_RTOS_V2/cmsis_os2.c ****       }
1248:Firmware/Middlewares/Third_Party/FreeRTOS/Source/CMSIS_RTOS_V2/cmsis_os2.c ****       else {
1249:Firmware/Middlewares/Third_Party/FreeRTOS/Source/CMSIS_RTOS_V2/cmsis_os2.c ****         mem = 0;
 6109              		.loc 1 1249 0
 6110 00a2 0023     		movs	r3, #0
 6111 00a4 BB61     		str	r3, [r7, #24]
 6112              	.L531:
1250:Firmware/Middlewares/Third_Party/FreeRTOS/Source/CMSIS_RTOS_V2/cmsis_os2.c ****       }
1251:Firmware/Middlewares/Third_Party/FreeRTOS/Source/CMSIS_RTOS_V2/cmsis_os2.c **** 
1252:Firmware/Middlewares/Third_Party/FreeRTOS/Source/CMSIS_RTOS_V2/cmsis_os2.c ****       if (mem == 1) {
 6113              		.loc 1 1252 0
 6114 00a6 BB69     		ldr	r3, [r7, #24]
 6115 00a8 012B     		cmp	r3, #1
 6116 00aa 12D1     		bne	.L532
1253:Firmware/Middlewares/Third_Party/FreeRTOS/Source/CMSIS_RTOS_V2/cmsis_os2.c ****         if (rmtx != 0U) {
 6117              		.loc 1 1253 0
 6118 00ac FB69     		ldr	r3, [r7, #28]
 6119 00ae 002B     		cmp	r3, #0
 6120 00b0 07D0     		beq	.L533
1254:Firmware/Middlewares/Third_Party/FreeRTOS/Source/CMSIS_RTOS_V2/cmsis_os2.c ****           hMutex = xSemaphoreCreateRecursiveMutexStatic (attr->cb_mem);
 6121              		.loc 1 1254 0
 6122 00b2 7B68     		ldr	r3, [r7, #4]
 6123 00b4 9B68     		ldr	r3, [r3, #8]
 6124 00b6 1946     		mov	r1, r3
 6125 00b8 0420     		movs	r0, #4
 6126 00ba FFF7FEFF 		bl	xQueueCreateMutexStatic
 6127 00be 7862     		str	r0, [r7, #36]
 6128 00c0 16E0     		b	.L535
 6129              	.L533:
1255:Firmware/Middlewares/Third_Party/FreeRTOS/Source/CMSIS_RTOS_V2/cmsis_os2.c ****         }
1256:Firmware/Middlewares/Third_Party/FreeRTOS/Source/CMSIS_RTOS_V2/cmsis_os2.c ****         else {
1257:Firmware/Middlewares/Third_Party/FreeRTOS/Source/CMSIS_RTOS_V2/cmsis_os2.c ****           hMutex = xSemaphoreCreateMutexStatic (attr->cb_mem);
 6130              		.loc 1 1257 0
 6131 00c2 7B68     		ldr	r3, [r7, #4]
 6132 00c4 9B68     		ldr	r3, [r3, #8]
 6133 00c6 1946     		mov	r1, r3
 6134 00c8 0120     		movs	r0, #1
 6135 00ca FFF7FEFF 		bl	xQueueCreateMutexStatic
 6136 00ce 7862     		str	r0, [r7, #36]
 6137 00d0 0EE0     		b	.L535
 6138              	.L532:
1258:Firmware/Middlewares/Third_Party/FreeRTOS/Source/CMSIS_RTOS_V2/cmsis_os2.c ****         }
1259:Firmware/Middlewares/Third_Party/FreeRTOS/Source/CMSIS_RTOS_V2/cmsis_os2.c ****       }
1260:Firmware/Middlewares/Third_Party/FreeRTOS/Source/CMSIS_RTOS_V2/cmsis_os2.c ****       else {
ARM GAS  /tmp/ccB5BhZs.s 			page 145


1261:Firmware/Middlewares/Third_Party/FreeRTOS/Source/CMSIS_RTOS_V2/cmsis_os2.c ****         if (mem == 0) {
 6139              		.loc 1 1261 0
 6140 00d2 BB69     		ldr	r3, [r7, #24]
 6141 00d4 002B     		cmp	r3, #0
 6142 00d6 0BD1     		bne	.L535
1262:Firmware/Middlewares/Third_Party/FreeRTOS/Source/CMSIS_RTOS_V2/cmsis_os2.c ****           if (rmtx != 0U) {
 6143              		.loc 1 1262 0
 6144 00d8 FB69     		ldr	r3, [r7, #28]
 6145 00da 002B     		cmp	r3, #0
 6146 00dc 04D0     		beq	.L536
1263:Firmware/Middlewares/Third_Party/FreeRTOS/Source/CMSIS_RTOS_V2/cmsis_os2.c ****             hMutex = xSemaphoreCreateRecursiveMutex ();
 6147              		.loc 1 1263 0
 6148 00de 0420     		movs	r0, #4
 6149 00e0 FFF7FEFF 		bl	xQueueCreateMutex
 6150 00e4 7862     		str	r0, [r7, #36]
 6151 00e6 03E0     		b	.L535
 6152              	.L536:
1264:Firmware/Middlewares/Third_Party/FreeRTOS/Source/CMSIS_RTOS_V2/cmsis_os2.c ****           } else {
1265:Firmware/Middlewares/Third_Party/FreeRTOS/Source/CMSIS_RTOS_V2/cmsis_os2.c ****             hMutex = xSemaphoreCreateMutex ();
 6153              		.loc 1 1265 0
 6154 00e8 0120     		movs	r0, #1
 6155 00ea FFF7FEFF 		bl	xQueueCreateMutex
 6156 00ee 7862     		str	r0, [r7, #36]
 6157              	.L535:
1266:Firmware/Middlewares/Third_Party/FreeRTOS/Source/CMSIS_RTOS_V2/cmsis_os2.c ****           }
1267:Firmware/Middlewares/Third_Party/FreeRTOS/Source/CMSIS_RTOS_V2/cmsis_os2.c ****         }
1268:Firmware/Middlewares/Third_Party/FreeRTOS/Source/CMSIS_RTOS_V2/cmsis_os2.c ****       }
1269:Firmware/Middlewares/Third_Party/FreeRTOS/Source/CMSIS_RTOS_V2/cmsis_os2.c **** 
1270:Firmware/Middlewares/Third_Party/FreeRTOS/Source/CMSIS_RTOS_V2/cmsis_os2.c ****       #if (configQUEUE_REGISTRY_SIZE > 0)
1271:Firmware/Middlewares/Third_Party/FreeRTOS/Source/CMSIS_RTOS_V2/cmsis_os2.c ****       if (hMutex != NULL) {
 6158              		.loc 1 1271 0
 6159 00f0 7B6A     		ldr	r3, [r7, #36]
 6160 00f2 002B     		cmp	r3, #0
 6161 00f4 0CD0     		beq	.L537
1272:Firmware/Middlewares/Third_Party/FreeRTOS/Source/CMSIS_RTOS_V2/cmsis_os2.c ****         if (attr != NULL) {
 6162              		.loc 1 1272 0
 6163 00f6 7B68     		ldr	r3, [r7, #4]
 6164 00f8 002B     		cmp	r3, #0
 6165 00fa 03D0     		beq	.L538
1273:Firmware/Middlewares/Third_Party/FreeRTOS/Source/CMSIS_RTOS_V2/cmsis_os2.c ****           name = attr->name;
 6166              		.loc 1 1273 0
 6167 00fc 7B68     		ldr	r3, [r7, #4]
 6168 00fe 1B68     		ldr	r3, [r3]
 6169 0100 7B61     		str	r3, [r7, #20]
 6170 0102 01E0     		b	.L539
 6171              	.L538:
1274:Firmware/Middlewares/Third_Party/FreeRTOS/Source/CMSIS_RTOS_V2/cmsis_os2.c ****         } else {
1275:Firmware/Middlewares/Third_Party/FreeRTOS/Source/CMSIS_RTOS_V2/cmsis_os2.c ****           name = NULL;
 6172              		.loc 1 1275 0
 6173 0104 0023     		movs	r3, #0
 6174 0106 7B61     		str	r3, [r7, #20]
 6175              	.L539:
1276:Firmware/Middlewares/Third_Party/FreeRTOS/Source/CMSIS_RTOS_V2/cmsis_os2.c ****         }
1277:Firmware/Middlewares/Third_Party/FreeRTOS/Source/CMSIS_RTOS_V2/cmsis_os2.c ****         vQueueAddToRegistry (hMutex, name);
 6176              		.loc 1 1277 0
 6177 0108 7969     		ldr	r1, [r7, #20]
 6178 010a 786A     		ldr	r0, [r7, #36]
ARM GAS  /tmp/ccB5BhZs.s 			page 146


 6179 010c FFF7FEFF 		bl	vQueueAddToRegistry
 6180              	.L537:
1278:Firmware/Middlewares/Third_Party/FreeRTOS/Source/CMSIS_RTOS_V2/cmsis_os2.c ****       }
1279:Firmware/Middlewares/Third_Party/FreeRTOS/Source/CMSIS_RTOS_V2/cmsis_os2.c ****       #endif
1280:Firmware/Middlewares/Third_Party/FreeRTOS/Source/CMSIS_RTOS_V2/cmsis_os2.c **** 
1281:Firmware/Middlewares/Third_Party/FreeRTOS/Source/CMSIS_RTOS_V2/cmsis_os2.c ****       if ((hMutex != NULL) && (rmtx != 0U)) {
 6181              		.loc 1 1281 0
 6182 0110 7B6A     		ldr	r3, [r7, #36]
 6183 0112 002B     		cmp	r3, #0
 6184 0114 06D0     		beq	.L520
 6185              		.loc 1 1281 0 is_stmt 0 discriminator 1
 6186 0116 FB69     		ldr	r3, [r7, #28]
 6187 0118 002B     		cmp	r3, #0
 6188 011a 03D0     		beq	.L520
1282:Firmware/Middlewares/Third_Party/FreeRTOS/Source/CMSIS_RTOS_V2/cmsis_os2.c ****         hMutex = (SemaphoreHandle_t)((uint32_t)hMutex | 1U);
 6189              		.loc 1 1282 0 is_stmt 1
 6190 011c 7B6A     		ldr	r3, [r7, #36]
 6191 011e 43F00103 		orr	r3, r3, #1
 6192 0122 7B62     		str	r3, [r7, #36]
 6193              	.L520:
1283:Firmware/Middlewares/Third_Party/FreeRTOS/Source/CMSIS_RTOS_V2/cmsis_os2.c ****       }
1284:Firmware/Middlewares/Third_Party/FreeRTOS/Source/CMSIS_RTOS_V2/cmsis_os2.c ****     }
1285:Firmware/Middlewares/Third_Party/FreeRTOS/Source/CMSIS_RTOS_V2/cmsis_os2.c ****   }
1286:Firmware/Middlewares/Third_Party/FreeRTOS/Source/CMSIS_RTOS_V2/cmsis_os2.c **** 
1287:Firmware/Middlewares/Third_Party/FreeRTOS/Source/CMSIS_RTOS_V2/cmsis_os2.c ****   return ((osMutexId_t)hMutex);
 6194              		.loc 1 1287 0
 6195 0124 7B6A     		ldr	r3, [r7, #36]
1288:Firmware/Middlewares/Third_Party/FreeRTOS/Source/CMSIS_RTOS_V2/cmsis_os2.c **** }
 6196              		.loc 1 1288 0
 6197 0126 1846     		mov	r0, r3
 6198 0128 2837     		adds	r7, r7, #40
 6199              	.LCFI226:
 6200              		.cfi_def_cfa_offset 8
 6201 012a BD46     		mov	sp, r7
 6202              	.LCFI227:
 6203              		.cfi_def_cfa_register 13
 6204              		@ sp needed
 6205 012c 80BD     		pop	{r7, pc}
 6206              	.L542:
 6207 012e 00BF     		.align	2
 6208              	.L541:
 6209 0130 00000000 		.word	KernelState
 6210              		.cfi_endproc
 6211              	.LFE151:
 6213              		.section	.text.osMutexAcquire,"ax",%progbits
 6214              		.align	1
 6215              		.global	osMutexAcquire
 6216              		.syntax unified
 6217              		.thumb
 6218              		.thumb_func
 6219              		.fpu fpv4-sp-d16
 6221              	osMutexAcquire:
 6222              	.LFB152:
1289:Firmware/Middlewares/Third_Party/FreeRTOS/Source/CMSIS_RTOS_V2/cmsis_os2.c **** 
1290:Firmware/Middlewares/Third_Party/FreeRTOS/Source/CMSIS_RTOS_V2/cmsis_os2.c **** osStatus_t osMutexAcquire (osMutexId_t mutex_id, uint32_t timeout) {
 6223              		.loc 1 1290 0
 6224              		.cfi_startproc
ARM GAS  /tmp/ccB5BhZs.s 			page 147


 6225              		@ args = 0, pretend = 0, frame = 32
 6226              		@ frame_needed = 1, uses_anonymous_args = 0
 6227 0000 80B5     		push	{r7, lr}
 6228              	.LCFI228:
 6229              		.cfi_def_cfa_offset 8
 6230              		.cfi_offset 7, -8
 6231              		.cfi_offset 14, -4
 6232 0002 88B0     		sub	sp, sp, #32
 6233              	.LCFI229:
 6234              		.cfi_def_cfa_offset 40
 6235 0004 00AF     		add	r7, sp, #0
 6236              	.LCFI230:
 6237              		.cfi_def_cfa_register 7
 6238 0006 7860     		str	r0, [r7, #4]
 6239 0008 3960     		str	r1, [r7]
1291:Firmware/Middlewares/Third_Party/FreeRTOS/Source/CMSIS_RTOS_V2/cmsis_os2.c ****   SemaphoreHandle_t hMutex;
1292:Firmware/Middlewares/Third_Party/FreeRTOS/Source/CMSIS_RTOS_V2/cmsis_os2.c ****   osStatus_t stat;
1293:Firmware/Middlewares/Third_Party/FreeRTOS/Source/CMSIS_RTOS_V2/cmsis_os2.c ****   uint32_t rmtx;
1294:Firmware/Middlewares/Third_Party/FreeRTOS/Source/CMSIS_RTOS_V2/cmsis_os2.c **** 
1295:Firmware/Middlewares/Third_Party/FreeRTOS/Source/CMSIS_RTOS_V2/cmsis_os2.c ****   hMutex = (SemaphoreHandle_t)((uint32_t)mutex_id & ~1U);
 6240              		.loc 1 1295 0
 6241 000a 7B68     		ldr	r3, [r7, #4]
 6242 000c 23F00103 		bic	r3, r3, #1
 6243 0010 BB61     		str	r3, [r7, #24]
1296:Firmware/Middlewares/Third_Party/FreeRTOS/Source/CMSIS_RTOS_V2/cmsis_os2.c **** 
1297:Firmware/Middlewares/Third_Party/FreeRTOS/Source/CMSIS_RTOS_V2/cmsis_os2.c ****   rmtx = (uint32_t)mutex_id & 1U;
 6244              		.loc 1 1297 0
 6245 0012 7B68     		ldr	r3, [r7, #4]
 6246 0014 03F00103 		and	r3, r3, #1
 6247 0018 7B61     		str	r3, [r7, #20]
1298:Firmware/Middlewares/Third_Party/FreeRTOS/Source/CMSIS_RTOS_V2/cmsis_os2.c **** 
1299:Firmware/Middlewares/Third_Party/FreeRTOS/Source/CMSIS_RTOS_V2/cmsis_os2.c ****   stat = osOK;
 6248              		.loc 1 1299 0
 6249 001a 0023     		movs	r3, #0
 6250 001c FB61     		str	r3, [r7, #28]
 6251              	.LBB566:
 6252              	.LBB567:
 209:Firmware/Drivers/CMSIS/Include/cmsis_gcc.h ****   return(result);
 6253              		.loc 2 209 0
 6254              		.syntax unified
 6255              	@ 209 "Firmware/Drivers/CMSIS/Include/cmsis_gcc.h" 1
 6256 001e EFF30583 		MRS r3, ipsr
 6257              	@ 0 "" 2
 6258              		.thumb
 6259              		.syntax unified
 6260 0022 3B61     		str	r3, [r7, #16]
 210:Firmware/Drivers/CMSIS/Include/cmsis_gcc.h **** }
 6261              		.loc 2 210 0
 6262 0024 3B69     		ldr	r3, [r7, #16]
 6263              	.LBE567:
 6264              	.LBE566:
1300:Firmware/Middlewares/Third_Party/FreeRTOS/Source/CMSIS_RTOS_V2/cmsis_os2.c **** 
1301:Firmware/Middlewares/Third_Party/FreeRTOS/Source/CMSIS_RTOS_V2/cmsis_os2.c ****   if (IS_IRQ()) {
 6265              		.loc 1 1301 0
 6266 0026 002B     		cmp	r3, #0
 6267 0028 0FD1     		bne	.L545
 6268              	.LBB568:
ARM GAS  /tmp/ccB5BhZs.s 			page 148


 6269              	.LBB569:
 386:Firmware/Drivers/CMSIS/Include/cmsis_gcc.h ****   return(result);
 6270              		.loc 2 386 0 discriminator 1
 6271              		.syntax unified
 6272              	@ 386 "Firmware/Drivers/CMSIS/Include/cmsis_gcc.h" 1
 6273 002a EFF31083 		MRS r3, primask
 6274              	@ 0 "" 2
 6275              		.thumb
 6276              		.syntax unified
 6277 002e FB60     		str	r3, [r7, #12]
 387:Firmware/Drivers/CMSIS/Include/cmsis_gcc.h **** }
 6278              		.loc 2 387 0 discriminator 1
 6279 0030 FB68     		ldr	r3, [r7, #12]
 6280              	.LBE569:
 6281              	.LBE568:
 6282              		.loc 1 1301 0 discriminator 1
 6283 0032 002B     		cmp	r3, #0
 6284 0034 09D1     		bne	.L545
 6285              		.loc 1 1301 0 is_stmt 0 discriminator 2
 6286 0036 204B     		ldr	r3, .L556
 6287 0038 1B68     		ldr	r3, [r3]
 6288 003a 022B     		cmp	r3, #2
 6289 003c 09D1     		bne	.L547
 6290              	.LBB570:
 6291              	.LBB571:
 465:Firmware/Drivers/CMSIS/Include/cmsis_gcc.h ****   return(result);
 6292              		.loc 2 465 0 is_stmt 1 discriminator 3
 6293              		.syntax unified
 6294              	@ 465 "Firmware/Drivers/CMSIS/Include/cmsis_gcc.h" 1
 6295 003e EFF31183 		MRS r3, basepri
 6296              	@ 0 "" 2
 6297              		.thumb
 6298              		.syntax unified
 6299 0042 BB60     		str	r3, [r7, #8]
 6300              		.loc 2 466 0 discriminator 3
 6301 0044 BB68     		ldr	r3, [r7, #8]
 6302              	.LBE571:
 6303              	.LBE570:
 6304              		.loc 1 1301 0 discriminator 3
 6305 0046 002B     		cmp	r3, #0
 6306 0048 03D0     		beq	.L547
 6307              	.L545:
1302:Firmware/Middlewares/Third_Party/FreeRTOS/Source/CMSIS_RTOS_V2/cmsis_os2.c ****     stat = osErrorISR;
 6308              		.loc 1 1302 0
 6309 004a 6FF00503 		mvn	r3, #5
 6310 004e FB61     		str	r3, [r7, #28]
 6311 0050 2CE0     		b	.L549
 6312              	.L547:
1303:Firmware/Middlewares/Third_Party/FreeRTOS/Source/CMSIS_RTOS_V2/cmsis_os2.c ****   }
1304:Firmware/Middlewares/Third_Party/FreeRTOS/Source/CMSIS_RTOS_V2/cmsis_os2.c ****   else if (hMutex == NULL) {
 6313              		.loc 1 1304 0
 6314 0052 BB69     		ldr	r3, [r7, #24]
 6315 0054 002B     		cmp	r3, #0
 6316 0056 03D1     		bne	.L550
1305:Firmware/Middlewares/Third_Party/FreeRTOS/Source/CMSIS_RTOS_V2/cmsis_os2.c ****     stat = osErrorParameter;
 6317              		.loc 1 1305 0
 6318 0058 6FF00303 		mvn	r3, #3
ARM GAS  /tmp/ccB5BhZs.s 			page 149


 6319 005c FB61     		str	r3, [r7, #28]
 6320 005e 25E0     		b	.L549
 6321              	.L550:
1306:Firmware/Middlewares/Third_Party/FreeRTOS/Source/CMSIS_RTOS_V2/cmsis_os2.c ****   }
1307:Firmware/Middlewares/Third_Party/FreeRTOS/Source/CMSIS_RTOS_V2/cmsis_os2.c ****   else {
1308:Firmware/Middlewares/Third_Party/FreeRTOS/Source/CMSIS_RTOS_V2/cmsis_os2.c ****     if (rmtx != 0U) {
 6322              		.loc 1 1308 0
 6323 0060 7B69     		ldr	r3, [r7, #20]
 6324 0062 002B     		cmp	r3, #0
 6325 0064 11D0     		beq	.L551
1309:Firmware/Middlewares/Third_Party/FreeRTOS/Source/CMSIS_RTOS_V2/cmsis_os2.c ****       if (xSemaphoreTakeRecursive (hMutex, timeout) != pdPASS) {
 6326              		.loc 1 1309 0
 6327 0066 3968     		ldr	r1, [r7]
 6328 0068 B869     		ldr	r0, [r7, #24]
 6329 006a FFF7FEFF 		bl	xQueueTakeMutexRecursive
 6330 006e 0346     		mov	r3, r0
 6331 0070 012B     		cmp	r3, #1
 6332 0072 1BD0     		beq	.L549
1310:Firmware/Middlewares/Third_Party/FreeRTOS/Source/CMSIS_RTOS_V2/cmsis_os2.c ****         if (timeout != 0U) {
 6333              		.loc 1 1310 0
 6334 0074 3B68     		ldr	r3, [r7]
 6335 0076 002B     		cmp	r3, #0
 6336 0078 03D0     		beq	.L553
1311:Firmware/Middlewares/Third_Party/FreeRTOS/Source/CMSIS_RTOS_V2/cmsis_os2.c ****           stat = osErrorTimeout;
 6337              		.loc 1 1311 0
 6338 007a 6FF00103 		mvn	r3, #1
 6339 007e FB61     		str	r3, [r7, #28]
 6340 0080 14E0     		b	.L549
 6341              	.L553:
1312:Firmware/Middlewares/Third_Party/FreeRTOS/Source/CMSIS_RTOS_V2/cmsis_os2.c ****         } else {
1313:Firmware/Middlewares/Third_Party/FreeRTOS/Source/CMSIS_RTOS_V2/cmsis_os2.c ****           stat = osErrorResource;
 6342              		.loc 1 1313 0
 6343 0082 6FF00203 		mvn	r3, #2
 6344 0086 FB61     		str	r3, [r7, #28]
 6345 0088 10E0     		b	.L549
 6346              	.L551:
1314:Firmware/Middlewares/Third_Party/FreeRTOS/Source/CMSIS_RTOS_V2/cmsis_os2.c ****         }
1315:Firmware/Middlewares/Third_Party/FreeRTOS/Source/CMSIS_RTOS_V2/cmsis_os2.c ****       }
1316:Firmware/Middlewares/Third_Party/FreeRTOS/Source/CMSIS_RTOS_V2/cmsis_os2.c ****     }
1317:Firmware/Middlewares/Third_Party/FreeRTOS/Source/CMSIS_RTOS_V2/cmsis_os2.c ****     else {
1318:Firmware/Middlewares/Third_Party/FreeRTOS/Source/CMSIS_RTOS_V2/cmsis_os2.c ****       if (xSemaphoreTake (hMutex, timeout) != pdPASS) {
 6347              		.loc 1 1318 0
 6348 008a 3968     		ldr	r1, [r7]
 6349 008c B869     		ldr	r0, [r7, #24]
 6350 008e FFF7FEFF 		bl	xQueueSemaphoreTake
 6351 0092 0346     		mov	r3, r0
 6352 0094 012B     		cmp	r3, #1
 6353 0096 09D0     		beq	.L549
1319:Firmware/Middlewares/Third_Party/FreeRTOS/Source/CMSIS_RTOS_V2/cmsis_os2.c ****         if (timeout != 0U) {
 6354              		.loc 1 1319 0
 6355 0098 3B68     		ldr	r3, [r7]
 6356 009a 002B     		cmp	r3, #0
 6357 009c 03D0     		beq	.L554
1320:Firmware/Middlewares/Third_Party/FreeRTOS/Source/CMSIS_RTOS_V2/cmsis_os2.c ****           stat = osErrorTimeout;
 6358              		.loc 1 1320 0
 6359 009e 6FF00103 		mvn	r3, #1
 6360 00a2 FB61     		str	r3, [r7, #28]
ARM GAS  /tmp/ccB5BhZs.s 			page 150


 6361 00a4 02E0     		b	.L549
 6362              	.L554:
1321:Firmware/Middlewares/Third_Party/FreeRTOS/Source/CMSIS_RTOS_V2/cmsis_os2.c ****         } else {
1322:Firmware/Middlewares/Third_Party/FreeRTOS/Source/CMSIS_RTOS_V2/cmsis_os2.c ****           stat = osErrorResource;
 6363              		.loc 1 1322 0
 6364 00a6 6FF00203 		mvn	r3, #2
 6365 00aa FB61     		str	r3, [r7, #28]
 6366              	.L549:
1323:Firmware/Middlewares/Third_Party/FreeRTOS/Source/CMSIS_RTOS_V2/cmsis_os2.c ****         }
1324:Firmware/Middlewares/Third_Party/FreeRTOS/Source/CMSIS_RTOS_V2/cmsis_os2.c ****       }
1325:Firmware/Middlewares/Third_Party/FreeRTOS/Source/CMSIS_RTOS_V2/cmsis_os2.c ****     }
1326:Firmware/Middlewares/Third_Party/FreeRTOS/Source/CMSIS_RTOS_V2/cmsis_os2.c ****   }
1327:Firmware/Middlewares/Third_Party/FreeRTOS/Source/CMSIS_RTOS_V2/cmsis_os2.c **** 
1328:Firmware/Middlewares/Third_Party/FreeRTOS/Source/CMSIS_RTOS_V2/cmsis_os2.c ****   return (stat);
 6367              		.loc 1 1328 0
 6368 00ac FB69     		ldr	r3, [r7, #28]
1329:Firmware/Middlewares/Third_Party/FreeRTOS/Source/CMSIS_RTOS_V2/cmsis_os2.c **** }
 6369              		.loc 1 1329 0
 6370 00ae 1846     		mov	r0, r3
 6371 00b0 2037     		adds	r7, r7, #32
 6372              	.LCFI231:
 6373              		.cfi_def_cfa_offset 8
 6374 00b2 BD46     		mov	sp, r7
 6375              	.LCFI232:
 6376              		.cfi_def_cfa_register 13
 6377              		@ sp needed
 6378 00b4 80BD     		pop	{r7, pc}
 6379              	.L557:
 6380 00b6 00BF     		.align	2
 6381              	.L556:
 6382 00b8 00000000 		.word	KernelState
 6383              		.cfi_endproc
 6384              	.LFE152:
 6386              		.section	.text.osMutexRelease,"ax",%progbits
 6387              		.align	1
 6388              		.global	osMutexRelease
 6389              		.syntax unified
 6390              		.thumb
 6391              		.thumb_func
 6392              		.fpu fpv4-sp-d16
 6394              	osMutexRelease:
 6395              	.LFB153:
1330:Firmware/Middlewares/Third_Party/FreeRTOS/Source/CMSIS_RTOS_V2/cmsis_os2.c **** 
1331:Firmware/Middlewares/Third_Party/FreeRTOS/Source/CMSIS_RTOS_V2/cmsis_os2.c **** osStatus_t osMutexRelease (osMutexId_t mutex_id) {
 6396              		.loc 1 1331 0
 6397              		.cfi_startproc
 6398              		@ args = 0, pretend = 0, frame = 32
 6399              		@ frame_needed = 1, uses_anonymous_args = 0
 6400 0000 80B5     		push	{r7, lr}
 6401              	.LCFI233:
 6402              		.cfi_def_cfa_offset 8
 6403              		.cfi_offset 7, -8
 6404              		.cfi_offset 14, -4
 6405 0002 88B0     		sub	sp, sp, #32
 6406              	.LCFI234:
 6407              		.cfi_def_cfa_offset 40
 6408 0004 00AF     		add	r7, sp, #0
ARM GAS  /tmp/ccB5BhZs.s 			page 151


 6409              	.LCFI235:
 6410              		.cfi_def_cfa_register 7
 6411 0006 7860     		str	r0, [r7, #4]
1332:Firmware/Middlewares/Third_Party/FreeRTOS/Source/CMSIS_RTOS_V2/cmsis_os2.c ****   SemaphoreHandle_t hMutex;
1333:Firmware/Middlewares/Third_Party/FreeRTOS/Source/CMSIS_RTOS_V2/cmsis_os2.c ****   osStatus_t stat;
1334:Firmware/Middlewares/Third_Party/FreeRTOS/Source/CMSIS_RTOS_V2/cmsis_os2.c ****   uint32_t rmtx;
1335:Firmware/Middlewares/Third_Party/FreeRTOS/Source/CMSIS_RTOS_V2/cmsis_os2.c **** 
1336:Firmware/Middlewares/Third_Party/FreeRTOS/Source/CMSIS_RTOS_V2/cmsis_os2.c ****   hMutex = (SemaphoreHandle_t)((uint32_t)mutex_id & ~1U);
 6412              		.loc 1 1336 0
 6413 0008 7B68     		ldr	r3, [r7, #4]
 6414 000a 23F00103 		bic	r3, r3, #1
 6415 000e BB61     		str	r3, [r7, #24]
1337:Firmware/Middlewares/Third_Party/FreeRTOS/Source/CMSIS_RTOS_V2/cmsis_os2.c **** 
1338:Firmware/Middlewares/Third_Party/FreeRTOS/Source/CMSIS_RTOS_V2/cmsis_os2.c ****   rmtx = (uint32_t)mutex_id & 1U;
 6416              		.loc 1 1338 0
 6417 0010 7B68     		ldr	r3, [r7, #4]
 6418 0012 03F00103 		and	r3, r3, #1
 6419 0016 7B61     		str	r3, [r7, #20]
1339:Firmware/Middlewares/Third_Party/FreeRTOS/Source/CMSIS_RTOS_V2/cmsis_os2.c **** 
1340:Firmware/Middlewares/Third_Party/FreeRTOS/Source/CMSIS_RTOS_V2/cmsis_os2.c ****   stat = osOK;
 6420              		.loc 1 1340 0
 6421 0018 0023     		movs	r3, #0
 6422 001a FB61     		str	r3, [r7, #28]
 6423              	.LBB572:
 6424              	.LBB573:
 209:Firmware/Drivers/CMSIS/Include/cmsis_gcc.h ****   return(result);
 6425              		.loc 2 209 0
 6426              		.syntax unified
 6427              	@ 209 "Firmware/Drivers/CMSIS/Include/cmsis_gcc.h" 1
 6428 001c EFF30583 		MRS r3, ipsr
 6429              	@ 0 "" 2
 6430              		.thumb
 6431              		.syntax unified
 6432 0020 3B61     		str	r3, [r7, #16]
 210:Firmware/Drivers/CMSIS/Include/cmsis_gcc.h **** }
 6433              		.loc 2 210 0
 6434 0022 3B69     		ldr	r3, [r7, #16]
 6435              	.LBE573:
 6436              	.LBE572:
1341:Firmware/Middlewares/Third_Party/FreeRTOS/Source/CMSIS_RTOS_V2/cmsis_os2.c **** 
1342:Firmware/Middlewares/Third_Party/FreeRTOS/Source/CMSIS_RTOS_V2/cmsis_os2.c ****   if (IS_IRQ()) {
 6437              		.loc 1 1342 0
 6438 0024 002B     		cmp	r3, #0
 6439 0026 0FD1     		bne	.L560
 6440              	.LBB574:
 6441              	.LBB575:
 386:Firmware/Drivers/CMSIS/Include/cmsis_gcc.h ****   return(result);
 6442              		.loc 2 386 0 discriminator 1
 6443              		.syntax unified
 6444              	@ 386 "Firmware/Drivers/CMSIS/Include/cmsis_gcc.h" 1
 6445 0028 EFF31083 		MRS r3, primask
 6446              	@ 0 "" 2
 6447              		.thumb
 6448              		.syntax unified
 6449 002c FB60     		str	r3, [r7, #12]
 387:Firmware/Drivers/CMSIS/Include/cmsis_gcc.h **** }
 6450              		.loc 2 387 0 discriminator 1
ARM GAS  /tmp/ccB5BhZs.s 			page 152


 6451 002e FB68     		ldr	r3, [r7, #12]
 6452              	.LBE575:
 6453              	.LBE574:
 6454              		.loc 1 1342 0 discriminator 1
 6455 0030 002B     		cmp	r3, #0
 6456 0032 09D1     		bne	.L560
 6457              		.loc 1 1342 0 is_stmt 0 discriminator 2
 6458 0034 194B     		ldr	r3, .L569
 6459 0036 1B68     		ldr	r3, [r3]
 6460 0038 022B     		cmp	r3, #2
 6461 003a 09D1     		bne	.L562
 6462              	.LBB576:
 6463              	.LBB577:
 465:Firmware/Drivers/CMSIS/Include/cmsis_gcc.h ****   return(result);
 6464              		.loc 2 465 0 is_stmt 1 discriminator 3
 6465              		.syntax unified
 6466              	@ 465 "Firmware/Drivers/CMSIS/Include/cmsis_gcc.h" 1
 6467 003c EFF31183 		MRS r3, basepri
 6468              	@ 0 "" 2
 6469              		.thumb
 6470              		.syntax unified
 6471 0040 BB60     		str	r3, [r7, #8]
 6472              		.loc 2 466 0 discriminator 3
 6473 0042 BB68     		ldr	r3, [r7, #8]
 6474              	.LBE577:
 6475              	.LBE576:
 6476              		.loc 1 1342 0 discriminator 3
 6477 0044 002B     		cmp	r3, #0
 6478 0046 03D0     		beq	.L562
 6479              	.L560:
1343:Firmware/Middlewares/Third_Party/FreeRTOS/Source/CMSIS_RTOS_V2/cmsis_os2.c ****     stat = osErrorISR;
 6480              		.loc 1 1343 0
 6481 0048 6FF00503 		mvn	r3, #5
 6482 004c FB61     		str	r3, [r7, #28]
 6483 004e 1FE0     		b	.L564
 6484              	.L562:
1344:Firmware/Middlewares/Third_Party/FreeRTOS/Source/CMSIS_RTOS_V2/cmsis_os2.c ****   }
1345:Firmware/Middlewares/Third_Party/FreeRTOS/Source/CMSIS_RTOS_V2/cmsis_os2.c ****   else if (hMutex == NULL) {
 6485              		.loc 1 1345 0
 6486 0050 BB69     		ldr	r3, [r7, #24]
 6487 0052 002B     		cmp	r3, #0
 6488 0054 03D1     		bne	.L565
1346:Firmware/Middlewares/Third_Party/FreeRTOS/Source/CMSIS_RTOS_V2/cmsis_os2.c ****     stat = osErrorParameter;
 6489              		.loc 1 1346 0
 6490 0056 6FF00303 		mvn	r3, #3
 6491 005a FB61     		str	r3, [r7, #28]
 6492 005c 18E0     		b	.L564
 6493              	.L565:
1347:Firmware/Middlewares/Third_Party/FreeRTOS/Source/CMSIS_RTOS_V2/cmsis_os2.c ****   }
1348:Firmware/Middlewares/Third_Party/FreeRTOS/Source/CMSIS_RTOS_V2/cmsis_os2.c ****   else {
1349:Firmware/Middlewares/Third_Party/FreeRTOS/Source/CMSIS_RTOS_V2/cmsis_os2.c ****     if (rmtx != 0U) {
 6494              		.loc 1 1349 0
 6495 005e 7B69     		ldr	r3, [r7, #20]
 6496 0060 002B     		cmp	r3, #0
 6497 0062 09D0     		beq	.L566
1350:Firmware/Middlewares/Third_Party/FreeRTOS/Source/CMSIS_RTOS_V2/cmsis_os2.c ****       if (xSemaphoreGiveRecursive (hMutex) != pdPASS) {
 6498              		.loc 1 1350 0
ARM GAS  /tmp/ccB5BhZs.s 			page 153


 6499 0064 B869     		ldr	r0, [r7, #24]
 6500 0066 FFF7FEFF 		bl	xQueueGiveMutexRecursive
 6501 006a 0346     		mov	r3, r0
 6502 006c 012B     		cmp	r3, #1
 6503 006e 0FD0     		beq	.L564
1351:Firmware/Middlewares/Third_Party/FreeRTOS/Source/CMSIS_RTOS_V2/cmsis_os2.c ****         stat = osErrorResource;
 6504              		.loc 1 1351 0
 6505 0070 6FF00203 		mvn	r3, #2
 6506 0074 FB61     		str	r3, [r7, #28]
 6507 0076 0BE0     		b	.L564
 6508              	.L566:
1352:Firmware/Middlewares/Third_Party/FreeRTOS/Source/CMSIS_RTOS_V2/cmsis_os2.c ****       }
1353:Firmware/Middlewares/Third_Party/FreeRTOS/Source/CMSIS_RTOS_V2/cmsis_os2.c ****     }
1354:Firmware/Middlewares/Third_Party/FreeRTOS/Source/CMSIS_RTOS_V2/cmsis_os2.c ****     else {
1355:Firmware/Middlewares/Third_Party/FreeRTOS/Source/CMSIS_RTOS_V2/cmsis_os2.c ****       if (xSemaphoreGive (hMutex) != pdPASS) {
 6509              		.loc 1 1355 0
 6510 0078 0023     		movs	r3, #0
 6511 007a 0022     		movs	r2, #0
 6512 007c 0021     		movs	r1, #0
 6513 007e B869     		ldr	r0, [r7, #24]
 6514 0080 FFF7FEFF 		bl	xQueueGenericSend
 6515 0084 0346     		mov	r3, r0
 6516 0086 012B     		cmp	r3, #1
 6517 0088 02D0     		beq	.L564
1356:Firmware/Middlewares/Third_Party/FreeRTOS/Source/CMSIS_RTOS_V2/cmsis_os2.c ****         stat = osErrorResource;
 6518              		.loc 1 1356 0
 6519 008a 6FF00203 		mvn	r3, #2
 6520 008e FB61     		str	r3, [r7, #28]
 6521              	.L564:
1357:Firmware/Middlewares/Third_Party/FreeRTOS/Source/CMSIS_RTOS_V2/cmsis_os2.c ****       }
1358:Firmware/Middlewares/Third_Party/FreeRTOS/Source/CMSIS_RTOS_V2/cmsis_os2.c ****     }
1359:Firmware/Middlewares/Third_Party/FreeRTOS/Source/CMSIS_RTOS_V2/cmsis_os2.c ****   }
1360:Firmware/Middlewares/Third_Party/FreeRTOS/Source/CMSIS_RTOS_V2/cmsis_os2.c **** 
1361:Firmware/Middlewares/Third_Party/FreeRTOS/Source/CMSIS_RTOS_V2/cmsis_os2.c ****   return (stat);
 6522              		.loc 1 1361 0
 6523 0090 FB69     		ldr	r3, [r7, #28]
1362:Firmware/Middlewares/Third_Party/FreeRTOS/Source/CMSIS_RTOS_V2/cmsis_os2.c **** }
 6524              		.loc 1 1362 0
 6525 0092 1846     		mov	r0, r3
 6526 0094 2037     		adds	r7, r7, #32
 6527              	.LCFI236:
 6528              		.cfi_def_cfa_offset 8
 6529 0096 BD46     		mov	sp, r7
 6530              	.LCFI237:
 6531              		.cfi_def_cfa_register 13
 6532              		@ sp needed
 6533 0098 80BD     		pop	{r7, pc}
 6534              	.L570:
 6535 009a 00BF     		.align	2
 6536              	.L569:
 6537 009c 00000000 		.word	KernelState
 6538              		.cfi_endproc
 6539              	.LFE153:
 6541              		.section	.text.osMutexGetOwner,"ax",%progbits
 6542              		.align	1
 6543              		.global	osMutexGetOwner
 6544              		.syntax unified
ARM GAS  /tmp/ccB5BhZs.s 			page 154


 6545              		.thumb
 6546              		.thumb_func
 6547              		.fpu fpv4-sp-d16
 6549              	osMutexGetOwner:
 6550              	.LFB154:
1363:Firmware/Middlewares/Third_Party/FreeRTOS/Source/CMSIS_RTOS_V2/cmsis_os2.c **** 
1364:Firmware/Middlewares/Third_Party/FreeRTOS/Source/CMSIS_RTOS_V2/cmsis_os2.c **** osThreadId_t osMutexGetOwner (osMutexId_t mutex_id) {
 6551              		.loc 1 1364 0
 6552              		.cfi_startproc
 6553              		@ args = 0, pretend = 0, frame = 32
 6554              		@ frame_needed = 1, uses_anonymous_args = 0
 6555 0000 80B5     		push	{r7, lr}
 6556              	.LCFI238:
 6557              		.cfi_def_cfa_offset 8
 6558              		.cfi_offset 7, -8
 6559              		.cfi_offset 14, -4
 6560 0002 88B0     		sub	sp, sp, #32
 6561              	.LCFI239:
 6562              		.cfi_def_cfa_offset 40
 6563 0004 00AF     		add	r7, sp, #0
 6564              	.LCFI240:
 6565              		.cfi_def_cfa_register 7
 6566 0006 7860     		str	r0, [r7, #4]
1365:Firmware/Middlewares/Third_Party/FreeRTOS/Source/CMSIS_RTOS_V2/cmsis_os2.c ****   SemaphoreHandle_t hMutex;
1366:Firmware/Middlewares/Third_Party/FreeRTOS/Source/CMSIS_RTOS_V2/cmsis_os2.c ****   osThreadId_t owner;
1367:Firmware/Middlewares/Third_Party/FreeRTOS/Source/CMSIS_RTOS_V2/cmsis_os2.c **** 
1368:Firmware/Middlewares/Third_Party/FreeRTOS/Source/CMSIS_RTOS_V2/cmsis_os2.c ****   hMutex = (SemaphoreHandle_t)((uint32_t)mutex_id & ~1U);
 6567              		.loc 1 1368 0
 6568 0008 7B68     		ldr	r3, [r7, #4]
 6569 000a 23F00103 		bic	r3, r3, #1
 6570 000e BB61     		str	r3, [r7, #24]
 6571              	.LBB578:
 6572              	.LBB579:
 209:Firmware/Drivers/CMSIS/Include/cmsis_gcc.h ****   return(result);
 6573              		.loc 2 209 0
 6574              		.syntax unified
 6575              	@ 209 "Firmware/Drivers/CMSIS/Include/cmsis_gcc.h" 1
 6576 0010 EFF30583 		MRS r3, ipsr
 6577              	@ 0 "" 2
 6578              		.thumb
 6579              		.syntax unified
 6580 0014 7B61     		str	r3, [r7, #20]
 210:Firmware/Drivers/CMSIS/Include/cmsis_gcc.h **** }
 6581              		.loc 2 210 0
 6582 0016 7B69     		ldr	r3, [r7, #20]
 6583              	.LBE579:
 6584              	.LBE578:
1369:Firmware/Middlewares/Third_Party/FreeRTOS/Source/CMSIS_RTOS_V2/cmsis_os2.c **** 
1370:Firmware/Middlewares/Third_Party/FreeRTOS/Source/CMSIS_RTOS_V2/cmsis_os2.c ****   if (IS_IRQ() || (hMutex == NULL)) {
 6585              		.loc 1 1370 0
 6586 0018 002B     		cmp	r3, #0
 6587 001a 12D1     		bne	.L573
 6588              	.LBB580:
 6589              	.LBB581:
 386:Firmware/Drivers/CMSIS/Include/cmsis_gcc.h ****   return(result);
 6590              		.loc 2 386 0 discriminator 1
 6591              		.syntax unified
ARM GAS  /tmp/ccB5BhZs.s 			page 155


 6592              	@ 386 "Firmware/Drivers/CMSIS/Include/cmsis_gcc.h" 1
 6593 001c EFF31083 		MRS r3, primask
 6594              	@ 0 "" 2
 6595              		.thumb
 6596              		.syntax unified
 6597 0020 3B61     		str	r3, [r7, #16]
 387:Firmware/Drivers/CMSIS/Include/cmsis_gcc.h **** }
 6598              		.loc 2 387 0 discriminator 1
 6599 0022 3B69     		ldr	r3, [r7, #16]
 6600              	.LBE581:
 6601              	.LBE580:
 6602              		.loc 1 1370 0 discriminator 1
 6603 0024 002B     		cmp	r3, #0
 6604 0026 0CD1     		bne	.L573
 6605              		.loc 1 1370 0 is_stmt 0 discriminator 2
 6606 0028 0C4B     		ldr	r3, .L580
 6607 002a 1B68     		ldr	r3, [r3]
 6608 002c 022B     		cmp	r3, #2
 6609 002e 05D1     		bne	.L575
 6610              	.LBB582:
 6611              	.LBB583:
 465:Firmware/Drivers/CMSIS/Include/cmsis_gcc.h ****   return(result);
 6612              		.loc 2 465 0 is_stmt 1 discriminator 3
 6613              		.syntax unified
 6614              	@ 465 "Firmware/Drivers/CMSIS/Include/cmsis_gcc.h" 1
 6615 0030 EFF31183 		MRS r3, basepri
 6616              	@ 0 "" 2
 6617              		.thumb
 6618              		.syntax unified
 6619 0034 FB60     		str	r3, [r7, #12]
 6620              		.loc 2 466 0 discriminator 3
 6621 0036 FB68     		ldr	r3, [r7, #12]
 6622              	.LBE583:
 6623              	.LBE582:
 6624              		.loc 1 1370 0 discriminator 3
 6625 0038 002B     		cmp	r3, #0
 6626 003a 02D1     		bne	.L573
 6627              	.L575:
 6628              		.loc 1 1370 0 is_stmt 0 discriminator 5
 6629 003c BB69     		ldr	r3, [r7, #24]
 6630 003e 002B     		cmp	r3, #0
 6631 0040 02D1     		bne	.L577
 6632              	.L573:
1371:Firmware/Middlewares/Third_Party/FreeRTOS/Source/CMSIS_RTOS_V2/cmsis_os2.c ****     owner = NULL;
 6633              		.loc 1 1371 0 is_stmt 1
 6634 0042 0023     		movs	r3, #0
 6635 0044 FB61     		str	r3, [r7, #28]
 6636 0046 03E0     		b	.L578
 6637              	.L577:
1372:Firmware/Middlewares/Third_Party/FreeRTOS/Source/CMSIS_RTOS_V2/cmsis_os2.c ****   } else {
1373:Firmware/Middlewares/Third_Party/FreeRTOS/Source/CMSIS_RTOS_V2/cmsis_os2.c ****     owner = (osThreadId_t)xSemaphoreGetMutexHolder (hMutex);
 6638              		.loc 1 1373 0
 6639 0048 B869     		ldr	r0, [r7, #24]
 6640 004a FFF7FEFF 		bl	xQueueGetMutexHolder
 6641 004e F861     		str	r0, [r7, #28]
 6642              	.L578:
1374:Firmware/Middlewares/Third_Party/FreeRTOS/Source/CMSIS_RTOS_V2/cmsis_os2.c ****   }
ARM GAS  /tmp/ccB5BhZs.s 			page 156


1375:Firmware/Middlewares/Third_Party/FreeRTOS/Source/CMSIS_RTOS_V2/cmsis_os2.c **** 
1376:Firmware/Middlewares/Third_Party/FreeRTOS/Source/CMSIS_RTOS_V2/cmsis_os2.c ****   return (owner);
 6643              		.loc 1 1376 0
 6644 0050 FB69     		ldr	r3, [r7, #28]
1377:Firmware/Middlewares/Third_Party/FreeRTOS/Source/CMSIS_RTOS_V2/cmsis_os2.c **** }
 6645              		.loc 1 1377 0
 6646 0052 1846     		mov	r0, r3
 6647 0054 2037     		adds	r7, r7, #32
 6648              	.LCFI241:
 6649              		.cfi_def_cfa_offset 8
 6650 0056 BD46     		mov	sp, r7
 6651              	.LCFI242:
 6652              		.cfi_def_cfa_register 13
 6653              		@ sp needed
 6654 0058 80BD     		pop	{r7, pc}
 6655              	.L581:
 6656 005a 00BF     		.align	2
 6657              	.L580:
 6658 005c 00000000 		.word	KernelState
 6659              		.cfi_endproc
 6660              	.LFE154:
 6662              		.section	.text.osMutexDelete,"ax",%progbits
 6663              		.align	1
 6664              		.global	osMutexDelete
 6665              		.syntax unified
 6666              		.thumb
 6667              		.thumb_func
 6668              		.fpu fpv4-sp-d16
 6670              	osMutexDelete:
 6671              	.LFB155:
1378:Firmware/Middlewares/Third_Party/FreeRTOS/Source/CMSIS_RTOS_V2/cmsis_os2.c **** 
1379:Firmware/Middlewares/Third_Party/FreeRTOS/Source/CMSIS_RTOS_V2/cmsis_os2.c **** osStatus_t osMutexDelete (osMutexId_t mutex_id) {
 6672              		.loc 1 1379 0
 6673              		.cfi_startproc
 6674              		@ args = 0, pretend = 0, frame = 32
 6675              		@ frame_needed = 1, uses_anonymous_args = 0
 6676 0000 80B5     		push	{r7, lr}
 6677              	.LCFI243:
 6678              		.cfi_def_cfa_offset 8
 6679              		.cfi_offset 7, -8
 6680              		.cfi_offset 14, -4
 6681 0002 88B0     		sub	sp, sp, #32
 6682              	.LCFI244:
 6683              		.cfi_def_cfa_offset 40
 6684 0004 00AF     		add	r7, sp, #0
 6685              	.LCFI245:
 6686              		.cfi_def_cfa_register 7
 6687 0006 7860     		str	r0, [r7, #4]
1380:Firmware/Middlewares/Third_Party/FreeRTOS/Source/CMSIS_RTOS_V2/cmsis_os2.c ****   osStatus_t stat;
1381:Firmware/Middlewares/Third_Party/FreeRTOS/Source/CMSIS_RTOS_V2/cmsis_os2.c **** #ifndef USE_FreeRTOS_HEAP_1
1382:Firmware/Middlewares/Third_Party/FreeRTOS/Source/CMSIS_RTOS_V2/cmsis_os2.c ****   SemaphoreHandle_t hMutex;
1383:Firmware/Middlewares/Third_Party/FreeRTOS/Source/CMSIS_RTOS_V2/cmsis_os2.c **** 
1384:Firmware/Middlewares/Third_Party/FreeRTOS/Source/CMSIS_RTOS_V2/cmsis_os2.c ****   hMutex = (SemaphoreHandle_t)((uint32_t)mutex_id & ~1U);
 6688              		.loc 1 1384 0
 6689 0008 7B68     		ldr	r3, [r7, #4]
 6690 000a 23F00103 		bic	r3, r3, #1
 6691 000e BB61     		str	r3, [r7, #24]
ARM GAS  /tmp/ccB5BhZs.s 			page 157


 6692              	.LBB584:
 6693              	.LBB585:
 209:Firmware/Drivers/CMSIS/Include/cmsis_gcc.h ****   return(result);
 6694              		.loc 2 209 0
 6695              		.syntax unified
 6696              	@ 209 "Firmware/Drivers/CMSIS/Include/cmsis_gcc.h" 1
 6697 0010 EFF30583 		MRS r3, ipsr
 6698              	@ 0 "" 2
 6699              		.thumb
 6700              		.syntax unified
 6701 0014 7B61     		str	r3, [r7, #20]
 210:Firmware/Drivers/CMSIS/Include/cmsis_gcc.h **** }
 6702              		.loc 2 210 0
 6703 0016 7B69     		ldr	r3, [r7, #20]
 6704              	.LBE585:
 6705              	.LBE584:
1385:Firmware/Middlewares/Third_Party/FreeRTOS/Source/CMSIS_RTOS_V2/cmsis_os2.c **** 
1386:Firmware/Middlewares/Third_Party/FreeRTOS/Source/CMSIS_RTOS_V2/cmsis_os2.c ****   if (IS_IRQ()) {
 6706              		.loc 1 1386 0
 6707 0018 002B     		cmp	r3, #0
 6708 001a 0FD1     		bne	.L584
 6709              	.LBB586:
 6710              	.LBB587:
 386:Firmware/Drivers/CMSIS/Include/cmsis_gcc.h ****   return(result);
 6711              		.loc 2 386 0 discriminator 1
 6712              		.syntax unified
 6713              	@ 386 "Firmware/Drivers/CMSIS/Include/cmsis_gcc.h" 1
 6714 001c EFF31083 		MRS r3, primask
 6715              	@ 0 "" 2
 6716              		.thumb
 6717              		.syntax unified
 6718 0020 3B61     		str	r3, [r7, #16]
 387:Firmware/Drivers/CMSIS/Include/cmsis_gcc.h **** }
 6719              		.loc 2 387 0 discriminator 1
 6720 0022 3B69     		ldr	r3, [r7, #16]
 6721              	.LBE587:
 6722              	.LBE586:
 6723              		.loc 1 1386 0 discriminator 1
 6724 0024 002B     		cmp	r3, #0
 6725 0026 09D1     		bne	.L584
 6726              		.loc 1 1386 0 is_stmt 0 discriminator 2
 6727 0028 104B     		ldr	r3, .L591
 6728 002a 1B68     		ldr	r3, [r3]
 6729 002c 022B     		cmp	r3, #2
 6730 002e 09D1     		bne	.L586
 6731              	.LBB588:
 6732              	.LBB589:
 465:Firmware/Drivers/CMSIS/Include/cmsis_gcc.h ****   return(result);
 6733              		.loc 2 465 0 is_stmt 1 discriminator 3
 6734              		.syntax unified
 6735              	@ 465 "Firmware/Drivers/CMSIS/Include/cmsis_gcc.h" 1
 6736 0030 EFF31183 		MRS r3, basepri
 6737              	@ 0 "" 2
 6738              		.thumb
 6739              		.syntax unified
 6740 0034 FB60     		str	r3, [r7, #12]
 6741              		.loc 2 466 0 discriminator 3
ARM GAS  /tmp/ccB5BhZs.s 			page 158


 6742 0036 FB68     		ldr	r3, [r7, #12]
 6743              	.LBE589:
 6744              	.LBE588:
 6745              		.loc 1 1386 0 discriminator 3
 6746 0038 002B     		cmp	r3, #0
 6747 003a 03D0     		beq	.L586
 6748              	.L584:
1387:Firmware/Middlewares/Third_Party/FreeRTOS/Source/CMSIS_RTOS_V2/cmsis_os2.c ****     stat = osErrorISR;
 6749              		.loc 1 1387 0
 6750 003c 6FF00503 		mvn	r3, #5
 6751 0040 FB61     		str	r3, [r7, #28]
 6752 0042 0EE0     		b	.L588
 6753              	.L586:
1388:Firmware/Middlewares/Third_Party/FreeRTOS/Source/CMSIS_RTOS_V2/cmsis_os2.c ****   }
1389:Firmware/Middlewares/Third_Party/FreeRTOS/Source/CMSIS_RTOS_V2/cmsis_os2.c ****   else if (hMutex == NULL) {
 6754              		.loc 1 1389 0
 6755 0044 BB69     		ldr	r3, [r7, #24]
 6756 0046 002B     		cmp	r3, #0
 6757 0048 03D1     		bne	.L589
1390:Firmware/Middlewares/Third_Party/FreeRTOS/Source/CMSIS_RTOS_V2/cmsis_os2.c ****     stat = osErrorParameter;
 6758              		.loc 1 1390 0
 6759 004a 6FF00303 		mvn	r3, #3
 6760 004e FB61     		str	r3, [r7, #28]
 6761 0050 07E0     		b	.L588
 6762              	.L589:
1391:Firmware/Middlewares/Third_Party/FreeRTOS/Source/CMSIS_RTOS_V2/cmsis_os2.c ****   }
1392:Firmware/Middlewares/Third_Party/FreeRTOS/Source/CMSIS_RTOS_V2/cmsis_os2.c ****   else {
1393:Firmware/Middlewares/Third_Party/FreeRTOS/Source/CMSIS_RTOS_V2/cmsis_os2.c ****     #if (configQUEUE_REGISTRY_SIZE > 0)
1394:Firmware/Middlewares/Third_Party/FreeRTOS/Source/CMSIS_RTOS_V2/cmsis_os2.c ****     vQueueUnregisterQueue (hMutex);
 6763              		.loc 1 1394 0
 6764 0052 B869     		ldr	r0, [r7, #24]
 6765 0054 FFF7FEFF 		bl	vQueueUnregisterQueue
1395:Firmware/Middlewares/Third_Party/FreeRTOS/Source/CMSIS_RTOS_V2/cmsis_os2.c ****     #endif
1396:Firmware/Middlewares/Third_Party/FreeRTOS/Source/CMSIS_RTOS_V2/cmsis_os2.c ****     stat = osOK;
 6766              		.loc 1 1396 0
 6767 0058 0023     		movs	r3, #0
 6768 005a FB61     		str	r3, [r7, #28]
1397:Firmware/Middlewares/Third_Party/FreeRTOS/Source/CMSIS_RTOS_V2/cmsis_os2.c ****     vSemaphoreDelete (hMutex);
 6769              		.loc 1 1397 0
 6770 005c B869     		ldr	r0, [r7, #24]
 6771 005e FFF7FEFF 		bl	vQueueDelete
 6772              	.L588:
1398:Firmware/Middlewares/Third_Party/FreeRTOS/Source/CMSIS_RTOS_V2/cmsis_os2.c ****   }
1399:Firmware/Middlewares/Third_Party/FreeRTOS/Source/CMSIS_RTOS_V2/cmsis_os2.c **** #else
1400:Firmware/Middlewares/Third_Party/FreeRTOS/Source/CMSIS_RTOS_V2/cmsis_os2.c ****   stat = osError;
1401:Firmware/Middlewares/Third_Party/FreeRTOS/Source/CMSIS_RTOS_V2/cmsis_os2.c **** #endif
1402:Firmware/Middlewares/Third_Party/FreeRTOS/Source/CMSIS_RTOS_V2/cmsis_os2.c **** 
1403:Firmware/Middlewares/Third_Party/FreeRTOS/Source/CMSIS_RTOS_V2/cmsis_os2.c ****   return (stat);
 6773              		.loc 1 1403 0
 6774 0062 FB69     		ldr	r3, [r7, #28]
1404:Firmware/Middlewares/Third_Party/FreeRTOS/Source/CMSIS_RTOS_V2/cmsis_os2.c **** }
 6775              		.loc 1 1404 0
 6776 0064 1846     		mov	r0, r3
 6777 0066 2037     		adds	r7, r7, #32
 6778              	.LCFI246:
 6779              		.cfi_def_cfa_offset 8
 6780 0068 BD46     		mov	sp, r7
ARM GAS  /tmp/ccB5BhZs.s 			page 159


 6781              	.LCFI247:
 6782              		.cfi_def_cfa_register 13
 6783              		@ sp needed
 6784 006a 80BD     		pop	{r7, pc}
 6785              	.L592:
 6786              		.align	2
 6787              	.L591:
 6788 006c 00000000 		.word	KernelState
 6789              		.cfi_endproc
 6790              	.LFE155:
 6792              		.section	.text.osSemaphoreNew,"ax",%progbits
 6793              		.align	1
 6794              		.global	osSemaphoreNew
 6795              		.syntax unified
 6796              		.thumb
 6797              		.thumb_func
 6798              		.fpu fpv4-sp-d16
 6800              	osSemaphoreNew:
 6801              	.LFB156:
1405:Firmware/Middlewares/Third_Party/FreeRTOS/Source/CMSIS_RTOS_V2/cmsis_os2.c **** 
1406:Firmware/Middlewares/Third_Party/FreeRTOS/Source/CMSIS_RTOS_V2/cmsis_os2.c **** /*---------------------------------------------------------------------------*/
1407:Firmware/Middlewares/Third_Party/FreeRTOS/Source/CMSIS_RTOS_V2/cmsis_os2.c **** 
1408:Firmware/Middlewares/Third_Party/FreeRTOS/Source/CMSIS_RTOS_V2/cmsis_os2.c **** osSemaphoreId_t osSemaphoreNew (uint32_t max_count, uint32_t initial_count, const osSemaphoreAttr_t
 6802              		.loc 1 1408 0
 6803              		.cfi_startproc
 6804              		@ args = 0, pretend = 0, frame = 40
 6805              		@ frame_needed = 1, uses_anonymous_args = 0
 6806 0000 80B5     		push	{r7, lr}
 6807              	.LCFI248:
 6808              		.cfi_def_cfa_offset 8
 6809              		.cfi_offset 7, -8
 6810              		.cfi_offset 14, -4
 6811 0002 8CB0     		sub	sp, sp, #48
 6812              	.LCFI249:
 6813              		.cfi_def_cfa_offset 56
 6814 0004 02AF     		add	r7, sp, #8
 6815              	.LCFI250:
 6816              		.cfi_def_cfa 7, 48
 6817 0006 F860     		str	r0, [r7, #12]
 6818 0008 B960     		str	r1, [r7, #8]
 6819 000a 7A60     		str	r2, [r7, #4]
1409:Firmware/Middlewares/Third_Party/FreeRTOS/Source/CMSIS_RTOS_V2/cmsis_os2.c ****   SemaphoreHandle_t hSemaphore;
1410:Firmware/Middlewares/Third_Party/FreeRTOS/Source/CMSIS_RTOS_V2/cmsis_os2.c ****   int32_t mem;
1411:Firmware/Middlewares/Third_Party/FreeRTOS/Source/CMSIS_RTOS_V2/cmsis_os2.c ****   #if (configQUEUE_REGISTRY_SIZE > 0)
1412:Firmware/Middlewares/Third_Party/FreeRTOS/Source/CMSIS_RTOS_V2/cmsis_os2.c ****   const char *name;
1413:Firmware/Middlewares/Third_Party/FreeRTOS/Source/CMSIS_RTOS_V2/cmsis_os2.c ****   #endif
1414:Firmware/Middlewares/Third_Party/FreeRTOS/Source/CMSIS_RTOS_V2/cmsis_os2.c **** 
1415:Firmware/Middlewares/Third_Party/FreeRTOS/Source/CMSIS_RTOS_V2/cmsis_os2.c ****   hSemaphore = NULL;
 6820              		.loc 1 1415 0
 6821 000c 0023     		movs	r3, #0
 6822 000e 7B62     		str	r3, [r7, #36]
 6823              	.LBB590:
 6824              	.LBB591:
 209:Firmware/Drivers/CMSIS/Include/cmsis_gcc.h ****   return(result);
 6825              		.loc 2 209 0
 6826              		.syntax unified
 6827              	@ 209 "Firmware/Drivers/CMSIS/Include/cmsis_gcc.h" 1
ARM GAS  /tmp/ccB5BhZs.s 			page 160


 6828 0010 EFF30583 		MRS r3, ipsr
 6829              	@ 0 "" 2
 6830              		.thumb
 6831              		.syntax unified
 6832 0014 BB61     		str	r3, [r7, #24]
 210:Firmware/Drivers/CMSIS/Include/cmsis_gcc.h **** }
 6833              		.loc 2 210 0
 6834 0016 BB69     		ldr	r3, [r7, #24]
 6835              	.LBE591:
 6836              	.LBE590:
1416:Firmware/Middlewares/Third_Party/FreeRTOS/Source/CMSIS_RTOS_V2/cmsis_os2.c **** 
1417:Firmware/Middlewares/Third_Party/FreeRTOS/Source/CMSIS_RTOS_V2/cmsis_os2.c ****   if (!IS_IRQ() && (max_count > 0U) && (initial_count <= max_count)) {
 6837              		.loc 1 1417 0
 6838 0018 002B     		cmp	r3, #0
 6839 001a 40F08880 		bne	.L595
 6840              	.LBB592:
 6841              	.LBB593:
 386:Firmware/Drivers/CMSIS/Include/cmsis_gcc.h ****   return(result);
 6842              		.loc 2 386 0 discriminator 1
 6843              		.syntax unified
 6844              	@ 386 "Firmware/Drivers/CMSIS/Include/cmsis_gcc.h" 1
 6845 001e EFF31083 		MRS r3, primask
 6846              	@ 0 "" 2
 6847              		.thumb
 6848              		.syntax unified
 6849 0022 7B61     		str	r3, [r7, #20]
 387:Firmware/Drivers/CMSIS/Include/cmsis_gcc.h **** }
 6850              		.loc 2 387 0 discriminator 1
 6851 0024 7B69     		ldr	r3, [r7, #20]
 6852              	.LBE593:
 6853              	.LBE592:
 6854              		.loc 1 1417 0 discriminator 1
 6855 0026 002B     		cmp	r3, #0
 6856 0028 40F08180 		bne	.L595
 6857              		.loc 1 1417 0 is_stmt 0 discriminator 2
 6858 002c 424B     		ldr	r3, .L612
 6859 002e 1B68     		ldr	r3, [r3]
 6860 0030 022B     		cmp	r3, #2
 6861 0032 05D1     		bne	.L597
 6862              	.LBB594:
 6863              	.LBB595:
 465:Firmware/Drivers/CMSIS/Include/cmsis_gcc.h ****   return(result);
 6864              		.loc 2 465 0 is_stmt 1 discriminator 4
 6865              		.syntax unified
 6866              	@ 465 "Firmware/Drivers/CMSIS/Include/cmsis_gcc.h" 1
 6867 0034 EFF31183 		MRS r3, basepri
 6868              	@ 0 "" 2
 6869              		.thumb
 6870              		.syntax unified
 6871 0038 3B61     		str	r3, [r7, #16]
 6872              		.loc 2 466 0 discriminator 4
 6873 003a 3B69     		ldr	r3, [r7, #16]
 6874              	.LBE595:
 6875              	.LBE594:
 6876              		.loc 1 1417 0 discriminator 4
 6877 003c 002B     		cmp	r3, #0
 6878 003e 76D1     		bne	.L595
ARM GAS  /tmp/ccB5BhZs.s 			page 161


 6879              	.L597:
 6880              		.loc 1 1417 0 is_stmt 0 discriminator 5
 6881 0040 FB68     		ldr	r3, [r7, #12]
 6882 0042 002B     		cmp	r3, #0
 6883 0044 73D0     		beq	.L595
 6884              		.loc 1 1417 0 discriminator 6
 6885 0046 BA68     		ldr	r2, [r7, #8]
 6886 0048 FB68     		ldr	r3, [r7, #12]
 6887 004a 9A42     		cmp	r2, r3
 6888 004c 6FD8     		bhi	.L595
1418:Firmware/Middlewares/Third_Party/FreeRTOS/Source/CMSIS_RTOS_V2/cmsis_os2.c ****     mem = -1;
 6889              		.loc 1 1418 0 is_stmt 1
 6890 004e 4FF0FF33 		mov	r3, #-1
 6891 0052 3B62     		str	r3, [r7, #32]
1419:Firmware/Middlewares/Third_Party/FreeRTOS/Source/CMSIS_RTOS_V2/cmsis_os2.c **** 
1420:Firmware/Middlewares/Third_Party/FreeRTOS/Source/CMSIS_RTOS_V2/cmsis_os2.c ****     if (attr != NULL) {
 6892              		.loc 1 1420 0
 6893 0054 7B68     		ldr	r3, [r7, #4]
 6894 0056 002B     		cmp	r3, #0
 6895 0058 15D0     		beq	.L599
1421:Firmware/Middlewares/Third_Party/FreeRTOS/Source/CMSIS_RTOS_V2/cmsis_os2.c ****       if ((attr->cb_mem != NULL) && (attr->cb_size >= sizeof(StaticSemaphore_t))) {
 6896              		.loc 1 1421 0
 6897 005a 7B68     		ldr	r3, [r7, #4]
 6898 005c 9B68     		ldr	r3, [r3, #8]
 6899 005e 002B     		cmp	r3, #0
 6900 0060 06D0     		beq	.L600
 6901              		.loc 1 1421 0 is_stmt 0 discriminator 1
 6902 0062 7B68     		ldr	r3, [r7, #4]
 6903 0064 DB68     		ldr	r3, [r3, #12]
 6904 0066 4F2B     		cmp	r3, #79
 6905 0068 02D9     		bls	.L600
1422:Firmware/Middlewares/Third_Party/FreeRTOS/Source/CMSIS_RTOS_V2/cmsis_os2.c ****         mem = 1;
 6906              		.loc 1 1422 0 is_stmt 1
 6907 006a 0123     		movs	r3, #1
 6908 006c 3B62     		str	r3, [r7, #32]
 6909 006e 0CE0     		b	.L602
 6910              	.L600:
1423:Firmware/Middlewares/Third_Party/FreeRTOS/Source/CMSIS_RTOS_V2/cmsis_os2.c ****       }
1424:Firmware/Middlewares/Third_Party/FreeRTOS/Source/CMSIS_RTOS_V2/cmsis_os2.c ****       else {
1425:Firmware/Middlewares/Third_Party/FreeRTOS/Source/CMSIS_RTOS_V2/cmsis_os2.c ****         if ((attr->cb_mem == NULL) && (attr->cb_size == 0U)) {
 6911              		.loc 1 1425 0
 6912 0070 7B68     		ldr	r3, [r7, #4]
 6913 0072 9B68     		ldr	r3, [r3, #8]
 6914 0074 002B     		cmp	r3, #0
 6915 0076 08D1     		bne	.L602
 6916              		.loc 1 1425 0 is_stmt 0 discriminator 1
 6917 0078 7B68     		ldr	r3, [r7, #4]
 6918 007a DB68     		ldr	r3, [r3, #12]
 6919 007c 002B     		cmp	r3, #0
 6920 007e 04D1     		bne	.L602
1426:Firmware/Middlewares/Third_Party/FreeRTOS/Source/CMSIS_RTOS_V2/cmsis_os2.c ****           mem = 0;
 6921              		.loc 1 1426 0 is_stmt 1
 6922 0080 0023     		movs	r3, #0
 6923 0082 3B62     		str	r3, [r7, #32]
 6924 0084 01E0     		b	.L602
 6925              	.L599:
1427:Firmware/Middlewares/Third_Party/FreeRTOS/Source/CMSIS_RTOS_V2/cmsis_os2.c ****         }
ARM GAS  /tmp/ccB5BhZs.s 			page 162


1428:Firmware/Middlewares/Third_Party/FreeRTOS/Source/CMSIS_RTOS_V2/cmsis_os2.c ****       }
1429:Firmware/Middlewares/Third_Party/FreeRTOS/Source/CMSIS_RTOS_V2/cmsis_os2.c ****     }
1430:Firmware/Middlewares/Third_Party/FreeRTOS/Source/CMSIS_RTOS_V2/cmsis_os2.c ****     else {
1431:Firmware/Middlewares/Third_Party/FreeRTOS/Source/CMSIS_RTOS_V2/cmsis_os2.c ****       mem = 0;
 6926              		.loc 1 1431 0
 6927 0086 0023     		movs	r3, #0
 6928 0088 3B62     		str	r3, [r7, #32]
 6929              	.L602:
1432:Firmware/Middlewares/Third_Party/FreeRTOS/Source/CMSIS_RTOS_V2/cmsis_os2.c ****     }
1433:Firmware/Middlewares/Third_Party/FreeRTOS/Source/CMSIS_RTOS_V2/cmsis_os2.c **** 
1434:Firmware/Middlewares/Third_Party/FreeRTOS/Source/CMSIS_RTOS_V2/cmsis_os2.c ****     if (mem != -1) {
 6930              		.loc 1 1434 0
 6931 008a 3B6A     		ldr	r3, [r7, #32]
 6932 008c B3F1FF3F 		cmp	r3, #-1
 6933 0090 4DD0     		beq	.L595
1435:Firmware/Middlewares/Third_Party/FreeRTOS/Source/CMSIS_RTOS_V2/cmsis_os2.c ****       if (max_count == 1U) {
 6934              		.loc 1 1435 0
 6935 0092 FB68     		ldr	r3, [r7, #12]
 6936 0094 012B     		cmp	r3, #1
 6937 0096 29D1     		bne	.L603
1436:Firmware/Middlewares/Third_Party/FreeRTOS/Source/CMSIS_RTOS_V2/cmsis_os2.c ****         if (mem == 1) {
 6938              		.loc 1 1436 0
 6939 0098 3B6A     		ldr	r3, [r7, #32]
 6940 009a 012B     		cmp	r3, #1
 6941 009c 0BD1     		bne	.L604
1437:Firmware/Middlewares/Third_Party/FreeRTOS/Source/CMSIS_RTOS_V2/cmsis_os2.c ****           hSemaphore = xSemaphoreCreateBinaryStatic ((StaticSemaphore_t *)attr->cb_mem);
 6942              		.loc 1 1437 0
 6943 009e 7B68     		ldr	r3, [r7, #4]
 6944 00a0 9A68     		ldr	r2, [r3, #8]
 6945 00a2 0323     		movs	r3, #3
 6946 00a4 0093     		str	r3, [sp]
 6947 00a6 1346     		mov	r3, r2
 6948 00a8 0022     		movs	r2, #0
 6949 00aa 0021     		movs	r1, #0
 6950 00ac 0120     		movs	r0, #1
 6951 00ae FFF7FEFF 		bl	xQueueGenericCreateStatic
 6952 00b2 7862     		str	r0, [r7, #36]
 6953 00b4 05E0     		b	.L605
 6954              	.L604:
1438:Firmware/Middlewares/Third_Party/FreeRTOS/Source/CMSIS_RTOS_V2/cmsis_os2.c ****         }
1439:Firmware/Middlewares/Third_Party/FreeRTOS/Source/CMSIS_RTOS_V2/cmsis_os2.c ****         else {
1440:Firmware/Middlewares/Third_Party/FreeRTOS/Source/CMSIS_RTOS_V2/cmsis_os2.c ****           hSemaphore = xSemaphoreCreateBinary();
 6955              		.loc 1 1440 0
 6956 00b6 0322     		movs	r2, #3
 6957 00b8 0021     		movs	r1, #0
 6958 00ba 0120     		movs	r0, #1
 6959 00bc FFF7FEFF 		bl	xQueueGenericCreate
 6960 00c0 7862     		str	r0, [r7, #36]
 6961              	.L605:
1441:Firmware/Middlewares/Third_Party/FreeRTOS/Source/CMSIS_RTOS_V2/cmsis_os2.c ****         }
1442:Firmware/Middlewares/Third_Party/FreeRTOS/Source/CMSIS_RTOS_V2/cmsis_os2.c **** 
1443:Firmware/Middlewares/Third_Party/FreeRTOS/Source/CMSIS_RTOS_V2/cmsis_os2.c ****         if ((hSemaphore != NULL) && (initial_count != 0U)) {
 6962              		.loc 1 1443 0
 6963 00c2 7B6A     		ldr	r3, [r7, #36]
 6964 00c4 002B     		cmp	r3, #0
 6965 00c6 22D0     		beq	.L607
 6966              		.loc 1 1443 0 is_stmt 0 discriminator 1
ARM GAS  /tmp/ccB5BhZs.s 			page 163


 6967 00c8 BB68     		ldr	r3, [r7, #8]
 6968 00ca 002B     		cmp	r3, #0
 6969 00cc 1FD0     		beq	.L607
1444:Firmware/Middlewares/Third_Party/FreeRTOS/Source/CMSIS_RTOS_V2/cmsis_os2.c ****           if (xSemaphoreGive (hSemaphore) != pdPASS) {
 6970              		.loc 1 1444 0 is_stmt 1
 6971 00ce 0023     		movs	r3, #0
 6972 00d0 0022     		movs	r2, #0
 6973 00d2 0021     		movs	r1, #0
 6974 00d4 786A     		ldr	r0, [r7, #36]
 6975 00d6 FFF7FEFF 		bl	xQueueGenericSend
 6976 00da 0346     		mov	r3, r0
 6977 00dc 012B     		cmp	r3, #1
 6978 00de 16D0     		beq	.L607
1445:Firmware/Middlewares/Third_Party/FreeRTOS/Source/CMSIS_RTOS_V2/cmsis_os2.c ****             vSemaphoreDelete (hSemaphore);
 6979              		.loc 1 1445 0
 6980 00e0 786A     		ldr	r0, [r7, #36]
 6981 00e2 FFF7FEFF 		bl	vQueueDelete
1446:Firmware/Middlewares/Third_Party/FreeRTOS/Source/CMSIS_RTOS_V2/cmsis_os2.c ****             hSemaphore = NULL;
 6982              		.loc 1 1446 0
 6983 00e6 0023     		movs	r3, #0
 6984 00e8 7B62     		str	r3, [r7, #36]
 6985 00ea 10E0     		b	.L607
 6986              	.L603:
1447:Firmware/Middlewares/Third_Party/FreeRTOS/Source/CMSIS_RTOS_V2/cmsis_os2.c ****           }
1448:Firmware/Middlewares/Third_Party/FreeRTOS/Source/CMSIS_RTOS_V2/cmsis_os2.c ****         }
1449:Firmware/Middlewares/Third_Party/FreeRTOS/Source/CMSIS_RTOS_V2/cmsis_os2.c ****       }
1450:Firmware/Middlewares/Third_Party/FreeRTOS/Source/CMSIS_RTOS_V2/cmsis_os2.c ****       else {
1451:Firmware/Middlewares/Third_Party/FreeRTOS/Source/CMSIS_RTOS_V2/cmsis_os2.c ****         if (mem == 1) {
 6987              		.loc 1 1451 0
 6988 00ec 3B6A     		ldr	r3, [r7, #32]
 6989 00ee 012B     		cmp	r3, #1
 6990 00f0 08D1     		bne	.L608
1452:Firmware/Middlewares/Third_Party/FreeRTOS/Source/CMSIS_RTOS_V2/cmsis_os2.c ****           hSemaphore = xSemaphoreCreateCountingStatic (max_count, initial_count, (StaticSemaphore_t
 6991              		.loc 1 1452 0
 6992 00f2 7B68     		ldr	r3, [r7, #4]
 6993 00f4 9B68     		ldr	r3, [r3, #8]
 6994 00f6 1A46     		mov	r2, r3
 6995 00f8 B968     		ldr	r1, [r7, #8]
 6996 00fa F868     		ldr	r0, [r7, #12]
 6997 00fc FFF7FEFF 		bl	xQueueCreateCountingSemaphoreStatic
 6998 0100 7862     		str	r0, [r7, #36]
 6999 0102 04E0     		b	.L607
 7000              	.L608:
1453:Firmware/Middlewares/Third_Party/FreeRTOS/Source/CMSIS_RTOS_V2/cmsis_os2.c ****         }
1454:Firmware/Middlewares/Third_Party/FreeRTOS/Source/CMSIS_RTOS_V2/cmsis_os2.c ****         else {
1455:Firmware/Middlewares/Third_Party/FreeRTOS/Source/CMSIS_RTOS_V2/cmsis_os2.c ****           hSemaphore = xSemaphoreCreateCounting (max_count, initial_count);
 7001              		.loc 1 1455 0
 7002 0104 B968     		ldr	r1, [r7, #8]
 7003 0106 F868     		ldr	r0, [r7, #12]
 7004 0108 FFF7FEFF 		bl	xQueueCreateCountingSemaphore
 7005 010c 7862     		str	r0, [r7, #36]
 7006              	.L607:
1456:Firmware/Middlewares/Third_Party/FreeRTOS/Source/CMSIS_RTOS_V2/cmsis_os2.c ****         }
1457:Firmware/Middlewares/Third_Party/FreeRTOS/Source/CMSIS_RTOS_V2/cmsis_os2.c ****       }
1458:Firmware/Middlewares/Third_Party/FreeRTOS/Source/CMSIS_RTOS_V2/cmsis_os2.c **** 
1459:Firmware/Middlewares/Third_Party/FreeRTOS/Source/CMSIS_RTOS_V2/cmsis_os2.c ****       #if (configQUEUE_REGISTRY_SIZE > 0)
1460:Firmware/Middlewares/Third_Party/FreeRTOS/Source/CMSIS_RTOS_V2/cmsis_os2.c ****       if (hSemaphore != NULL) {
ARM GAS  /tmp/ccB5BhZs.s 			page 164


 7007              		.loc 1 1460 0
 7008 010e 7B6A     		ldr	r3, [r7, #36]
 7009 0110 002B     		cmp	r3, #0
 7010 0112 0CD0     		beq	.L595
1461:Firmware/Middlewares/Third_Party/FreeRTOS/Source/CMSIS_RTOS_V2/cmsis_os2.c ****         if (attr != NULL) {
 7011              		.loc 1 1461 0
 7012 0114 7B68     		ldr	r3, [r7, #4]
 7013 0116 002B     		cmp	r3, #0
 7014 0118 03D0     		beq	.L609
1462:Firmware/Middlewares/Third_Party/FreeRTOS/Source/CMSIS_RTOS_V2/cmsis_os2.c ****           name = attr->name;
 7015              		.loc 1 1462 0
 7016 011a 7B68     		ldr	r3, [r7, #4]
 7017 011c 1B68     		ldr	r3, [r3]
 7018 011e FB61     		str	r3, [r7, #28]
 7019 0120 01E0     		b	.L610
 7020              	.L609:
1463:Firmware/Middlewares/Third_Party/FreeRTOS/Source/CMSIS_RTOS_V2/cmsis_os2.c ****         } else {
1464:Firmware/Middlewares/Third_Party/FreeRTOS/Source/CMSIS_RTOS_V2/cmsis_os2.c ****           name = NULL;
 7021              		.loc 1 1464 0
 7022 0122 0023     		movs	r3, #0
 7023 0124 FB61     		str	r3, [r7, #28]
 7024              	.L610:
1465:Firmware/Middlewares/Third_Party/FreeRTOS/Source/CMSIS_RTOS_V2/cmsis_os2.c ****         }
1466:Firmware/Middlewares/Third_Party/FreeRTOS/Source/CMSIS_RTOS_V2/cmsis_os2.c ****         vQueueAddToRegistry (hSemaphore, name);
 7025              		.loc 1 1466 0
 7026 0126 F969     		ldr	r1, [r7, #28]
 7027 0128 786A     		ldr	r0, [r7, #36]
 7028 012a FFF7FEFF 		bl	vQueueAddToRegistry
 7029              	.L595:
1467:Firmware/Middlewares/Third_Party/FreeRTOS/Source/CMSIS_RTOS_V2/cmsis_os2.c ****       }
1468:Firmware/Middlewares/Third_Party/FreeRTOS/Source/CMSIS_RTOS_V2/cmsis_os2.c ****       #endif
1469:Firmware/Middlewares/Third_Party/FreeRTOS/Source/CMSIS_RTOS_V2/cmsis_os2.c ****     }
1470:Firmware/Middlewares/Third_Party/FreeRTOS/Source/CMSIS_RTOS_V2/cmsis_os2.c ****   }
1471:Firmware/Middlewares/Third_Party/FreeRTOS/Source/CMSIS_RTOS_V2/cmsis_os2.c **** 
1472:Firmware/Middlewares/Third_Party/FreeRTOS/Source/CMSIS_RTOS_V2/cmsis_os2.c ****   return ((osSemaphoreId_t)hSemaphore);
 7030              		.loc 1 1472 0
 7031 012e 7B6A     		ldr	r3, [r7, #36]
1473:Firmware/Middlewares/Third_Party/FreeRTOS/Source/CMSIS_RTOS_V2/cmsis_os2.c **** }
 7032              		.loc 1 1473 0
 7033 0130 1846     		mov	r0, r3
 7034 0132 2837     		adds	r7, r7, #40
 7035              	.LCFI251:
 7036              		.cfi_def_cfa_offset 8
 7037 0134 BD46     		mov	sp, r7
 7038              	.LCFI252:
 7039              		.cfi_def_cfa_register 13
 7040              		@ sp needed
 7041 0136 80BD     		pop	{r7, pc}
 7042              	.L613:
 7043              		.align	2
 7044              	.L612:
 7045 0138 00000000 		.word	KernelState
 7046              		.cfi_endproc
 7047              	.LFE156:
 7049              		.section	.text.osSemaphoreAcquire,"ax",%progbits
 7050              		.align	1
 7051              		.global	osSemaphoreAcquire
ARM GAS  /tmp/ccB5BhZs.s 			page 165


 7052              		.syntax unified
 7053              		.thumb
 7054              		.thumb_func
 7055              		.fpu fpv4-sp-d16
 7057              	osSemaphoreAcquire:
 7058              	.LFB157:
1474:Firmware/Middlewares/Third_Party/FreeRTOS/Source/CMSIS_RTOS_V2/cmsis_os2.c **** 
1475:Firmware/Middlewares/Third_Party/FreeRTOS/Source/CMSIS_RTOS_V2/cmsis_os2.c **** osStatus_t osSemaphoreAcquire (osSemaphoreId_t semaphore_id, uint32_t timeout) {
 7059              		.loc 1 1475 0
 7060              		.cfi_startproc
 7061              		@ args = 0, pretend = 0, frame = 32
 7062              		@ frame_needed = 1, uses_anonymous_args = 0
 7063 0000 80B5     		push	{r7, lr}
 7064              	.LCFI253:
 7065              		.cfi_def_cfa_offset 8
 7066              		.cfi_offset 7, -8
 7067              		.cfi_offset 14, -4
 7068 0002 88B0     		sub	sp, sp, #32
 7069              	.LCFI254:
 7070              		.cfi_def_cfa_offset 40
 7071 0004 00AF     		add	r7, sp, #0
 7072              	.LCFI255:
 7073              		.cfi_def_cfa_register 7
 7074 0006 7860     		str	r0, [r7, #4]
 7075 0008 3960     		str	r1, [r7]
1476:Firmware/Middlewares/Third_Party/FreeRTOS/Source/CMSIS_RTOS_V2/cmsis_os2.c ****   SemaphoreHandle_t hSemaphore = (SemaphoreHandle_t)semaphore_id;
 7076              		.loc 1 1476 0
 7077 000a 7B68     		ldr	r3, [r7, #4]
 7078 000c BB61     		str	r3, [r7, #24]
1477:Firmware/Middlewares/Third_Party/FreeRTOS/Source/CMSIS_RTOS_V2/cmsis_os2.c ****   osStatus_t stat;
1478:Firmware/Middlewares/Third_Party/FreeRTOS/Source/CMSIS_RTOS_V2/cmsis_os2.c ****   BaseType_t yield;
1479:Firmware/Middlewares/Third_Party/FreeRTOS/Source/CMSIS_RTOS_V2/cmsis_os2.c **** 
1480:Firmware/Middlewares/Third_Party/FreeRTOS/Source/CMSIS_RTOS_V2/cmsis_os2.c ****   stat = osOK;
 7079              		.loc 1 1480 0
 7080 000e 0023     		movs	r3, #0
 7081 0010 FB61     		str	r3, [r7, #28]
1481:Firmware/Middlewares/Third_Party/FreeRTOS/Source/CMSIS_RTOS_V2/cmsis_os2.c **** 
1482:Firmware/Middlewares/Third_Party/FreeRTOS/Source/CMSIS_RTOS_V2/cmsis_os2.c ****   if (hSemaphore == NULL) {
 7082              		.loc 1 1482 0
 7083 0012 BB69     		ldr	r3, [r7, #24]
 7084 0014 002B     		cmp	r3, #0
 7085 0016 03D1     		bne	.L615
1483:Firmware/Middlewares/Third_Party/FreeRTOS/Source/CMSIS_RTOS_V2/cmsis_os2.c ****     stat = osErrorParameter;
 7086              		.loc 1 1483 0
 7087 0018 6FF00303 		mvn	r3, #3
 7088 001c FB61     		str	r3, [r7, #28]
 7089 001e 4BE0     		b	.L616
 7090              	.L615:
 7091              	.LBB596:
 7092              	.LBB597:
 209:Firmware/Drivers/CMSIS/Include/cmsis_gcc.h ****   return(result);
 7093              		.loc 2 209 0
 7094              		.syntax unified
 7095              	@ 209 "Firmware/Drivers/CMSIS/Include/cmsis_gcc.h" 1
 7096 0020 EFF30583 		MRS r3, ipsr
 7097              	@ 0 "" 2
 7098              		.thumb
ARM GAS  /tmp/ccB5BhZs.s 			page 166


 7099              		.syntax unified
 7100 0024 7B61     		str	r3, [r7, #20]
 210:Firmware/Drivers/CMSIS/Include/cmsis_gcc.h **** }
 7101              		.loc 2 210 0
 7102 0026 7B69     		ldr	r3, [r7, #20]
 7103              	.LBE597:
 7104              	.LBE596:
1484:Firmware/Middlewares/Third_Party/FreeRTOS/Source/CMSIS_RTOS_V2/cmsis_os2.c ****   }
1485:Firmware/Middlewares/Third_Party/FreeRTOS/Source/CMSIS_RTOS_V2/cmsis_os2.c ****   else if (IS_IRQ()) {
 7105              		.loc 1 1485 0
 7106 0028 002B     		cmp	r3, #0
 7107 002a 0FD1     		bne	.L618
 7108              	.LBB598:
 7109              	.LBB599:
 386:Firmware/Drivers/CMSIS/Include/cmsis_gcc.h ****   return(result);
 7110              		.loc 2 386 0 discriminator 1
 7111              		.syntax unified
 7112              	@ 386 "Firmware/Drivers/CMSIS/Include/cmsis_gcc.h" 1
 7113 002c EFF31083 		MRS r3, primask
 7114              	@ 0 "" 2
 7115              		.thumb
 7116              		.syntax unified
 7117 0030 3B61     		str	r3, [r7, #16]
 387:Firmware/Drivers/CMSIS/Include/cmsis_gcc.h **** }
 7118              		.loc 2 387 0 discriminator 1
 7119 0032 3B69     		ldr	r3, [r7, #16]
 7120              	.LBE599:
 7121              	.LBE598:
 7122              		.loc 1 1485 0 discriminator 1
 7123 0034 002B     		cmp	r3, #0
 7124 0036 09D1     		bne	.L618
 7125              		.loc 1 1485 0 is_stmt 0 discriminator 2
 7126 0038 224B     		ldr	r3, .L628
 7127 003a 1B68     		ldr	r3, [r3]
 7128 003c 022B     		cmp	r3, #2
 7129 003e 28D1     		bne	.L620
 7130              	.LBB600:
 7131              	.LBB601:
 465:Firmware/Drivers/CMSIS/Include/cmsis_gcc.h ****   return(result);
 7132              		.loc 2 465 0 is_stmt 1 discriminator 3
 7133              		.syntax unified
 7134              	@ 465 "Firmware/Drivers/CMSIS/Include/cmsis_gcc.h" 1
 7135 0040 EFF31183 		MRS r3, basepri
 7136              	@ 0 "" 2
 7137              		.thumb
 7138              		.syntax unified
 7139 0044 FB60     		str	r3, [r7, #12]
 7140              		.loc 2 466 0 discriminator 3
 7141 0046 FB68     		ldr	r3, [r7, #12]
 7142              	.LBE601:
 7143              	.LBE600:
 7144              		.loc 1 1485 0 discriminator 3
 7145 0048 002B     		cmp	r3, #0
 7146 004a 22D0     		beq	.L620
 7147              	.L618:
1486:Firmware/Middlewares/Third_Party/FreeRTOS/Source/CMSIS_RTOS_V2/cmsis_os2.c ****     if (timeout != 0U) {
 7148              		.loc 1 1486 0
ARM GAS  /tmp/ccB5BhZs.s 			page 167


 7149 004c 3B68     		ldr	r3, [r7]
 7150 004e 002B     		cmp	r3, #0
 7151 0050 03D0     		beq	.L622
1487:Firmware/Middlewares/Third_Party/FreeRTOS/Source/CMSIS_RTOS_V2/cmsis_os2.c ****       stat = osErrorParameter;
 7152              		.loc 1 1487 0
 7153 0052 6FF00303 		mvn	r3, #3
 7154 0056 FB61     		str	r3, [r7, #28]
1486:Firmware/Middlewares/Third_Party/FreeRTOS/Source/CMSIS_RTOS_V2/cmsis_os2.c ****     if (timeout != 0U) {
 7155              		.loc 1 1486 0
 7156 0058 2DE0     		b	.L627
 7157              	.L622:
1488:Firmware/Middlewares/Third_Party/FreeRTOS/Source/CMSIS_RTOS_V2/cmsis_os2.c ****     }
1489:Firmware/Middlewares/Third_Party/FreeRTOS/Source/CMSIS_RTOS_V2/cmsis_os2.c ****     else {
1490:Firmware/Middlewares/Third_Party/FreeRTOS/Source/CMSIS_RTOS_V2/cmsis_os2.c ****       yield = pdFALSE;
 7158              		.loc 1 1490 0
 7159 005a 0023     		movs	r3, #0
 7160 005c BB60     		str	r3, [r7, #8]
1491:Firmware/Middlewares/Third_Party/FreeRTOS/Source/CMSIS_RTOS_V2/cmsis_os2.c **** 
1492:Firmware/Middlewares/Third_Party/FreeRTOS/Source/CMSIS_RTOS_V2/cmsis_os2.c ****       if (xSemaphoreTakeFromISR (hSemaphore, &yield) != pdPASS) {
 7161              		.loc 1 1492 0
 7162 005e 07F10803 		add	r3, r7, #8
 7163 0062 1A46     		mov	r2, r3
 7164 0064 0021     		movs	r1, #0
 7165 0066 B869     		ldr	r0, [r7, #24]
 7166 0068 FFF7FEFF 		bl	xQueueReceiveFromISR
 7167 006c 0346     		mov	r3, r0
 7168 006e 012B     		cmp	r3, #1
 7169 0070 03D0     		beq	.L624
1493:Firmware/Middlewares/Third_Party/FreeRTOS/Source/CMSIS_RTOS_V2/cmsis_os2.c ****         stat = osErrorResource;
 7170              		.loc 1 1493 0
 7171 0072 6FF00203 		mvn	r3, #2
 7172 0076 FB61     		str	r3, [r7, #28]
1486:Firmware/Middlewares/Third_Party/FreeRTOS/Source/CMSIS_RTOS_V2/cmsis_os2.c ****       stat = osErrorParameter;
 7173              		.loc 1 1486 0
 7174 0078 1DE0     		b	.L627
 7175              	.L624:
1494:Firmware/Middlewares/Third_Party/FreeRTOS/Source/CMSIS_RTOS_V2/cmsis_os2.c ****       } else {
1495:Firmware/Middlewares/Third_Party/FreeRTOS/Source/CMSIS_RTOS_V2/cmsis_os2.c ****         portYIELD_FROM_ISR (yield);
 7176              		.loc 1 1495 0
 7177 007a BB68     		ldr	r3, [r7, #8]
 7178 007c 002B     		cmp	r3, #0
 7179 007e 1AD0     		beq	.L627
 7180              		.loc 1 1495 0 is_stmt 0 discriminator 1
 7181 0080 114B     		ldr	r3, .L628+4
 7182 0082 4FF08052 		mov	r2, #268435456
 7183 0086 1A60     		str	r2, [r3]
 7184              		.syntax unified
 7185              	@ 1495 "Firmware/Middlewares/Third_Party/FreeRTOS/Source/CMSIS_RTOS_V2/cmsis_os2.c" 1
 7186 0088 BFF34F8F 		dsb
 7187              	@ 0 "" 2
 7188              	@ 1495 "Firmware/Middlewares/Third_Party/FreeRTOS/Source/CMSIS_RTOS_V2/cmsis_os2.c" 1
 7189 008c BFF36F8F 		isb
 7190              	@ 0 "" 2
1486:Firmware/Middlewares/Third_Party/FreeRTOS/Source/CMSIS_RTOS_V2/cmsis_os2.c ****       stat = osErrorParameter;
 7191              		.loc 1 1486 0 is_stmt 1 discriminator 1
 7192              		.thumb
 7193              		.syntax unified
ARM GAS  /tmp/ccB5BhZs.s 			page 168


 7194 0090 11E0     		b	.L627
 7195              	.L620:
1496:Firmware/Middlewares/Third_Party/FreeRTOS/Source/CMSIS_RTOS_V2/cmsis_os2.c ****       }
1497:Firmware/Middlewares/Third_Party/FreeRTOS/Source/CMSIS_RTOS_V2/cmsis_os2.c ****     }
1498:Firmware/Middlewares/Third_Party/FreeRTOS/Source/CMSIS_RTOS_V2/cmsis_os2.c ****   }
1499:Firmware/Middlewares/Third_Party/FreeRTOS/Source/CMSIS_RTOS_V2/cmsis_os2.c ****   else {
1500:Firmware/Middlewares/Third_Party/FreeRTOS/Source/CMSIS_RTOS_V2/cmsis_os2.c ****     if (xSemaphoreTake (hSemaphore, (TickType_t)timeout) != pdPASS) {
 7196              		.loc 1 1500 0
 7197 0092 3968     		ldr	r1, [r7]
 7198 0094 B869     		ldr	r0, [r7, #24]
 7199 0096 FFF7FEFF 		bl	xQueueSemaphoreTake
 7200 009a 0346     		mov	r3, r0
 7201 009c 012B     		cmp	r3, #1
 7202 009e 0BD0     		beq	.L616
1501:Firmware/Middlewares/Third_Party/FreeRTOS/Source/CMSIS_RTOS_V2/cmsis_os2.c ****       if (timeout != 0U) {
 7203              		.loc 1 1501 0
 7204 00a0 3B68     		ldr	r3, [r7]
 7205 00a2 002B     		cmp	r3, #0
 7206 00a4 03D0     		beq	.L625
1502:Firmware/Middlewares/Third_Party/FreeRTOS/Source/CMSIS_RTOS_V2/cmsis_os2.c ****         stat = osErrorTimeout;
 7207              		.loc 1 1502 0
 7208 00a6 6FF00103 		mvn	r3, #1
 7209 00aa FB61     		str	r3, [r7, #28]
 7210 00ac 04E0     		b	.L616
 7211              	.L625:
1503:Firmware/Middlewares/Third_Party/FreeRTOS/Source/CMSIS_RTOS_V2/cmsis_os2.c ****       } else {
1504:Firmware/Middlewares/Third_Party/FreeRTOS/Source/CMSIS_RTOS_V2/cmsis_os2.c ****         stat = osErrorResource;
 7212              		.loc 1 1504 0
 7213 00ae 6FF00203 		mvn	r3, #2
 7214 00b2 FB61     		str	r3, [r7, #28]
 7215 00b4 00E0     		b	.L616
 7216              	.L627:
1486:Firmware/Middlewares/Third_Party/FreeRTOS/Source/CMSIS_RTOS_V2/cmsis_os2.c ****       stat = osErrorParameter;
 7217              		.loc 1 1486 0
 7218 00b6 00BF     		nop
 7219              	.L616:
1505:Firmware/Middlewares/Third_Party/FreeRTOS/Source/CMSIS_RTOS_V2/cmsis_os2.c ****       }
1506:Firmware/Middlewares/Third_Party/FreeRTOS/Source/CMSIS_RTOS_V2/cmsis_os2.c ****     }
1507:Firmware/Middlewares/Third_Party/FreeRTOS/Source/CMSIS_RTOS_V2/cmsis_os2.c ****   }
1508:Firmware/Middlewares/Third_Party/FreeRTOS/Source/CMSIS_RTOS_V2/cmsis_os2.c **** 
1509:Firmware/Middlewares/Third_Party/FreeRTOS/Source/CMSIS_RTOS_V2/cmsis_os2.c ****   return (stat);
 7220              		.loc 1 1509 0
 7221 00b8 FB69     		ldr	r3, [r7, #28]
1510:Firmware/Middlewares/Third_Party/FreeRTOS/Source/CMSIS_RTOS_V2/cmsis_os2.c **** }
 7222              		.loc 1 1510 0
 7223 00ba 1846     		mov	r0, r3
 7224 00bc 2037     		adds	r7, r7, #32
 7225              	.LCFI256:
 7226              		.cfi_def_cfa_offset 8
 7227 00be BD46     		mov	sp, r7
 7228              	.LCFI257:
 7229              		.cfi_def_cfa_register 13
 7230              		@ sp needed
 7231 00c0 80BD     		pop	{r7, pc}
 7232              	.L629:
 7233 00c2 00BF     		.align	2
 7234              	.L628:
ARM GAS  /tmp/ccB5BhZs.s 			page 169


 7235 00c4 00000000 		.word	KernelState
 7236 00c8 04ED00E0 		.word	-536810236
 7237              		.cfi_endproc
 7238              	.LFE157:
 7240              		.section	.text.osSemaphoreRelease,"ax",%progbits
 7241              		.align	1
 7242              		.global	osSemaphoreRelease
 7243              		.syntax unified
 7244              		.thumb
 7245              		.thumb_func
 7246              		.fpu fpv4-sp-d16
 7248              	osSemaphoreRelease:
 7249              	.LFB158:
1511:Firmware/Middlewares/Third_Party/FreeRTOS/Source/CMSIS_RTOS_V2/cmsis_os2.c **** 
1512:Firmware/Middlewares/Third_Party/FreeRTOS/Source/CMSIS_RTOS_V2/cmsis_os2.c **** osStatus_t osSemaphoreRelease (osSemaphoreId_t semaphore_id) {
 7250              		.loc 1 1512 0
 7251              		.cfi_startproc
 7252              		@ args = 0, pretend = 0, frame = 32
 7253              		@ frame_needed = 1, uses_anonymous_args = 0
 7254 0000 80B5     		push	{r7, lr}
 7255              	.LCFI258:
 7256              		.cfi_def_cfa_offset 8
 7257              		.cfi_offset 7, -8
 7258              		.cfi_offset 14, -4
 7259 0002 88B0     		sub	sp, sp, #32
 7260              	.LCFI259:
 7261              		.cfi_def_cfa_offset 40
 7262 0004 00AF     		add	r7, sp, #0
 7263              	.LCFI260:
 7264              		.cfi_def_cfa_register 7
 7265 0006 7860     		str	r0, [r7, #4]
1513:Firmware/Middlewares/Third_Party/FreeRTOS/Source/CMSIS_RTOS_V2/cmsis_os2.c ****   SemaphoreHandle_t hSemaphore = (SemaphoreHandle_t)semaphore_id;
 7266              		.loc 1 1513 0
 7267 0008 7B68     		ldr	r3, [r7, #4]
 7268 000a BB61     		str	r3, [r7, #24]
1514:Firmware/Middlewares/Third_Party/FreeRTOS/Source/CMSIS_RTOS_V2/cmsis_os2.c ****   osStatus_t stat;
1515:Firmware/Middlewares/Third_Party/FreeRTOS/Source/CMSIS_RTOS_V2/cmsis_os2.c ****   BaseType_t yield;
1516:Firmware/Middlewares/Third_Party/FreeRTOS/Source/CMSIS_RTOS_V2/cmsis_os2.c **** 
1517:Firmware/Middlewares/Third_Party/FreeRTOS/Source/CMSIS_RTOS_V2/cmsis_os2.c ****   stat = osOK;
 7269              		.loc 1 1517 0
 7270 000c 0023     		movs	r3, #0
 7271 000e FB61     		str	r3, [r7, #28]
1518:Firmware/Middlewares/Third_Party/FreeRTOS/Source/CMSIS_RTOS_V2/cmsis_os2.c **** 
1519:Firmware/Middlewares/Third_Party/FreeRTOS/Source/CMSIS_RTOS_V2/cmsis_os2.c ****   if (hSemaphore == NULL) {
 7272              		.loc 1 1519 0
 7273 0010 BB69     		ldr	r3, [r7, #24]
 7274 0012 002B     		cmp	r3, #0
 7275 0014 03D1     		bne	.L631
1520:Firmware/Middlewares/Third_Party/FreeRTOS/Source/CMSIS_RTOS_V2/cmsis_os2.c ****     stat = osErrorParameter;
 7276              		.loc 1 1520 0
 7277 0016 6FF00303 		mvn	r3, #3
 7278 001a FB61     		str	r3, [r7, #28]
 7279 001c 3EE0     		b	.L632
 7280              	.L631:
 7281              	.LBB602:
 7282              	.LBB603:
 209:Firmware/Drivers/CMSIS/Include/cmsis_gcc.h ****   return(result);
ARM GAS  /tmp/ccB5BhZs.s 			page 170


 7283              		.loc 2 209 0
 7284              		.syntax unified
 7285              	@ 209 "Firmware/Drivers/CMSIS/Include/cmsis_gcc.h" 1
 7286 001e EFF30583 		MRS r3, ipsr
 7287              	@ 0 "" 2
 7288              		.thumb
 7289              		.syntax unified
 7290 0022 7B61     		str	r3, [r7, #20]
 210:Firmware/Drivers/CMSIS/Include/cmsis_gcc.h **** }
 7291              		.loc 2 210 0
 7292 0024 7B69     		ldr	r3, [r7, #20]
 7293              	.LBE603:
 7294              	.LBE602:
1521:Firmware/Middlewares/Third_Party/FreeRTOS/Source/CMSIS_RTOS_V2/cmsis_os2.c ****   }
1522:Firmware/Middlewares/Third_Party/FreeRTOS/Source/CMSIS_RTOS_V2/cmsis_os2.c ****   else if (IS_IRQ()) {
 7295              		.loc 1 1522 0
 7296 0026 002B     		cmp	r3, #0
 7297 0028 0FD1     		bne	.L634
 7298              	.LBB604:
 7299              	.LBB605:
 386:Firmware/Drivers/CMSIS/Include/cmsis_gcc.h ****   return(result);
 7300              		.loc 2 386 0 discriminator 1
 7301              		.syntax unified
 7302              	@ 386 "Firmware/Drivers/CMSIS/Include/cmsis_gcc.h" 1
 7303 002a EFF31083 		MRS r3, primask
 7304              	@ 0 "" 2
 7305              		.thumb
 7306              		.syntax unified
 7307 002e 3B61     		str	r3, [r7, #16]
 387:Firmware/Drivers/CMSIS/Include/cmsis_gcc.h **** }
 7308              		.loc 2 387 0 discriminator 1
 7309 0030 3B69     		ldr	r3, [r7, #16]
 7310              	.LBE605:
 7311              	.LBE604:
 7312              		.loc 1 1522 0 discriminator 1
 7313 0032 002B     		cmp	r3, #0
 7314 0034 09D1     		bne	.L634
 7315              		.loc 1 1522 0 is_stmt 0 discriminator 2
 7316 0036 1C4B     		ldr	r3, .L642
 7317 0038 1B68     		ldr	r3, [r3]
 7318 003a 022B     		cmp	r3, #2
 7319 003c 20D1     		bne	.L636
 7320              	.LBB606:
 7321              	.LBB607:
 465:Firmware/Drivers/CMSIS/Include/cmsis_gcc.h ****   return(result);
 7322              		.loc 2 465 0 is_stmt 1 discriminator 3
 7323              		.syntax unified
 7324              	@ 465 "Firmware/Drivers/CMSIS/Include/cmsis_gcc.h" 1
 7325 003e EFF31183 		MRS r3, basepri
 7326              	@ 0 "" 2
 7327              		.thumb
 7328              		.syntax unified
 7329 0042 FB60     		str	r3, [r7, #12]
 7330              		.loc 2 466 0 discriminator 3
 7331 0044 FB68     		ldr	r3, [r7, #12]
 7332              	.LBE607:
 7333              	.LBE606:
ARM GAS  /tmp/ccB5BhZs.s 			page 171


 7334              		.loc 1 1522 0 discriminator 3
 7335 0046 002B     		cmp	r3, #0
 7336 0048 1AD0     		beq	.L636
 7337              	.L634:
1523:Firmware/Middlewares/Third_Party/FreeRTOS/Source/CMSIS_RTOS_V2/cmsis_os2.c ****     yield = pdFALSE;
 7338              		.loc 1 1523 0
 7339 004a 0023     		movs	r3, #0
 7340 004c BB60     		str	r3, [r7, #8]
1524:Firmware/Middlewares/Third_Party/FreeRTOS/Source/CMSIS_RTOS_V2/cmsis_os2.c **** 
1525:Firmware/Middlewares/Third_Party/FreeRTOS/Source/CMSIS_RTOS_V2/cmsis_os2.c ****     if (xSemaphoreGiveFromISR (hSemaphore, &yield) != pdTRUE) {
 7341              		.loc 1 1525 0
 7342 004e 07F10803 		add	r3, r7, #8
 7343 0052 1946     		mov	r1, r3
 7344 0054 B869     		ldr	r0, [r7, #24]
 7345 0056 FFF7FEFF 		bl	xQueueGiveFromISR
 7346 005a 0346     		mov	r3, r0
 7347 005c 012B     		cmp	r3, #1
 7348 005e 03D0     		beq	.L638
1526:Firmware/Middlewares/Third_Party/FreeRTOS/Source/CMSIS_RTOS_V2/cmsis_os2.c ****       stat = osErrorResource;
 7349              		.loc 1 1526 0
 7350 0060 6FF00203 		mvn	r3, #2
 7351 0064 FB61     		str	r3, [r7, #28]
1525:Firmware/Middlewares/Third_Party/FreeRTOS/Source/CMSIS_RTOS_V2/cmsis_os2.c ****       stat = osErrorResource;
 7352              		.loc 1 1525 0
 7353 0066 18E0     		b	.L641
 7354              	.L638:
1527:Firmware/Middlewares/Third_Party/FreeRTOS/Source/CMSIS_RTOS_V2/cmsis_os2.c ****     } else {
1528:Firmware/Middlewares/Third_Party/FreeRTOS/Source/CMSIS_RTOS_V2/cmsis_os2.c ****       portYIELD_FROM_ISR (yield);
 7355              		.loc 1 1528 0
 7356 0068 BB68     		ldr	r3, [r7, #8]
 7357 006a 002B     		cmp	r3, #0
 7358 006c 15D0     		beq	.L641
 7359              		.loc 1 1528 0 is_stmt 0 discriminator 1
 7360 006e 0F4B     		ldr	r3, .L642+4
 7361 0070 4FF08052 		mov	r2, #268435456
 7362 0074 1A60     		str	r2, [r3]
 7363              		.syntax unified
 7364              	@ 1528 "Firmware/Middlewares/Third_Party/FreeRTOS/Source/CMSIS_RTOS_V2/cmsis_os2.c" 1
 7365 0076 BFF34F8F 		dsb
 7366              	@ 0 "" 2
 7367              	@ 1528 "Firmware/Middlewares/Third_Party/FreeRTOS/Source/CMSIS_RTOS_V2/cmsis_os2.c" 1
 7368 007a BFF36F8F 		isb
 7369              	@ 0 "" 2
1525:Firmware/Middlewares/Third_Party/FreeRTOS/Source/CMSIS_RTOS_V2/cmsis_os2.c ****       stat = osErrorResource;
 7370              		.loc 1 1525 0 is_stmt 1 discriminator 1
 7371              		.thumb
 7372              		.syntax unified
 7373 007e 0CE0     		b	.L641
 7374              	.L636:
1529:Firmware/Middlewares/Third_Party/FreeRTOS/Source/CMSIS_RTOS_V2/cmsis_os2.c ****     }
1530:Firmware/Middlewares/Third_Party/FreeRTOS/Source/CMSIS_RTOS_V2/cmsis_os2.c ****   }
1531:Firmware/Middlewares/Third_Party/FreeRTOS/Source/CMSIS_RTOS_V2/cmsis_os2.c ****   else {
1532:Firmware/Middlewares/Third_Party/FreeRTOS/Source/CMSIS_RTOS_V2/cmsis_os2.c ****     if (xSemaphoreGive (hSemaphore) != pdPASS) {
 7375              		.loc 1 1532 0
 7376 0080 0023     		movs	r3, #0
 7377 0082 0022     		movs	r2, #0
 7378 0084 0021     		movs	r1, #0
ARM GAS  /tmp/ccB5BhZs.s 			page 172


 7379 0086 B869     		ldr	r0, [r7, #24]
 7380 0088 FFF7FEFF 		bl	xQueueGenericSend
 7381 008c 0346     		mov	r3, r0
 7382 008e 012B     		cmp	r3, #1
 7383 0090 04D0     		beq	.L632
1533:Firmware/Middlewares/Third_Party/FreeRTOS/Source/CMSIS_RTOS_V2/cmsis_os2.c ****       stat = osErrorResource;
 7384              		.loc 1 1533 0
 7385 0092 6FF00203 		mvn	r3, #2
 7386 0096 FB61     		str	r3, [r7, #28]
 7387 0098 00E0     		b	.L632
 7388              	.L641:
1525:Firmware/Middlewares/Third_Party/FreeRTOS/Source/CMSIS_RTOS_V2/cmsis_os2.c ****       stat = osErrorResource;
 7389              		.loc 1 1525 0
 7390 009a 00BF     		nop
 7391              	.L632:
1534:Firmware/Middlewares/Third_Party/FreeRTOS/Source/CMSIS_RTOS_V2/cmsis_os2.c ****     }
1535:Firmware/Middlewares/Third_Party/FreeRTOS/Source/CMSIS_RTOS_V2/cmsis_os2.c ****   }
1536:Firmware/Middlewares/Third_Party/FreeRTOS/Source/CMSIS_RTOS_V2/cmsis_os2.c **** 
1537:Firmware/Middlewares/Third_Party/FreeRTOS/Source/CMSIS_RTOS_V2/cmsis_os2.c ****   return (stat);
 7392              		.loc 1 1537 0
 7393 009c FB69     		ldr	r3, [r7, #28]
1538:Firmware/Middlewares/Third_Party/FreeRTOS/Source/CMSIS_RTOS_V2/cmsis_os2.c **** }
 7394              		.loc 1 1538 0
 7395 009e 1846     		mov	r0, r3
 7396 00a0 2037     		adds	r7, r7, #32
 7397              	.LCFI261:
 7398              		.cfi_def_cfa_offset 8
 7399 00a2 BD46     		mov	sp, r7
 7400              	.LCFI262:
 7401              		.cfi_def_cfa_register 13
 7402              		@ sp needed
 7403 00a4 80BD     		pop	{r7, pc}
 7404              	.L643:
 7405 00a6 00BF     		.align	2
 7406              	.L642:
 7407 00a8 00000000 		.word	KernelState
 7408 00ac 04ED00E0 		.word	-536810236
 7409              		.cfi_endproc
 7410              	.LFE158:
 7412              		.section	.text.osSemaphoreGetCount,"ax",%progbits
 7413              		.align	1
 7414              		.global	osSemaphoreGetCount
 7415              		.syntax unified
 7416              		.thumb
 7417              		.thumb_func
 7418              		.fpu fpv4-sp-d16
 7420              	osSemaphoreGetCount:
 7421              	.LFB159:
1539:Firmware/Middlewares/Third_Party/FreeRTOS/Source/CMSIS_RTOS_V2/cmsis_os2.c **** 
1540:Firmware/Middlewares/Third_Party/FreeRTOS/Source/CMSIS_RTOS_V2/cmsis_os2.c **** uint32_t osSemaphoreGetCount (osSemaphoreId_t semaphore_id) {
 7422              		.loc 1 1540 0
 7423              		.cfi_startproc
 7424              		@ args = 0, pretend = 0, frame = 32
 7425              		@ frame_needed = 1, uses_anonymous_args = 0
 7426 0000 80B5     		push	{r7, lr}
 7427              	.LCFI263:
 7428              		.cfi_def_cfa_offset 8
ARM GAS  /tmp/ccB5BhZs.s 			page 173


 7429              		.cfi_offset 7, -8
 7430              		.cfi_offset 14, -4
 7431 0002 88B0     		sub	sp, sp, #32
 7432              	.LCFI264:
 7433              		.cfi_def_cfa_offset 40
 7434 0004 00AF     		add	r7, sp, #0
 7435              	.LCFI265:
 7436              		.cfi_def_cfa_register 7
 7437 0006 7860     		str	r0, [r7, #4]
1541:Firmware/Middlewares/Third_Party/FreeRTOS/Source/CMSIS_RTOS_V2/cmsis_os2.c ****   SemaphoreHandle_t hSemaphore = (SemaphoreHandle_t)semaphore_id;
 7438              		.loc 1 1541 0
 7439 0008 7B68     		ldr	r3, [r7, #4]
 7440 000a BB61     		str	r3, [r7, #24]
1542:Firmware/Middlewares/Third_Party/FreeRTOS/Source/CMSIS_RTOS_V2/cmsis_os2.c ****   uint32_t count;
1543:Firmware/Middlewares/Third_Party/FreeRTOS/Source/CMSIS_RTOS_V2/cmsis_os2.c **** 
1544:Firmware/Middlewares/Third_Party/FreeRTOS/Source/CMSIS_RTOS_V2/cmsis_os2.c ****   if (hSemaphore == NULL) {
 7441              		.loc 1 1544 0
 7442 000c BB69     		ldr	r3, [r7, #24]
 7443 000e 002B     		cmp	r3, #0
 7444 0010 02D1     		bne	.L645
1545:Firmware/Middlewares/Third_Party/FreeRTOS/Source/CMSIS_RTOS_V2/cmsis_os2.c ****     count = 0U;
 7445              		.loc 1 1545 0
 7446 0012 0023     		movs	r3, #0
 7447 0014 FB61     		str	r3, [r7, #28]
 7448 0016 1EE0     		b	.L646
 7449              	.L645:
 7450              	.LBB608:
 7451              	.LBB609:
 209:Firmware/Drivers/CMSIS/Include/cmsis_gcc.h ****   return(result);
 7452              		.loc 2 209 0
 7453              		.syntax unified
 7454              	@ 209 "Firmware/Drivers/CMSIS/Include/cmsis_gcc.h" 1
 7455 0018 EFF30583 		MRS r3, ipsr
 7456              	@ 0 "" 2
 7457              		.thumb
 7458              		.syntax unified
 7459 001c 7B61     		str	r3, [r7, #20]
 210:Firmware/Drivers/CMSIS/Include/cmsis_gcc.h **** }
 7460              		.loc 2 210 0
 7461 001e 7B69     		ldr	r3, [r7, #20]
 7462              	.LBE609:
 7463              	.LBE608:
1546:Firmware/Middlewares/Third_Party/FreeRTOS/Source/CMSIS_RTOS_V2/cmsis_os2.c ****   }
1547:Firmware/Middlewares/Third_Party/FreeRTOS/Source/CMSIS_RTOS_V2/cmsis_os2.c ****   else if (IS_IRQ()) {
 7464              		.loc 1 1547 0
 7465 0020 002B     		cmp	r3, #0
 7466 0022 0FD1     		bne	.L648
 7467              	.LBB610:
 7468              	.LBB611:
 386:Firmware/Drivers/CMSIS/Include/cmsis_gcc.h ****   return(result);
 7469              		.loc 2 386 0 discriminator 1
 7470              		.syntax unified
 7471              	@ 386 "Firmware/Drivers/CMSIS/Include/cmsis_gcc.h" 1
 7472 0024 EFF31083 		MRS r3, primask
 7473              	@ 0 "" 2
 7474              		.thumb
 7475              		.syntax unified
ARM GAS  /tmp/ccB5BhZs.s 			page 174


 7476 0028 3B61     		str	r3, [r7, #16]
 387:Firmware/Drivers/CMSIS/Include/cmsis_gcc.h **** }
 7477              		.loc 2 387 0 discriminator 1
 7478 002a 3B69     		ldr	r3, [r7, #16]
 7479              	.LBE611:
 7480              	.LBE610:
 7481              		.loc 1 1547 0 discriminator 1
 7482 002c 002B     		cmp	r3, #0
 7483 002e 09D1     		bne	.L648
 7484              		.loc 1 1547 0 is_stmt 0 discriminator 2
 7485 0030 0B4B     		ldr	r3, .L653
 7486 0032 1B68     		ldr	r3, [r3]
 7487 0034 022B     		cmp	r3, #2
 7488 0036 0AD1     		bne	.L650
 7489              	.LBB612:
 7490              	.LBB613:
 465:Firmware/Drivers/CMSIS/Include/cmsis_gcc.h ****   return(result);
 7491              		.loc 2 465 0 is_stmt 1 discriminator 3
 7492              		.syntax unified
 7493              	@ 465 "Firmware/Drivers/CMSIS/Include/cmsis_gcc.h" 1
 7494 0038 EFF31183 		MRS r3, basepri
 7495              	@ 0 "" 2
 7496              		.thumb
 7497              		.syntax unified
 7498 003c FB60     		str	r3, [r7, #12]
 7499              		.loc 2 466 0 discriminator 3
 7500 003e FB68     		ldr	r3, [r7, #12]
 7501              	.LBE613:
 7502              	.LBE612:
 7503              		.loc 1 1547 0 discriminator 3
 7504 0040 002B     		cmp	r3, #0
 7505 0042 04D0     		beq	.L650
 7506              	.L648:
1548:Firmware/Middlewares/Third_Party/FreeRTOS/Source/CMSIS_RTOS_V2/cmsis_os2.c ****     count = uxQueueMessagesWaitingFromISR (hSemaphore);
 7507              		.loc 1 1548 0
 7508 0044 B869     		ldr	r0, [r7, #24]
 7509 0046 FFF7FEFF 		bl	uxQueueMessagesWaitingFromISR
 7510 004a F861     		str	r0, [r7, #28]
 7511 004c 03E0     		b	.L646
 7512              	.L650:
1549:Firmware/Middlewares/Third_Party/FreeRTOS/Source/CMSIS_RTOS_V2/cmsis_os2.c ****   } else {
1550:Firmware/Middlewares/Third_Party/FreeRTOS/Source/CMSIS_RTOS_V2/cmsis_os2.c ****     count = (uint32_t)uxSemaphoreGetCount (hSemaphore);
 7513              		.loc 1 1550 0
 7514 004e B869     		ldr	r0, [r7, #24]
 7515 0050 FFF7FEFF 		bl	uxQueueMessagesWaiting
 7516 0054 F861     		str	r0, [r7, #28]
 7517              	.L646:
1551:Firmware/Middlewares/Third_Party/FreeRTOS/Source/CMSIS_RTOS_V2/cmsis_os2.c ****   }
1552:Firmware/Middlewares/Third_Party/FreeRTOS/Source/CMSIS_RTOS_V2/cmsis_os2.c **** 
1553:Firmware/Middlewares/Third_Party/FreeRTOS/Source/CMSIS_RTOS_V2/cmsis_os2.c ****   return (count);
 7518              		.loc 1 1553 0
 7519 0056 FB69     		ldr	r3, [r7, #28]
1554:Firmware/Middlewares/Third_Party/FreeRTOS/Source/CMSIS_RTOS_V2/cmsis_os2.c **** }
 7520              		.loc 1 1554 0
 7521 0058 1846     		mov	r0, r3
 7522 005a 2037     		adds	r7, r7, #32
 7523              	.LCFI266:
ARM GAS  /tmp/ccB5BhZs.s 			page 175


 7524              		.cfi_def_cfa_offset 8
 7525 005c BD46     		mov	sp, r7
 7526              	.LCFI267:
 7527              		.cfi_def_cfa_register 13
 7528              		@ sp needed
 7529 005e 80BD     		pop	{r7, pc}
 7530              	.L654:
 7531              		.align	2
 7532              	.L653:
 7533 0060 00000000 		.word	KernelState
 7534              		.cfi_endproc
 7535              	.LFE159:
 7537              		.section	.text.osSemaphoreDelete,"ax",%progbits
 7538              		.align	1
 7539              		.global	osSemaphoreDelete
 7540              		.syntax unified
 7541              		.thumb
 7542              		.thumb_func
 7543              		.fpu fpv4-sp-d16
 7545              	osSemaphoreDelete:
 7546              	.LFB160:
1555:Firmware/Middlewares/Third_Party/FreeRTOS/Source/CMSIS_RTOS_V2/cmsis_os2.c **** 
1556:Firmware/Middlewares/Third_Party/FreeRTOS/Source/CMSIS_RTOS_V2/cmsis_os2.c **** osStatus_t osSemaphoreDelete (osSemaphoreId_t semaphore_id) {
 7547              		.loc 1 1556 0
 7548              		.cfi_startproc
 7549              		@ args = 0, pretend = 0, frame = 32
 7550              		@ frame_needed = 1, uses_anonymous_args = 0
 7551 0000 80B5     		push	{r7, lr}
 7552              	.LCFI268:
 7553              		.cfi_def_cfa_offset 8
 7554              		.cfi_offset 7, -8
 7555              		.cfi_offset 14, -4
 7556 0002 88B0     		sub	sp, sp, #32
 7557              	.LCFI269:
 7558              		.cfi_def_cfa_offset 40
 7559 0004 00AF     		add	r7, sp, #0
 7560              	.LCFI270:
 7561              		.cfi_def_cfa_register 7
 7562 0006 7860     		str	r0, [r7, #4]
1557:Firmware/Middlewares/Third_Party/FreeRTOS/Source/CMSIS_RTOS_V2/cmsis_os2.c ****   SemaphoreHandle_t hSemaphore = (SemaphoreHandle_t)semaphore_id;
 7563              		.loc 1 1557 0
 7564 0008 7B68     		ldr	r3, [r7, #4]
 7565 000a BB61     		str	r3, [r7, #24]
 7566              	.LBB614:
 7567              	.LBB615:
 209:Firmware/Drivers/CMSIS/Include/cmsis_gcc.h ****   return(result);
 7568              		.loc 2 209 0
 7569              		.syntax unified
 7570              	@ 209 "Firmware/Drivers/CMSIS/Include/cmsis_gcc.h" 1
 7571 000c EFF30583 		MRS r3, ipsr
 7572              	@ 0 "" 2
 7573              		.thumb
 7574              		.syntax unified
 7575 0010 7B61     		str	r3, [r7, #20]
 210:Firmware/Drivers/CMSIS/Include/cmsis_gcc.h **** }
 7576              		.loc 2 210 0
 7577 0012 7B69     		ldr	r3, [r7, #20]
ARM GAS  /tmp/ccB5BhZs.s 			page 176


 7578              	.LBE615:
 7579              	.LBE614:
1558:Firmware/Middlewares/Third_Party/FreeRTOS/Source/CMSIS_RTOS_V2/cmsis_os2.c ****   osStatus_t stat;
1559:Firmware/Middlewares/Third_Party/FreeRTOS/Source/CMSIS_RTOS_V2/cmsis_os2.c **** 
1560:Firmware/Middlewares/Third_Party/FreeRTOS/Source/CMSIS_RTOS_V2/cmsis_os2.c **** #ifndef USE_FreeRTOS_HEAP_1
1561:Firmware/Middlewares/Third_Party/FreeRTOS/Source/CMSIS_RTOS_V2/cmsis_os2.c ****   if (IS_IRQ()) {
 7580              		.loc 1 1561 0
 7581 0014 002B     		cmp	r3, #0
 7582 0016 0FD1     		bne	.L657
 7583              	.LBB616:
 7584              	.LBB617:
 386:Firmware/Drivers/CMSIS/Include/cmsis_gcc.h ****   return(result);
 7585              		.loc 2 386 0 discriminator 1
 7586              		.syntax unified
 7587              	@ 386 "Firmware/Drivers/CMSIS/Include/cmsis_gcc.h" 1
 7588 0018 EFF31083 		MRS r3, primask
 7589              	@ 0 "" 2
 7590              		.thumb
 7591              		.syntax unified
 7592 001c 3B61     		str	r3, [r7, #16]
 387:Firmware/Drivers/CMSIS/Include/cmsis_gcc.h **** }
 7593              		.loc 2 387 0 discriminator 1
 7594 001e 3B69     		ldr	r3, [r7, #16]
 7595              	.LBE617:
 7596              	.LBE616:
 7597              		.loc 1 1561 0 discriminator 1
 7598 0020 002B     		cmp	r3, #0
 7599 0022 09D1     		bne	.L657
 7600              		.loc 1 1561 0 is_stmt 0 discriminator 2
 7601 0024 104B     		ldr	r3, .L664
 7602 0026 1B68     		ldr	r3, [r3]
 7603 0028 022B     		cmp	r3, #2
 7604 002a 09D1     		bne	.L659
 7605              	.LBB618:
 7606              	.LBB619:
 465:Firmware/Drivers/CMSIS/Include/cmsis_gcc.h ****   return(result);
 7607              		.loc 2 465 0 is_stmt 1 discriminator 3
 7608              		.syntax unified
 7609              	@ 465 "Firmware/Drivers/CMSIS/Include/cmsis_gcc.h" 1
 7610 002c EFF31183 		MRS r3, basepri
 7611              	@ 0 "" 2
 7612              		.thumb
 7613              		.syntax unified
 7614 0030 FB60     		str	r3, [r7, #12]
 7615              		.loc 2 466 0 discriminator 3
 7616 0032 FB68     		ldr	r3, [r7, #12]
 7617              	.LBE619:
 7618              	.LBE618:
 7619              		.loc 1 1561 0 discriminator 3
 7620 0034 002B     		cmp	r3, #0
 7621 0036 03D0     		beq	.L659
 7622              	.L657:
1562:Firmware/Middlewares/Third_Party/FreeRTOS/Source/CMSIS_RTOS_V2/cmsis_os2.c ****     stat = osErrorISR;
 7623              		.loc 1 1562 0
 7624 0038 6FF00503 		mvn	r3, #5
 7625 003c FB61     		str	r3, [r7, #28]
 7626 003e 0EE0     		b	.L661
ARM GAS  /tmp/ccB5BhZs.s 			page 177


 7627              	.L659:
1563:Firmware/Middlewares/Third_Party/FreeRTOS/Source/CMSIS_RTOS_V2/cmsis_os2.c ****   }
1564:Firmware/Middlewares/Third_Party/FreeRTOS/Source/CMSIS_RTOS_V2/cmsis_os2.c ****   else if (hSemaphore == NULL) {
 7628              		.loc 1 1564 0
 7629 0040 BB69     		ldr	r3, [r7, #24]
 7630 0042 002B     		cmp	r3, #0
 7631 0044 03D1     		bne	.L662
1565:Firmware/Middlewares/Third_Party/FreeRTOS/Source/CMSIS_RTOS_V2/cmsis_os2.c ****     stat = osErrorParameter;
 7632              		.loc 1 1565 0
 7633 0046 6FF00303 		mvn	r3, #3
 7634 004a FB61     		str	r3, [r7, #28]
 7635 004c 07E0     		b	.L661
 7636              	.L662:
1566:Firmware/Middlewares/Third_Party/FreeRTOS/Source/CMSIS_RTOS_V2/cmsis_os2.c ****   }
1567:Firmware/Middlewares/Third_Party/FreeRTOS/Source/CMSIS_RTOS_V2/cmsis_os2.c ****   else {
1568:Firmware/Middlewares/Third_Party/FreeRTOS/Source/CMSIS_RTOS_V2/cmsis_os2.c ****     #if (configQUEUE_REGISTRY_SIZE > 0)
1569:Firmware/Middlewares/Third_Party/FreeRTOS/Source/CMSIS_RTOS_V2/cmsis_os2.c ****     vQueueUnregisterQueue (hSemaphore);
 7637              		.loc 1 1569 0
 7638 004e B869     		ldr	r0, [r7, #24]
 7639 0050 FFF7FEFF 		bl	vQueueUnregisterQueue
1570:Firmware/Middlewares/Third_Party/FreeRTOS/Source/CMSIS_RTOS_V2/cmsis_os2.c ****     #endif
1571:Firmware/Middlewares/Third_Party/FreeRTOS/Source/CMSIS_RTOS_V2/cmsis_os2.c **** 
1572:Firmware/Middlewares/Third_Party/FreeRTOS/Source/CMSIS_RTOS_V2/cmsis_os2.c ****     stat = osOK;
 7640              		.loc 1 1572 0
 7641 0054 0023     		movs	r3, #0
 7642 0056 FB61     		str	r3, [r7, #28]
1573:Firmware/Middlewares/Third_Party/FreeRTOS/Source/CMSIS_RTOS_V2/cmsis_os2.c ****     vSemaphoreDelete (hSemaphore);
 7643              		.loc 1 1573 0
 7644 0058 B869     		ldr	r0, [r7, #24]
 7645 005a FFF7FEFF 		bl	vQueueDelete
 7646              	.L661:
1574:Firmware/Middlewares/Third_Party/FreeRTOS/Source/CMSIS_RTOS_V2/cmsis_os2.c ****   }
1575:Firmware/Middlewares/Third_Party/FreeRTOS/Source/CMSIS_RTOS_V2/cmsis_os2.c **** #else
1576:Firmware/Middlewares/Third_Party/FreeRTOS/Source/CMSIS_RTOS_V2/cmsis_os2.c ****   stat = osError;
1577:Firmware/Middlewares/Third_Party/FreeRTOS/Source/CMSIS_RTOS_V2/cmsis_os2.c **** #endif
1578:Firmware/Middlewares/Third_Party/FreeRTOS/Source/CMSIS_RTOS_V2/cmsis_os2.c **** 
1579:Firmware/Middlewares/Third_Party/FreeRTOS/Source/CMSIS_RTOS_V2/cmsis_os2.c ****   return (stat);
 7647              		.loc 1 1579 0
 7648 005e FB69     		ldr	r3, [r7, #28]
1580:Firmware/Middlewares/Third_Party/FreeRTOS/Source/CMSIS_RTOS_V2/cmsis_os2.c **** }
 7649              		.loc 1 1580 0
 7650 0060 1846     		mov	r0, r3
 7651 0062 2037     		adds	r7, r7, #32
 7652              	.LCFI271:
 7653              		.cfi_def_cfa_offset 8
 7654 0064 BD46     		mov	sp, r7
 7655              	.LCFI272:
 7656              		.cfi_def_cfa_register 13
 7657              		@ sp needed
 7658 0066 80BD     		pop	{r7, pc}
 7659              	.L665:
 7660              		.align	2
 7661              	.L664:
 7662 0068 00000000 		.word	KernelState
 7663              		.cfi_endproc
 7664              	.LFE160:
 7666              		.section	.text.osMessageQueueNew,"ax",%progbits
ARM GAS  /tmp/ccB5BhZs.s 			page 178


 7667              		.align	1
 7668              		.global	osMessageQueueNew
 7669              		.syntax unified
 7670              		.thumb
 7671              		.thumb_func
 7672              		.fpu fpv4-sp-d16
 7674              	osMessageQueueNew:
 7675              	.LFB161:
1581:Firmware/Middlewares/Third_Party/FreeRTOS/Source/CMSIS_RTOS_V2/cmsis_os2.c **** 
1582:Firmware/Middlewares/Third_Party/FreeRTOS/Source/CMSIS_RTOS_V2/cmsis_os2.c **** /*---------------------------------------------------------------------------*/
1583:Firmware/Middlewares/Third_Party/FreeRTOS/Source/CMSIS_RTOS_V2/cmsis_os2.c **** 
1584:Firmware/Middlewares/Third_Party/FreeRTOS/Source/CMSIS_RTOS_V2/cmsis_os2.c **** osMessageQueueId_t osMessageQueueNew (uint32_t msg_count, uint32_t msg_size, const osMessageQueueAt
 7676              		.loc 1 1584 0
 7677              		.cfi_startproc
 7678              		@ args = 0, pretend = 0, frame = 40
 7679              		@ frame_needed = 1, uses_anonymous_args = 0
 7680 0000 80B5     		push	{r7, lr}
 7681              	.LCFI273:
 7682              		.cfi_def_cfa_offset 8
 7683              		.cfi_offset 7, -8
 7684              		.cfi_offset 14, -4
 7685 0002 8CB0     		sub	sp, sp, #48
 7686              	.LCFI274:
 7687              		.cfi_def_cfa_offset 56
 7688 0004 02AF     		add	r7, sp, #8
 7689              	.LCFI275:
 7690              		.cfi_def_cfa 7, 48
 7691 0006 F860     		str	r0, [r7, #12]
 7692 0008 B960     		str	r1, [r7, #8]
 7693 000a 7A60     		str	r2, [r7, #4]
1585:Firmware/Middlewares/Third_Party/FreeRTOS/Source/CMSIS_RTOS_V2/cmsis_os2.c ****   QueueHandle_t hQueue;
1586:Firmware/Middlewares/Third_Party/FreeRTOS/Source/CMSIS_RTOS_V2/cmsis_os2.c ****   int32_t mem;
1587:Firmware/Middlewares/Third_Party/FreeRTOS/Source/CMSIS_RTOS_V2/cmsis_os2.c ****   #if (configQUEUE_REGISTRY_SIZE > 0)
1588:Firmware/Middlewares/Third_Party/FreeRTOS/Source/CMSIS_RTOS_V2/cmsis_os2.c ****   const char *name;
1589:Firmware/Middlewares/Third_Party/FreeRTOS/Source/CMSIS_RTOS_V2/cmsis_os2.c ****   #endif
1590:Firmware/Middlewares/Third_Party/FreeRTOS/Source/CMSIS_RTOS_V2/cmsis_os2.c **** 
1591:Firmware/Middlewares/Third_Party/FreeRTOS/Source/CMSIS_RTOS_V2/cmsis_os2.c ****   hQueue = NULL;
 7694              		.loc 1 1591 0
 7695 000c 0023     		movs	r3, #0
 7696 000e 7B62     		str	r3, [r7, #36]
 7697              	.LBB620:
 7698              	.LBB621:
 209:Firmware/Drivers/CMSIS/Include/cmsis_gcc.h ****   return(result);
 7699              		.loc 2 209 0
 7700              		.syntax unified
 7701              	@ 209 "Firmware/Drivers/CMSIS/Include/cmsis_gcc.h" 1
 7702 0010 EFF30583 		MRS r3, ipsr
 7703              	@ 0 "" 2
 7704              		.thumb
 7705              		.syntax unified
 7706 0014 BB61     		str	r3, [r7, #24]
 210:Firmware/Drivers/CMSIS/Include/cmsis_gcc.h **** }
 7707              		.loc 2 210 0
 7708 0016 BB69     		ldr	r3, [r7, #24]
 7709              	.LBE621:
 7710              	.LBE620:
1592:Firmware/Middlewares/Third_Party/FreeRTOS/Source/CMSIS_RTOS_V2/cmsis_os2.c **** 
ARM GAS  /tmp/ccB5BhZs.s 			page 179


1593:Firmware/Middlewares/Third_Party/FreeRTOS/Source/CMSIS_RTOS_V2/cmsis_os2.c ****   if (!IS_IRQ() && (msg_count > 0U) && (msg_size > 0U)) {
 7711              		.loc 1 1593 0
 7712 0018 002B     		cmp	r3, #0
 7713 001a 70D1     		bne	.L668
 7714              	.LBB622:
 7715              	.LBB623:
 386:Firmware/Drivers/CMSIS/Include/cmsis_gcc.h ****   return(result);
 7716              		.loc 2 386 0 discriminator 1
 7717              		.syntax unified
 7718              	@ 386 "Firmware/Drivers/CMSIS/Include/cmsis_gcc.h" 1
 7719 001c EFF31083 		MRS r3, primask
 7720              	@ 0 "" 2
 7721              		.thumb
 7722              		.syntax unified
 7723 0020 7B61     		str	r3, [r7, #20]
 387:Firmware/Drivers/CMSIS/Include/cmsis_gcc.h **** }
 7724              		.loc 2 387 0 discriminator 1
 7725 0022 7B69     		ldr	r3, [r7, #20]
 7726              	.LBE623:
 7727              	.LBE622:
 7728              		.loc 1 1593 0 discriminator 1
 7729 0024 002B     		cmp	r3, #0
 7730 0026 6AD1     		bne	.L668
 7731              		.loc 1 1593 0 is_stmt 0 discriminator 2
 7732 0028 374B     		ldr	r3, .L681
 7733 002a 1B68     		ldr	r3, [r3]
 7734 002c 022B     		cmp	r3, #2
 7735 002e 05D1     		bne	.L670
 7736              	.LBB624:
 7737              	.LBB625:
 465:Firmware/Drivers/CMSIS/Include/cmsis_gcc.h ****   return(result);
 7738              		.loc 2 465 0 is_stmt 1 discriminator 4
 7739              		.syntax unified
 7740              	@ 465 "Firmware/Drivers/CMSIS/Include/cmsis_gcc.h" 1
 7741 0030 EFF31183 		MRS r3, basepri
 7742              	@ 0 "" 2
 7743              		.thumb
 7744              		.syntax unified
 7745 0034 3B61     		str	r3, [r7, #16]
 7746              		.loc 2 466 0 discriminator 4
 7747 0036 3B69     		ldr	r3, [r7, #16]
 7748              	.LBE625:
 7749              	.LBE624:
 7750              		.loc 1 1593 0 discriminator 4
 7751 0038 002B     		cmp	r3, #0
 7752 003a 60D1     		bne	.L668
 7753              	.L670:
 7754              		.loc 1 1593 0 is_stmt 0 discriminator 5
 7755 003c FB68     		ldr	r3, [r7, #12]
 7756 003e 002B     		cmp	r3, #0
 7757 0040 5DD0     		beq	.L668
 7758              		.loc 1 1593 0 discriminator 6
 7759 0042 BB68     		ldr	r3, [r7, #8]
 7760 0044 002B     		cmp	r3, #0
 7761 0046 5AD0     		beq	.L668
1594:Firmware/Middlewares/Third_Party/FreeRTOS/Source/CMSIS_RTOS_V2/cmsis_os2.c ****     mem = -1;
 7762              		.loc 1 1594 0 is_stmt 1
ARM GAS  /tmp/ccB5BhZs.s 			page 180


 7763 0048 4FF0FF33 		mov	r3, #-1
 7764 004c 3B62     		str	r3, [r7, #32]
1595:Firmware/Middlewares/Third_Party/FreeRTOS/Source/CMSIS_RTOS_V2/cmsis_os2.c **** 
1596:Firmware/Middlewares/Third_Party/FreeRTOS/Source/CMSIS_RTOS_V2/cmsis_os2.c ****     if (attr != NULL) {
 7765              		.loc 1 1596 0
 7766 004e 7B68     		ldr	r3, [r7, #4]
 7767 0050 002B     		cmp	r3, #0
 7768 0052 29D0     		beq	.L672
1597:Firmware/Middlewares/Third_Party/FreeRTOS/Source/CMSIS_RTOS_V2/cmsis_os2.c ****       if ((attr->cb_mem != NULL) && (attr->cb_size >= sizeof(StaticQueue_t)) &&
 7769              		.loc 1 1597 0
 7770 0054 7B68     		ldr	r3, [r7, #4]
 7771 0056 9B68     		ldr	r3, [r3, #8]
 7772 0058 002B     		cmp	r3, #0
 7773 005a 12D0     		beq	.L673
 7774              		.loc 1 1597 0 is_stmt 0 discriminator 1
 7775 005c 7B68     		ldr	r3, [r7, #4]
 7776 005e DB68     		ldr	r3, [r3, #12]
 7777 0060 4F2B     		cmp	r3, #79
 7778 0062 0ED9     		bls	.L673
1598:Firmware/Middlewares/Third_Party/FreeRTOS/Source/CMSIS_RTOS_V2/cmsis_os2.c ****           (attr->mq_mem != NULL) && (attr->mq_size >= (msg_count * msg_size))) {
 7779              		.loc 1 1598 0 is_stmt 1 discriminator 2
 7780 0064 7B68     		ldr	r3, [r7, #4]
 7781 0066 1B69     		ldr	r3, [r3, #16]
1597:Firmware/Middlewares/Third_Party/FreeRTOS/Source/CMSIS_RTOS_V2/cmsis_os2.c ****       if ((attr->cb_mem != NULL) && (attr->cb_size >= sizeof(StaticQueue_t)) &&
 7782              		.loc 1 1597 0 discriminator 2
 7783 0068 002B     		cmp	r3, #0
 7784 006a 0AD0     		beq	.L673
 7785              		.loc 1 1598 0
 7786 006c 7B68     		ldr	r3, [r7, #4]
 7787 006e 5A69     		ldr	r2, [r3, #20]
 7788 0070 FB68     		ldr	r3, [r7, #12]
 7789 0072 B968     		ldr	r1, [r7, #8]
 7790 0074 01FB03F3 		mul	r3, r1, r3
 7791 0078 9A42     		cmp	r2, r3
 7792 007a 02D3     		bcc	.L673
1599:Firmware/Middlewares/Third_Party/FreeRTOS/Source/CMSIS_RTOS_V2/cmsis_os2.c ****         mem = 1;
 7793              		.loc 1 1599 0
 7794 007c 0123     		movs	r3, #1
 7795 007e 3B62     		str	r3, [r7, #32]
 7796 0080 14E0     		b	.L675
 7797              	.L673:
1600:Firmware/Middlewares/Third_Party/FreeRTOS/Source/CMSIS_RTOS_V2/cmsis_os2.c ****       }
1601:Firmware/Middlewares/Third_Party/FreeRTOS/Source/CMSIS_RTOS_V2/cmsis_os2.c ****       else {
1602:Firmware/Middlewares/Third_Party/FreeRTOS/Source/CMSIS_RTOS_V2/cmsis_os2.c ****         if ((attr->cb_mem == NULL) && (attr->cb_size == 0U) &&
 7798              		.loc 1 1602 0
 7799 0082 7B68     		ldr	r3, [r7, #4]
 7800 0084 9B68     		ldr	r3, [r3, #8]
 7801 0086 002B     		cmp	r3, #0
 7802 0088 10D1     		bne	.L675
 7803              		.loc 1 1602 0 is_stmt 0 discriminator 1
 7804 008a 7B68     		ldr	r3, [r7, #4]
 7805 008c DB68     		ldr	r3, [r3, #12]
 7806 008e 002B     		cmp	r3, #0
 7807 0090 0CD1     		bne	.L675
1603:Firmware/Middlewares/Third_Party/FreeRTOS/Source/CMSIS_RTOS_V2/cmsis_os2.c ****             (attr->mq_mem == NULL) && (attr->mq_size == 0U)) {
 7808              		.loc 1 1603 0 is_stmt 1 discriminator 2
 7809 0092 7B68     		ldr	r3, [r7, #4]
ARM GAS  /tmp/ccB5BhZs.s 			page 181


 7810 0094 1B69     		ldr	r3, [r3, #16]
1602:Firmware/Middlewares/Third_Party/FreeRTOS/Source/CMSIS_RTOS_V2/cmsis_os2.c ****             (attr->mq_mem == NULL) && (attr->mq_size == 0U)) {
 7811              		.loc 1 1602 0 discriminator 2
 7812 0096 002B     		cmp	r3, #0
 7813 0098 08D1     		bne	.L675
 7814              		.loc 1 1603 0
 7815 009a 7B68     		ldr	r3, [r7, #4]
 7816 009c 5B69     		ldr	r3, [r3, #20]
 7817 009e 002B     		cmp	r3, #0
 7818 00a0 04D1     		bne	.L675
1604:Firmware/Middlewares/Third_Party/FreeRTOS/Source/CMSIS_RTOS_V2/cmsis_os2.c ****           mem = 0;
 7819              		.loc 1 1604 0
 7820 00a2 0023     		movs	r3, #0
 7821 00a4 3B62     		str	r3, [r7, #32]
 7822 00a6 01E0     		b	.L675
 7823              	.L672:
1605:Firmware/Middlewares/Third_Party/FreeRTOS/Source/CMSIS_RTOS_V2/cmsis_os2.c ****         }
1606:Firmware/Middlewares/Third_Party/FreeRTOS/Source/CMSIS_RTOS_V2/cmsis_os2.c ****       }
1607:Firmware/Middlewares/Third_Party/FreeRTOS/Source/CMSIS_RTOS_V2/cmsis_os2.c ****     }
1608:Firmware/Middlewares/Third_Party/FreeRTOS/Source/CMSIS_RTOS_V2/cmsis_os2.c ****     else {
1609:Firmware/Middlewares/Third_Party/FreeRTOS/Source/CMSIS_RTOS_V2/cmsis_os2.c ****       mem = 0;
 7824              		.loc 1 1609 0
 7825 00a8 0023     		movs	r3, #0
 7826 00aa 3B62     		str	r3, [r7, #32]
 7827              	.L675:
1610:Firmware/Middlewares/Third_Party/FreeRTOS/Source/CMSIS_RTOS_V2/cmsis_os2.c ****     }
1611:Firmware/Middlewares/Third_Party/FreeRTOS/Source/CMSIS_RTOS_V2/cmsis_os2.c **** 
1612:Firmware/Middlewares/Third_Party/FreeRTOS/Source/CMSIS_RTOS_V2/cmsis_os2.c ****     if (mem == 1) {
 7828              		.loc 1 1612 0
 7829 00ac 3B6A     		ldr	r3, [r7, #32]
 7830 00ae 012B     		cmp	r3, #1
 7831 00b0 0CD1     		bne	.L676
1613:Firmware/Middlewares/Third_Party/FreeRTOS/Source/CMSIS_RTOS_V2/cmsis_os2.c ****       hQueue = xQueueCreateStatic (msg_count, msg_size, attr->mq_mem, attr->cb_mem);
 7832              		.loc 1 1613 0
 7833 00b2 7B68     		ldr	r3, [r7, #4]
 7834 00b4 1A69     		ldr	r2, [r3, #16]
 7835 00b6 7B68     		ldr	r3, [r7, #4]
 7836 00b8 9968     		ldr	r1, [r3, #8]
 7837 00ba 0023     		movs	r3, #0
 7838 00bc 0093     		str	r3, [sp]
 7839 00be 0B46     		mov	r3, r1
 7840 00c0 B968     		ldr	r1, [r7, #8]
 7841 00c2 F868     		ldr	r0, [r7, #12]
 7842 00c4 FFF7FEFF 		bl	xQueueGenericCreateStatic
 7843 00c8 7862     		str	r0, [r7, #36]
 7844 00ca 08E0     		b	.L677
 7845              	.L676:
1614:Firmware/Middlewares/Third_Party/FreeRTOS/Source/CMSIS_RTOS_V2/cmsis_os2.c ****     }
1615:Firmware/Middlewares/Third_Party/FreeRTOS/Source/CMSIS_RTOS_V2/cmsis_os2.c ****     else {
1616:Firmware/Middlewares/Third_Party/FreeRTOS/Source/CMSIS_RTOS_V2/cmsis_os2.c ****       if (mem == 0) {
 7846              		.loc 1 1616 0
 7847 00cc 3B6A     		ldr	r3, [r7, #32]
 7848 00ce 002B     		cmp	r3, #0
 7849 00d0 05D1     		bne	.L677
1617:Firmware/Middlewares/Third_Party/FreeRTOS/Source/CMSIS_RTOS_V2/cmsis_os2.c ****         hQueue = xQueueCreate (msg_count, msg_size);
 7850              		.loc 1 1617 0
 7851 00d2 0022     		movs	r2, #0
ARM GAS  /tmp/ccB5BhZs.s 			page 182


 7852 00d4 B968     		ldr	r1, [r7, #8]
 7853 00d6 F868     		ldr	r0, [r7, #12]
 7854 00d8 FFF7FEFF 		bl	xQueueGenericCreate
 7855 00dc 7862     		str	r0, [r7, #36]
 7856              	.L677:
1618:Firmware/Middlewares/Third_Party/FreeRTOS/Source/CMSIS_RTOS_V2/cmsis_os2.c ****       }
1619:Firmware/Middlewares/Third_Party/FreeRTOS/Source/CMSIS_RTOS_V2/cmsis_os2.c ****     }
1620:Firmware/Middlewares/Third_Party/FreeRTOS/Source/CMSIS_RTOS_V2/cmsis_os2.c **** 
1621:Firmware/Middlewares/Third_Party/FreeRTOS/Source/CMSIS_RTOS_V2/cmsis_os2.c ****     #if (configQUEUE_REGISTRY_SIZE > 0)
1622:Firmware/Middlewares/Third_Party/FreeRTOS/Source/CMSIS_RTOS_V2/cmsis_os2.c ****     if (hQueue != NULL) {
 7857              		.loc 1 1622 0
 7858 00de 7B6A     		ldr	r3, [r7, #36]
 7859 00e0 002B     		cmp	r3, #0
 7860 00e2 0CD0     		beq	.L668
1623:Firmware/Middlewares/Third_Party/FreeRTOS/Source/CMSIS_RTOS_V2/cmsis_os2.c ****       if (attr != NULL) {
 7861              		.loc 1 1623 0
 7862 00e4 7B68     		ldr	r3, [r7, #4]
 7863 00e6 002B     		cmp	r3, #0
 7864 00e8 03D0     		beq	.L678
1624:Firmware/Middlewares/Third_Party/FreeRTOS/Source/CMSIS_RTOS_V2/cmsis_os2.c ****         name = attr->name;
 7865              		.loc 1 1624 0
 7866 00ea 7B68     		ldr	r3, [r7, #4]
 7867 00ec 1B68     		ldr	r3, [r3]
 7868 00ee FB61     		str	r3, [r7, #28]
 7869 00f0 01E0     		b	.L679
 7870              	.L678:
1625:Firmware/Middlewares/Third_Party/FreeRTOS/Source/CMSIS_RTOS_V2/cmsis_os2.c ****       } else {
1626:Firmware/Middlewares/Third_Party/FreeRTOS/Source/CMSIS_RTOS_V2/cmsis_os2.c ****         name = NULL;
 7871              		.loc 1 1626 0
 7872 00f2 0023     		movs	r3, #0
 7873 00f4 FB61     		str	r3, [r7, #28]
 7874              	.L679:
1627:Firmware/Middlewares/Third_Party/FreeRTOS/Source/CMSIS_RTOS_V2/cmsis_os2.c ****       }
1628:Firmware/Middlewares/Third_Party/FreeRTOS/Source/CMSIS_RTOS_V2/cmsis_os2.c ****       vQueueAddToRegistry (hQueue, name);
 7875              		.loc 1 1628 0
 7876 00f6 F969     		ldr	r1, [r7, #28]
 7877 00f8 786A     		ldr	r0, [r7, #36]
 7878 00fa FFF7FEFF 		bl	vQueueAddToRegistry
 7879              	.L668:
1629:Firmware/Middlewares/Third_Party/FreeRTOS/Source/CMSIS_RTOS_V2/cmsis_os2.c ****     }
1630:Firmware/Middlewares/Third_Party/FreeRTOS/Source/CMSIS_RTOS_V2/cmsis_os2.c ****     #endif
1631:Firmware/Middlewares/Third_Party/FreeRTOS/Source/CMSIS_RTOS_V2/cmsis_os2.c **** 
1632:Firmware/Middlewares/Third_Party/FreeRTOS/Source/CMSIS_RTOS_V2/cmsis_os2.c ****   }
1633:Firmware/Middlewares/Third_Party/FreeRTOS/Source/CMSIS_RTOS_V2/cmsis_os2.c **** 
1634:Firmware/Middlewares/Third_Party/FreeRTOS/Source/CMSIS_RTOS_V2/cmsis_os2.c ****   return ((osMessageQueueId_t)hQueue);
 7880              		.loc 1 1634 0
 7881 00fe 7B6A     		ldr	r3, [r7, #36]
1635:Firmware/Middlewares/Third_Party/FreeRTOS/Source/CMSIS_RTOS_V2/cmsis_os2.c **** }
 7882              		.loc 1 1635 0
 7883 0100 1846     		mov	r0, r3
 7884 0102 2837     		adds	r7, r7, #40
 7885              	.LCFI276:
 7886              		.cfi_def_cfa_offset 8
 7887 0104 BD46     		mov	sp, r7
 7888              	.LCFI277:
 7889              		.cfi_def_cfa_register 13
 7890              		@ sp needed
ARM GAS  /tmp/ccB5BhZs.s 			page 183


 7891 0106 80BD     		pop	{r7, pc}
 7892              	.L682:
 7893              		.align	2
 7894              	.L681:
 7895 0108 00000000 		.word	KernelState
 7896              		.cfi_endproc
 7897              	.LFE161:
 7899              		.section	.text.osMessageQueuePut,"ax",%progbits
 7900              		.align	1
 7901              		.global	osMessageQueuePut
 7902              		.syntax unified
 7903              		.thumb
 7904              		.thumb_func
 7905              		.fpu fpv4-sp-d16
 7907              	osMessageQueuePut:
 7908              	.LFB162:
1636:Firmware/Middlewares/Third_Party/FreeRTOS/Source/CMSIS_RTOS_V2/cmsis_os2.c **** 
1637:Firmware/Middlewares/Third_Party/FreeRTOS/Source/CMSIS_RTOS_V2/cmsis_os2.c **** osStatus_t osMessageQueuePut (osMessageQueueId_t mq_id, const void *msg_ptr, uint8_t msg_prio, uint
 7909              		.loc 1 1637 0
 7910              		.cfi_startproc
 7911              		@ args = 0, pretend = 0, frame = 40
 7912              		@ frame_needed = 1, uses_anonymous_args = 0
 7913 0000 80B5     		push	{r7, lr}
 7914              	.LCFI278:
 7915              		.cfi_def_cfa_offset 8
 7916              		.cfi_offset 7, -8
 7917              		.cfi_offset 14, -4
 7918 0002 8AB0     		sub	sp, sp, #40
 7919              	.LCFI279:
 7920              		.cfi_def_cfa_offset 48
 7921 0004 00AF     		add	r7, sp, #0
 7922              	.LCFI280:
 7923              		.cfi_def_cfa_register 7
 7924 0006 F860     		str	r0, [r7, #12]
 7925 0008 B960     		str	r1, [r7, #8]
 7926 000a 3B60     		str	r3, [r7]
 7927 000c 1346     		mov	r3, r2
 7928 000e FB71     		strb	r3, [r7, #7]
1638:Firmware/Middlewares/Third_Party/FreeRTOS/Source/CMSIS_RTOS_V2/cmsis_os2.c ****   QueueHandle_t hQueue = (QueueHandle_t)mq_id;
 7929              		.loc 1 1638 0
 7930 0010 FB68     		ldr	r3, [r7, #12]
 7931 0012 3B62     		str	r3, [r7, #32]
1639:Firmware/Middlewares/Third_Party/FreeRTOS/Source/CMSIS_RTOS_V2/cmsis_os2.c ****   osStatus_t stat;
1640:Firmware/Middlewares/Third_Party/FreeRTOS/Source/CMSIS_RTOS_V2/cmsis_os2.c ****   BaseType_t yield;
1641:Firmware/Middlewares/Third_Party/FreeRTOS/Source/CMSIS_RTOS_V2/cmsis_os2.c **** 
1642:Firmware/Middlewares/Third_Party/FreeRTOS/Source/CMSIS_RTOS_V2/cmsis_os2.c ****   (void)msg_prio; /* Message priority is ignored */
1643:Firmware/Middlewares/Third_Party/FreeRTOS/Source/CMSIS_RTOS_V2/cmsis_os2.c **** 
1644:Firmware/Middlewares/Third_Party/FreeRTOS/Source/CMSIS_RTOS_V2/cmsis_os2.c ****   stat = osOK;
 7932              		.loc 1 1644 0
 7933 0014 0023     		movs	r3, #0
 7934 0016 7B62     		str	r3, [r7, #36]
 7935              	.LBB626:
 7936              	.LBB627:
 209:Firmware/Drivers/CMSIS/Include/cmsis_gcc.h ****   return(result);
 7937              		.loc 2 209 0
 7938              		.syntax unified
 7939              	@ 209 "Firmware/Drivers/CMSIS/Include/cmsis_gcc.h" 1
ARM GAS  /tmp/ccB5BhZs.s 			page 184


 7940 0018 EFF30583 		MRS r3, ipsr
 7941              	@ 0 "" 2
 7942              		.thumb
 7943              		.syntax unified
 7944 001c FB61     		str	r3, [r7, #28]
 210:Firmware/Drivers/CMSIS/Include/cmsis_gcc.h **** }
 7945              		.loc 2 210 0
 7946 001e FB69     		ldr	r3, [r7, #28]
 7947              	.LBE627:
 7948              	.LBE626:
1645:Firmware/Middlewares/Third_Party/FreeRTOS/Source/CMSIS_RTOS_V2/cmsis_os2.c **** 
1646:Firmware/Middlewares/Third_Party/FreeRTOS/Source/CMSIS_RTOS_V2/cmsis_os2.c ****   if (IS_IRQ()) {
 7949              		.loc 1 1646 0
 7950 0020 002B     		cmp	r3, #0
 7951 0022 0FD1     		bne	.L685
 7952              	.LBB628:
 7953              	.LBB629:
 386:Firmware/Drivers/CMSIS/Include/cmsis_gcc.h ****   return(result);
 7954              		.loc 2 386 0 discriminator 1
 7955              		.syntax unified
 7956              	@ 386 "Firmware/Drivers/CMSIS/Include/cmsis_gcc.h" 1
 7957 0024 EFF31083 		MRS r3, primask
 7958              	@ 0 "" 2
 7959              		.thumb
 7960              		.syntax unified
 7961 0028 BB61     		str	r3, [r7, #24]
 387:Firmware/Drivers/CMSIS/Include/cmsis_gcc.h **** }
 7962              		.loc 2 387 0 discriminator 1
 7963 002a BB69     		ldr	r3, [r7, #24]
 7964              	.LBE629:
 7965              	.LBE628:
 7966              		.loc 1 1646 0 discriminator 1
 7967 002c 002B     		cmp	r3, #0
 7968 002e 09D1     		bne	.L685
 7969              		.loc 1 1646 0 is_stmt 0 discriminator 2
 7970 0030 2B4B     		ldr	r3, .L699
 7971 0032 1B68     		ldr	r3, [r3]
 7972 0034 022B     		cmp	r3, #2
 7973 0036 2ED1     		bne	.L687
 7974              	.LBB630:
 7975              	.LBB631:
 465:Firmware/Drivers/CMSIS/Include/cmsis_gcc.h ****   return(result);
 7976              		.loc 2 465 0 is_stmt 1 discriminator 3
 7977              		.syntax unified
 7978              	@ 465 "Firmware/Drivers/CMSIS/Include/cmsis_gcc.h" 1
 7979 0038 EFF31183 		MRS r3, basepri
 7980              	@ 0 "" 2
 7981              		.thumb
 7982              		.syntax unified
 7983 003c 7B61     		str	r3, [r7, #20]
 7984              		.loc 2 466 0 discriminator 3
 7985 003e 7B69     		ldr	r3, [r7, #20]
 7986              	.LBE631:
 7987              	.LBE630:
 7988              		.loc 1 1646 0 discriminator 3
 7989 0040 002B     		cmp	r3, #0
 7990 0042 28D0     		beq	.L687
ARM GAS  /tmp/ccB5BhZs.s 			page 185


 7991              	.L685:
1647:Firmware/Middlewares/Third_Party/FreeRTOS/Source/CMSIS_RTOS_V2/cmsis_os2.c ****     if ((hQueue == NULL) || (msg_ptr == NULL) || (timeout != 0U)) {
 7992              		.loc 1 1647 0
 7993 0044 3B6A     		ldr	r3, [r7, #32]
 7994 0046 002B     		cmp	r3, #0
 7995 0048 05D0     		beq	.L689
 7996              		.loc 1 1647 0 is_stmt 0 discriminator 1
 7997 004a BB68     		ldr	r3, [r7, #8]
 7998 004c 002B     		cmp	r3, #0
 7999 004e 02D0     		beq	.L689
 8000              		.loc 1 1647 0 discriminator 2
 8001 0050 3B68     		ldr	r3, [r7]
 8002 0052 002B     		cmp	r3, #0
 8003 0054 03D0     		beq	.L690
 8004              	.L689:
1648:Firmware/Middlewares/Third_Party/FreeRTOS/Source/CMSIS_RTOS_V2/cmsis_os2.c ****       stat = osErrorParameter;
 8005              		.loc 1 1648 0 is_stmt 1
 8006 0056 6FF00303 		mvn	r3, #3
 8007 005a 7B62     		str	r3, [r7, #36]
1647:Firmware/Middlewares/Third_Party/FreeRTOS/Source/CMSIS_RTOS_V2/cmsis_os2.c ****     if ((hQueue == NULL) || (msg_ptr == NULL) || (timeout != 0U)) {
 8008              		.loc 1 1647 0
 8009 005c 39E0     		b	.L698
 8010              	.L690:
1649:Firmware/Middlewares/Third_Party/FreeRTOS/Source/CMSIS_RTOS_V2/cmsis_os2.c ****     }
1650:Firmware/Middlewares/Third_Party/FreeRTOS/Source/CMSIS_RTOS_V2/cmsis_os2.c ****     else {
1651:Firmware/Middlewares/Third_Party/FreeRTOS/Source/CMSIS_RTOS_V2/cmsis_os2.c ****       yield = pdFALSE;
 8011              		.loc 1 1651 0
 8012 005e 0023     		movs	r3, #0
 8013 0060 3B61     		str	r3, [r7, #16]
1652:Firmware/Middlewares/Third_Party/FreeRTOS/Source/CMSIS_RTOS_V2/cmsis_os2.c **** 
1653:Firmware/Middlewares/Third_Party/FreeRTOS/Source/CMSIS_RTOS_V2/cmsis_os2.c ****       if (xQueueSendToBackFromISR (hQueue, msg_ptr, &yield) != pdTRUE) {
 8014              		.loc 1 1653 0
 8015 0062 07F11002 		add	r2, r7, #16
 8016 0066 0023     		movs	r3, #0
 8017 0068 B968     		ldr	r1, [r7, #8]
 8018 006a 386A     		ldr	r0, [r7, #32]
 8019 006c FFF7FEFF 		bl	xQueueGenericSendFromISR
 8020 0070 0346     		mov	r3, r0
 8021 0072 012B     		cmp	r3, #1
 8022 0074 03D0     		beq	.L692
1654:Firmware/Middlewares/Third_Party/FreeRTOS/Source/CMSIS_RTOS_V2/cmsis_os2.c ****         stat = osErrorResource;
 8023              		.loc 1 1654 0
 8024 0076 6FF00203 		mvn	r3, #2
 8025 007a 7B62     		str	r3, [r7, #36]
1647:Firmware/Middlewares/Third_Party/FreeRTOS/Source/CMSIS_RTOS_V2/cmsis_os2.c ****       stat = osErrorParameter;
 8026              		.loc 1 1647 0
 8027 007c 29E0     		b	.L698
 8028              	.L692:
1655:Firmware/Middlewares/Third_Party/FreeRTOS/Source/CMSIS_RTOS_V2/cmsis_os2.c ****       } else {
1656:Firmware/Middlewares/Third_Party/FreeRTOS/Source/CMSIS_RTOS_V2/cmsis_os2.c ****         portYIELD_FROM_ISR (yield);
 8029              		.loc 1 1656 0
 8030 007e 3B69     		ldr	r3, [r7, #16]
 8031 0080 002B     		cmp	r3, #0
 8032 0082 26D0     		beq	.L698
 8033              		.loc 1 1656 0 is_stmt 0 discriminator 1
 8034 0084 174B     		ldr	r3, .L699+4
 8035 0086 4FF08052 		mov	r2, #268435456
ARM GAS  /tmp/ccB5BhZs.s 			page 186


 8036 008a 1A60     		str	r2, [r3]
 8037              		.syntax unified
 8038              	@ 1656 "Firmware/Middlewares/Third_Party/FreeRTOS/Source/CMSIS_RTOS_V2/cmsis_os2.c" 1
 8039 008c BFF34F8F 		dsb
 8040              	@ 0 "" 2
 8041              	@ 1656 "Firmware/Middlewares/Third_Party/FreeRTOS/Source/CMSIS_RTOS_V2/cmsis_os2.c" 1
 8042 0090 BFF36F8F 		isb
 8043              	@ 0 "" 2
1647:Firmware/Middlewares/Third_Party/FreeRTOS/Source/CMSIS_RTOS_V2/cmsis_os2.c ****       stat = osErrorParameter;
 8044              		.loc 1 1647 0 is_stmt 1 discriminator 1
 8045              		.thumb
 8046              		.syntax unified
 8047 0094 1DE0     		b	.L698
 8048              	.L687:
1657:Firmware/Middlewares/Third_Party/FreeRTOS/Source/CMSIS_RTOS_V2/cmsis_os2.c ****       }
1658:Firmware/Middlewares/Third_Party/FreeRTOS/Source/CMSIS_RTOS_V2/cmsis_os2.c ****     }
1659:Firmware/Middlewares/Third_Party/FreeRTOS/Source/CMSIS_RTOS_V2/cmsis_os2.c ****   }
1660:Firmware/Middlewares/Third_Party/FreeRTOS/Source/CMSIS_RTOS_V2/cmsis_os2.c ****   else {
1661:Firmware/Middlewares/Third_Party/FreeRTOS/Source/CMSIS_RTOS_V2/cmsis_os2.c ****     if ((hQueue == NULL) || (msg_ptr == NULL)) {
 8049              		.loc 1 1661 0
 8050 0096 3B6A     		ldr	r3, [r7, #32]
 8051 0098 002B     		cmp	r3, #0
 8052 009a 02D0     		beq	.L694
 8053              		.loc 1 1661 0 is_stmt 0 discriminator 1
 8054 009c BB68     		ldr	r3, [r7, #8]
 8055 009e 002B     		cmp	r3, #0
 8056 00a0 03D1     		bne	.L695
 8057              	.L694:
1662:Firmware/Middlewares/Third_Party/FreeRTOS/Source/CMSIS_RTOS_V2/cmsis_os2.c ****       stat = osErrorParameter;
 8058              		.loc 1 1662 0 is_stmt 1
 8059 00a2 6FF00303 		mvn	r3, #3
 8060 00a6 7B62     		str	r3, [r7, #36]
 8061 00a8 14E0     		b	.L693
 8062              	.L695:
1663:Firmware/Middlewares/Third_Party/FreeRTOS/Source/CMSIS_RTOS_V2/cmsis_os2.c ****     }
1664:Firmware/Middlewares/Third_Party/FreeRTOS/Source/CMSIS_RTOS_V2/cmsis_os2.c ****     else {
1665:Firmware/Middlewares/Third_Party/FreeRTOS/Source/CMSIS_RTOS_V2/cmsis_os2.c ****       if (xQueueSendToBack (hQueue, msg_ptr, (TickType_t)timeout) != pdPASS) {
 8063              		.loc 1 1665 0
 8064 00aa 0023     		movs	r3, #0
 8065 00ac 3A68     		ldr	r2, [r7]
 8066 00ae B968     		ldr	r1, [r7, #8]
 8067 00b0 386A     		ldr	r0, [r7, #32]
 8068 00b2 FFF7FEFF 		bl	xQueueGenericSend
 8069 00b6 0346     		mov	r3, r0
 8070 00b8 012B     		cmp	r3, #1
 8071 00ba 0BD0     		beq	.L693
1666:Firmware/Middlewares/Third_Party/FreeRTOS/Source/CMSIS_RTOS_V2/cmsis_os2.c ****         if (timeout != 0U) {
 8072              		.loc 1 1666 0
 8073 00bc 3B68     		ldr	r3, [r7]
 8074 00be 002B     		cmp	r3, #0
 8075 00c0 03D0     		beq	.L696
1667:Firmware/Middlewares/Third_Party/FreeRTOS/Source/CMSIS_RTOS_V2/cmsis_os2.c ****           stat = osErrorTimeout;
 8076              		.loc 1 1667 0
 8077 00c2 6FF00103 		mvn	r3, #1
 8078 00c6 7B62     		str	r3, [r7, #36]
 8079 00c8 04E0     		b	.L693
 8080              	.L696:
ARM GAS  /tmp/ccB5BhZs.s 			page 187


1668:Firmware/Middlewares/Third_Party/FreeRTOS/Source/CMSIS_RTOS_V2/cmsis_os2.c ****         } else {
1669:Firmware/Middlewares/Third_Party/FreeRTOS/Source/CMSIS_RTOS_V2/cmsis_os2.c ****           stat = osErrorResource;
 8081              		.loc 1 1669 0
 8082 00ca 6FF00203 		mvn	r3, #2
 8083 00ce 7B62     		str	r3, [r7, #36]
 8084 00d0 00E0     		b	.L693
 8085              	.L698:
1647:Firmware/Middlewares/Third_Party/FreeRTOS/Source/CMSIS_RTOS_V2/cmsis_os2.c ****       stat = osErrorParameter;
 8086              		.loc 1 1647 0
 8087 00d2 00BF     		nop
 8088              	.L693:
1670:Firmware/Middlewares/Third_Party/FreeRTOS/Source/CMSIS_RTOS_V2/cmsis_os2.c ****         }
1671:Firmware/Middlewares/Third_Party/FreeRTOS/Source/CMSIS_RTOS_V2/cmsis_os2.c ****       }
1672:Firmware/Middlewares/Third_Party/FreeRTOS/Source/CMSIS_RTOS_V2/cmsis_os2.c ****     }
1673:Firmware/Middlewares/Third_Party/FreeRTOS/Source/CMSIS_RTOS_V2/cmsis_os2.c ****   }
1674:Firmware/Middlewares/Third_Party/FreeRTOS/Source/CMSIS_RTOS_V2/cmsis_os2.c **** 
1675:Firmware/Middlewares/Third_Party/FreeRTOS/Source/CMSIS_RTOS_V2/cmsis_os2.c ****   return (stat);
 8089              		.loc 1 1675 0
 8090 00d4 7B6A     		ldr	r3, [r7, #36]
1676:Firmware/Middlewares/Third_Party/FreeRTOS/Source/CMSIS_RTOS_V2/cmsis_os2.c **** }
 8091              		.loc 1 1676 0
 8092 00d6 1846     		mov	r0, r3
 8093 00d8 2837     		adds	r7, r7, #40
 8094              	.LCFI281:
 8095              		.cfi_def_cfa_offset 8
 8096 00da BD46     		mov	sp, r7
 8097              	.LCFI282:
 8098              		.cfi_def_cfa_register 13
 8099              		@ sp needed
 8100 00dc 80BD     		pop	{r7, pc}
 8101              	.L700:
 8102 00de 00BF     		.align	2
 8103              	.L699:
 8104 00e0 00000000 		.word	KernelState
 8105 00e4 04ED00E0 		.word	-536810236
 8106              		.cfi_endproc
 8107              	.LFE162:
 8109              		.section	.text.osMessageQueueGet,"ax",%progbits
 8110              		.align	1
 8111              		.global	osMessageQueueGet
 8112              		.syntax unified
 8113              		.thumb
 8114              		.thumb_func
 8115              		.fpu fpv4-sp-d16
 8117              	osMessageQueueGet:
 8118              	.LFB163:
1677:Firmware/Middlewares/Third_Party/FreeRTOS/Source/CMSIS_RTOS_V2/cmsis_os2.c **** 
1678:Firmware/Middlewares/Third_Party/FreeRTOS/Source/CMSIS_RTOS_V2/cmsis_os2.c **** osStatus_t osMessageQueueGet (osMessageQueueId_t mq_id, void *msg_ptr, uint8_t *msg_prio, uint32_t 
 8119              		.loc 1 1678 0
 8120              		.cfi_startproc
 8121              		@ args = 0, pretend = 0, frame = 40
 8122              		@ frame_needed = 1, uses_anonymous_args = 0
 8123 0000 80B5     		push	{r7, lr}
 8124              	.LCFI283:
 8125              		.cfi_def_cfa_offset 8
 8126              		.cfi_offset 7, -8
 8127              		.cfi_offset 14, -4
ARM GAS  /tmp/ccB5BhZs.s 			page 188


 8128 0002 8AB0     		sub	sp, sp, #40
 8129              	.LCFI284:
 8130              		.cfi_def_cfa_offset 48
 8131 0004 00AF     		add	r7, sp, #0
 8132              	.LCFI285:
 8133              		.cfi_def_cfa_register 7
 8134 0006 F860     		str	r0, [r7, #12]
 8135 0008 B960     		str	r1, [r7, #8]
 8136 000a 7A60     		str	r2, [r7, #4]
 8137 000c 3B60     		str	r3, [r7]
1679:Firmware/Middlewares/Third_Party/FreeRTOS/Source/CMSIS_RTOS_V2/cmsis_os2.c ****   QueueHandle_t hQueue = (QueueHandle_t)mq_id;
 8138              		.loc 1 1679 0
 8139 000e FB68     		ldr	r3, [r7, #12]
 8140 0010 3B62     		str	r3, [r7, #32]
1680:Firmware/Middlewares/Third_Party/FreeRTOS/Source/CMSIS_RTOS_V2/cmsis_os2.c ****   osStatus_t stat;
1681:Firmware/Middlewares/Third_Party/FreeRTOS/Source/CMSIS_RTOS_V2/cmsis_os2.c ****   BaseType_t yield;
1682:Firmware/Middlewares/Third_Party/FreeRTOS/Source/CMSIS_RTOS_V2/cmsis_os2.c **** 
1683:Firmware/Middlewares/Third_Party/FreeRTOS/Source/CMSIS_RTOS_V2/cmsis_os2.c ****   (void)msg_prio; /* Message priority is ignored */
1684:Firmware/Middlewares/Third_Party/FreeRTOS/Source/CMSIS_RTOS_V2/cmsis_os2.c **** 
1685:Firmware/Middlewares/Third_Party/FreeRTOS/Source/CMSIS_RTOS_V2/cmsis_os2.c ****   stat = osOK;
 8141              		.loc 1 1685 0
 8142 0012 0023     		movs	r3, #0
 8143 0014 7B62     		str	r3, [r7, #36]
 8144              	.LBB632:
 8145              	.LBB633:
 209:Firmware/Drivers/CMSIS/Include/cmsis_gcc.h ****   return(result);
 8146              		.loc 2 209 0
 8147              		.syntax unified
 8148              	@ 209 "Firmware/Drivers/CMSIS/Include/cmsis_gcc.h" 1
 8149 0016 EFF30583 		MRS r3, ipsr
 8150              	@ 0 "" 2
 8151              		.thumb
 8152              		.syntax unified
 8153 001a FB61     		str	r3, [r7, #28]
 210:Firmware/Drivers/CMSIS/Include/cmsis_gcc.h **** }
 8154              		.loc 2 210 0
 8155 001c FB69     		ldr	r3, [r7, #28]
 8156              	.LBE633:
 8157              	.LBE632:
1686:Firmware/Middlewares/Third_Party/FreeRTOS/Source/CMSIS_RTOS_V2/cmsis_os2.c **** 
1687:Firmware/Middlewares/Third_Party/FreeRTOS/Source/CMSIS_RTOS_V2/cmsis_os2.c ****   if (IS_IRQ()) {
 8158              		.loc 1 1687 0
 8159 001e 002B     		cmp	r3, #0
 8160 0020 0FD1     		bne	.L703
 8161              	.LBB634:
 8162              	.LBB635:
 386:Firmware/Drivers/CMSIS/Include/cmsis_gcc.h ****   return(result);
 8163              		.loc 2 386 0 discriminator 1
 8164              		.syntax unified
 8165              	@ 386 "Firmware/Drivers/CMSIS/Include/cmsis_gcc.h" 1
 8166 0022 EFF31083 		MRS r3, primask
 8167              	@ 0 "" 2
 8168              		.thumb
 8169              		.syntax unified
 8170 0026 BB61     		str	r3, [r7, #24]
 387:Firmware/Drivers/CMSIS/Include/cmsis_gcc.h **** }
 8171              		.loc 2 387 0 discriminator 1
ARM GAS  /tmp/ccB5BhZs.s 			page 189


 8172 0028 BB69     		ldr	r3, [r7, #24]
 8173              	.LBE635:
 8174              	.LBE634:
 8175              		.loc 1 1687 0 discriminator 1
 8176 002a 002B     		cmp	r3, #0
 8177 002c 09D1     		bne	.L703
 8178              		.loc 1 1687 0 is_stmt 0 discriminator 2
 8179 002e 2B4B     		ldr	r3, .L717
 8180 0030 1B68     		ldr	r3, [r3]
 8181 0032 022B     		cmp	r3, #2
 8182 0034 2ED1     		bne	.L705
 8183              	.LBB636:
 8184              	.LBB637:
 465:Firmware/Drivers/CMSIS/Include/cmsis_gcc.h ****   return(result);
 8185              		.loc 2 465 0 is_stmt 1 discriminator 3
 8186              		.syntax unified
 8187              	@ 465 "Firmware/Drivers/CMSIS/Include/cmsis_gcc.h" 1
 8188 0036 EFF31183 		MRS r3, basepri
 8189              	@ 0 "" 2
 8190              		.thumb
 8191              		.syntax unified
 8192 003a 7B61     		str	r3, [r7, #20]
 8193              		.loc 2 466 0 discriminator 3
 8194 003c 7B69     		ldr	r3, [r7, #20]
 8195              	.LBE637:
 8196              	.LBE636:
 8197              		.loc 1 1687 0 discriminator 3
 8198 003e 002B     		cmp	r3, #0
 8199 0040 28D0     		beq	.L705
 8200              	.L703:
1688:Firmware/Middlewares/Third_Party/FreeRTOS/Source/CMSIS_RTOS_V2/cmsis_os2.c ****     if ((hQueue == NULL) || (msg_ptr == NULL) || (timeout != 0U)) {
 8201              		.loc 1 1688 0
 8202 0042 3B6A     		ldr	r3, [r7, #32]
 8203 0044 002B     		cmp	r3, #0
 8204 0046 05D0     		beq	.L707
 8205              		.loc 1 1688 0 is_stmt 0 discriminator 1
 8206 0048 BB68     		ldr	r3, [r7, #8]
 8207 004a 002B     		cmp	r3, #0
 8208 004c 02D0     		beq	.L707
 8209              		.loc 1 1688 0 discriminator 2
 8210 004e 3B68     		ldr	r3, [r7]
 8211 0050 002B     		cmp	r3, #0
 8212 0052 03D0     		beq	.L708
 8213              	.L707:
1689:Firmware/Middlewares/Third_Party/FreeRTOS/Source/CMSIS_RTOS_V2/cmsis_os2.c ****       stat = osErrorParameter;
 8214              		.loc 1 1689 0 is_stmt 1
 8215 0054 6FF00303 		mvn	r3, #3
 8216 0058 7B62     		str	r3, [r7, #36]
1688:Firmware/Middlewares/Third_Party/FreeRTOS/Source/CMSIS_RTOS_V2/cmsis_os2.c ****     if ((hQueue == NULL) || (msg_ptr == NULL) || (timeout != 0U)) {
 8217              		.loc 1 1688 0
 8218 005a 38E0     		b	.L716
 8219              	.L708:
1690:Firmware/Middlewares/Third_Party/FreeRTOS/Source/CMSIS_RTOS_V2/cmsis_os2.c ****     }
1691:Firmware/Middlewares/Third_Party/FreeRTOS/Source/CMSIS_RTOS_V2/cmsis_os2.c ****     else {
1692:Firmware/Middlewares/Third_Party/FreeRTOS/Source/CMSIS_RTOS_V2/cmsis_os2.c ****       yield = pdFALSE;
 8220              		.loc 1 1692 0
 8221 005c 0023     		movs	r3, #0
ARM GAS  /tmp/ccB5BhZs.s 			page 190


 8222 005e 3B61     		str	r3, [r7, #16]
1693:Firmware/Middlewares/Third_Party/FreeRTOS/Source/CMSIS_RTOS_V2/cmsis_os2.c **** 
1694:Firmware/Middlewares/Third_Party/FreeRTOS/Source/CMSIS_RTOS_V2/cmsis_os2.c ****       if (xQueueReceiveFromISR (hQueue, msg_ptr, &yield) != pdPASS) {
 8223              		.loc 1 1694 0
 8224 0060 07F11003 		add	r3, r7, #16
 8225 0064 1A46     		mov	r2, r3
 8226 0066 B968     		ldr	r1, [r7, #8]
 8227 0068 386A     		ldr	r0, [r7, #32]
 8228 006a FFF7FEFF 		bl	xQueueReceiveFromISR
 8229 006e 0346     		mov	r3, r0
 8230 0070 012B     		cmp	r3, #1
 8231 0072 03D0     		beq	.L710
1695:Firmware/Middlewares/Third_Party/FreeRTOS/Source/CMSIS_RTOS_V2/cmsis_os2.c ****         stat = osErrorResource;
 8232              		.loc 1 1695 0
 8233 0074 6FF00203 		mvn	r3, #2
 8234 0078 7B62     		str	r3, [r7, #36]
1688:Firmware/Middlewares/Third_Party/FreeRTOS/Source/CMSIS_RTOS_V2/cmsis_os2.c ****       stat = osErrorParameter;
 8235              		.loc 1 1688 0
 8236 007a 28E0     		b	.L716
 8237              	.L710:
1696:Firmware/Middlewares/Third_Party/FreeRTOS/Source/CMSIS_RTOS_V2/cmsis_os2.c ****       } else {
1697:Firmware/Middlewares/Third_Party/FreeRTOS/Source/CMSIS_RTOS_V2/cmsis_os2.c ****         portYIELD_FROM_ISR (yield);
 8238              		.loc 1 1697 0
 8239 007c 3B69     		ldr	r3, [r7, #16]
 8240 007e 002B     		cmp	r3, #0
 8241 0080 25D0     		beq	.L716
 8242              		.loc 1 1697 0 is_stmt 0 discriminator 1
 8243 0082 174B     		ldr	r3, .L717+4
 8244 0084 4FF08052 		mov	r2, #268435456
 8245 0088 1A60     		str	r2, [r3]
 8246              		.syntax unified
 8247              	@ 1697 "Firmware/Middlewares/Third_Party/FreeRTOS/Source/CMSIS_RTOS_V2/cmsis_os2.c" 1
 8248 008a BFF34F8F 		dsb
 8249              	@ 0 "" 2
 8250              	@ 1697 "Firmware/Middlewares/Third_Party/FreeRTOS/Source/CMSIS_RTOS_V2/cmsis_os2.c" 1
 8251 008e BFF36F8F 		isb
 8252              	@ 0 "" 2
1688:Firmware/Middlewares/Third_Party/FreeRTOS/Source/CMSIS_RTOS_V2/cmsis_os2.c ****       stat = osErrorParameter;
 8253              		.loc 1 1688 0 is_stmt 1 discriminator 1
 8254              		.thumb
 8255              		.syntax unified
 8256 0092 1CE0     		b	.L716
 8257              	.L705:
1698:Firmware/Middlewares/Third_Party/FreeRTOS/Source/CMSIS_RTOS_V2/cmsis_os2.c ****       }
1699:Firmware/Middlewares/Third_Party/FreeRTOS/Source/CMSIS_RTOS_V2/cmsis_os2.c ****     }
1700:Firmware/Middlewares/Third_Party/FreeRTOS/Source/CMSIS_RTOS_V2/cmsis_os2.c ****   }
1701:Firmware/Middlewares/Third_Party/FreeRTOS/Source/CMSIS_RTOS_V2/cmsis_os2.c ****   else {
1702:Firmware/Middlewares/Third_Party/FreeRTOS/Source/CMSIS_RTOS_V2/cmsis_os2.c ****     if ((hQueue == NULL) || (msg_ptr == NULL)) {
 8258              		.loc 1 1702 0
 8259 0094 3B6A     		ldr	r3, [r7, #32]
 8260 0096 002B     		cmp	r3, #0
 8261 0098 02D0     		beq	.L712
 8262              		.loc 1 1702 0 is_stmt 0 discriminator 1
 8263 009a BB68     		ldr	r3, [r7, #8]
 8264 009c 002B     		cmp	r3, #0
 8265 009e 03D1     		bne	.L713
 8266              	.L712:
ARM GAS  /tmp/ccB5BhZs.s 			page 191


1703:Firmware/Middlewares/Third_Party/FreeRTOS/Source/CMSIS_RTOS_V2/cmsis_os2.c ****       stat = osErrorParameter;
 8267              		.loc 1 1703 0 is_stmt 1
 8268 00a0 6FF00303 		mvn	r3, #3
 8269 00a4 7B62     		str	r3, [r7, #36]
 8270 00a6 13E0     		b	.L711
 8271              	.L713:
1704:Firmware/Middlewares/Third_Party/FreeRTOS/Source/CMSIS_RTOS_V2/cmsis_os2.c ****     }
1705:Firmware/Middlewares/Third_Party/FreeRTOS/Source/CMSIS_RTOS_V2/cmsis_os2.c ****     else {
1706:Firmware/Middlewares/Third_Party/FreeRTOS/Source/CMSIS_RTOS_V2/cmsis_os2.c ****       if (xQueueReceive (hQueue, msg_ptr, (TickType_t)timeout) != pdPASS) {
 8272              		.loc 1 1706 0
 8273 00a8 3A68     		ldr	r2, [r7]
 8274 00aa B968     		ldr	r1, [r7, #8]
 8275 00ac 386A     		ldr	r0, [r7, #32]
 8276 00ae FFF7FEFF 		bl	xQueueReceive
 8277 00b2 0346     		mov	r3, r0
 8278 00b4 012B     		cmp	r3, #1
 8279 00b6 0BD0     		beq	.L711
1707:Firmware/Middlewares/Third_Party/FreeRTOS/Source/CMSIS_RTOS_V2/cmsis_os2.c ****         if (timeout != 0U) {
 8280              		.loc 1 1707 0
 8281 00b8 3B68     		ldr	r3, [r7]
 8282 00ba 002B     		cmp	r3, #0
 8283 00bc 03D0     		beq	.L714
1708:Firmware/Middlewares/Third_Party/FreeRTOS/Source/CMSIS_RTOS_V2/cmsis_os2.c ****           stat = osErrorTimeout;
 8284              		.loc 1 1708 0
 8285 00be 6FF00103 		mvn	r3, #1
 8286 00c2 7B62     		str	r3, [r7, #36]
 8287 00c4 04E0     		b	.L711
 8288              	.L714:
1709:Firmware/Middlewares/Third_Party/FreeRTOS/Source/CMSIS_RTOS_V2/cmsis_os2.c ****         } else {
1710:Firmware/Middlewares/Third_Party/FreeRTOS/Source/CMSIS_RTOS_V2/cmsis_os2.c ****           stat = osErrorResource;
 8289              		.loc 1 1710 0
 8290 00c6 6FF00203 		mvn	r3, #2
 8291 00ca 7B62     		str	r3, [r7, #36]
 8292 00cc 00E0     		b	.L711
 8293              	.L716:
1688:Firmware/Middlewares/Third_Party/FreeRTOS/Source/CMSIS_RTOS_V2/cmsis_os2.c ****       stat = osErrorParameter;
 8294              		.loc 1 1688 0
 8295 00ce 00BF     		nop
 8296              	.L711:
1711:Firmware/Middlewares/Third_Party/FreeRTOS/Source/CMSIS_RTOS_V2/cmsis_os2.c ****         }
1712:Firmware/Middlewares/Third_Party/FreeRTOS/Source/CMSIS_RTOS_V2/cmsis_os2.c ****       }
1713:Firmware/Middlewares/Third_Party/FreeRTOS/Source/CMSIS_RTOS_V2/cmsis_os2.c ****     }
1714:Firmware/Middlewares/Third_Party/FreeRTOS/Source/CMSIS_RTOS_V2/cmsis_os2.c ****   }
1715:Firmware/Middlewares/Third_Party/FreeRTOS/Source/CMSIS_RTOS_V2/cmsis_os2.c **** 
1716:Firmware/Middlewares/Third_Party/FreeRTOS/Source/CMSIS_RTOS_V2/cmsis_os2.c ****   return (stat);
 8297              		.loc 1 1716 0
 8298 00d0 7B6A     		ldr	r3, [r7, #36]
1717:Firmware/Middlewares/Third_Party/FreeRTOS/Source/CMSIS_RTOS_V2/cmsis_os2.c **** }
 8299              		.loc 1 1717 0
 8300 00d2 1846     		mov	r0, r3
 8301 00d4 2837     		adds	r7, r7, #40
 8302              	.LCFI286:
 8303              		.cfi_def_cfa_offset 8
 8304 00d6 BD46     		mov	sp, r7
 8305              	.LCFI287:
 8306              		.cfi_def_cfa_register 13
 8307              		@ sp needed
ARM GAS  /tmp/ccB5BhZs.s 			page 192


 8308 00d8 80BD     		pop	{r7, pc}
 8309              	.L718:
 8310 00da 00BF     		.align	2
 8311              	.L717:
 8312 00dc 00000000 		.word	KernelState
 8313 00e0 04ED00E0 		.word	-536810236
 8314              		.cfi_endproc
 8315              	.LFE163:
 8317              		.section	.text.osMessageQueueGetCapacity,"ax",%progbits
 8318              		.align	1
 8319              		.global	osMessageQueueGetCapacity
 8320              		.syntax unified
 8321              		.thumb
 8322              		.thumb_func
 8323              		.fpu fpv4-sp-d16
 8325              	osMessageQueueGetCapacity:
 8326              	.LFB164:
1718:Firmware/Middlewares/Third_Party/FreeRTOS/Source/CMSIS_RTOS_V2/cmsis_os2.c **** 
1719:Firmware/Middlewares/Third_Party/FreeRTOS/Source/CMSIS_RTOS_V2/cmsis_os2.c **** uint32_t osMessageQueueGetCapacity (osMessageQueueId_t mq_id) {
 8327              		.loc 1 1719 0
 8328              		.cfi_startproc
 8329              		@ args = 0, pretend = 0, frame = 16
 8330              		@ frame_needed = 1, uses_anonymous_args = 0
 8331              		@ link register save eliminated.
 8332 0000 80B4     		push	{r7}
 8333              	.LCFI288:
 8334              		.cfi_def_cfa_offset 4
 8335              		.cfi_offset 7, -4
 8336 0002 85B0     		sub	sp, sp, #20
 8337              	.LCFI289:
 8338              		.cfi_def_cfa_offset 24
 8339 0004 00AF     		add	r7, sp, #0
 8340              	.LCFI290:
 8341              		.cfi_def_cfa_register 7
 8342 0006 7860     		str	r0, [r7, #4]
1720:Firmware/Middlewares/Third_Party/FreeRTOS/Source/CMSIS_RTOS_V2/cmsis_os2.c ****   StaticQueue_t *mq = (StaticQueue_t *)mq_id;
 8343              		.loc 1 1720 0
 8344 0008 7B68     		ldr	r3, [r7, #4]
 8345 000a BB60     		str	r3, [r7, #8]
1721:Firmware/Middlewares/Third_Party/FreeRTOS/Source/CMSIS_RTOS_V2/cmsis_os2.c ****   uint32_t capacity;
1722:Firmware/Middlewares/Third_Party/FreeRTOS/Source/CMSIS_RTOS_V2/cmsis_os2.c **** 
1723:Firmware/Middlewares/Third_Party/FreeRTOS/Source/CMSIS_RTOS_V2/cmsis_os2.c ****   if (mq == NULL) {
 8346              		.loc 1 1723 0
 8347 000c BB68     		ldr	r3, [r7, #8]
 8348 000e 002B     		cmp	r3, #0
 8349 0010 02D1     		bne	.L720
1724:Firmware/Middlewares/Third_Party/FreeRTOS/Source/CMSIS_RTOS_V2/cmsis_os2.c ****     capacity = 0U;
 8350              		.loc 1 1724 0
 8351 0012 0023     		movs	r3, #0
 8352 0014 FB60     		str	r3, [r7, #12]
 8353 0016 02E0     		b	.L721
 8354              	.L720:
1725:Firmware/Middlewares/Third_Party/FreeRTOS/Source/CMSIS_RTOS_V2/cmsis_os2.c ****   } else {
1726:Firmware/Middlewares/Third_Party/FreeRTOS/Source/CMSIS_RTOS_V2/cmsis_os2.c ****     /* capacity = pxQueue->uxLength */
1727:Firmware/Middlewares/Third_Party/FreeRTOS/Source/CMSIS_RTOS_V2/cmsis_os2.c ****     capacity = mq->uxDummy4[1];
 8355              		.loc 1 1727 0
 8356 0018 BB68     		ldr	r3, [r7, #8]
ARM GAS  /tmp/ccB5BhZs.s 			page 193


 8357 001a DB6B     		ldr	r3, [r3, #60]
 8358 001c FB60     		str	r3, [r7, #12]
 8359              	.L721:
1728:Firmware/Middlewares/Third_Party/FreeRTOS/Source/CMSIS_RTOS_V2/cmsis_os2.c ****   }
1729:Firmware/Middlewares/Third_Party/FreeRTOS/Source/CMSIS_RTOS_V2/cmsis_os2.c **** 
1730:Firmware/Middlewares/Third_Party/FreeRTOS/Source/CMSIS_RTOS_V2/cmsis_os2.c ****   return (capacity);
 8360              		.loc 1 1730 0
 8361 001e FB68     		ldr	r3, [r7, #12]
1731:Firmware/Middlewares/Third_Party/FreeRTOS/Source/CMSIS_RTOS_V2/cmsis_os2.c **** }
 8362              		.loc 1 1731 0
 8363 0020 1846     		mov	r0, r3
 8364 0022 1437     		adds	r7, r7, #20
 8365              	.LCFI291:
 8366              		.cfi_def_cfa_offset 4
 8367 0024 BD46     		mov	sp, r7
 8368              	.LCFI292:
 8369              		.cfi_def_cfa_register 13
 8370              		@ sp needed
 8371 0026 5DF8047B 		ldr	r7, [sp], #4
 8372              	.LCFI293:
 8373              		.cfi_restore 7
 8374              		.cfi_def_cfa_offset 0
 8375 002a 7047     		bx	lr
 8376              		.cfi_endproc
 8377              	.LFE164:
 8379              		.section	.text.osMessageQueueGetMsgSize,"ax",%progbits
 8380              		.align	1
 8381              		.global	osMessageQueueGetMsgSize
 8382              		.syntax unified
 8383              		.thumb
 8384              		.thumb_func
 8385              		.fpu fpv4-sp-d16
 8387              	osMessageQueueGetMsgSize:
 8388              	.LFB165:
1732:Firmware/Middlewares/Third_Party/FreeRTOS/Source/CMSIS_RTOS_V2/cmsis_os2.c **** 
1733:Firmware/Middlewares/Third_Party/FreeRTOS/Source/CMSIS_RTOS_V2/cmsis_os2.c **** uint32_t osMessageQueueGetMsgSize (osMessageQueueId_t mq_id) {
 8389              		.loc 1 1733 0
 8390              		.cfi_startproc
 8391              		@ args = 0, pretend = 0, frame = 16
 8392              		@ frame_needed = 1, uses_anonymous_args = 0
 8393              		@ link register save eliminated.
 8394 0000 80B4     		push	{r7}
 8395              	.LCFI294:
 8396              		.cfi_def_cfa_offset 4
 8397              		.cfi_offset 7, -4
 8398 0002 85B0     		sub	sp, sp, #20
 8399              	.LCFI295:
 8400              		.cfi_def_cfa_offset 24
 8401 0004 00AF     		add	r7, sp, #0
 8402              	.LCFI296:
 8403              		.cfi_def_cfa_register 7
 8404 0006 7860     		str	r0, [r7, #4]
1734:Firmware/Middlewares/Third_Party/FreeRTOS/Source/CMSIS_RTOS_V2/cmsis_os2.c ****   StaticQueue_t *mq = (StaticQueue_t *)mq_id;
 8405              		.loc 1 1734 0
 8406 0008 7B68     		ldr	r3, [r7, #4]
 8407 000a BB60     		str	r3, [r7, #8]
1735:Firmware/Middlewares/Third_Party/FreeRTOS/Source/CMSIS_RTOS_V2/cmsis_os2.c ****   uint32_t size;
ARM GAS  /tmp/ccB5BhZs.s 			page 194


1736:Firmware/Middlewares/Third_Party/FreeRTOS/Source/CMSIS_RTOS_V2/cmsis_os2.c **** 
1737:Firmware/Middlewares/Third_Party/FreeRTOS/Source/CMSIS_RTOS_V2/cmsis_os2.c ****   if (mq == NULL) {
 8408              		.loc 1 1737 0
 8409 000c BB68     		ldr	r3, [r7, #8]
 8410 000e 002B     		cmp	r3, #0
 8411 0010 02D1     		bne	.L724
1738:Firmware/Middlewares/Third_Party/FreeRTOS/Source/CMSIS_RTOS_V2/cmsis_os2.c ****     size = 0U;
 8412              		.loc 1 1738 0
 8413 0012 0023     		movs	r3, #0
 8414 0014 FB60     		str	r3, [r7, #12]
 8415 0016 02E0     		b	.L725
 8416              	.L724:
1739:Firmware/Middlewares/Third_Party/FreeRTOS/Source/CMSIS_RTOS_V2/cmsis_os2.c ****   } else {
1740:Firmware/Middlewares/Third_Party/FreeRTOS/Source/CMSIS_RTOS_V2/cmsis_os2.c ****     /* size = pxQueue->uxItemSize */
1741:Firmware/Middlewares/Third_Party/FreeRTOS/Source/CMSIS_RTOS_V2/cmsis_os2.c ****     size = mq->uxDummy4[2];
 8417              		.loc 1 1741 0
 8418 0018 BB68     		ldr	r3, [r7, #8]
 8419 001a 1B6C     		ldr	r3, [r3, #64]
 8420 001c FB60     		str	r3, [r7, #12]
 8421              	.L725:
1742:Firmware/Middlewares/Third_Party/FreeRTOS/Source/CMSIS_RTOS_V2/cmsis_os2.c ****   }
1743:Firmware/Middlewares/Third_Party/FreeRTOS/Source/CMSIS_RTOS_V2/cmsis_os2.c **** 
1744:Firmware/Middlewares/Third_Party/FreeRTOS/Source/CMSIS_RTOS_V2/cmsis_os2.c ****   return (size);
 8422              		.loc 1 1744 0
 8423 001e FB68     		ldr	r3, [r7, #12]
1745:Firmware/Middlewares/Third_Party/FreeRTOS/Source/CMSIS_RTOS_V2/cmsis_os2.c **** }
 8424              		.loc 1 1745 0
 8425 0020 1846     		mov	r0, r3
 8426 0022 1437     		adds	r7, r7, #20
 8427              	.LCFI297:
 8428              		.cfi_def_cfa_offset 4
 8429 0024 BD46     		mov	sp, r7
 8430              	.LCFI298:
 8431              		.cfi_def_cfa_register 13
 8432              		@ sp needed
 8433 0026 5DF8047B 		ldr	r7, [sp], #4
 8434              	.LCFI299:
 8435              		.cfi_restore 7
 8436              		.cfi_def_cfa_offset 0
 8437 002a 7047     		bx	lr
 8438              		.cfi_endproc
 8439              	.LFE165:
 8441              		.section	.text.osMessageQueueGetCount,"ax",%progbits
 8442              		.align	1
 8443              		.global	osMessageQueueGetCount
 8444              		.syntax unified
 8445              		.thumb
 8446              		.thumb_func
 8447              		.fpu fpv4-sp-d16
 8449              	osMessageQueueGetCount:
 8450              	.LFB166:
1746:Firmware/Middlewares/Third_Party/FreeRTOS/Source/CMSIS_RTOS_V2/cmsis_os2.c **** 
1747:Firmware/Middlewares/Third_Party/FreeRTOS/Source/CMSIS_RTOS_V2/cmsis_os2.c **** uint32_t osMessageQueueGetCount (osMessageQueueId_t mq_id) {
 8451              		.loc 1 1747 0
 8452              		.cfi_startproc
 8453              		@ args = 0, pretend = 0, frame = 32
 8454              		@ frame_needed = 1, uses_anonymous_args = 0
ARM GAS  /tmp/ccB5BhZs.s 			page 195


 8455 0000 80B5     		push	{r7, lr}
 8456              	.LCFI300:
 8457              		.cfi_def_cfa_offset 8
 8458              		.cfi_offset 7, -8
 8459              		.cfi_offset 14, -4
 8460 0002 88B0     		sub	sp, sp, #32
 8461              	.LCFI301:
 8462              		.cfi_def_cfa_offset 40
 8463 0004 00AF     		add	r7, sp, #0
 8464              	.LCFI302:
 8465              		.cfi_def_cfa_register 7
 8466 0006 7860     		str	r0, [r7, #4]
1748:Firmware/Middlewares/Third_Party/FreeRTOS/Source/CMSIS_RTOS_V2/cmsis_os2.c ****   QueueHandle_t hQueue = (QueueHandle_t)mq_id;
 8467              		.loc 1 1748 0
 8468 0008 7B68     		ldr	r3, [r7, #4]
 8469 000a BB61     		str	r3, [r7, #24]
1749:Firmware/Middlewares/Third_Party/FreeRTOS/Source/CMSIS_RTOS_V2/cmsis_os2.c ****   UBaseType_t count;
1750:Firmware/Middlewares/Third_Party/FreeRTOS/Source/CMSIS_RTOS_V2/cmsis_os2.c **** 
1751:Firmware/Middlewares/Third_Party/FreeRTOS/Source/CMSIS_RTOS_V2/cmsis_os2.c ****   if (hQueue == NULL) {
 8470              		.loc 1 1751 0
 8471 000c BB69     		ldr	r3, [r7, #24]
 8472 000e 002B     		cmp	r3, #0
 8473 0010 02D1     		bne	.L728
1752:Firmware/Middlewares/Third_Party/FreeRTOS/Source/CMSIS_RTOS_V2/cmsis_os2.c ****     count = 0U;
 8474              		.loc 1 1752 0
 8475 0012 0023     		movs	r3, #0
 8476 0014 FB61     		str	r3, [r7, #28]
 8477 0016 1EE0     		b	.L729
 8478              	.L728:
 8479              	.LBB638:
 8480              	.LBB639:
 209:Firmware/Drivers/CMSIS/Include/cmsis_gcc.h ****   return(result);
 8481              		.loc 2 209 0
 8482              		.syntax unified
 8483              	@ 209 "Firmware/Drivers/CMSIS/Include/cmsis_gcc.h" 1
 8484 0018 EFF30583 		MRS r3, ipsr
 8485              	@ 0 "" 2
 8486              		.thumb
 8487              		.syntax unified
 8488 001c 7B61     		str	r3, [r7, #20]
 210:Firmware/Drivers/CMSIS/Include/cmsis_gcc.h **** }
 8489              		.loc 2 210 0
 8490 001e 7B69     		ldr	r3, [r7, #20]
 8491              	.LBE639:
 8492              	.LBE638:
1753:Firmware/Middlewares/Third_Party/FreeRTOS/Source/CMSIS_RTOS_V2/cmsis_os2.c ****   }
1754:Firmware/Middlewares/Third_Party/FreeRTOS/Source/CMSIS_RTOS_V2/cmsis_os2.c ****   else if (IS_IRQ()) {
 8493              		.loc 1 1754 0
 8494 0020 002B     		cmp	r3, #0
 8495 0022 0FD1     		bne	.L731
 8496              	.LBB640:
 8497              	.LBB641:
 386:Firmware/Drivers/CMSIS/Include/cmsis_gcc.h ****   return(result);
 8498              		.loc 2 386 0 discriminator 1
 8499              		.syntax unified
 8500              	@ 386 "Firmware/Drivers/CMSIS/Include/cmsis_gcc.h" 1
 8501 0024 EFF31083 		MRS r3, primask
ARM GAS  /tmp/ccB5BhZs.s 			page 196


 8502              	@ 0 "" 2
 8503              		.thumb
 8504              		.syntax unified
 8505 0028 3B61     		str	r3, [r7, #16]
 387:Firmware/Drivers/CMSIS/Include/cmsis_gcc.h **** }
 8506              		.loc 2 387 0 discriminator 1
 8507 002a 3B69     		ldr	r3, [r7, #16]
 8508              	.LBE641:
 8509              	.LBE640:
 8510              		.loc 1 1754 0 discriminator 1
 8511 002c 002B     		cmp	r3, #0
 8512 002e 09D1     		bne	.L731
 8513              		.loc 1 1754 0 is_stmt 0 discriminator 2
 8514 0030 0B4B     		ldr	r3, .L736
 8515 0032 1B68     		ldr	r3, [r3]
 8516 0034 022B     		cmp	r3, #2
 8517 0036 0AD1     		bne	.L733
 8518              	.LBB642:
 8519              	.LBB643:
 465:Firmware/Drivers/CMSIS/Include/cmsis_gcc.h ****   return(result);
 8520              		.loc 2 465 0 is_stmt 1 discriminator 3
 8521              		.syntax unified
 8522              	@ 465 "Firmware/Drivers/CMSIS/Include/cmsis_gcc.h" 1
 8523 0038 EFF31183 		MRS r3, basepri
 8524              	@ 0 "" 2
 8525              		.thumb
 8526              		.syntax unified
 8527 003c FB60     		str	r3, [r7, #12]
 8528              		.loc 2 466 0 discriminator 3
 8529 003e FB68     		ldr	r3, [r7, #12]
 8530              	.LBE643:
 8531              	.LBE642:
 8532              		.loc 1 1754 0 discriminator 3
 8533 0040 002B     		cmp	r3, #0
 8534 0042 04D0     		beq	.L733
 8535              	.L731:
1755:Firmware/Middlewares/Third_Party/FreeRTOS/Source/CMSIS_RTOS_V2/cmsis_os2.c ****     count = uxQueueMessagesWaitingFromISR (hQueue);
 8536              		.loc 1 1755 0
 8537 0044 B869     		ldr	r0, [r7, #24]
 8538 0046 FFF7FEFF 		bl	uxQueueMessagesWaitingFromISR
 8539 004a F861     		str	r0, [r7, #28]
 8540 004c 03E0     		b	.L729
 8541              	.L733:
1756:Firmware/Middlewares/Third_Party/FreeRTOS/Source/CMSIS_RTOS_V2/cmsis_os2.c ****   }
1757:Firmware/Middlewares/Third_Party/FreeRTOS/Source/CMSIS_RTOS_V2/cmsis_os2.c ****   else {
1758:Firmware/Middlewares/Third_Party/FreeRTOS/Source/CMSIS_RTOS_V2/cmsis_os2.c ****     count = uxQueueMessagesWaiting (hQueue);
 8542              		.loc 1 1758 0
 8543 004e B869     		ldr	r0, [r7, #24]
 8544 0050 FFF7FEFF 		bl	uxQueueMessagesWaiting
 8545 0054 F861     		str	r0, [r7, #28]
 8546              	.L729:
1759:Firmware/Middlewares/Third_Party/FreeRTOS/Source/CMSIS_RTOS_V2/cmsis_os2.c ****   }
1760:Firmware/Middlewares/Third_Party/FreeRTOS/Source/CMSIS_RTOS_V2/cmsis_os2.c **** 
1761:Firmware/Middlewares/Third_Party/FreeRTOS/Source/CMSIS_RTOS_V2/cmsis_os2.c ****   return ((uint32_t)count);
 8547              		.loc 1 1761 0
 8548 0056 FB69     		ldr	r3, [r7, #28]
1762:Firmware/Middlewares/Third_Party/FreeRTOS/Source/CMSIS_RTOS_V2/cmsis_os2.c **** }
ARM GAS  /tmp/ccB5BhZs.s 			page 197


 8549              		.loc 1 1762 0
 8550 0058 1846     		mov	r0, r3
 8551 005a 2037     		adds	r7, r7, #32
 8552              	.LCFI303:
 8553              		.cfi_def_cfa_offset 8
 8554 005c BD46     		mov	sp, r7
 8555              	.LCFI304:
 8556              		.cfi_def_cfa_register 13
 8557              		@ sp needed
 8558 005e 80BD     		pop	{r7, pc}
 8559              	.L737:
 8560              		.align	2
 8561              	.L736:
 8562 0060 00000000 		.word	KernelState
 8563              		.cfi_endproc
 8564              	.LFE166:
 8566              		.section	.text.osMessageQueueGetSpace,"ax",%progbits
 8567              		.align	1
 8568              		.global	osMessageQueueGetSpace
 8569              		.syntax unified
 8570              		.thumb
 8571              		.thumb_func
 8572              		.fpu fpv4-sp-d16
 8574              	osMessageQueueGetSpace:
 8575              	.LFB167:
1763:Firmware/Middlewares/Third_Party/FreeRTOS/Source/CMSIS_RTOS_V2/cmsis_os2.c **** 
1764:Firmware/Middlewares/Third_Party/FreeRTOS/Source/CMSIS_RTOS_V2/cmsis_os2.c **** uint32_t osMessageQueueGetSpace (osMessageQueueId_t mq_id) {
 8576              		.loc 1 1764 0
 8577              		.cfi_startproc
 8578              		@ args = 0, pretend = 0, frame = 48
 8579              		@ frame_needed = 1, uses_anonymous_args = 0
 8580 0000 80B5     		push	{r7, lr}
 8581              	.LCFI305:
 8582              		.cfi_def_cfa_offset 8
 8583              		.cfi_offset 7, -8
 8584              		.cfi_offset 14, -4
 8585 0002 8CB0     		sub	sp, sp, #48
 8586              	.LCFI306:
 8587              		.cfi_def_cfa_offset 56
 8588 0004 00AF     		add	r7, sp, #0
 8589              	.LCFI307:
 8590              		.cfi_def_cfa_register 7
 8591 0006 7860     		str	r0, [r7, #4]
1765:Firmware/Middlewares/Third_Party/FreeRTOS/Source/CMSIS_RTOS_V2/cmsis_os2.c ****   StaticQueue_t *mq = (StaticQueue_t *)mq_id;
 8592              		.loc 1 1765 0
 8593 0008 7B68     		ldr	r3, [r7, #4]
 8594 000a BB62     		str	r3, [r7, #40]
1766:Firmware/Middlewares/Third_Party/FreeRTOS/Source/CMSIS_RTOS_V2/cmsis_os2.c ****   uint32_t space;
1767:Firmware/Middlewares/Third_Party/FreeRTOS/Source/CMSIS_RTOS_V2/cmsis_os2.c ****   uint32_t isrm;
1768:Firmware/Middlewares/Third_Party/FreeRTOS/Source/CMSIS_RTOS_V2/cmsis_os2.c **** 
1769:Firmware/Middlewares/Third_Party/FreeRTOS/Source/CMSIS_RTOS_V2/cmsis_os2.c ****   if (mq == NULL) {
 8595              		.loc 1 1769 0
 8596 000c BB6A     		ldr	r3, [r7, #40]
 8597 000e 002B     		cmp	r3, #0
 8598 0010 02D1     		bne	.L739
1770:Firmware/Middlewares/Third_Party/FreeRTOS/Source/CMSIS_RTOS_V2/cmsis_os2.c ****     space = 0U;
 8599              		.loc 1 1770 0
ARM GAS  /tmp/ccB5BhZs.s 			page 198


 8600 0012 0023     		movs	r3, #0
 8601 0014 FB62     		str	r3, [r7, #44]
 8602 0016 33E0     		b	.L740
 8603              	.L739:
 8604              	.LBB644:
 8605              	.LBB645:
 209:Firmware/Drivers/CMSIS/Include/cmsis_gcc.h ****   return(result);
 8606              		.loc 2 209 0
 8607              		.syntax unified
 8608              	@ 209 "Firmware/Drivers/CMSIS/Include/cmsis_gcc.h" 1
 8609 0018 EFF30583 		MRS r3, ipsr
 8610              	@ 0 "" 2
 8611              		.thumb
 8612              		.syntax unified
 8613 001c 3B62     		str	r3, [r7, #32]
 210:Firmware/Drivers/CMSIS/Include/cmsis_gcc.h **** }
 8614              		.loc 2 210 0
 8615 001e 3B6A     		ldr	r3, [r7, #32]
 8616              	.LBE645:
 8617              	.LBE644:
1771:Firmware/Middlewares/Third_Party/FreeRTOS/Source/CMSIS_RTOS_V2/cmsis_os2.c ****   }
1772:Firmware/Middlewares/Third_Party/FreeRTOS/Source/CMSIS_RTOS_V2/cmsis_os2.c ****   else if (IS_IRQ()) {
 8618              		.loc 1 1772 0
 8619 0020 002B     		cmp	r3, #0
 8620 0022 0FD1     		bne	.L742
 8621              	.LBB646:
 8622              	.LBB647:
 386:Firmware/Drivers/CMSIS/Include/cmsis_gcc.h ****   return(result);
 8623              		.loc 2 386 0 discriminator 1
 8624              		.syntax unified
 8625              	@ 386 "Firmware/Drivers/CMSIS/Include/cmsis_gcc.h" 1
 8626 0024 EFF31083 		MRS r3, primask
 8627              	@ 0 "" 2
 8628              		.thumb
 8629              		.syntax unified
 8630 0028 FB61     		str	r3, [r7, #28]
 387:Firmware/Drivers/CMSIS/Include/cmsis_gcc.h **** }
 8631              		.loc 2 387 0 discriminator 1
 8632 002a FB69     		ldr	r3, [r7, #28]
 8633              	.LBE647:
 8634              	.LBE646:
 8635              		.loc 1 1772 0 discriminator 1
 8636 002c 002B     		cmp	r3, #0
 8637 002e 09D1     		bne	.L742
 8638              		.loc 1 1772 0 is_stmt 0 discriminator 2
 8639 0030 164B     		ldr	r3, .L748
 8640 0032 1B68     		ldr	r3, [r3]
 8641 0034 022B     		cmp	r3, #2
 8642 0036 1FD1     		bne	.L744
 8643              	.LBB648:
 8644              	.LBB649:
 465:Firmware/Drivers/CMSIS/Include/cmsis_gcc.h ****   return(result);
 8645              		.loc 2 465 0 is_stmt 1 discriminator 3
 8646              		.syntax unified
 8647              	@ 465 "Firmware/Drivers/CMSIS/Include/cmsis_gcc.h" 1
 8648 0038 EFF31183 		MRS r3, basepri
 8649              	@ 0 "" 2
ARM GAS  /tmp/ccB5BhZs.s 			page 199


 8650              		.thumb
 8651              		.syntax unified
 8652 003c BB61     		str	r3, [r7, #24]
 8653              		.loc 2 466 0 discriminator 3
 8654 003e BB69     		ldr	r3, [r7, #24]
 8655              	.LBE649:
 8656              	.LBE648:
 8657              		.loc 1 1772 0 discriminator 3
 8658 0040 002B     		cmp	r3, #0
 8659 0042 19D0     		beq	.L744
 8660              	.L742:
 8661              	.LBB650:
 8662              	.LBB651:
 211:Firmware/Middlewares/Third_Party/FreeRTOS/Source/portable/GCC/ARM_CM4F/portmacro.h **** 	(
 8663              		.loc 3 211 0
 8664              		.syntax unified
 8665              	@ 211 "Firmware/Middlewares/Third_Party/FreeRTOS/Source/portable/GCC/ARM_CM4F/portmacro.h" 1
 8666 0044 EFF31182 			mrs r2, basepri											
 8667 0048 4FF05003 		mov r3, #80												
 8668 004c 83F31188 		msr basepri, r3											
 8669 0050 BFF36F8F 		isb														
 8670 0054 BFF34F8F 		dsb														
 8671              	
 8672              	@ 0 "" 2
 8673              		.thumb
 8674              		.syntax unified
 8675 0058 3A61     		str	r2, [r7, #16]
 8676 005a FB60     		str	r3, [r7, #12]
 223:Firmware/Middlewares/Third_Party/FreeRTOS/Source/portable/GCC/ARM_CM4F/portmacro.h **** }
 8677              		.loc 3 223 0
 8678 005c 3B69     		ldr	r3, [r7, #16]
 8679              	.LBE651:
 8680              	.LBE650:
1773:Firmware/Middlewares/Third_Party/FreeRTOS/Source/CMSIS_RTOS_V2/cmsis_os2.c ****     isrm = taskENTER_CRITICAL_FROM_ISR();
 8681              		.loc 1 1773 0
 8682 005e 7B62     		str	r3, [r7, #36]
1774:Firmware/Middlewares/Third_Party/FreeRTOS/Source/CMSIS_RTOS_V2/cmsis_os2.c **** 
1775:Firmware/Middlewares/Third_Party/FreeRTOS/Source/CMSIS_RTOS_V2/cmsis_os2.c ****     /* space = pxQueue->uxLength - pxQueue->uxMessagesWaiting; */
1776:Firmware/Middlewares/Third_Party/FreeRTOS/Source/CMSIS_RTOS_V2/cmsis_os2.c ****     space = mq->uxDummy4[1] - mq->uxDummy4[0];
 8683              		.loc 1 1776 0
 8684 0060 BB6A     		ldr	r3, [r7, #40]
 8685 0062 DA6B     		ldr	r2, [r3, #60]
 8686 0064 BB6A     		ldr	r3, [r7, #40]
 8687 0066 9B6B     		ldr	r3, [r3, #56]
 8688 0068 D31A     		subs	r3, r2, r3
 8689 006a FB62     		str	r3, [r7, #44]
 8690 006c 7B6A     		ldr	r3, [r7, #36]
 8691 006e 7B61     		str	r3, [r7, #20]
 8692              	.LBB652:
 8693              	.LBB653:
 8694              		.loc 3 229 0
 8695 0070 7B69     		ldr	r3, [r7, #20]
 8696              		.syntax unified
 8697              	@ 229 "Firmware/Middlewares/Third_Party/FreeRTOS/Source/portable/GCC/ARM_CM4F/portmacro.h" 1
 8698 0072 83F31188 			msr basepri, r3	
 8699              	@ 0 "" 2
 8700              		.thumb
ARM GAS  /tmp/ccB5BhZs.s 			page 200


 8701              		.syntax unified
 8702              	.LBE653:
 8703              	.LBE652:
1777:Firmware/Middlewares/Third_Party/FreeRTOS/Source/CMSIS_RTOS_V2/cmsis_os2.c **** 
1778:Firmware/Middlewares/Third_Party/FreeRTOS/Source/CMSIS_RTOS_V2/cmsis_os2.c ****     taskEXIT_CRITICAL_FROM_ISR(isrm);
 8704              		.loc 1 1778 0
 8705 0076 03E0     		b	.L740
 8706              	.L744:
1779:Firmware/Middlewares/Third_Party/FreeRTOS/Source/CMSIS_RTOS_V2/cmsis_os2.c ****   }
1780:Firmware/Middlewares/Third_Party/FreeRTOS/Source/CMSIS_RTOS_V2/cmsis_os2.c ****   else {
1781:Firmware/Middlewares/Third_Party/FreeRTOS/Source/CMSIS_RTOS_V2/cmsis_os2.c ****     space = (uint32_t)uxQueueSpacesAvailable ((QueueHandle_t)mq);
 8707              		.loc 1 1781 0
 8708 0078 B86A     		ldr	r0, [r7, #40]
 8709 007a FFF7FEFF 		bl	uxQueueSpacesAvailable
 8710 007e F862     		str	r0, [r7, #44]
 8711              	.L740:
1782:Firmware/Middlewares/Third_Party/FreeRTOS/Source/CMSIS_RTOS_V2/cmsis_os2.c ****   }
1783:Firmware/Middlewares/Third_Party/FreeRTOS/Source/CMSIS_RTOS_V2/cmsis_os2.c **** 
1784:Firmware/Middlewares/Third_Party/FreeRTOS/Source/CMSIS_RTOS_V2/cmsis_os2.c ****   return (space);
 8712              		.loc 1 1784 0
 8713 0080 FB6A     		ldr	r3, [r7, #44]
1785:Firmware/Middlewares/Third_Party/FreeRTOS/Source/CMSIS_RTOS_V2/cmsis_os2.c **** }
 8714              		.loc 1 1785 0
 8715 0082 1846     		mov	r0, r3
 8716 0084 3037     		adds	r7, r7, #48
 8717              	.LCFI308:
 8718              		.cfi_def_cfa_offset 8
 8719 0086 BD46     		mov	sp, r7
 8720              	.LCFI309:
 8721              		.cfi_def_cfa_register 13
 8722              		@ sp needed
 8723 0088 80BD     		pop	{r7, pc}
 8724              	.L749:
 8725 008a 00BF     		.align	2
 8726              	.L748:
 8727 008c 00000000 		.word	KernelState
 8728              		.cfi_endproc
 8729              	.LFE167:
 8731              		.section	.text.osMessageQueueReset,"ax",%progbits
 8732              		.align	1
 8733              		.global	osMessageQueueReset
 8734              		.syntax unified
 8735              		.thumb
 8736              		.thumb_func
 8737              		.fpu fpv4-sp-d16
 8739              	osMessageQueueReset:
 8740              	.LFB168:
1786:Firmware/Middlewares/Third_Party/FreeRTOS/Source/CMSIS_RTOS_V2/cmsis_os2.c **** 
1787:Firmware/Middlewares/Third_Party/FreeRTOS/Source/CMSIS_RTOS_V2/cmsis_os2.c **** osStatus_t osMessageQueueReset (osMessageQueueId_t mq_id) {
 8741              		.loc 1 1787 0
 8742              		.cfi_startproc
 8743              		@ args = 0, pretend = 0, frame = 32
 8744              		@ frame_needed = 1, uses_anonymous_args = 0
 8745 0000 80B5     		push	{r7, lr}
 8746              	.LCFI310:
 8747              		.cfi_def_cfa_offset 8
 8748              		.cfi_offset 7, -8
ARM GAS  /tmp/ccB5BhZs.s 			page 201


 8749              		.cfi_offset 14, -4
 8750 0002 88B0     		sub	sp, sp, #32
 8751              	.LCFI311:
 8752              		.cfi_def_cfa_offset 40
 8753 0004 00AF     		add	r7, sp, #0
 8754              	.LCFI312:
 8755              		.cfi_def_cfa_register 7
 8756 0006 7860     		str	r0, [r7, #4]
1788:Firmware/Middlewares/Third_Party/FreeRTOS/Source/CMSIS_RTOS_V2/cmsis_os2.c ****   QueueHandle_t hQueue = (QueueHandle_t)mq_id;
 8757              		.loc 1 1788 0
 8758 0008 7B68     		ldr	r3, [r7, #4]
 8759 000a BB61     		str	r3, [r7, #24]
 8760              	.LBB654:
 8761              	.LBB655:
 209:Firmware/Drivers/CMSIS/Include/cmsis_gcc.h ****   return(result);
 8762              		.loc 2 209 0
 8763              		.syntax unified
 8764              	@ 209 "Firmware/Drivers/CMSIS/Include/cmsis_gcc.h" 1
 8765 000c EFF30583 		MRS r3, ipsr
 8766              	@ 0 "" 2
 8767              		.thumb
 8768              		.syntax unified
 8769 0010 7B61     		str	r3, [r7, #20]
 210:Firmware/Drivers/CMSIS/Include/cmsis_gcc.h **** }
 8770              		.loc 2 210 0
 8771 0012 7B69     		ldr	r3, [r7, #20]
 8772              	.LBE655:
 8773              	.LBE654:
1789:Firmware/Middlewares/Third_Party/FreeRTOS/Source/CMSIS_RTOS_V2/cmsis_os2.c ****   osStatus_t stat;
1790:Firmware/Middlewares/Third_Party/FreeRTOS/Source/CMSIS_RTOS_V2/cmsis_os2.c **** 
1791:Firmware/Middlewares/Third_Party/FreeRTOS/Source/CMSIS_RTOS_V2/cmsis_os2.c ****   if (IS_IRQ()) {
 8774              		.loc 1 1791 0
 8775 0014 002B     		cmp	r3, #0
 8776 0016 0FD1     		bne	.L752
 8777              	.LBB656:
 8778              	.LBB657:
 386:Firmware/Drivers/CMSIS/Include/cmsis_gcc.h ****   return(result);
 8779              		.loc 2 386 0 discriminator 1
 8780              		.syntax unified
 8781              	@ 386 "Firmware/Drivers/CMSIS/Include/cmsis_gcc.h" 1
 8782 0018 EFF31083 		MRS r3, primask
 8783              	@ 0 "" 2
 8784              		.thumb
 8785              		.syntax unified
 8786 001c 3B61     		str	r3, [r7, #16]
 387:Firmware/Drivers/CMSIS/Include/cmsis_gcc.h **** }
 8787              		.loc 2 387 0 discriminator 1
 8788 001e 3B69     		ldr	r3, [r7, #16]
 8789              	.LBE657:
 8790              	.LBE656:
 8791              		.loc 1 1791 0 discriminator 1
 8792 0020 002B     		cmp	r3, #0
 8793 0022 09D1     		bne	.L752
 8794              		.loc 1 1791 0 is_stmt 0 discriminator 2
 8795 0024 0F4B     		ldr	r3, .L759
 8796 0026 1B68     		ldr	r3, [r3]
 8797 0028 022B     		cmp	r3, #2
ARM GAS  /tmp/ccB5BhZs.s 			page 202


 8798 002a 09D1     		bne	.L754
 8799              	.LBB658:
 8800              	.LBB659:
 465:Firmware/Drivers/CMSIS/Include/cmsis_gcc.h ****   return(result);
 8801              		.loc 2 465 0 is_stmt 1 discriminator 3
 8802              		.syntax unified
 8803              	@ 465 "Firmware/Drivers/CMSIS/Include/cmsis_gcc.h" 1
 8804 002c EFF31183 		MRS r3, basepri
 8805              	@ 0 "" 2
 8806              		.thumb
 8807              		.syntax unified
 8808 0030 FB60     		str	r3, [r7, #12]
 8809              		.loc 2 466 0 discriminator 3
 8810 0032 FB68     		ldr	r3, [r7, #12]
 8811              	.LBE659:
 8812              	.LBE658:
 8813              		.loc 1 1791 0 discriminator 3
 8814 0034 002B     		cmp	r3, #0
 8815 0036 03D0     		beq	.L754
 8816              	.L752:
1792:Firmware/Middlewares/Third_Party/FreeRTOS/Source/CMSIS_RTOS_V2/cmsis_os2.c ****     stat = osErrorISR;
 8817              		.loc 1 1792 0
 8818 0038 6FF00503 		mvn	r3, #5
 8819 003c FB61     		str	r3, [r7, #28]
 8820 003e 0CE0     		b	.L756
 8821              	.L754:
1793:Firmware/Middlewares/Third_Party/FreeRTOS/Source/CMSIS_RTOS_V2/cmsis_os2.c ****   }
1794:Firmware/Middlewares/Third_Party/FreeRTOS/Source/CMSIS_RTOS_V2/cmsis_os2.c ****   else if (hQueue == NULL) {
 8822              		.loc 1 1794 0
 8823 0040 BB69     		ldr	r3, [r7, #24]
 8824 0042 002B     		cmp	r3, #0
 8825 0044 03D1     		bne	.L757
1795:Firmware/Middlewares/Third_Party/FreeRTOS/Source/CMSIS_RTOS_V2/cmsis_os2.c ****     stat = osErrorParameter;
 8826              		.loc 1 1795 0
 8827 0046 6FF00303 		mvn	r3, #3
 8828 004a FB61     		str	r3, [r7, #28]
 8829 004c 05E0     		b	.L756
 8830              	.L757:
1796:Firmware/Middlewares/Third_Party/FreeRTOS/Source/CMSIS_RTOS_V2/cmsis_os2.c ****   }
1797:Firmware/Middlewares/Third_Party/FreeRTOS/Source/CMSIS_RTOS_V2/cmsis_os2.c ****   else {
1798:Firmware/Middlewares/Third_Party/FreeRTOS/Source/CMSIS_RTOS_V2/cmsis_os2.c ****     stat = osOK;
 8831              		.loc 1 1798 0
 8832 004e 0023     		movs	r3, #0
 8833 0050 FB61     		str	r3, [r7, #28]
1799:Firmware/Middlewares/Third_Party/FreeRTOS/Source/CMSIS_RTOS_V2/cmsis_os2.c ****     (void)xQueueReset (hQueue);
 8834              		.loc 1 1799 0
 8835 0052 0021     		movs	r1, #0
 8836 0054 B869     		ldr	r0, [r7, #24]
 8837 0056 FFF7FEFF 		bl	xQueueGenericReset
 8838              	.L756:
1800:Firmware/Middlewares/Third_Party/FreeRTOS/Source/CMSIS_RTOS_V2/cmsis_os2.c ****   }
1801:Firmware/Middlewares/Third_Party/FreeRTOS/Source/CMSIS_RTOS_V2/cmsis_os2.c **** 
1802:Firmware/Middlewares/Third_Party/FreeRTOS/Source/CMSIS_RTOS_V2/cmsis_os2.c ****   return (stat);
 8839              		.loc 1 1802 0
 8840 005a FB69     		ldr	r3, [r7, #28]
1803:Firmware/Middlewares/Third_Party/FreeRTOS/Source/CMSIS_RTOS_V2/cmsis_os2.c **** }
 8841              		.loc 1 1803 0
ARM GAS  /tmp/ccB5BhZs.s 			page 203


 8842 005c 1846     		mov	r0, r3
 8843 005e 2037     		adds	r7, r7, #32
 8844              	.LCFI313:
 8845              		.cfi_def_cfa_offset 8
 8846 0060 BD46     		mov	sp, r7
 8847              	.LCFI314:
 8848              		.cfi_def_cfa_register 13
 8849              		@ sp needed
 8850 0062 80BD     		pop	{r7, pc}
 8851              	.L760:
 8852              		.align	2
 8853              	.L759:
 8854 0064 00000000 		.word	KernelState
 8855              		.cfi_endproc
 8856              	.LFE168:
 8858              		.section	.text.osMessageQueueDelete,"ax",%progbits
 8859              		.align	1
 8860              		.global	osMessageQueueDelete
 8861              		.syntax unified
 8862              		.thumb
 8863              		.thumb_func
 8864              		.fpu fpv4-sp-d16
 8866              	osMessageQueueDelete:
 8867              	.LFB169:
1804:Firmware/Middlewares/Third_Party/FreeRTOS/Source/CMSIS_RTOS_V2/cmsis_os2.c **** 
1805:Firmware/Middlewares/Third_Party/FreeRTOS/Source/CMSIS_RTOS_V2/cmsis_os2.c **** osStatus_t osMessageQueueDelete (osMessageQueueId_t mq_id) {
 8868              		.loc 1 1805 0
 8869              		.cfi_startproc
 8870              		@ args = 0, pretend = 0, frame = 32
 8871              		@ frame_needed = 1, uses_anonymous_args = 0
 8872 0000 80B5     		push	{r7, lr}
 8873              	.LCFI315:
 8874              		.cfi_def_cfa_offset 8
 8875              		.cfi_offset 7, -8
 8876              		.cfi_offset 14, -4
 8877 0002 88B0     		sub	sp, sp, #32
 8878              	.LCFI316:
 8879              		.cfi_def_cfa_offset 40
 8880 0004 00AF     		add	r7, sp, #0
 8881              	.LCFI317:
 8882              		.cfi_def_cfa_register 7
 8883 0006 7860     		str	r0, [r7, #4]
1806:Firmware/Middlewares/Third_Party/FreeRTOS/Source/CMSIS_RTOS_V2/cmsis_os2.c ****   QueueHandle_t hQueue = (QueueHandle_t)mq_id;
 8884              		.loc 1 1806 0
 8885 0008 7B68     		ldr	r3, [r7, #4]
 8886 000a BB61     		str	r3, [r7, #24]
 8887              	.LBB660:
 8888              	.LBB661:
 209:Firmware/Drivers/CMSIS/Include/cmsis_gcc.h ****   return(result);
 8889              		.loc 2 209 0
 8890              		.syntax unified
 8891              	@ 209 "Firmware/Drivers/CMSIS/Include/cmsis_gcc.h" 1
 8892 000c EFF30583 		MRS r3, ipsr
 8893              	@ 0 "" 2
 8894              		.thumb
 8895              		.syntax unified
 8896 0010 7B61     		str	r3, [r7, #20]
ARM GAS  /tmp/ccB5BhZs.s 			page 204


 210:Firmware/Drivers/CMSIS/Include/cmsis_gcc.h **** }
 8897              		.loc 2 210 0
 8898 0012 7B69     		ldr	r3, [r7, #20]
 8899              	.LBE661:
 8900              	.LBE660:
1807:Firmware/Middlewares/Third_Party/FreeRTOS/Source/CMSIS_RTOS_V2/cmsis_os2.c ****   osStatus_t stat;
1808:Firmware/Middlewares/Third_Party/FreeRTOS/Source/CMSIS_RTOS_V2/cmsis_os2.c **** 
1809:Firmware/Middlewares/Third_Party/FreeRTOS/Source/CMSIS_RTOS_V2/cmsis_os2.c **** #ifndef USE_FreeRTOS_HEAP_1
1810:Firmware/Middlewares/Third_Party/FreeRTOS/Source/CMSIS_RTOS_V2/cmsis_os2.c ****   if (IS_IRQ()) {
 8901              		.loc 1 1810 0
 8902 0014 002B     		cmp	r3, #0
 8903 0016 0FD1     		bne	.L763
 8904              	.LBB662:
 8905              	.LBB663:
 386:Firmware/Drivers/CMSIS/Include/cmsis_gcc.h ****   return(result);
 8906              		.loc 2 386 0 discriminator 1
 8907              		.syntax unified
 8908              	@ 386 "Firmware/Drivers/CMSIS/Include/cmsis_gcc.h" 1
 8909 0018 EFF31083 		MRS r3, primask
 8910              	@ 0 "" 2
 8911              		.thumb
 8912              		.syntax unified
 8913 001c 3B61     		str	r3, [r7, #16]
 387:Firmware/Drivers/CMSIS/Include/cmsis_gcc.h **** }
 8914              		.loc 2 387 0 discriminator 1
 8915 001e 3B69     		ldr	r3, [r7, #16]
 8916              	.LBE663:
 8917              	.LBE662:
 8918              		.loc 1 1810 0 discriminator 1
 8919 0020 002B     		cmp	r3, #0
 8920 0022 09D1     		bne	.L763
 8921              		.loc 1 1810 0 is_stmt 0 discriminator 2
 8922 0024 104B     		ldr	r3, .L770
 8923 0026 1B68     		ldr	r3, [r3]
 8924 0028 022B     		cmp	r3, #2
 8925 002a 09D1     		bne	.L765
 8926              	.LBB664:
 8927              	.LBB665:
 465:Firmware/Drivers/CMSIS/Include/cmsis_gcc.h ****   return(result);
 8928              		.loc 2 465 0 is_stmt 1 discriminator 3
 8929              		.syntax unified
 8930              	@ 465 "Firmware/Drivers/CMSIS/Include/cmsis_gcc.h" 1
 8931 002c EFF31183 		MRS r3, basepri
 8932              	@ 0 "" 2
 8933              		.thumb
 8934              		.syntax unified
 8935 0030 FB60     		str	r3, [r7, #12]
 8936              		.loc 2 466 0 discriminator 3
 8937 0032 FB68     		ldr	r3, [r7, #12]
 8938              	.LBE665:
 8939              	.LBE664:
 8940              		.loc 1 1810 0 discriminator 3
 8941 0034 002B     		cmp	r3, #0
 8942 0036 03D0     		beq	.L765
 8943              	.L763:
1811:Firmware/Middlewares/Third_Party/FreeRTOS/Source/CMSIS_RTOS_V2/cmsis_os2.c ****     stat = osErrorISR;
 8944              		.loc 1 1811 0
ARM GAS  /tmp/ccB5BhZs.s 			page 205


 8945 0038 6FF00503 		mvn	r3, #5
 8946 003c FB61     		str	r3, [r7, #28]
 8947 003e 0EE0     		b	.L767
 8948              	.L765:
1812:Firmware/Middlewares/Third_Party/FreeRTOS/Source/CMSIS_RTOS_V2/cmsis_os2.c ****   }
1813:Firmware/Middlewares/Third_Party/FreeRTOS/Source/CMSIS_RTOS_V2/cmsis_os2.c ****   else if (hQueue == NULL) {
 8949              		.loc 1 1813 0
 8950 0040 BB69     		ldr	r3, [r7, #24]
 8951 0042 002B     		cmp	r3, #0
 8952 0044 03D1     		bne	.L768
1814:Firmware/Middlewares/Third_Party/FreeRTOS/Source/CMSIS_RTOS_V2/cmsis_os2.c ****     stat = osErrorParameter;
 8953              		.loc 1 1814 0
 8954 0046 6FF00303 		mvn	r3, #3
 8955 004a FB61     		str	r3, [r7, #28]
 8956 004c 07E0     		b	.L767
 8957              	.L768:
1815:Firmware/Middlewares/Third_Party/FreeRTOS/Source/CMSIS_RTOS_V2/cmsis_os2.c ****   }
1816:Firmware/Middlewares/Third_Party/FreeRTOS/Source/CMSIS_RTOS_V2/cmsis_os2.c ****   else {
1817:Firmware/Middlewares/Third_Party/FreeRTOS/Source/CMSIS_RTOS_V2/cmsis_os2.c ****     #if (configQUEUE_REGISTRY_SIZE > 0)
1818:Firmware/Middlewares/Third_Party/FreeRTOS/Source/CMSIS_RTOS_V2/cmsis_os2.c ****     vQueueUnregisterQueue (hQueue);
 8958              		.loc 1 1818 0
 8959 004e B869     		ldr	r0, [r7, #24]
 8960 0050 FFF7FEFF 		bl	vQueueUnregisterQueue
1819:Firmware/Middlewares/Third_Party/FreeRTOS/Source/CMSIS_RTOS_V2/cmsis_os2.c ****     #endif
1820:Firmware/Middlewares/Third_Party/FreeRTOS/Source/CMSIS_RTOS_V2/cmsis_os2.c **** 
1821:Firmware/Middlewares/Third_Party/FreeRTOS/Source/CMSIS_RTOS_V2/cmsis_os2.c ****     stat = osOK;
 8961              		.loc 1 1821 0
 8962 0054 0023     		movs	r3, #0
 8963 0056 FB61     		str	r3, [r7, #28]
1822:Firmware/Middlewares/Third_Party/FreeRTOS/Source/CMSIS_RTOS_V2/cmsis_os2.c ****     vQueueDelete (hQueue);
 8964              		.loc 1 1822 0
 8965 0058 B869     		ldr	r0, [r7, #24]
 8966 005a FFF7FEFF 		bl	vQueueDelete
 8967              	.L767:
1823:Firmware/Middlewares/Third_Party/FreeRTOS/Source/CMSIS_RTOS_V2/cmsis_os2.c ****   }
1824:Firmware/Middlewares/Third_Party/FreeRTOS/Source/CMSIS_RTOS_V2/cmsis_os2.c **** #else
1825:Firmware/Middlewares/Third_Party/FreeRTOS/Source/CMSIS_RTOS_V2/cmsis_os2.c ****   stat = osError;
1826:Firmware/Middlewares/Third_Party/FreeRTOS/Source/CMSIS_RTOS_V2/cmsis_os2.c **** #endif
1827:Firmware/Middlewares/Third_Party/FreeRTOS/Source/CMSIS_RTOS_V2/cmsis_os2.c **** 
1828:Firmware/Middlewares/Third_Party/FreeRTOS/Source/CMSIS_RTOS_V2/cmsis_os2.c ****   return (stat);
 8968              		.loc 1 1828 0
 8969 005e FB69     		ldr	r3, [r7, #28]
1829:Firmware/Middlewares/Third_Party/FreeRTOS/Source/CMSIS_RTOS_V2/cmsis_os2.c **** }
 8970              		.loc 1 1829 0
 8971 0060 1846     		mov	r0, r3
 8972 0062 2037     		adds	r7, r7, #32
 8973              	.LCFI318:
 8974              		.cfi_def_cfa_offset 8
 8975 0064 BD46     		mov	sp, r7
 8976              	.LCFI319:
 8977              		.cfi_def_cfa_register 13
 8978              		@ sp needed
 8979 0066 80BD     		pop	{r7, pc}
 8980              	.L771:
 8981              		.align	2
 8982              	.L770:
 8983 0068 00000000 		.word	KernelState
ARM GAS  /tmp/ccB5BhZs.s 			page 206


 8984              		.cfi_endproc
 8985              	.LFE169:
 8987              		.section	.bss.Idle_TCB,"aw",%nobits
 8988              		.align	2
 8991              	Idle_TCB:
 8992 0000 00000000 		.space	92
 8992      00000000 
 8992      00000000 
 8992      00000000 
 8992      00000000 
 8993              		.section	.bss.Idle_Stack,"aw",%nobits
 8994              		.align	2
 8997              	Idle_Stack:
 8998 0000 00000000 		.space	512
 8998      00000000 
 8998      00000000 
 8998      00000000 
 8998      00000000 
 8999              		.section	.bss.Timer_TCB,"aw",%nobits
 9000              		.align	2
 9003              	Timer_TCB:
 9004 0000 00000000 		.space	92
 9004      00000000 
 9004      00000000 
 9004      00000000 
 9004      00000000 
 9005              		.section	.bss.Timer_Stack,"aw",%nobits
 9006              		.align	2
 9009              	Timer_Stack:
 9010 0000 00000000 		.space	1024
 9010      00000000 
 9010      00000000 
 9010      00000000 
 9010      00000000 
 9011              		.section	.text.vApplicationGetIdleTaskMemory,"ax",%progbits
 9012              		.align	1
 9013              		.global	vApplicationGetIdleTaskMemory
 9014              		.syntax unified
 9015              		.thumb
 9016              		.thumb_func
 9017              		.fpu fpv4-sp-d16
 9019              	vApplicationGetIdleTaskMemory:
 9020              	.LFB170:
1830:Firmware/Middlewares/Third_Party/FreeRTOS/Source/CMSIS_RTOS_V2/cmsis_os2.c **** 
1831:Firmware/Middlewares/Third_Party/FreeRTOS/Source/CMSIS_RTOS_V2/cmsis_os2.c **** /*---------------------------------------------------------------------------*/
1832:Firmware/Middlewares/Third_Party/FreeRTOS/Source/CMSIS_RTOS_V2/cmsis_os2.c **** 
1833:Firmware/Middlewares/Third_Party/FreeRTOS/Source/CMSIS_RTOS_V2/cmsis_os2.c **** /* Callback function prototypes */
1834:Firmware/Middlewares/Third_Party/FreeRTOS/Source/CMSIS_RTOS_V2/cmsis_os2.c **** extern void vApplicationIdleHook (void);
1835:Firmware/Middlewares/Third_Party/FreeRTOS/Source/CMSIS_RTOS_V2/cmsis_os2.c **** extern void vApplicationTickHook (void);
1836:Firmware/Middlewares/Third_Party/FreeRTOS/Source/CMSIS_RTOS_V2/cmsis_os2.c **** extern void vApplicationMallocFailedHook (void);
1837:Firmware/Middlewares/Third_Party/FreeRTOS/Source/CMSIS_RTOS_V2/cmsis_os2.c **** extern void vApplicationDaemonTaskStartupHook (void);
1838:Firmware/Middlewares/Third_Party/FreeRTOS/Source/CMSIS_RTOS_V2/cmsis_os2.c **** extern void vApplicationStackOverflowHook (TaskHandle_t xTask, signed char *pcTaskName);
1839:Firmware/Middlewares/Third_Party/FreeRTOS/Source/CMSIS_RTOS_V2/cmsis_os2.c **** 
1840:Firmware/Middlewares/Third_Party/FreeRTOS/Source/CMSIS_RTOS_V2/cmsis_os2.c **** /**
1841:Firmware/Middlewares/Third_Party/FreeRTOS/Source/CMSIS_RTOS_V2/cmsis_os2.c ****   Dummy implementation of the callback function vApplicationIdleHook().
1842:Firmware/Middlewares/Third_Party/FreeRTOS/Source/CMSIS_RTOS_V2/cmsis_os2.c **** */
1843:Firmware/Middlewares/Third_Party/FreeRTOS/Source/CMSIS_RTOS_V2/cmsis_os2.c **** #if (configUSE_IDLE_HOOK == 1)
ARM GAS  /tmp/ccB5BhZs.s 			page 207


1844:Firmware/Middlewares/Third_Party/FreeRTOS/Source/CMSIS_RTOS_V2/cmsis_os2.c **** __WEAK void vApplicationIdleHook (void){}
1845:Firmware/Middlewares/Third_Party/FreeRTOS/Source/CMSIS_RTOS_V2/cmsis_os2.c **** #endif
1846:Firmware/Middlewares/Third_Party/FreeRTOS/Source/CMSIS_RTOS_V2/cmsis_os2.c **** 
1847:Firmware/Middlewares/Third_Party/FreeRTOS/Source/CMSIS_RTOS_V2/cmsis_os2.c **** /**
1848:Firmware/Middlewares/Third_Party/FreeRTOS/Source/CMSIS_RTOS_V2/cmsis_os2.c ****   Dummy implementation of the callback function vApplicationTickHook().
1849:Firmware/Middlewares/Third_Party/FreeRTOS/Source/CMSIS_RTOS_V2/cmsis_os2.c **** */
1850:Firmware/Middlewares/Third_Party/FreeRTOS/Source/CMSIS_RTOS_V2/cmsis_os2.c **** #if (configUSE_TICK_HOOK == 1)
1851:Firmware/Middlewares/Third_Party/FreeRTOS/Source/CMSIS_RTOS_V2/cmsis_os2.c ****  __WEAK void vApplicationTickHook (void){}
1852:Firmware/Middlewares/Third_Party/FreeRTOS/Source/CMSIS_RTOS_V2/cmsis_os2.c **** #endif
1853:Firmware/Middlewares/Third_Party/FreeRTOS/Source/CMSIS_RTOS_V2/cmsis_os2.c **** 
1854:Firmware/Middlewares/Third_Party/FreeRTOS/Source/CMSIS_RTOS_V2/cmsis_os2.c **** /**
1855:Firmware/Middlewares/Third_Party/FreeRTOS/Source/CMSIS_RTOS_V2/cmsis_os2.c ****   Dummy implementation of the callback function vApplicationMallocFailedHook().
1856:Firmware/Middlewares/Third_Party/FreeRTOS/Source/CMSIS_RTOS_V2/cmsis_os2.c **** */
1857:Firmware/Middlewares/Third_Party/FreeRTOS/Source/CMSIS_RTOS_V2/cmsis_os2.c **** #if (configUSE_MALLOC_FAILED_HOOK == 1)
1858:Firmware/Middlewares/Third_Party/FreeRTOS/Source/CMSIS_RTOS_V2/cmsis_os2.c **** __WEAK void vApplicationMallocFailedHook (void){}
1859:Firmware/Middlewares/Third_Party/FreeRTOS/Source/CMSIS_RTOS_V2/cmsis_os2.c **** #endif
1860:Firmware/Middlewares/Third_Party/FreeRTOS/Source/CMSIS_RTOS_V2/cmsis_os2.c **** 
1861:Firmware/Middlewares/Third_Party/FreeRTOS/Source/CMSIS_RTOS_V2/cmsis_os2.c **** /**
1862:Firmware/Middlewares/Third_Party/FreeRTOS/Source/CMSIS_RTOS_V2/cmsis_os2.c ****   Dummy implementation of the callback function vApplicationDaemonTaskStartupHook().
1863:Firmware/Middlewares/Third_Party/FreeRTOS/Source/CMSIS_RTOS_V2/cmsis_os2.c **** */
1864:Firmware/Middlewares/Third_Party/FreeRTOS/Source/CMSIS_RTOS_V2/cmsis_os2.c **** #if (configUSE_DAEMON_TASK_STARTUP_HOOK == 1)
1865:Firmware/Middlewares/Third_Party/FreeRTOS/Source/CMSIS_RTOS_V2/cmsis_os2.c **** __WEAK void vApplicationDaemonTaskStartupHook (void){}
1866:Firmware/Middlewares/Third_Party/FreeRTOS/Source/CMSIS_RTOS_V2/cmsis_os2.c **** #endif
1867:Firmware/Middlewares/Third_Party/FreeRTOS/Source/CMSIS_RTOS_V2/cmsis_os2.c **** 
1868:Firmware/Middlewares/Third_Party/FreeRTOS/Source/CMSIS_RTOS_V2/cmsis_os2.c **** /**
1869:Firmware/Middlewares/Third_Party/FreeRTOS/Source/CMSIS_RTOS_V2/cmsis_os2.c ****   Dummy implementation of the callback function vApplicationStackOverflowHook().
1870:Firmware/Middlewares/Third_Party/FreeRTOS/Source/CMSIS_RTOS_V2/cmsis_os2.c **** */
1871:Firmware/Middlewares/Third_Party/FreeRTOS/Source/CMSIS_RTOS_V2/cmsis_os2.c **** #if (configCHECK_FOR_STACK_OVERFLOW > 0)
1872:Firmware/Middlewares/Third_Party/FreeRTOS/Source/CMSIS_RTOS_V2/cmsis_os2.c **** __WEAK void vApplicationStackOverflowHook (TaskHandle_t xTask, signed char *pcTaskName) {
1873:Firmware/Middlewares/Third_Party/FreeRTOS/Source/CMSIS_RTOS_V2/cmsis_os2.c ****   (void)xTask;
1874:Firmware/Middlewares/Third_Party/FreeRTOS/Source/CMSIS_RTOS_V2/cmsis_os2.c ****   (void)pcTaskName;
1875:Firmware/Middlewares/Third_Party/FreeRTOS/Source/CMSIS_RTOS_V2/cmsis_os2.c **** }
1876:Firmware/Middlewares/Third_Party/FreeRTOS/Source/CMSIS_RTOS_V2/cmsis_os2.c **** #endif
1877:Firmware/Middlewares/Third_Party/FreeRTOS/Source/CMSIS_RTOS_V2/cmsis_os2.c **** 
1878:Firmware/Middlewares/Third_Party/FreeRTOS/Source/CMSIS_RTOS_V2/cmsis_os2.c **** /*---------------------------------------------------------------------------*/
1879:Firmware/Middlewares/Third_Party/FreeRTOS/Source/CMSIS_RTOS_V2/cmsis_os2.c **** 
1880:Firmware/Middlewares/Third_Party/FreeRTOS/Source/CMSIS_RTOS_V2/cmsis_os2.c **** /* External Idle and Timer task static memory allocation functions */
1881:Firmware/Middlewares/Third_Party/FreeRTOS/Source/CMSIS_RTOS_V2/cmsis_os2.c **** extern void vApplicationGetIdleTaskMemory  (StaticTask_t **ppxIdleTaskTCBBuffer,  StackType_t **ppx
1882:Firmware/Middlewares/Third_Party/FreeRTOS/Source/CMSIS_RTOS_V2/cmsis_os2.c **** extern void vApplicationGetTimerTaskMemory (StaticTask_t **ppxTimerTaskTCBBuffer, StackType_t **ppx
1883:Firmware/Middlewares/Third_Party/FreeRTOS/Source/CMSIS_RTOS_V2/cmsis_os2.c **** 
1884:Firmware/Middlewares/Third_Party/FreeRTOS/Source/CMSIS_RTOS_V2/cmsis_os2.c **** /* Idle task control block and stack */
1885:Firmware/Middlewares/Third_Party/FreeRTOS/Source/CMSIS_RTOS_V2/cmsis_os2.c **** static StaticTask_t Idle_TCB;
1886:Firmware/Middlewares/Third_Party/FreeRTOS/Source/CMSIS_RTOS_V2/cmsis_os2.c **** static StackType_t  Idle_Stack[configMINIMAL_STACK_SIZE];
1887:Firmware/Middlewares/Third_Party/FreeRTOS/Source/CMSIS_RTOS_V2/cmsis_os2.c **** 
1888:Firmware/Middlewares/Third_Party/FreeRTOS/Source/CMSIS_RTOS_V2/cmsis_os2.c **** /* Timer task control block and stack */
1889:Firmware/Middlewares/Third_Party/FreeRTOS/Source/CMSIS_RTOS_V2/cmsis_os2.c **** static StaticTask_t Timer_TCB;
1890:Firmware/Middlewares/Third_Party/FreeRTOS/Source/CMSIS_RTOS_V2/cmsis_os2.c **** static StackType_t  Timer_Stack[configTIMER_TASK_STACK_DEPTH];
1891:Firmware/Middlewares/Third_Party/FreeRTOS/Source/CMSIS_RTOS_V2/cmsis_os2.c **** 
1892:Firmware/Middlewares/Third_Party/FreeRTOS/Source/CMSIS_RTOS_V2/cmsis_os2.c **** /*
1893:Firmware/Middlewares/Third_Party/FreeRTOS/Source/CMSIS_RTOS_V2/cmsis_os2.c ****   vApplicationGetIdleTaskMemory gets called when configSUPPORT_STATIC_ALLOCATION
1894:Firmware/Middlewares/Third_Party/FreeRTOS/Source/CMSIS_RTOS_V2/cmsis_os2.c ****   equals to 1 and is required for static memory allocation support.
1895:Firmware/Middlewares/Third_Party/FreeRTOS/Source/CMSIS_RTOS_V2/cmsis_os2.c **** */
1896:Firmware/Middlewares/Third_Party/FreeRTOS/Source/CMSIS_RTOS_V2/cmsis_os2.c **** void vApplicationGetIdleTaskMemory (StaticTask_t **ppxIdleTaskTCBBuffer, StackType_t **ppxIdleTaskS
 9021              		.loc 1 1896 0
 9022              		.cfi_startproc
 9023              		@ args = 0, pretend = 0, frame = 16
 9024              		@ frame_needed = 1, uses_anonymous_args = 0
ARM GAS  /tmp/ccB5BhZs.s 			page 208


 9025              		@ link register save eliminated.
 9026 0000 80B4     		push	{r7}
 9027              	.LCFI320:
 9028              		.cfi_def_cfa_offset 4
 9029              		.cfi_offset 7, -4
 9030 0002 85B0     		sub	sp, sp, #20
 9031              	.LCFI321:
 9032              		.cfi_def_cfa_offset 24
 9033 0004 00AF     		add	r7, sp, #0
 9034              	.LCFI322:
 9035              		.cfi_def_cfa_register 7
 9036 0006 F860     		str	r0, [r7, #12]
 9037 0008 B960     		str	r1, [r7, #8]
 9038 000a 7A60     		str	r2, [r7, #4]
1897:Firmware/Middlewares/Third_Party/FreeRTOS/Source/CMSIS_RTOS_V2/cmsis_os2.c ****   *ppxIdleTaskTCBBuffer   = &Idle_TCB;
 9039              		.loc 1 1897 0
 9040 000c FB68     		ldr	r3, [r7, #12]
 9041 000e 074A     		ldr	r2, .L773
 9042 0010 1A60     		str	r2, [r3]
1898:Firmware/Middlewares/Third_Party/FreeRTOS/Source/CMSIS_RTOS_V2/cmsis_os2.c ****   *ppxIdleTaskStackBuffer = &Idle_Stack[0];
 9043              		.loc 1 1898 0
 9044 0012 BB68     		ldr	r3, [r7, #8]
 9045 0014 064A     		ldr	r2, .L773+4
 9046 0016 1A60     		str	r2, [r3]
1899:Firmware/Middlewares/Third_Party/FreeRTOS/Source/CMSIS_RTOS_V2/cmsis_os2.c ****   *pulIdleTaskStackSize   = (uint32_t)configMINIMAL_STACK_SIZE;
 9047              		.loc 1 1899 0
 9048 0018 7B68     		ldr	r3, [r7, #4]
 9049 001a 8022     		movs	r2, #128
 9050 001c 1A60     		str	r2, [r3]
1900:Firmware/Middlewares/Third_Party/FreeRTOS/Source/CMSIS_RTOS_V2/cmsis_os2.c **** }
 9051              		.loc 1 1900 0
 9052 001e 00BF     		nop
 9053 0020 1437     		adds	r7, r7, #20
 9054              	.LCFI323:
 9055              		.cfi_def_cfa_offset 4
 9056 0022 BD46     		mov	sp, r7
 9057              	.LCFI324:
 9058              		.cfi_def_cfa_register 13
 9059              		@ sp needed
 9060 0024 5DF8047B 		ldr	r7, [sp], #4
 9061              	.LCFI325:
 9062              		.cfi_restore 7
 9063              		.cfi_def_cfa_offset 0
 9064 0028 7047     		bx	lr
 9065              	.L774:
 9066 002a 00BF     		.align	2
 9067              	.L773:
 9068 002c 00000000 		.word	Idle_TCB
 9069 0030 00000000 		.word	Idle_Stack
 9070              		.cfi_endproc
 9071              	.LFE170:
 9073              		.section	.text.vApplicationGetTimerTaskMemory,"ax",%progbits
 9074              		.align	1
 9075              		.global	vApplicationGetTimerTaskMemory
 9076              		.syntax unified
 9077              		.thumb
 9078              		.thumb_func
ARM GAS  /tmp/ccB5BhZs.s 			page 209


 9079              		.fpu fpv4-sp-d16
 9081              	vApplicationGetTimerTaskMemory:
 9082              	.LFB171:
1901:Firmware/Middlewares/Third_Party/FreeRTOS/Source/CMSIS_RTOS_V2/cmsis_os2.c **** 
1902:Firmware/Middlewares/Third_Party/FreeRTOS/Source/CMSIS_RTOS_V2/cmsis_os2.c **** /*
1903:Firmware/Middlewares/Third_Party/FreeRTOS/Source/CMSIS_RTOS_V2/cmsis_os2.c ****   vApplicationGetTimerTaskMemory gets called when configSUPPORT_STATIC_ALLOCATION
1904:Firmware/Middlewares/Third_Party/FreeRTOS/Source/CMSIS_RTOS_V2/cmsis_os2.c ****   equals to 1 and is required for static memory allocation support.
1905:Firmware/Middlewares/Third_Party/FreeRTOS/Source/CMSIS_RTOS_V2/cmsis_os2.c **** */
1906:Firmware/Middlewares/Third_Party/FreeRTOS/Source/CMSIS_RTOS_V2/cmsis_os2.c **** void vApplicationGetTimerTaskMemory (StaticTask_t **ppxTimerTaskTCBBuffer, StackType_t **ppxTimerTa
 9083              		.loc 1 1906 0
 9084              		.cfi_startproc
 9085              		@ args = 0, pretend = 0, frame = 16
 9086              		@ frame_needed = 1, uses_anonymous_args = 0
 9087              		@ link register save eliminated.
 9088 0000 80B4     		push	{r7}
 9089              	.LCFI326:
 9090              		.cfi_def_cfa_offset 4
 9091              		.cfi_offset 7, -4
 9092 0002 85B0     		sub	sp, sp, #20
 9093              	.LCFI327:
 9094              		.cfi_def_cfa_offset 24
 9095 0004 00AF     		add	r7, sp, #0
 9096              	.LCFI328:
 9097              		.cfi_def_cfa_register 7
 9098 0006 F860     		str	r0, [r7, #12]
 9099 0008 B960     		str	r1, [r7, #8]
 9100 000a 7A60     		str	r2, [r7, #4]
1907:Firmware/Middlewares/Third_Party/FreeRTOS/Source/CMSIS_RTOS_V2/cmsis_os2.c ****   *ppxTimerTaskTCBBuffer   = &Timer_TCB;
 9101              		.loc 1 1907 0
 9102 000c FB68     		ldr	r3, [r7, #12]
 9103 000e 074A     		ldr	r2, .L776
 9104 0010 1A60     		str	r2, [r3]
1908:Firmware/Middlewares/Third_Party/FreeRTOS/Source/CMSIS_RTOS_V2/cmsis_os2.c ****   *ppxTimerTaskStackBuffer = &Timer_Stack[0];
 9105              		.loc 1 1908 0
 9106 0012 BB68     		ldr	r3, [r7, #8]
 9107 0014 064A     		ldr	r2, .L776+4
 9108 0016 1A60     		str	r2, [r3]
1909:Firmware/Middlewares/Third_Party/FreeRTOS/Source/CMSIS_RTOS_V2/cmsis_os2.c ****   *pulTimerTaskStackSize   = (uint32_t)configTIMER_TASK_STACK_DEPTH;
 9109              		.loc 1 1909 0
 9110 0018 7B68     		ldr	r3, [r7, #4]
 9111 001a 4FF48072 		mov	r2, #256
 9112 001e 1A60     		str	r2, [r3]
1910:Firmware/Middlewares/Third_Party/FreeRTOS/Source/CMSIS_RTOS_V2/cmsis_os2.c **** }
 9113              		.loc 1 1910 0
 9114 0020 00BF     		nop
 9115 0022 1437     		adds	r7, r7, #20
 9116              	.LCFI329:
 9117              		.cfi_def_cfa_offset 4
 9118 0024 BD46     		mov	sp, r7
 9119              	.LCFI330:
 9120              		.cfi_def_cfa_register 13
 9121              		@ sp needed
 9122 0026 5DF8047B 		ldr	r7, [sp], #4
 9123              	.LCFI331:
 9124              		.cfi_restore 7
 9125              		.cfi_def_cfa_offset 0
 9126 002a 7047     		bx	lr
ARM GAS  /tmp/ccB5BhZs.s 			page 210


 9127              	.L777:
 9128              		.align	2
 9129              	.L776:
 9130 002c 00000000 		.word	Timer_TCB
 9131 0030 00000000 		.word	Timer_Stack
 9132              		.cfi_endproc
 9133              	.LFE171:
 9135              		.text
 9136              	.Letext0:
 9137              		.file 4 "/home/zht/stm32tools/arm-gcc/arm-none-eabi/include/machine/_default_types.h"
 9138              		.file 5 "/home/zht/stm32tools/arm-gcc/arm-none-eabi/include/sys/lock.h"
 9139              		.file 6 "/home/zht/stm32tools/arm-gcc/arm-none-eabi/include/sys/_types.h"
 9140              		.file 7 "/home/zht/stm32tools/arm-gcc/lib/gcc/arm-none-eabi/7.3.1/include/stddef.h"
 9141              		.file 8 "/home/zht/stm32tools/arm-gcc/arm-none-eabi/include/sys/reent.h"
 9142              		.file 9 "/home/zht/stm32tools/arm-gcc/arm-none-eabi/include/sys/_stdint.h"
 9143              		.file 10 "Firmware/Middlewares/Third_Party/FreeRTOS/Source/CMSIS_RTOS_V2/cmsis_os2.h"
 9144              		.file 11 "Firmware/Core/Inc/FreeRTOSConfig.h"
 9145              		.file 12 "Firmware/Middlewares/Third_Party/FreeRTOS/Source/include/projdefs.h"
 9146              		.file 13 "Firmware/Middlewares/Third_Party/FreeRTOS/Source/include/FreeRTOS.h"
 9147              		.file 14 "Firmware/Middlewares/Third_Party/FreeRTOS/Source/include/task.h"
 9148              		.file 15 "Firmware/Middlewares/Third_Party/FreeRTOS/Source/include/timers.h"
 9149              		.file 16 "Firmware/Middlewares/Third_Party/FreeRTOS/Source/include/event_groups.h"
 9150              		.file 17 "Firmware/Middlewares/Third_Party/FreeRTOS/Source/include/queue.h"
 9151              		.file 18 "Firmware/Middlewares/Third_Party/FreeRTOS/Source/include/semphr.h"
ARM GAS  /tmp/ccB5BhZs.s 			page 211


DEFINED SYMBOLS
                            *ABS*:0000000000000000 cmsis_os2.c
     /tmp/ccB5BhZs.s:18     .bss.KernelState:0000000000000000 $d
     /tmp/ccB5BhZs.s:21     .bss.KernelState:0000000000000000 KernelState
     /tmp/ccB5BhZs.s:24     .text.osKernelInitialize:0000000000000000 $t
     /tmp/ccB5BhZs.s:31     .text.osKernelInitialize:0000000000000000 osKernelInitialize
     /tmp/ccB5BhZs.s:149    .text.osKernelInitialize:0000000000000064 $d
     /tmp/ccB5BhZs.s:154    .rodata:0000000000000000 $d
     /tmp/ccB5BhZs.s:158    .text.osKernelGetInfo:0000000000000000 $t
     /tmp/ccB5BhZs.s:165    .text.osKernelGetInfo:0000000000000000 osKernelGetInfo
     /tmp/ccB5BhZs.s:235    .text.osKernelGetInfo:0000000000000048 $d
     /tmp/ccB5BhZs.s:241    .text.osKernelGetState:0000000000000000 $t
     /tmp/ccB5BhZs.s:248    .text.osKernelGetState:0000000000000000 osKernelGetState
     /tmp/ccB5BhZs.s:317    .text.osKernelGetState:0000000000000040 $d
     /tmp/ccB5BhZs.s:322    .text.osKernelStart:0000000000000000 $t
     /tmp/ccB5BhZs.s:329    .text.osKernelStart:0000000000000000 osKernelStart
     /tmp/ccB5BhZs.s:443    .text.osKernelStart:0000000000000064 $d
     /tmp/ccB5BhZs.s:448    .text.osKernelLock:0000000000000000 $t
     /tmp/ccB5BhZs.s:455    .text.osKernelLock:0000000000000000 osKernelLock
     /tmp/ccB5BhZs.s:578    .text.osKernelLock:000000000000006c $d
     /tmp/ccB5BhZs.s:583    .text.osKernelUnlock:0000000000000000 $t
     /tmp/ccB5BhZs.s:590    .text.osKernelUnlock:0000000000000000 osKernelUnlock
     /tmp/ccB5BhZs.s:727    .text.osKernelUnlock:0000000000000084 $d
     /tmp/ccB5BhZs.s:732    .text.osKernelRestoreLock:0000000000000000 $t
     /tmp/ccB5BhZs.s:739    .text.osKernelRestoreLock:0000000000000000 osKernelRestoreLock
     /tmp/ccB5BhZs.s:886    .text.osKernelRestoreLock:0000000000000094 $d
     /tmp/ccB5BhZs.s:891    .text.osKernelGetTickCount:0000000000000000 $t
     /tmp/ccB5BhZs.s:898    .text.osKernelGetTickCount:0000000000000000 osKernelGetTickCount
     /tmp/ccB5BhZs.s:996    .text.osKernelGetTickCount:000000000000004c $d
     /tmp/ccB5BhZs.s:1001   .text.osKernelGetTickFreq:0000000000000000 $t
     /tmp/ccB5BhZs.s:1008   .text.osKernelGetTickFreq:0000000000000000 osKernelGetTickFreq
     /tmp/ccB5BhZs.s:1039   .text.osKernelGetSysTimerCount:0000000000000000 $t
     /tmp/ccB5BhZs.s:1046   .text.osKernelGetSysTimerCount:0000000000000000 osKernelGetSysTimerCount
     /tmp/ccB5BhZs.s:1121   .text.osKernelGetSysTimerCount:0000000000000048 $d
     /tmp/ccB5BhZs.s:1127   .text.osKernelGetSysTimerFreq:0000000000000000 $t
     /tmp/ccB5BhZs.s:1134   .text.osKernelGetSysTimerFreq:0000000000000000 osKernelGetSysTimerFreq
     /tmp/ccB5BhZs.s:1165   .text.osKernelGetSysTimerFreq:0000000000000014 $d
     /tmp/ccB5BhZs.s:1170   .text.osThreadNew:0000000000000000 $t
     /tmp/ccB5BhZs.s:1177   .text.osThreadNew:0000000000000000 osThreadNew
     /tmp/ccB5BhZs.s:1442   .text.osThreadNew:0000000000000150 $d
     /tmp/ccB5BhZs.s:1447   .text.osThreadGetName:0000000000000000 $t
     /tmp/ccB5BhZs.s:1454   .text.osThreadGetName:0000000000000000 osThreadGetName
     /tmp/ccB5BhZs.s:1562   .text.osThreadGetName:0000000000000058 $d
     /tmp/ccB5BhZs.s:1567   .text.osThreadGetId:0000000000000000 $t
     /tmp/ccB5BhZs.s:1574   .text.osThreadGetId:0000000000000000 osThreadGetId
     /tmp/ccB5BhZs.s:1672   .text.osThreadGetId:0000000000000048 $d
     /tmp/ccB5BhZs.s:1677   .text.osThreadGetState:0000000000000000 $t
     /tmp/ccB5BhZs.s:1684   .text.osThreadGetState:0000000000000000 osThreadGetState
     /tmp/ccB5BhZs.s:1782   .text.osThreadGetState:0000000000000058 $d
     /tmp/ccB5BhZs.s:1787   .text.osThreadGetState:000000000000006c $t
     /tmp/ccB5BhZs.s:1829   .text.osThreadGetState:0000000000000098 $d
     /tmp/ccB5BhZs.s:1834   .text.osThreadGetStackSpace:0000000000000000 $t
     /tmp/ccB5BhZs.s:1841   .text.osThreadGetStackSpace:0000000000000000 osThreadGetStackSpace
     /tmp/ccB5BhZs.s:1949   .text.osThreadGetStackSpace:0000000000000058 $d
     /tmp/ccB5BhZs.s:1954   .text.osThreadGetStackSize:0000000000000000 $t
     /tmp/ccB5BhZs.s:1961   .text.osThreadGetStackSize:0000000000000000 osThreadGetStackSize
     /tmp/ccB5BhZs.s:1999   .text.osThreadSetPriority:0000000000000000 $t
ARM GAS  /tmp/ccB5BhZs.s 			page 212


     /tmp/ccB5BhZs.s:2006   .text.osThreadSetPriority:0000000000000000 osThreadSetPriority
     /tmp/ccB5BhZs.s:2132   .text.osThreadSetPriority:0000000000000074 $d
     /tmp/ccB5BhZs.s:2137   .text.osThreadGetPriority:0000000000000000 $t
     /tmp/ccB5BhZs.s:2144   .text.osThreadGetPriority:0000000000000000 osThreadGetPriority
     /tmp/ccB5BhZs.s:2253   .text.osThreadGetPriority:000000000000005c $d
     /tmp/ccB5BhZs.s:2258   .text.osThreadYield:0000000000000000 $t
     /tmp/ccB5BhZs.s:2265   .text.osThreadYield:0000000000000000 osThreadYield
     /tmp/ccB5BhZs.s:2380   .text.osThreadYield:000000000000005c $d
     /tmp/ccB5BhZs.s:2386   .text.osThreadSuspend:0000000000000000 $t
     /tmp/ccB5BhZs.s:2393   .text.osThreadSuspend:0000000000000000 osThreadSuspend
     /tmp/ccB5BhZs.s:2507   .text.osThreadSuspend:0000000000000064 $d
     /tmp/ccB5BhZs.s:2512   .text.osThreadResume:0000000000000000 $t
     /tmp/ccB5BhZs.s:2519   .text.osThreadResume:0000000000000000 osThreadResume
     /tmp/ccB5BhZs.s:2633   .text.osThreadResume:0000000000000064 $d
     /tmp/ccB5BhZs.s:2638   .text.osThreadExit:0000000000000000 $t
     /tmp/ccB5BhZs.s:2645   .text.osThreadExit:0000000000000000 osThreadExit
     /tmp/ccB5BhZs.s:2669   .text.osThreadTerminate:0000000000000000 $t
     /tmp/ccB5BhZs.s:2676   .text.osThreadTerminate:0000000000000000 osThreadTerminate
     /tmp/ccB5BhZs.s:2804   .text.osThreadTerminate:000000000000007c $d
     /tmp/ccB5BhZs.s:2809   .text.osThreadGetCount:0000000000000000 $t
     /tmp/ccB5BhZs.s:2816   .text.osThreadGetCount:0000000000000000 osThreadGetCount
     /tmp/ccB5BhZs.s:2914   .text.osThreadGetCount:0000000000000048 $d
     /tmp/ccB5BhZs.s:2919   .text.osThreadEnumerate:0000000000000000 $t
     /tmp/ccB5BhZs.s:2926   .text.osThreadEnumerate:0000000000000000 osThreadEnumerate
     /tmp/ccB5BhZs.s:3101   .text.osThreadEnumerate:00000000000000c8 $d
     /tmp/ccB5BhZs.s:3106   .text.osThreadFlagsSet:0000000000000000 $t
     /tmp/ccB5BhZs.s:3113   .text.osThreadFlagsSet:0000000000000000 osThreadFlagsSet
     /tmp/ccB5BhZs.s:3276   .text.osThreadFlagsSet:00000000000000bc $d
     /tmp/ccB5BhZs.s:3282   .text.osThreadFlagsClear:0000000000000000 $t
     /tmp/ccB5BhZs.s:3289   .text.osThreadFlagsClear:0000000000000000 osThreadFlagsClear
     /tmp/ccB5BhZs.s:3432   .text.osThreadFlagsClear:000000000000009c $d
     /tmp/ccB5BhZs.s:3437   .text.osThreadFlagsGet:0000000000000000 $t
     /tmp/ccB5BhZs.s:3444   .text.osThreadFlagsGet:0000000000000000 osThreadFlagsGet
     /tmp/ccB5BhZs.s:3554   .text.osThreadFlagsGet:0000000000000064 $d
     /tmp/ccB5BhZs.s:3559   .text.osThreadFlagsWait:0000000000000000 $t
     /tmp/ccB5BhZs.s:3566   .text.osThreadFlagsWait:0000000000000000 osThreadFlagsWait
     /tmp/ccB5BhZs.s:3804   .text.osThreadFlagsWait:0000000000000124 $d
     /tmp/ccB5BhZs.s:3809   .text.osDelay:0000000000000000 $t
     /tmp/ccB5BhZs.s:3816   .text.osDelay:0000000000000000 osDelay
     /tmp/ccB5BhZs.s:3922   .text.osDelay:0000000000000058 $d
     /tmp/ccB5BhZs.s:3927   .text.osDelayUntil:0000000000000000 $t
     /tmp/ccB5BhZs.s:3934   .text.osDelayUntil:0000000000000000 osDelayUntil
     /tmp/ccB5BhZs.s:4045   .text.osDelayUntil:0000000000000064 $d
     /tmp/ccB5BhZs.s:4050   .text.TimerCallback:0000000000000000 $t
     /tmp/ccB5BhZs.s:4056   .text.TimerCallback:0000000000000000 TimerCallback
     /tmp/ccB5BhZs.s:4105   .text.osTimerNew:0000000000000000 $t
     /tmp/ccB5BhZs.s:4112   .text.osTimerNew:0000000000000000 osTimerNew
     /tmp/ccB5BhZs.s:4328   .text.osTimerNew:0000000000000100 $d
     /tmp/ccB5BhZs.s:4334   .text.osTimerGetName:0000000000000000 $t
     /tmp/ccB5BhZs.s:4341   .text.osTimerGetName:0000000000000000 osTimerGetName
     /tmp/ccB5BhZs.s:4449   .text.osTimerGetName:0000000000000058 $d
     /tmp/ccB5BhZs.s:4454   .text.osTimerStart:0000000000000000 $t
     /tmp/ccB5BhZs.s:4461   .text.osTimerStart:0000000000000000 osTimerStart
     /tmp/ccB5BhZs.s:4589   .text.osTimerStart:000000000000007c $d
     /tmp/ccB5BhZs.s:4594   .text.osTimerStop:0000000000000000 $t
     /tmp/ccB5BhZs.s:4601   .text.osTimerStop:0000000000000000 osTimerStop
     /tmp/ccB5BhZs.s:4739   .text.osTimerStop:0000000000000090 $d
ARM GAS  /tmp/ccB5BhZs.s 			page 213


     /tmp/ccB5BhZs.s:4744   .text.osTimerIsRunning:0000000000000000 $t
     /tmp/ccB5BhZs.s:4751   .text.osTimerIsRunning:0000000000000000 osTimerIsRunning
     /tmp/ccB5BhZs.s:4860   .text.osTimerIsRunning:0000000000000058 $d
     /tmp/ccB5BhZs.s:4865   .text.osTimerDelete:0000000000000000 $t
     /tmp/ccB5BhZs.s:4872   .text.osTimerDelete:0000000000000000 osTimerDelete
     /tmp/ccB5BhZs.s:5006   .text.osTimerDelete:0000000000000088 $d
     /tmp/ccB5BhZs.s:5011   .text.osEventFlagsNew:0000000000000000 $t
     /tmp/ccB5BhZs.s:5018   .text.osEventFlagsNew:0000000000000000 osEventFlagsNew
     /tmp/ccB5BhZs.s:5172   .text.osEventFlagsNew:00000000000000a0 $d
     /tmp/ccB5BhZs.s:5177   .text.osEventFlagsSet:0000000000000000 $t
     /tmp/ccB5BhZs.s:5184   .text.osEventFlagsSet:0000000000000000 osEventFlagsSet
     /tmp/ccB5BhZs.s:5344   .text.osEventFlagsSet:00000000000000a8 $d
     /tmp/ccB5BhZs.s:5350   .text.osEventFlagsClear:0000000000000000 $t
     /tmp/ccB5BhZs.s:5357   .text.osEventFlagsClear:0000000000000000 osEventFlagsClear
     /tmp/ccB5BhZs.s:5489   .text.osEventFlagsClear:0000000000000084 $d
     /tmp/ccB5BhZs.s:5494   .text.osEventFlagsGet:0000000000000000 $t
     /tmp/ccB5BhZs.s:5501   .text.osEventFlagsGet:0000000000000000 osEventFlagsGet
     /tmp/ccB5BhZs.s:5615   .text.osEventFlagsGet:0000000000000064 $d
     /tmp/ccB5BhZs.s:5620   .text.osEventFlagsWait:0000000000000000 $t
     /tmp/ccB5BhZs.s:5627   .text.osEventFlagsWait:0000000000000000 osEventFlagsWait
     /tmp/ccB5BhZs.s:5823   .text.osEventFlagsWait:00000000000000e8 $d
     /tmp/ccB5BhZs.s:5828   .text.osEventFlagsDelete:0000000000000000 $t
     /tmp/ccB5BhZs.s:5835   .text.osEventFlagsDelete:0000000000000000 osEventFlagsDelete
     /tmp/ccB5BhZs.s:5949   .text.osEventFlagsDelete:0000000000000064 $d
     /tmp/ccB5BhZs.s:5954   .text.osMutexNew:0000000000000000 $t
     /tmp/ccB5BhZs.s:5961   .text.osMutexNew:0000000000000000 osMutexNew
     /tmp/ccB5BhZs.s:6209   .text.osMutexNew:0000000000000130 $d
     /tmp/ccB5BhZs.s:6214   .text.osMutexAcquire:0000000000000000 $t
     /tmp/ccB5BhZs.s:6221   .text.osMutexAcquire:0000000000000000 osMutexAcquire
     /tmp/ccB5BhZs.s:6382   .text.osMutexAcquire:00000000000000b8 $d
     /tmp/ccB5BhZs.s:6387   .text.osMutexRelease:0000000000000000 $t
     /tmp/ccB5BhZs.s:6394   .text.osMutexRelease:0000000000000000 osMutexRelease
     /tmp/ccB5BhZs.s:6537   .text.osMutexRelease:000000000000009c $d
     /tmp/ccB5BhZs.s:6542   .text.osMutexGetOwner:0000000000000000 $t
     /tmp/ccB5BhZs.s:6549   .text.osMutexGetOwner:0000000000000000 osMutexGetOwner
     /tmp/ccB5BhZs.s:6658   .text.osMutexGetOwner:000000000000005c $d
     /tmp/ccB5BhZs.s:6663   .text.osMutexDelete:0000000000000000 $t
     /tmp/ccB5BhZs.s:6670   .text.osMutexDelete:0000000000000000 osMutexDelete
     /tmp/ccB5BhZs.s:6788   .text.osMutexDelete:000000000000006c $d
     /tmp/ccB5BhZs.s:6793   .text.osSemaphoreNew:0000000000000000 $t
     /tmp/ccB5BhZs.s:6800   .text.osSemaphoreNew:0000000000000000 osSemaphoreNew
     /tmp/ccB5BhZs.s:7045   .text.osSemaphoreNew:0000000000000138 $d
     /tmp/ccB5BhZs.s:7050   .text.osSemaphoreAcquire:0000000000000000 $t
     /tmp/ccB5BhZs.s:7057   .text.osSemaphoreAcquire:0000000000000000 osSemaphoreAcquire
     /tmp/ccB5BhZs.s:7235   .text.osSemaphoreAcquire:00000000000000c4 $d
     /tmp/ccB5BhZs.s:7241   .text.osSemaphoreRelease:0000000000000000 $t
     /tmp/ccB5BhZs.s:7248   .text.osSemaphoreRelease:0000000000000000 osSemaphoreRelease
     /tmp/ccB5BhZs.s:7407   .text.osSemaphoreRelease:00000000000000a8 $d
     /tmp/ccB5BhZs.s:7413   .text.osSemaphoreGetCount:0000000000000000 $t
     /tmp/ccB5BhZs.s:7420   .text.osSemaphoreGetCount:0000000000000000 osSemaphoreGetCount
     /tmp/ccB5BhZs.s:7533   .text.osSemaphoreGetCount:0000000000000060 $d
     /tmp/ccB5BhZs.s:7538   .text.osSemaphoreDelete:0000000000000000 $t
     /tmp/ccB5BhZs.s:7545   .text.osSemaphoreDelete:0000000000000000 osSemaphoreDelete
     /tmp/ccB5BhZs.s:7662   .text.osSemaphoreDelete:0000000000000068 $d
     /tmp/ccB5BhZs.s:7667   .text.osMessageQueueNew:0000000000000000 $t
     /tmp/ccB5BhZs.s:7674   .text.osMessageQueueNew:0000000000000000 osMessageQueueNew
     /tmp/ccB5BhZs.s:7895   .text.osMessageQueueNew:0000000000000108 $d
ARM GAS  /tmp/ccB5BhZs.s 			page 214


     /tmp/ccB5BhZs.s:7900   .text.osMessageQueuePut:0000000000000000 $t
     /tmp/ccB5BhZs.s:7907   .text.osMessageQueuePut:0000000000000000 osMessageQueuePut
     /tmp/ccB5BhZs.s:8104   .text.osMessageQueuePut:00000000000000e0 $d
     /tmp/ccB5BhZs.s:8110   .text.osMessageQueueGet:0000000000000000 $t
     /tmp/ccB5BhZs.s:8117   .text.osMessageQueueGet:0000000000000000 osMessageQueueGet
     /tmp/ccB5BhZs.s:8312   .text.osMessageQueueGet:00000000000000dc $d
     /tmp/ccB5BhZs.s:8318   .text.osMessageQueueGetCapacity:0000000000000000 $t
     /tmp/ccB5BhZs.s:8325   .text.osMessageQueueGetCapacity:0000000000000000 osMessageQueueGetCapacity
     /tmp/ccB5BhZs.s:8380   .text.osMessageQueueGetMsgSize:0000000000000000 $t
     /tmp/ccB5BhZs.s:8387   .text.osMessageQueueGetMsgSize:0000000000000000 osMessageQueueGetMsgSize
     /tmp/ccB5BhZs.s:8442   .text.osMessageQueueGetCount:0000000000000000 $t
     /tmp/ccB5BhZs.s:8449   .text.osMessageQueueGetCount:0000000000000000 osMessageQueueGetCount
     /tmp/ccB5BhZs.s:8562   .text.osMessageQueueGetCount:0000000000000060 $d
     /tmp/ccB5BhZs.s:8567   .text.osMessageQueueGetSpace:0000000000000000 $t
     /tmp/ccB5BhZs.s:8574   .text.osMessageQueueGetSpace:0000000000000000 osMessageQueueGetSpace
     /tmp/ccB5BhZs.s:8727   .text.osMessageQueueGetSpace:000000000000008c $d
     /tmp/ccB5BhZs.s:8732   .text.osMessageQueueReset:0000000000000000 $t
     /tmp/ccB5BhZs.s:8739   .text.osMessageQueueReset:0000000000000000 osMessageQueueReset
     /tmp/ccB5BhZs.s:8854   .text.osMessageQueueReset:0000000000000064 $d
     /tmp/ccB5BhZs.s:8859   .text.osMessageQueueDelete:0000000000000000 $t
     /tmp/ccB5BhZs.s:8866   .text.osMessageQueueDelete:0000000000000000 osMessageQueueDelete
     /tmp/ccB5BhZs.s:8983   .text.osMessageQueueDelete:0000000000000068 $d
     /tmp/ccB5BhZs.s:8988   .bss.Idle_TCB:0000000000000000 $d
     /tmp/ccB5BhZs.s:8991   .bss.Idle_TCB:0000000000000000 Idle_TCB
     /tmp/ccB5BhZs.s:8994   .bss.Idle_Stack:0000000000000000 $d
     /tmp/ccB5BhZs.s:8997   .bss.Idle_Stack:0000000000000000 Idle_Stack
     /tmp/ccB5BhZs.s:9000   .bss.Timer_TCB:0000000000000000 $d
     /tmp/ccB5BhZs.s:9003   .bss.Timer_TCB:0000000000000000 Timer_TCB
     /tmp/ccB5BhZs.s:9006   .bss.Timer_Stack:0000000000000000 $d
     /tmp/ccB5BhZs.s:9009   .bss.Timer_Stack:0000000000000000 Timer_Stack
     /tmp/ccB5BhZs.s:9012   .text.vApplicationGetIdleTaskMemory:0000000000000000 $t
     /tmp/ccB5BhZs.s:9019   .text.vApplicationGetIdleTaskMemory:0000000000000000 vApplicationGetIdleTaskMemory
     /tmp/ccB5BhZs.s:9068   .text.vApplicationGetIdleTaskMemory:000000000000002c $d
     /tmp/ccB5BhZs.s:9074   .text.vApplicationGetTimerTaskMemory:0000000000000000 $t
     /tmp/ccB5BhZs.s:9081   .text.vApplicationGetTimerTaskMemory:0000000000000000 vApplicationGetTimerTaskMemory
     /tmp/ccB5BhZs.s:9130   .text.vApplicationGetTimerTaskMemory:000000000000002c $d
                           .group:0000000000000000 wm4.0.66eb26e6ef234a179f62cd8806fe3c00
                           .group:0000000000000000 wm4._newlib_version.h.4.875b979a44719054cd750d0952ad3fd6
                           .group:0000000000000000 wm4.newlib.h.18.5e5ca3429233af402d406a202f1fc1ac
                           .group:0000000000000000 wm4.ieeefp.h.77.220d9cccac42cd58761758bee2df4ce6
                           .group:0000000000000000 wm4.features.h.22.fad1cec3bc7ff06488171438dbdcfd02
                           .group:0000000000000000 wm4.config.h.220.6cac6a9685cfce5e83c17784171638d9
                           .group:0000000000000000 wm4._ansi.h.31.de524f58584151836e90d8620a16f8e8
                           .group:0000000000000000 wm4.stddef.h.39.a38874c8f8a57e66301090908ec2a69f
                           .group:0000000000000000 wm4._default_types.h.6.959254cf5f09734ea7516c89e8bb21bd
                           .group:0000000000000000 wm4.lock.h.2.1461d1fff82dffe8bfddc23307f6484f
                           .group:0000000000000000 wm4._types.h.125.5cf8a495f1f7ef36777ad868a1e32068
                           .group:0000000000000000 wm4.stddef.h.161.5349cb105733e8777bfb0cf53c4e3f34
                           .group:0000000000000000 wm4._types.h.184.03611d4f6b5bec9997bcf4279eceba07
                           .group:0000000000000000 wm4.reent.h.17.90c2574d4acdcfce933db5cb09ff35fe
                           .group:0000000000000000 wm4.cdefs.h.47.0bcdf94cb40e176393dd1404056825b4
                           .group:0000000000000000 wm4.string.h.15.dab3980bf35408a4c507182805e2de3a
                           .group:0000000000000000 wm4.stddef.h.161.19e15733342b50ead2919490b095303e
                           .group:0000000000000000 wm4.cmsis_os2.h.64.e03d6b099d8c95f6a964123ffd5fb37e
                           .group:0000000000000000 wm4._intsup.h.10.cce27fed8484c08a33f522034c30d2b5
                           .group:0000000000000000 wm4._stdint.h.10.c24fa3af3bc1706662bb5593a907e841
                           .group:0000000000000000 wm4.stdint.h.23.d53047a68f4a85177f80b422d52785ed
ARM GAS  /tmp/ccB5BhZs.s 			page 215


                           .group:0000000000000000 wm4.cmsis_os2.h.189.a20fe461c7b40c3198eed7d6d740c844
                           .group:0000000000000000 wm4.cmsis_gcc.h.26.957f72fdadf9dfab818196e3f5e342d6
                           .group:0000000000000000 wm4.FreeRTOSConfig.h.31.b62728e58c3d6bdf0600b01b58224977
                           .group:0000000000000000 wm4.projdefs.h.29.3472c8470d131a5f474bc7437ea94609
                           .group:0000000000000000 wm4.portmacro.h.30.110a3580e768a63cdd084aa29b33cb01
                           .group:0000000000000000 wm4.portable.h.64.00b423ba030e23bed354b037664af7a6
                           .group:0000000000000000 wm4.mpu_wrappers.h.29.89d425470b0b1ff39fbd61026b3dc073
                           .group:0000000000000000 wm4.FreeRTOS.h.66.a6a3890d948540b7d907430686cf5981
                           .group:0000000000000000 wm4.list.h.61.bafeaa82806d71ae8917c6d7827fc3d2
                           .group:0000000000000000 wm4.task.h.46.0d11769cee96bf77a599bac125eeecf9
                           .group:0000000000000000 wm4.timers.h.54.b1628205d6a51adaf32536954da510c0
                           .group:0000000000000000 wm4.queue.h.30.869c955d5419eb4d2a6105525f841f78
                           .group:0000000000000000 wm4.semphr.h.39.71dd6d04dc64ae279a250014083eba16

UNDEFINED SYMBOLS
memcpy
xTaskGetSchedulerState
vTaskStartScheduler
vTaskSuspendAll
xTaskResumeAll
xTaskGetTickCountFromISR
xTaskGetTickCount
SystemCoreClock
xTaskCreateStatic
xTaskCreate
pcTaskGetName
xTaskGetCurrentTaskHandle
eTaskGetState
uxTaskGetStackHighWaterMark
vTaskPrioritySet
uxTaskPriorityGet
vTaskSuspend
vTaskResume
vTaskDelete
uxTaskGetNumberOfTasks
pvPortMalloc
uxTaskGetSystemState
vPortFree
xTaskGenericNotifyFromISR
xTaskGenericNotify
xTaskNotifyWait
vTaskDelay
vTaskDelayUntil
pvTimerGetTimerID
xTimerCreateStatic
xTimerCreate
pcTimerGetName
xTimerGenericCommand
xTimerIsTimerActive
xEventGroupCreateStatic
xEventGroupCreate
xEventGroupSetBitsFromISR
xEventGroupSetBits
xEventGroupGetBitsFromISR
xEventGroupClearBitsFromISR
xEventGroupClearBits
xEventGroupWaitBits
ARM GAS  /tmp/ccB5BhZs.s 			page 216


vEventGroupDelete
xQueueCreateMutexStatic
xQueueCreateMutex
vQueueAddToRegistry
xQueueTakeMutexRecursive
xQueueSemaphoreTake
xQueueGiveMutexRecursive
xQueueGenericSend
xQueueGetMutexHolder
vQueueUnregisterQueue
vQueueDelete
xQueueGenericCreateStatic
xQueueGenericCreate
xQueueCreateCountingSemaphoreStatic
xQueueCreateCountingSemaphore
xQueueReceiveFromISR
xQueueGiveFromISR
uxQueueMessagesWaitingFromISR
uxQueueMessagesWaiting
xQueueGenericSendFromISR
xQueueReceive
uxQueueSpacesAvailable
xQueueGenericReset
