ARM GAS  /tmp/ccVRFcq3.s 			page 1


   1              		.cpu cortex-m4
   2              		.eabi_attribute 27, 1
   3              		.eabi_attribute 28, 1
   4              		.eabi_attribute 20, 1
   5              		.eabi_attribute 21, 1
   6              		.eabi_attribute 23, 3
   7              		.eabi_attribute 24, 1
   8              		.eabi_attribute 25, 1
   9              		.eabi_attribute 26, 1
  10              		.eabi_attribute 30, 6
  11              		.eabi_attribute 34, 1
  12              		.eabi_attribute 18, 4
  13              		.file	"list.c"
  14              		.text
  15              	.Ltext0:
  16              		.cfi_sections	.debug_frame
  17              		.section	.text.vListInitialise,"ax",%progbits
  18              		.align	1
  19              		.global	vListInitialise
  20              		.syntax unified
  21              		.thumb
  22              		.thumb_func
  23              		.fpu fpv4-sp-d16
  25              	vListInitialise:
  26              	.LFB4:
  27              		.file 1 "Firmware/Middlewares/Third_Party/FreeRTOS/Source/list.c"
   1:Firmware/Middlewares/Third_Party/FreeRTOS/Source/list.c **** /*
   2:Firmware/Middlewares/Third_Party/FreeRTOS/Source/list.c ****  * FreeRTOS Kernel V10.0.1
   3:Firmware/Middlewares/Third_Party/FreeRTOS/Source/list.c ****  * Copyright (C) 2017 Amazon.com, Inc. or its affiliates.  All Rights Reserved.
   4:Firmware/Middlewares/Third_Party/FreeRTOS/Source/list.c ****  *
   5:Firmware/Middlewares/Third_Party/FreeRTOS/Source/list.c ****  * Permission is hereby granted, free of charge, to any person obtaining a copy of
   6:Firmware/Middlewares/Third_Party/FreeRTOS/Source/list.c ****  * this software and associated documentation files (the "Software"), to deal in
   7:Firmware/Middlewares/Third_Party/FreeRTOS/Source/list.c ****  * the Software without restriction, including without limitation the rights to
   8:Firmware/Middlewares/Third_Party/FreeRTOS/Source/list.c ****  * use, copy, modify, merge, publish, distribute, sublicense, and/or sell copies of
   9:Firmware/Middlewares/Third_Party/FreeRTOS/Source/list.c ****  * the Software, and to permit persons to whom the Software is furnished to do so,
  10:Firmware/Middlewares/Third_Party/FreeRTOS/Source/list.c ****  * subject to the following conditions:
  11:Firmware/Middlewares/Third_Party/FreeRTOS/Source/list.c ****  *
  12:Firmware/Middlewares/Third_Party/FreeRTOS/Source/list.c ****  * The above copyright notice and this permission notice shall be included in all
  13:Firmware/Middlewares/Third_Party/FreeRTOS/Source/list.c ****  * copies or substantial portions of the Software.
  14:Firmware/Middlewares/Third_Party/FreeRTOS/Source/list.c ****  *
  15:Firmware/Middlewares/Third_Party/FreeRTOS/Source/list.c ****  * THE SOFTWARE IS PROVIDED "AS IS", WITHOUT WARRANTY OF ANY KIND, EXPRESS OR
  16:Firmware/Middlewares/Third_Party/FreeRTOS/Source/list.c ****  * IMPLIED, INCLUDING BUT NOT LIMITED TO THE WARRANTIES OF MERCHANTABILITY, FITNESS
  17:Firmware/Middlewares/Third_Party/FreeRTOS/Source/list.c ****  * FOR A PARTICULAR PURPOSE AND NONINFRINGEMENT. IN NO EVENT SHALL THE AUTHORS OR
  18:Firmware/Middlewares/Third_Party/FreeRTOS/Source/list.c ****  * COPYRIGHT HOLDERS BE LIABLE FOR ANY CLAIM, DAMAGES OR OTHER LIABILITY, WHETHER
  19:Firmware/Middlewares/Third_Party/FreeRTOS/Source/list.c ****  * IN AN ACTION OF CONTRACT, TORT OR OTHERWISE, ARISING FROM, OUT OF OR IN
  20:Firmware/Middlewares/Third_Party/FreeRTOS/Source/list.c ****  * CONNECTION WITH THE SOFTWARE OR THE USE OR OTHER DEALINGS IN THE SOFTWARE.
  21:Firmware/Middlewares/Third_Party/FreeRTOS/Source/list.c ****  *
  22:Firmware/Middlewares/Third_Party/FreeRTOS/Source/list.c ****  * http://www.FreeRTOS.org
  23:Firmware/Middlewares/Third_Party/FreeRTOS/Source/list.c ****  * http://aws.amazon.com/freertos
  24:Firmware/Middlewares/Third_Party/FreeRTOS/Source/list.c ****  *
  25:Firmware/Middlewares/Third_Party/FreeRTOS/Source/list.c ****  * 1 tab == 4 spaces!
  26:Firmware/Middlewares/Third_Party/FreeRTOS/Source/list.c ****  */
  27:Firmware/Middlewares/Third_Party/FreeRTOS/Source/list.c **** 
  28:Firmware/Middlewares/Third_Party/FreeRTOS/Source/list.c **** 
  29:Firmware/Middlewares/Third_Party/FreeRTOS/Source/list.c **** #include <stdlib.h>
  30:Firmware/Middlewares/Third_Party/FreeRTOS/Source/list.c **** #include "FreeRTOS.h"
  31:Firmware/Middlewares/Third_Party/FreeRTOS/Source/list.c **** #include "list.h"
ARM GAS  /tmp/ccVRFcq3.s 			page 2


  32:Firmware/Middlewares/Third_Party/FreeRTOS/Source/list.c **** 
  33:Firmware/Middlewares/Third_Party/FreeRTOS/Source/list.c **** /*-----------------------------------------------------------
  34:Firmware/Middlewares/Third_Party/FreeRTOS/Source/list.c ****  * PUBLIC LIST API documented in list.h
  35:Firmware/Middlewares/Third_Party/FreeRTOS/Source/list.c ****  *----------------------------------------------------------*/
  36:Firmware/Middlewares/Third_Party/FreeRTOS/Source/list.c **** 
  37:Firmware/Middlewares/Third_Party/FreeRTOS/Source/list.c **** void vListInitialise( List_t * const pxList )
  38:Firmware/Middlewares/Third_Party/FreeRTOS/Source/list.c **** {
  28              		.loc 1 38 0
  29              		.cfi_startproc
  30              		@ args = 0, pretend = 0, frame = 8
  31              		@ frame_needed = 1, uses_anonymous_args = 0
  32              		@ link register save eliminated.
  33 0000 80B4     		push	{r7}
  34              	.LCFI0:
  35              		.cfi_def_cfa_offset 4
  36              		.cfi_offset 7, -4
  37 0002 83B0     		sub	sp, sp, #12
  38              	.LCFI1:
  39              		.cfi_def_cfa_offset 16
  40 0004 00AF     		add	r7, sp, #0
  41              	.LCFI2:
  42              		.cfi_def_cfa_register 7
  43 0006 7860     		str	r0, [r7, #4]
  39:Firmware/Middlewares/Third_Party/FreeRTOS/Source/list.c **** 	/* The list structure contains a list item which is used to mark the
  40:Firmware/Middlewares/Third_Party/FreeRTOS/Source/list.c **** 	end of the list.  To initialise the list the list end is inserted
  41:Firmware/Middlewares/Third_Party/FreeRTOS/Source/list.c **** 	as the only list entry. */
  42:Firmware/Middlewares/Third_Party/FreeRTOS/Source/list.c **** 	pxList->pxIndex = ( ListItem_t * ) &( pxList->xListEnd );			/*lint !e826 !e740 The mini list struc
  44              		.loc 1 42 0
  45 0008 7B68     		ldr	r3, [r7, #4]
  46 000a 03F10802 		add	r2, r3, #8
  47 000e 7B68     		ldr	r3, [r7, #4]
  48 0010 5A60     		str	r2, [r3, #4]
  43:Firmware/Middlewares/Third_Party/FreeRTOS/Source/list.c **** 
  44:Firmware/Middlewares/Third_Party/FreeRTOS/Source/list.c **** 	/* The list end value is the highest possible value in the list to
  45:Firmware/Middlewares/Third_Party/FreeRTOS/Source/list.c **** 	ensure it remains at the end of the list. */
  46:Firmware/Middlewares/Third_Party/FreeRTOS/Source/list.c **** 	pxList->xListEnd.xItemValue = portMAX_DELAY;
  49              		.loc 1 46 0
  50 0012 7B68     		ldr	r3, [r7, #4]
  51 0014 4FF0FF32 		mov	r2, #-1
  52 0018 9A60     		str	r2, [r3, #8]
  47:Firmware/Middlewares/Third_Party/FreeRTOS/Source/list.c **** 
  48:Firmware/Middlewares/Third_Party/FreeRTOS/Source/list.c **** 	/* The list end next and previous pointers point to itself so we know
  49:Firmware/Middlewares/Third_Party/FreeRTOS/Source/list.c **** 	when the list is empty. */
  50:Firmware/Middlewares/Third_Party/FreeRTOS/Source/list.c **** 	pxList->xListEnd.pxNext = ( ListItem_t * ) &( pxList->xListEnd );	/*lint !e826 !e740 The mini list
  53              		.loc 1 50 0
  54 001a 7B68     		ldr	r3, [r7, #4]
  55 001c 03F10802 		add	r2, r3, #8
  56 0020 7B68     		ldr	r3, [r7, #4]
  57 0022 DA60     		str	r2, [r3, #12]
  51:Firmware/Middlewares/Third_Party/FreeRTOS/Source/list.c **** 	pxList->xListEnd.pxPrevious = ( ListItem_t * ) &( pxList->xListEnd );/*lint !e826 !e740 The mini l
  58              		.loc 1 51 0
  59 0024 7B68     		ldr	r3, [r7, #4]
  60 0026 03F10802 		add	r2, r3, #8
  61 002a 7B68     		ldr	r3, [r7, #4]
  62 002c 1A61     		str	r2, [r3, #16]
  52:Firmware/Middlewares/Third_Party/FreeRTOS/Source/list.c **** 
  53:Firmware/Middlewares/Third_Party/FreeRTOS/Source/list.c **** 	pxList->uxNumberOfItems = ( UBaseType_t ) 0U;
ARM GAS  /tmp/ccVRFcq3.s 			page 3


  63              		.loc 1 53 0
  64 002e 7B68     		ldr	r3, [r7, #4]
  65 0030 0022     		movs	r2, #0
  66 0032 1A60     		str	r2, [r3]
  54:Firmware/Middlewares/Third_Party/FreeRTOS/Source/list.c **** 
  55:Firmware/Middlewares/Third_Party/FreeRTOS/Source/list.c **** 	/* Write known values into the list if
  56:Firmware/Middlewares/Third_Party/FreeRTOS/Source/list.c **** 	configUSE_LIST_DATA_INTEGRITY_CHECK_BYTES is set to 1. */
  57:Firmware/Middlewares/Third_Party/FreeRTOS/Source/list.c **** 	listSET_LIST_INTEGRITY_CHECK_1_VALUE( pxList );
  58:Firmware/Middlewares/Third_Party/FreeRTOS/Source/list.c **** 	listSET_LIST_INTEGRITY_CHECK_2_VALUE( pxList );
  59:Firmware/Middlewares/Third_Party/FreeRTOS/Source/list.c **** }
  67              		.loc 1 59 0
  68 0034 00BF     		nop
  69 0036 0C37     		adds	r7, r7, #12
  70              	.LCFI3:
  71              		.cfi_def_cfa_offset 4
  72 0038 BD46     		mov	sp, r7
  73              	.LCFI4:
  74              		.cfi_def_cfa_register 13
  75              		@ sp needed
  76 003a 5DF8047B 		ldr	r7, [sp], #4
  77              	.LCFI5:
  78              		.cfi_restore 7
  79              		.cfi_def_cfa_offset 0
  80 003e 7047     		bx	lr
  81              		.cfi_endproc
  82              	.LFE4:
  84              		.section	.text.vListInitialiseItem,"ax",%progbits
  85              		.align	1
  86              		.global	vListInitialiseItem
  87              		.syntax unified
  88              		.thumb
  89              		.thumb_func
  90              		.fpu fpv4-sp-d16
  92              	vListInitialiseItem:
  93              	.LFB5:
  60:Firmware/Middlewares/Third_Party/FreeRTOS/Source/list.c **** /*-----------------------------------------------------------*/
  61:Firmware/Middlewares/Third_Party/FreeRTOS/Source/list.c **** 
  62:Firmware/Middlewares/Third_Party/FreeRTOS/Source/list.c **** void vListInitialiseItem( ListItem_t * const pxItem )
  63:Firmware/Middlewares/Third_Party/FreeRTOS/Source/list.c **** {
  94              		.loc 1 63 0
  95              		.cfi_startproc
  96              		@ args = 0, pretend = 0, frame = 8
  97              		@ frame_needed = 1, uses_anonymous_args = 0
  98              		@ link register save eliminated.
  99 0000 80B4     		push	{r7}
 100              	.LCFI6:
 101              		.cfi_def_cfa_offset 4
 102              		.cfi_offset 7, -4
 103 0002 83B0     		sub	sp, sp, #12
 104              	.LCFI7:
 105              		.cfi_def_cfa_offset 16
 106 0004 00AF     		add	r7, sp, #0
 107              	.LCFI8:
 108              		.cfi_def_cfa_register 7
 109 0006 7860     		str	r0, [r7, #4]
  64:Firmware/Middlewares/Third_Party/FreeRTOS/Source/list.c **** 	/* Make sure the list item is not recorded as being on a list. */
  65:Firmware/Middlewares/Third_Party/FreeRTOS/Source/list.c **** 	pxItem->pvContainer = NULL;
ARM GAS  /tmp/ccVRFcq3.s 			page 4


 110              		.loc 1 65 0
 111 0008 7B68     		ldr	r3, [r7, #4]
 112 000a 0022     		movs	r2, #0
 113 000c 1A61     		str	r2, [r3, #16]
  66:Firmware/Middlewares/Third_Party/FreeRTOS/Source/list.c **** 
  67:Firmware/Middlewares/Third_Party/FreeRTOS/Source/list.c **** 	/* Write known values into the list item if
  68:Firmware/Middlewares/Third_Party/FreeRTOS/Source/list.c **** 	configUSE_LIST_DATA_INTEGRITY_CHECK_BYTES is set to 1. */
  69:Firmware/Middlewares/Third_Party/FreeRTOS/Source/list.c **** 	listSET_FIRST_LIST_ITEM_INTEGRITY_CHECK_VALUE( pxItem );
  70:Firmware/Middlewares/Third_Party/FreeRTOS/Source/list.c **** 	listSET_SECOND_LIST_ITEM_INTEGRITY_CHECK_VALUE( pxItem );
  71:Firmware/Middlewares/Third_Party/FreeRTOS/Source/list.c **** }
 114              		.loc 1 71 0
 115 000e 00BF     		nop
 116 0010 0C37     		adds	r7, r7, #12
 117              	.LCFI9:
 118              		.cfi_def_cfa_offset 4
 119 0012 BD46     		mov	sp, r7
 120              	.LCFI10:
 121              		.cfi_def_cfa_register 13
 122              		@ sp needed
 123 0014 5DF8047B 		ldr	r7, [sp], #4
 124              	.LCFI11:
 125              		.cfi_restore 7
 126              		.cfi_def_cfa_offset 0
 127 0018 7047     		bx	lr
 128              		.cfi_endproc
 129              	.LFE5:
 131              		.section	.text.vListInsertEnd,"ax",%progbits
 132              		.align	1
 133              		.global	vListInsertEnd
 134              		.syntax unified
 135              		.thumb
 136              		.thumb_func
 137              		.fpu fpv4-sp-d16
 139              	vListInsertEnd:
 140              	.LFB6:
  72:Firmware/Middlewares/Third_Party/FreeRTOS/Source/list.c **** /*-----------------------------------------------------------*/
  73:Firmware/Middlewares/Third_Party/FreeRTOS/Source/list.c **** 
  74:Firmware/Middlewares/Third_Party/FreeRTOS/Source/list.c **** void vListInsertEnd( List_t * const pxList, ListItem_t * const pxNewListItem )
  75:Firmware/Middlewares/Third_Party/FreeRTOS/Source/list.c **** {
 141              		.loc 1 75 0
 142              		.cfi_startproc
 143              		@ args = 0, pretend = 0, frame = 16
 144              		@ frame_needed = 1, uses_anonymous_args = 0
 145              		@ link register save eliminated.
 146 0000 80B4     		push	{r7}
 147              	.LCFI12:
 148              		.cfi_def_cfa_offset 4
 149              		.cfi_offset 7, -4
 150 0002 85B0     		sub	sp, sp, #20
 151              	.LCFI13:
 152              		.cfi_def_cfa_offset 24
 153 0004 00AF     		add	r7, sp, #0
 154              	.LCFI14:
 155              		.cfi_def_cfa_register 7
 156 0006 7860     		str	r0, [r7, #4]
 157 0008 3960     		str	r1, [r7]
  76:Firmware/Middlewares/Third_Party/FreeRTOS/Source/list.c **** ListItem_t * const pxIndex = pxList->pxIndex;
ARM GAS  /tmp/ccVRFcq3.s 			page 5


 158              		.loc 1 76 0
 159 000a 7B68     		ldr	r3, [r7, #4]
 160 000c 5B68     		ldr	r3, [r3, #4]
 161 000e FB60     		str	r3, [r7, #12]
  77:Firmware/Middlewares/Third_Party/FreeRTOS/Source/list.c **** 
  78:Firmware/Middlewares/Third_Party/FreeRTOS/Source/list.c **** 	/* Only effective when configASSERT() is also defined, these tests may catch
  79:Firmware/Middlewares/Third_Party/FreeRTOS/Source/list.c **** 	the list data structures being overwritten in memory.  They will not catch
  80:Firmware/Middlewares/Third_Party/FreeRTOS/Source/list.c **** 	data errors caused by incorrect configuration or use of FreeRTOS. */
  81:Firmware/Middlewares/Third_Party/FreeRTOS/Source/list.c **** 	listTEST_LIST_INTEGRITY( pxList );
  82:Firmware/Middlewares/Third_Party/FreeRTOS/Source/list.c **** 	listTEST_LIST_ITEM_INTEGRITY( pxNewListItem );
  83:Firmware/Middlewares/Third_Party/FreeRTOS/Source/list.c **** 
  84:Firmware/Middlewares/Third_Party/FreeRTOS/Source/list.c **** 	/* Insert a new list item into pxList, but rather than sort the list,
  85:Firmware/Middlewares/Third_Party/FreeRTOS/Source/list.c **** 	makes the new list item the last item to be removed by a call to
  86:Firmware/Middlewares/Third_Party/FreeRTOS/Source/list.c **** 	listGET_OWNER_OF_NEXT_ENTRY(). */
  87:Firmware/Middlewares/Third_Party/FreeRTOS/Source/list.c **** 	pxNewListItem->pxNext = pxIndex;
 162              		.loc 1 87 0
 163 0010 3B68     		ldr	r3, [r7]
 164 0012 FA68     		ldr	r2, [r7, #12]
 165 0014 5A60     		str	r2, [r3, #4]
  88:Firmware/Middlewares/Third_Party/FreeRTOS/Source/list.c **** 	pxNewListItem->pxPrevious = pxIndex->pxPrevious;
 166              		.loc 1 88 0
 167 0016 FB68     		ldr	r3, [r7, #12]
 168 0018 9A68     		ldr	r2, [r3, #8]
 169 001a 3B68     		ldr	r3, [r7]
 170 001c 9A60     		str	r2, [r3, #8]
  89:Firmware/Middlewares/Third_Party/FreeRTOS/Source/list.c **** 
  90:Firmware/Middlewares/Third_Party/FreeRTOS/Source/list.c **** 	/* Only used during decision coverage testing. */
  91:Firmware/Middlewares/Third_Party/FreeRTOS/Source/list.c **** 	mtCOVERAGE_TEST_DELAY();
  92:Firmware/Middlewares/Third_Party/FreeRTOS/Source/list.c **** 
  93:Firmware/Middlewares/Third_Party/FreeRTOS/Source/list.c **** 	pxIndex->pxPrevious->pxNext = pxNewListItem;
 171              		.loc 1 93 0
 172 001e FB68     		ldr	r3, [r7, #12]
 173 0020 9B68     		ldr	r3, [r3, #8]
 174 0022 3A68     		ldr	r2, [r7]
 175 0024 5A60     		str	r2, [r3, #4]
  94:Firmware/Middlewares/Third_Party/FreeRTOS/Source/list.c **** 	pxIndex->pxPrevious = pxNewListItem;
 176              		.loc 1 94 0
 177 0026 FB68     		ldr	r3, [r7, #12]
 178 0028 3A68     		ldr	r2, [r7]
 179 002a 9A60     		str	r2, [r3, #8]
  95:Firmware/Middlewares/Third_Party/FreeRTOS/Source/list.c **** 
  96:Firmware/Middlewares/Third_Party/FreeRTOS/Source/list.c **** 	/* Remember which list the item is in. */
  97:Firmware/Middlewares/Third_Party/FreeRTOS/Source/list.c **** 	pxNewListItem->pvContainer = ( void * ) pxList;
 180              		.loc 1 97 0
 181 002c 3B68     		ldr	r3, [r7]
 182 002e 7A68     		ldr	r2, [r7, #4]
 183 0030 1A61     		str	r2, [r3, #16]
  98:Firmware/Middlewares/Third_Party/FreeRTOS/Source/list.c **** 
  99:Firmware/Middlewares/Third_Party/FreeRTOS/Source/list.c **** 	( pxList->uxNumberOfItems )++;
 184              		.loc 1 99 0
 185 0032 7B68     		ldr	r3, [r7, #4]
 186 0034 1B68     		ldr	r3, [r3]
 187 0036 5A1C     		adds	r2, r3, #1
 188 0038 7B68     		ldr	r3, [r7, #4]
 189 003a 1A60     		str	r2, [r3]
 100:Firmware/Middlewares/Third_Party/FreeRTOS/Source/list.c **** }
 190              		.loc 1 100 0
ARM GAS  /tmp/ccVRFcq3.s 			page 6


 191 003c 00BF     		nop
 192 003e 1437     		adds	r7, r7, #20
 193              	.LCFI15:
 194              		.cfi_def_cfa_offset 4
 195 0040 BD46     		mov	sp, r7
 196              	.LCFI16:
 197              		.cfi_def_cfa_register 13
 198              		@ sp needed
 199 0042 5DF8047B 		ldr	r7, [sp], #4
 200              	.LCFI17:
 201              		.cfi_restore 7
 202              		.cfi_def_cfa_offset 0
 203 0046 7047     		bx	lr
 204              		.cfi_endproc
 205              	.LFE6:
 207              		.section	.text.vListInsert,"ax",%progbits
 208              		.align	1
 209              		.global	vListInsert
 210              		.syntax unified
 211              		.thumb
 212              		.thumb_func
 213              		.fpu fpv4-sp-d16
 215              	vListInsert:
 216              	.LFB7:
 101:Firmware/Middlewares/Third_Party/FreeRTOS/Source/list.c **** /*-----------------------------------------------------------*/
 102:Firmware/Middlewares/Third_Party/FreeRTOS/Source/list.c **** 
 103:Firmware/Middlewares/Third_Party/FreeRTOS/Source/list.c **** void vListInsert( List_t * const pxList, ListItem_t * const pxNewListItem )
 104:Firmware/Middlewares/Third_Party/FreeRTOS/Source/list.c **** {
 217              		.loc 1 104 0
 218              		.cfi_startproc
 219              		@ args = 0, pretend = 0, frame = 16
 220              		@ frame_needed = 1, uses_anonymous_args = 0
 221              		@ link register save eliminated.
 222 0000 80B4     		push	{r7}
 223              	.LCFI18:
 224              		.cfi_def_cfa_offset 4
 225              		.cfi_offset 7, -4
 226 0002 85B0     		sub	sp, sp, #20
 227              	.LCFI19:
 228              		.cfi_def_cfa_offset 24
 229 0004 00AF     		add	r7, sp, #0
 230              	.LCFI20:
 231              		.cfi_def_cfa_register 7
 232 0006 7860     		str	r0, [r7, #4]
 233 0008 3960     		str	r1, [r7]
 105:Firmware/Middlewares/Third_Party/FreeRTOS/Source/list.c **** ListItem_t *pxIterator;
 106:Firmware/Middlewares/Third_Party/FreeRTOS/Source/list.c **** const TickType_t xValueOfInsertion = pxNewListItem->xItemValue;
 234              		.loc 1 106 0
 235 000a 3B68     		ldr	r3, [r7]
 236 000c 1B68     		ldr	r3, [r3]
 237 000e BB60     		str	r3, [r7, #8]
 107:Firmware/Middlewares/Third_Party/FreeRTOS/Source/list.c **** 
 108:Firmware/Middlewares/Third_Party/FreeRTOS/Source/list.c **** 	/* Only effective when configASSERT() is also defined, these tests may catch
 109:Firmware/Middlewares/Third_Party/FreeRTOS/Source/list.c **** 	the list data structures being overwritten in memory.  They will not catch
 110:Firmware/Middlewares/Third_Party/FreeRTOS/Source/list.c **** 	data errors caused by incorrect configuration or use of FreeRTOS. */
 111:Firmware/Middlewares/Third_Party/FreeRTOS/Source/list.c **** 	listTEST_LIST_INTEGRITY( pxList );
 112:Firmware/Middlewares/Third_Party/FreeRTOS/Source/list.c **** 	listTEST_LIST_ITEM_INTEGRITY( pxNewListItem );
ARM GAS  /tmp/ccVRFcq3.s 			page 7


 113:Firmware/Middlewares/Third_Party/FreeRTOS/Source/list.c **** 
 114:Firmware/Middlewares/Third_Party/FreeRTOS/Source/list.c **** 	/* Insert the new list item into the list, sorted in xItemValue order.
 115:Firmware/Middlewares/Third_Party/FreeRTOS/Source/list.c **** 
 116:Firmware/Middlewares/Third_Party/FreeRTOS/Source/list.c **** 	If the list already contains a list item with the same item value then the
 117:Firmware/Middlewares/Third_Party/FreeRTOS/Source/list.c **** 	new list item should be placed after it.  This ensures that TCB's which are
 118:Firmware/Middlewares/Third_Party/FreeRTOS/Source/list.c **** 	stored in ready lists (all of which have the same xItemValue value) get a
 119:Firmware/Middlewares/Third_Party/FreeRTOS/Source/list.c **** 	share of the CPU.  However, if the xItemValue is the same as the back marker
 120:Firmware/Middlewares/Third_Party/FreeRTOS/Source/list.c **** 	the iteration loop below will not end.  Therefore the value is checked
 121:Firmware/Middlewares/Third_Party/FreeRTOS/Source/list.c **** 	first, and the algorithm slightly modified if necessary. */
 122:Firmware/Middlewares/Third_Party/FreeRTOS/Source/list.c **** 	if( xValueOfInsertion == portMAX_DELAY )
 238              		.loc 1 122 0
 239 0010 BB68     		ldr	r3, [r7, #8]
 240 0012 B3F1FF3F 		cmp	r3, #-1
 241 0016 03D1     		bne	.L5
 123:Firmware/Middlewares/Third_Party/FreeRTOS/Source/list.c **** 	{
 124:Firmware/Middlewares/Third_Party/FreeRTOS/Source/list.c **** 		pxIterator = pxList->xListEnd.pxPrevious;
 242              		.loc 1 124 0
 243 0018 7B68     		ldr	r3, [r7, #4]
 244 001a 1B69     		ldr	r3, [r3, #16]
 245 001c FB60     		str	r3, [r7, #12]
 246 001e 0CE0     		b	.L6
 247              	.L5:
 125:Firmware/Middlewares/Third_Party/FreeRTOS/Source/list.c **** 	}
 126:Firmware/Middlewares/Third_Party/FreeRTOS/Source/list.c **** 	else
 127:Firmware/Middlewares/Third_Party/FreeRTOS/Source/list.c **** 	{
 128:Firmware/Middlewares/Third_Party/FreeRTOS/Source/list.c **** 		/* *** NOTE ***********************************************************
 129:Firmware/Middlewares/Third_Party/FreeRTOS/Source/list.c **** 		If you find your application is crashing here then likely causes are
 130:Firmware/Middlewares/Third_Party/FreeRTOS/Source/list.c **** 		listed below.  In addition see http://www.freertos.org/FAQHelp.html for
 131:Firmware/Middlewares/Third_Party/FreeRTOS/Source/list.c **** 		more tips, and ensure configASSERT() is defined!
 132:Firmware/Middlewares/Third_Party/FreeRTOS/Source/list.c **** 		http://www.freertos.org/a00110.html#configASSERT
 133:Firmware/Middlewares/Third_Party/FreeRTOS/Source/list.c **** 
 134:Firmware/Middlewares/Third_Party/FreeRTOS/Source/list.c **** 			1) Stack overflow -
 135:Firmware/Middlewares/Third_Party/FreeRTOS/Source/list.c **** 			   see http://www.freertos.org/Stacks-and-stack-overflow-checking.html
 136:Firmware/Middlewares/Third_Party/FreeRTOS/Source/list.c **** 			2) Incorrect interrupt priority assignment, especially on Cortex-M
 137:Firmware/Middlewares/Third_Party/FreeRTOS/Source/list.c **** 			   parts where numerically high priority values denote low actual
 138:Firmware/Middlewares/Third_Party/FreeRTOS/Source/list.c **** 			   interrupt priorities, which can seem counter intuitive.  See
 139:Firmware/Middlewares/Third_Party/FreeRTOS/Source/list.c **** 			   http://www.freertos.org/RTOS-Cortex-M3-M4.html and the definition
 140:Firmware/Middlewares/Third_Party/FreeRTOS/Source/list.c **** 			   of configMAX_SYSCALL_INTERRUPT_PRIORITY on
 141:Firmware/Middlewares/Third_Party/FreeRTOS/Source/list.c **** 			   http://www.freertos.org/a00110.html
 142:Firmware/Middlewares/Third_Party/FreeRTOS/Source/list.c **** 			3) Calling an API function from within a critical section or when
 143:Firmware/Middlewares/Third_Party/FreeRTOS/Source/list.c **** 			   the scheduler is suspended, or calling an API function that does
 144:Firmware/Middlewares/Third_Party/FreeRTOS/Source/list.c **** 			   not end in "FromISR" from an interrupt.
 145:Firmware/Middlewares/Third_Party/FreeRTOS/Source/list.c **** 			4) Using a queue or semaphore before it has been initialised or
 146:Firmware/Middlewares/Third_Party/FreeRTOS/Source/list.c **** 			   before the scheduler has been started (are interrupts firing
 147:Firmware/Middlewares/Third_Party/FreeRTOS/Source/list.c **** 			   before vTaskStartScheduler() has been called?).
 148:Firmware/Middlewares/Third_Party/FreeRTOS/Source/list.c **** 		**********************************************************************/
 149:Firmware/Middlewares/Third_Party/FreeRTOS/Source/list.c **** 
 150:Firmware/Middlewares/Third_Party/FreeRTOS/Source/list.c **** 		for( pxIterator = ( ListItem_t * ) &( pxList->xListEnd ); pxIterator->pxNext->xItemValue <= xValu
 248              		.loc 1 150 0
 249 0020 7B68     		ldr	r3, [r7, #4]
 250 0022 0833     		adds	r3, r3, #8
 251 0024 FB60     		str	r3, [r7, #12]
 252 0026 02E0     		b	.L7
 253              	.L8:
 254              		.loc 1 150 0 is_stmt 0 discriminator 3
 255 0028 FB68     		ldr	r3, [r7, #12]
 256 002a 5B68     		ldr	r3, [r3, #4]
ARM GAS  /tmp/ccVRFcq3.s 			page 8


 257 002c FB60     		str	r3, [r7, #12]
 258              	.L7:
 259              		.loc 1 150 0 discriminator 1
 260 002e FB68     		ldr	r3, [r7, #12]
 261 0030 5B68     		ldr	r3, [r3, #4]
 262 0032 1B68     		ldr	r3, [r3]
 263 0034 BA68     		ldr	r2, [r7, #8]
 264 0036 9A42     		cmp	r2, r3
 265 0038 F6D2     		bcs	.L8
 266              	.L6:
 151:Firmware/Middlewares/Third_Party/FreeRTOS/Source/list.c **** 		{
 152:Firmware/Middlewares/Third_Party/FreeRTOS/Source/list.c **** 			/* There is nothing to do here, just iterating to the wanted
 153:Firmware/Middlewares/Third_Party/FreeRTOS/Source/list.c **** 			insertion position. */
 154:Firmware/Middlewares/Third_Party/FreeRTOS/Source/list.c **** 		}
 155:Firmware/Middlewares/Third_Party/FreeRTOS/Source/list.c **** 	}
 156:Firmware/Middlewares/Third_Party/FreeRTOS/Source/list.c **** 
 157:Firmware/Middlewares/Third_Party/FreeRTOS/Source/list.c **** 	pxNewListItem->pxNext = pxIterator->pxNext;
 267              		.loc 1 157 0 is_stmt 1
 268 003a FB68     		ldr	r3, [r7, #12]
 269 003c 5A68     		ldr	r2, [r3, #4]
 270 003e 3B68     		ldr	r3, [r7]
 271 0040 5A60     		str	r2, [r3, #4]
 158:Firmware/Middlewares/Third_Party/FreeRTOS/Source/list.c **** 	pxNewListItem->pxNext->pxPrevious = pxNewListItem;
 272              		.loc 1 158 0
 273 0042 3B68     		ldr	r3, [r7]
 274 0044 5B68     		ldr	r3, [r3, #4]
 275 0046 3A68     		ldr	r2, [r7]
 276 0048 9A60     		str	r2, [r3, #8]
 159:Firmware/Middlewares/Third_Party/FreeRTOS/Source/list.c **** 	pxNewListItem->pxPrevious = pxIterator;
 277              		.loc 1 159 0
 278 004a 3B68     		ldr	r3, [r7]
 279 004c FA68     		ldr	r2, [r7, #12]
 280 004e 9A60     		str	r2, [r3, #8]
 160:Firmware/Middlewares/Third_Party/FreeRTOS/Source/list.c **** 	pxIterator->pxNext = pxNewListItem;
 281              		.loc 1 160 0
 282 0050 FB68     		ldr	r3, [r7, #12]
 283 0052 3A68     		ldr	r2, [r7]
 284 0054 5A60     		str	r2, [r3, #4]
 161:Firmware/Middlewares/Third_Party/FreeRTOS/Source/list.c **** 
 162:Firmware/Middlewares/Third_Party/FreeRTOS/Source/list.c **** 	/* Remember which list the item is in.  This allows fast removal of the
 163:Firmware/Middlewares/Third_Party/FreeRTOS/Source/list.c **** 	item later. */
 164:Firmware/Middlewares/Third_Party/FreeRTOS/Source/list.c **** 	pxNewListItem->pvContainer = ( void * ) pxList;
 285              		.loc 1 164 0
 286 0056 3B68     		ldr	r3, [r7]
 287 0058 7A68     		ldr	r2, [r7, #4]
 288 005a 1A61     		str	r2, [r3, #16]
 165:Firmware/Middlewares/Third_Party/FreeRTOS/Source/list.c **** 
 166:Firmware/Middlewares/Third_Party/FreeRTOS/Source/list.c **** 	( pxList->uxNumberOfItems )++;
 289              		.loc 1 166 0
 290 005c 7B68     		ldr	r3, [r7, #4]
 291 005e 1B68     		ldr	r3, [r3]
 292 0060 5A1C     		adds	r2, r3, #1
 293 0062 7B68     		ldr	r3, [r7, #4]
 294 0064 1A60     		str	r2, [r3]
 167:Firmware/Middlewares/Third_Party/FreeRTOS/Source/list.c **** }
 295              		.loc 1 167 0
 296 0066 00BF     		nop
ARM GAS  /tmp/ccVRFcq3.s 			page 9


 297 0068 1437     		adds	r7, r7, #20
 298              	.LCFI21:
 299              		.cfi_def_cfa_offset 4
 300 006a BD46     		mov	sp, r7
 301              	.LCFI22:
 302              		.cfi_def_cfa_register 13
 303              		@ sp needed
 304 006c 5DF8047B 		ldr	r7, [sp], #4
 305              	.LCFI23:
 306              		.cfi_restore 7
 307              		.cfi_def_cfa_offset 0
 308 0070 7047     		bx	lr
 309              		.cfi_endproc
 310              	.LFE7:
 312              		.section	.text.uxListRemove,"ax",%progbits
 313              		.align	1
 314              		.global	uxListRemove
 315              		.syntax unified
 316              		.thumb
 317              		.thumb_func
 318              		.fpu fpv4-sp-d16
 320              	uxListRemove:
 321              	.LFB8:
 168:Firmware/Middlewares/Third_Party/FreeRTOS/Source/list.c **** /*-----------------------------------------------------------*/
 169:Firmware/Middlewares/Third_Party/FreeRTOS/Source/list.c **** 
 170:Firmware/Middlewares/Third_Party/FreeRTOS/Source/list.c **** UBaseType_t uxListRemove( ListItem_t * const pxItemToRemove )
 171:Firmware/Middlewares/Third_Party/FreeRTOS/Source/list.c **** {
 322              		.loc 1 171 0
 323              		.cfi_startproc
 324              		@ args = 0, pretend = 0, frame = 16
 325              		@ frame_needed = 1, uses_anonymous_args = 0
 326              		@ link register save eliminated.
 327 0000 80B4     		push	{r7}
 328              	.LCFI24:
 329              		.cfi_def_cfa_offset 4
 330              		.cfi_offset 7, -4
 331 0002 85B0     		sub	sp, sp, #20
 332              	.LCFI25:
 333              		.cfi_def_cfa_offset 24
 334 0004 00AF     		add	r7, sp, #0
 335              	.LCFI26:
 336              		.cfi_def_cfa_register 7
 337 0006 7860     		str	r0, [r7, #4]
 172:Firmware/Middlewares/Third_Party/FreeRTOS/Source/list.c **** /* The list item knows which list it is in.  Obtain the list from the list
 173:Firmware/Middlewares/Third_Party/FreeRTOS/Source/list.c **** item. */
 174:Firmware/Middlewares/Third_Party/FreeRTOS/Source/list.c **** List_t * const pxList = ( List_t * ) pxItemToRemove->pvContainer;
 338              		.loc 1 174 0
 339 0008 7B68     		ldr	r3, [r7, #4]
 340 000a 1B69     		ldr	r3, [r3, #16]
 341 000c FB60     		str	r3, [r7, #12]
 175:Firmware/Middlewares/Third_Party/FreeRTOS/Source/list.c **** 
 176:Firmware/Middlewares/Third_Party/FreeRTOS/Source/list.c **** 	pxItemToRemove->pxNext->pxPrevious = pxItemToRemove->pxPrevious;
 342              		.loc 1 176 0
 343 000e 7B68     		ldr	r3, [r7, #4]
 344 0010 5B68     		ldr	r3, [r3, #4]
 345 0012 7A68     		ldr	r2, [r7, #4]
 346 0014 9268     		ldr	r2, [r2, #8]
ARM GAS  /tmp/ccVRFcq3.s 			page 10


 347 0016 9A60     		str	r2, [r3, #8]
 177:Firmware/Middlewares/Third_Party/FreeRTOS/Source/list.c **** 	pxItemToRemove->pxPrevious->pxNext = pxItemToRemove->pxNext;
 348              		.loc 1 177 0
 349 0018 7B68     		ldr	r3, [r7, #4]
 350 001a 9B68     		ldr	r3, [r3, #8]
 351 001c 7A68     		ldr	r2, [r7, #4]
 352 001e 5268     		ldr	r2, [r2, #4]
 353 0020 5A60     		str	r2, [r3, #4]
 178:Firmware/Middlewares/Third_Party/FreeRTOS/Source/list.c **** 
 179:Firmware/Middlewares/Third_Party/FreeRTOS/Source/list.c **** 	/* Only used during decision coverage testing. */
 180:Firmware/Middlewares/Third_Party/FreeRTOS/Source/list.c **** 	mtCOVERAGE_TEST_DELAY();
 181:Firmware/Middlewares/Third_Party/FreeRTOS/Source/list.c **** 
 182:Firmware/Middlewares/Third_Party/FreeRTOS/Source/list.c **** 	/* Make sure the index is left pointing to a valid item. */
 183:Firmware/Middlewares/Third_Party/FreeRTOS/Source/list.c **** 	if( pxList->pxIndex == pxItemToRemove )
 354              		.loc 1 183 0
 355 0022 FB68     		ldr	r3, [r7, #12]
 356 0024 5B68     		ldr	r3, [r3, #4]
 357 0026 7A68     		ldr	r2, [r7, #4]
 358 0028 9A42     		cmp	r2, r3
 359 002a 03D1     		bne	.L10
 184:Firmware/Middlewares/Third_Party/FreeRTOS/Source/list.c **** 	{
 185:Firmware/Middlewares/Third_Party/FreeRTOS/Source/list.c **** 		pxList->pxIndex = pxItemToRemove->pxPrevious;
 360              		.loc 1 185 0
 361 002c 7B68     		ldr	r3, [r7, #4]
 362 002e 9A68     		ldr	r2, [r3, #8]
 363 0030 FB68     		ldr	r3, [r7, #12]
 364 0032 5A60     		str	r2, [r3, #4]
 365              	.L10:
 186:Firmware/Middlewares/Third_Party/FreeRTOS/Source/list.c **** 	}
 187:Firmware/Middlewares/Third_Party/FreeRTOS/Source/list.c **** 	else
 188:Firmware/Middlewares/Third_Party/FreeRTOS/Source/list.c **** 	{
 189:Firmware/Middlewares/Third_Party/FreeRTOS/Source/list.c **** 		mtCOVERAGE_TEST_MARKER();
 190:Firmware/Middlewares/Third_Party/FreeRTOS/Source/list.c **** 	}
 191:Firmware/Middlewares/Third_Party/FreeRTOS/Source/list.c **** 
 192:Firmware/Middlewares/Third_Party/FreeRTOS/Source/list.c **** 	pxItemToRemove->pvContainer = NULL;
 366              		.loc 1 192 0
 367 0034 7B68     		ldr	r3, [r7, #4]
 368 0036 0022     		movs	r2, #0
 369 0038 1A61     		str	r2, [r3, #16]
 193:Firmware/Middlewares/Third_Party/FreeRTOS/Source/list.c **** 	( pxList->uxNumberOfItems )--;
 370              		.loc 1 193 0
 371 003a FB68     		ldr	r3, [r7, #12]
 372 003c 1B68     		ldr	r3, [r3]
 373 003e 5A1E     		subs	r2, r3, #1
 374 0040 FB68     		ldr	r3, [r7, #12]
 375 0042 1A60     		str	r2, [r3]
 194:Firmware/Middlewares/Third_Party/FreeRTOS/Source/list.c **** 
 195:Firmware/Middlewares/Third_Party/FreeRTOS/Source/list.c **** 	return pxList->uxNumberOfItems;
 376              		.loc 1 195 0
 377 0044 FB68     		ldr	r3, [r7, #12]
 378 0046 1B68     		ldr	r3, [r3]
 196:Firmware/Middlewares/Third_Party/FreeRTOS/Source/list.c **** }
 379              		.loc 1 196 0
 380 0048 1846     		mov	r0, r3
 381 004a 1437     		adds	r7, r7, #20
 382              	.LCFI27:
 383              		.cfi_def_cfa_offset 4
ARM GAS  /tmp/ccVRFcq3.s 			page 11


 384 004c BD46     		mov	sp, r7
 385              	.LCFI28:
 386              		.cfi_def_cfa_register 13
 387              		@ sp needed
 388 004e 5DF8047B 		ldr	r7, [sp], #4
 389              	.LCFI29:
 390              		.cfi_restore 7
 391              		.cfi_def_cfa_offset 0
 392 0052 7047     		bx	lr
 393              		.cfi_endproc
 394              	.LFE8:
 396              		.text
 397              	.Letext0:
 398              		.file 2 "/home/zht/stm32tools/arm-gcc/arm-none-eabi/include/machine/_default_types.h"
 399              		.file 3 "/home/zht/stm32tools/arm-gcc/arm-none-eabi/include/sys/lock.h"
 400              		.file 4 "/home/zht/stm32tools/arm-gcc/arm-none-eabi/include/sys/_types.h"
 401              		.file 5 "/home/zht/stm32tools/arm-gcc/lib/gcc/arm-none-eabi/7.3.1/include/stddef.h"
 402              		.file 6 "/home/zht/stm32tools/arm-gcc/arm-none-eabi/include/sys/reent.h"
 403              		.file 7 "/home/zht/stm32tools/arm-gcc/arm-none-eabi/include/stdlib.h"
 404              		.file 8 "/home/zht/stm32tools/arm-gcc/arm-none-eabi/include/sys/_stdint.h"
 405              		.file 9 "Firmware/Core/Inc/FreeRTOSConfig.h"
 406              		.file 10 "Firmware/Middlewares/Third_Party/FreeRTOS/Source/portable/GCC/ARM_CM4F/portmacro.h"
 407              		.file 11 "Firmware/Middlewares/Third_Party/FreeRTOS/Source/include/list.h"
ARM GAS  /tmp/ccVRFcq3.s 			page 12

