ARM GAS  /tmp/cce2QzCt.s 			page 1


   1              		.cpu cortex-m4
   2              		.eabi_attribute 27, 1
   3              		.eabi_attribute 28, 1
   4              		.eabi_attribute 20, 1
   5              		.eabi_attribute 21, 1
   6              		.eabi_attribute 23, 3
   7              		.eabi_attribute 24, 1
   8              		.eabi_attribute 25, 1
   9              		.eabi_attribute 26, 1
  10              		.eabi_attribute 30, 6
  11              		.eabi_attribute 34, 1
  12              		.eabi_attribute 18, 4
  13              		.file	"port.c"
  14              		.text
  15              	.Ltext0:
  16              		.cfi_sections	.debug_frame
  17              		.section	.data.uxCriticalNesting,"aw",%progbits
  18              		.align	2
  21              	uxCriticalNesting:
  22 0000 AAAAAAAA 		.word	-1431655766
  23              		.section	.bss.ucMaxSysCallPriority,"aw",%nobits
  26              	ucMaxSysCallPriority:
  27 0000 00       		.space	1
  28              		.section	.bss.ulMaxPRIGROUPValue,"aw",%nobits
  29              		.align	2
  32              	ulMaxPRIGROUPValue:
  33 0000 00000000 		.space	4
  34              		.section	.rodata.pcInterruptPriorityRegisters,"a",%progbits
  35              		.align	2
  38              	pcInterruptPriorityRegisters:
  39 0000 F0E300E0 		.word	-536812560
  40              		.section	.text.pxPortInitialiseStack,"ax",%progbits
  41              		.align	1
  42              		.global	pxPortInitialiseStack
  43              		.syntax unified
  44              		.thumb
  45              		.thumb_func
  46              		.fpu fpv4-sp-d16
  48              	pxPortInitialiseStack:
  49              	.LFB4:
  50              		.file 1 "Firmware/Middlewares/Third_Party/FreeRTOS/Source/portable/GCC/ARM_CM4F/port.c"
   1:Firmware/Middlewares/Third_Party/FreeRTOS/Source/portable/GCC/ARM_CM4F/port.c **** /*
   2:Firmware/Middlewares/Third_Party/FreeRTOS/Source/portable/GCC/ARM_CM4F/port.c ****  * FreeRTOS Kernel V10.0.1
   3:Firmware/Middlewares/Third_Party/FreeRTOS/Source/portable/GCC/ARM_CM4F/port.c ****  * Copyright (C) 2017 Amazon.com, Inc. or its affiliates.  All Rights Reserved.
   4:Firmware/Middlewares/Third_Party/FreeRTOS/Source/portable/GCC/ARM_CM4F/port.c ****  *
   5:Firmware/Middlewares/Third_Party/FreeRTOS/Source/portable/GCC/ARM_CM4F/port.c ****  * Permission is hereby granted, free of charge, to any person obtaining a copy of
   6:Firmware/Middlewares/Third_Party/FreeRTOS/Source/portable/GCC/ARM_CM4F/port.c ****  * this software and associated documentation files (the "Software"), to deal in
   7:Firmware/Middlewares/Third_Party/FreeRTOS/Source/portable/GCC/ARM_CM4F/port.c ****  * the Software without restriction, including without limitation the rights to
   8:Firmware/Middlewares/Third_Party/FreeRTOS/Source/portable/GCC/ARM_CM4F/port.c ****  * use, copy, modify, merge, publish, distribute, sublicense, and/or sell copies of
   9:Firmware/Middlewares/Third_Party/FreeRTOS/Source/portable/GCC/ARM_CM4F/port.c ****  * the Software, and to permit persons to whom the Software is furnished to do so,
  10:Firmware/Middlewares/Third_Party/FreeRTOS/Source/portable/GCC/ARM_CM4F/port.c ****  * subject to the following conditions:
  11:Firmware/Middlewares/Third_Party/FreeRTOS/Source/portable/GCC/ARM_CM4F/port.c ****  *
  12:Firmware/Middlewares/Third_Party/FreeRTOS/Source/portable/GCC/ARM_CM4F/port.c ****  * The above copyright notice and this permission notice shall be included in all
  13:Firmware/Middlewares/Third_Party/FreeRTOS/Source/portable/GCC/ARM_CM4F/port.c ****  * copies or substantial portions of the Software.
  14:Firmware/Middlewares/Third_Party/FreeRTOS/Source/portable/GCC/ARM_CM4F/port.c ****  *
  15:Firmware/Middlewares/Third_Party/FreeRTOS/Source/portable/GCC/ARM_CM4F/port.c ****  * THE SOFTWARE IS PROVIDED "AS IS", WITHOUT WARRANTY OF ANY KIND, EXPRESS OR
  16:Firmware/Middlewares/Third_Party/FreeRTOS/Source/portable/GCC/ARM_CM4F/port.c ****  * IMPLIED, INCLUDING BUT NOT LIMITED TO THE WARRANTIES OF MERCHANTABILITY, FITNESS
ARM GAS  /tmp/cce2QzCt.s 			page 2


  17:Firmware/Middlewares/Third_Party/FreeRTOS/Source/portable/GCC/ARM_CM4F/port.c ****  * FOR A PARTICULAR PURPOSE AND NONINFRINGEMENT. IN NO EVENT SHALL THE AUTHORS OR
  18:Firmware/Middlewares/Third_Party/FreeRTOS/Source/portable/GCC/ARM_CM4F/port.c ****  * COPYRIGHT HOLDERS BE LIABLE FOR ANY CLAIM, DAMAGES OR OTHER LIABILITY, WHETHER
  19:Firmware/Middlewares/Third_Party/FreeRTOS/Source/portable/GCC/ARM_CM4F/port.c ****  * IN AN ACTION OF CONTRACT, TORT OR OTHERWISE, ARISING FROM, OUT OF OR IN
  20:Firmware/Middlewares/Third_Party/FreeRTOS/Source/portable/GCC/ARM_CM4F/port.c ****  * CONNECTION WITH THE SOFTWARE OR THE USE OR OTHER DEALINGS IN THE SOFTWARE.
  21:Firmware/Middlewares/Third_Party/FreeRTOS/Source/portable/GCC/ARM_CM4F/port.c ****  *
  22:Firmware/Middlewares/Third_Party/FreeRTOS/Source/portable/GCC/ARM_CM4F/port.c ****  * http://www.FreeRTOS.org
  23:Firmware/Middlewares/Third_Party/FreeRTOS/Source/portable/GCC/ARM_CM4F/port.c ****  * http://aws.amazon.com/freertos
  24:Firmware/Middlewares/Third_Party/FreeRTOS/Source/portable/GCC/ARM_CM4F/port.c ****  *
  25:Firmware/Middlewares/Third_Party/FreeRTOS/Source/portable/GCC/ARM_CM4F/port.c ****  * 1 tab == 4 spaces!
  26:Firmware/Middlewares/Third_Party/FreeRTOS/Source/portable/GCC/ARM_CM4F/port.c ****  */
  27:Firmware/Middlewares/Third_Party/FreeRTOS/Source/portable/GCC/ARM_CM4F/port.c **** 
  28:Firmware/Middlewares/Third_Party/FreeRTOS/Source/portable/GCC/ARM_CM4F/port.c **** /*-----------------------------------------------------------
  29:Firmware/Middlewares/Third_Party/FreeRTOS/Source/portable/GCC/ARM_CM4F/port.c ****  * Implementation of functions defined in portable.h for the ARM CM4F port.
  30:Firmware/Middlewares/Third_Party/FreeRTOS/Source/portable/GCC/ARM_CM4F/port.c ****  *----------------------------------------------------------*/
  31:Firmware/Middlewares/Third_Party/FreeRTOS/Source/portable/GCC/ARM_CM4F/port.c **** 
  32:Firmware/Middlewares/Third_Party/FreeRTOS/Source/portable/GCC/ARM_CM4F/port.c **** /* Scheduler includes. */
  33:Firmware/Middlewares/Third_Party/FreeRTOS/Source/portable/GCC/ARM_CM4F/port.c **** #include "FreeRTOS.h"
  34:Firmware/Middlewares/Third_Party/FreeRTOS/Source/portable/GCC/ARM_CM4F/port.c **** #include "task.h"
  35:Firmware/Middlewares/Third_Party/FreeRTOS/Source/portable/GCC/ARM_CM4F/port.c **** 
  36:Firmware/Middlewares/Third_Party/FreeRTOS/Source/portable/GCC/ARM_CM4F/port.c **** #ifndef __VFP_FP__
  37:Firmware/Middlewares/Third_Party/FreeRTOS/Source/portable/GCC/ARM_CM4F/port.c **** 	#error This port can only be used when the project options are configured to enable hardware float
  38:Firmware/Middlewares/Third_Party/FreeRTOS/Source/portable/GCC/ARM_CM4F/port.c **** #endif
  39:Firmware/Middlewares/Third_Party/FreeRTOS/Source/portable/GCC/ARM_CM4F/port.c **** 
  40:Firmware/Middlewares/Third_Party/FreeRTOS/Source/portable/GCC/ARM_CM4F/port.c **** #ifndef configSYSTICK_CLOCK_HZ
  41:Firmware/Middlewares/Third_Party/FreeRTOS/Source/portable/GCC/ARM_CM4F/port.c **** 	#define configSYSTICK_CLOCK_HZ configCPU_CLOCK_HZ
  42:Firmware/Middlewares/Third_Party/FreeRTOS/Source/portable/GCC/ARM_CM4F/port.c **** 	/* Ensure the SysTick is clocked at the same frequency as the core. */
  43:Firmware/Middlewares/Third_Party/FreeRTOS/Source/portable/GCC/ARM_CM4F/port.c **** 	#define portNVIC_SYSTICK_CLK_BIT	( 1UL << 2UL )
  44:Firmware/Middlewares/Third_Party/FreeRTOS/Source/portable/GCC/ARM_CM4F/port.c **** #else
  45:Firmware/Middlewares/Third_Party/FreeRTOS/Source/portable/GCC/ARM_CM4F/port.c **** 	/* The way the SysTick is clocked is not modified in case it is not the same
  46:Firmware/Middlewares/Third_Party/FreeRTOS/Source/portable/GCC/ARM_CM4F/port.c **** 	as the core. */
  47:Firmware/Middlewares/Third_Party/FreeRTOS/Source/portable/GCC/ARM_CM4F/port.c **** 	#define portNVIC_SYSTICK_CLK_BIT	( 0 )
  48:Firmware/Middlewares/Third_Party/FreeRTOS/Source/portable/GCC/ARM_CM4F/port.c **** #endif
  49:Firmware/Middlewares/Third_Party/FreeRTOS/Source/portable/GCC/ARM_CM4F/port.c **** 
  50:Firmware/Middlewares/Third_Party/FreeRTOS/Source/portable/GCC/ARM_CM4F/port.c **** /* Constants required to manipulate the core.  Registers first... */
  51:Firmware/Middlewares/Third_Party/FreeRTOS/Source/portable/GCC/ARM_CM4F/port.c **** #define portNVIC_SYSTICK_CTRL_REG			( * ( ( volatile uint32_t * ) 0xe000e010 ) )
  52:Firmware/Middlewares/Third_Party/FreeRTOS/Source/portable/GCC/ARM_CM4F/port.c **** #define portNVIC_SYSTICK_LOAD_REG			( * ( ( volatile uint32_t * ) 0xe000e014 ) )
  53:Firmware/Middlewares/Third_Party/FreeRTOS/Source/portable/GCC/ARM_CM4F/port.c **** #define portNVIC_SYSTICK_CURRENT_VALUE_REG	( * ( ( volatile uint32_t * ) 0xe000e018 ) )
  54:Firmware/Middlewares/Third_Party/FreeRTOS/Source/portable/GCC/ARM_CM4F/port.c **** #define portNVIC_SYSPRI2_REG				( * ( ( volatile uint32_t * ) 0xe000ed20 ) )
  55:Firmware/Middlewares/Third_Party/FreeRTOS/Source/portable/GCC/ARM_CM4F/port.c **** /* ...then bits in the registers. */
  56:Firmware/Middlewares/Third_Party/FreeRTOS/Source/portable/GCC/ARM_CM4F/port.c **** #define portNVIC_SYSTICK_INT_BIT			( 1UL << 1UL )
  57:Firmware/Middlewares/Third_Party/FreeRTOS/Source/portable/GCC/ARM_CM4F/port.c **** #define portNVIC_SYSTICK_ENABLE_BIT			( 1UL << 0UL )
  58:Firmware/Middlewares/Third_Party/FreeRTOS/Source/portable/GCC/ARM_CM4F/port.c **** #define portNVIC_SYSTICK_COUNT_FLAG_BIT		( 1UL << 16UL )
  59:Firmware/Middlewares/Third_Party/FreeRTOS/Source/portable/GCC/ARM_CM4F/port.c **** #define portNVIC_PENDSVCLEAR_BIT 			( 1UL << 27UL )
  60:Firmware/Middlewares/Third_Party/FreeRTOS/Source/portable/GCC/ARM_CM4F/port.c **** #define portNVIC_PEND_SYSTICK_CLEAR_BIT		( 1UL << 25UL )
  61:Firmware/Middlewares/Third_Party/FreeRTOS/Source/portable/GCC/ARM_CM4F/port.c **** 
  62:Firmware/Middlewares/Third_Party/FreeRTOS/Source/portable/GCC/ARM_CM4F/port.c **** /* Constants used to detect a Cortex-M7 r0p1 core, which should use the ARM_CM7
  63:Firmware/Middlewares/Third_Party/FreeRTOS/Source/portable/GCC/ARM_CM4F/port.c **** r0p1 port. */
  64:Firmware/Middlewares/Third_Party/FreeRTOS/Source/portable/GCC/ARM_CM4F/port.c **** #define portCPUID							( * ( ( volatile uint32_t * ) 0xE000ed00 ) )
  65:Firmware/Middlewares/Third_Party/FreeRTOS/Source/portable/GCC/ARM_CM4F/port.c **** #define portCORTEX_M7_r0p1_ID				( 0x410FC271UL )
  66:Firmware/Middlewares/Third_Party/FreeRTOS/Source/portable/GCC/ARM_CM4F/port.c **** #define portCORTEX_M7_r0p0_ID				( 0x410FC270UL )
  67:Firmware/Middlewares/Third_Party/FreeRTOS/Source/portable/GCC/ARM_CM4F/port.c **** 
  68:Firmware/Middlewares/Third_Party/FreeRTOS/Source/portable/GCC/ARM_CM4F/port.c **** #define portNVIC_PENDSV_PRI					( ( ( uint32_t ) configKERNEL_INTERRUPT_PRIORITY ) << 16UL )
  69:Firmware/Middlewares/Third_Party/FreeRTOS/Source/portable/GCC/ARM_CM4F/port.c **** #define portNVIC_SYSTICK_PRI				( ( ( uint32_t ) configKERNEL_INTERRUPT_PRIORITY ) << 24UL )
  70:Firmware/Middlewares/Third_Party/FreeRTOS/Source/portable/GCC/ARM_CM4F/port.c **** 
  71:Firmware/Middlewares/Third_Party/FreeRTOS/Source/portable/GCC/ARM_CM4F/port.c **** /* Constants required to check the validity of an interrupt priority. */
  72:Firmware/Middlewares/Third_Party/FreeRTOS/Source/portable/GCC/ARM_CM4F/port.c **** #define portFIRST_USER_INTERRUPT_NUMBER		( 16 )
  73:Firmware/Middlewares/Third_Party/FreeRTOS/Source/portable/GCC/ARM_CM4F/port.c **** #define portNVIC_IP_REGISTERS_OFFSET_16 	( 0xE000E3F0 )
ARM GAS  /tmp/cce2QzCt.s 			page 3


  74:Firmware/Middlewares/Third_Party/FreeRTOS/Source/portable/GCC/ARM_CM4F/port.c **** #define portAIRCR_REG						( * ( ( volatile uint32_t * ) 0xE000ED0C ) )
  75:Firmware/Middlewares/Third_Party/FreeRTOS/Source/portable/GCC/ARM_CM4F/port.c **** #define portMAX_8_BIT_VALUE					( ( uint8_t ) 0xff )
  76:Firmware/Middlewares/Third_Party/FreeRTOS/Source/portable/GCC/ARM_CM4F/port.c **** #define portTOP_BIT_OF_BYTE					( ( uint8_t ) 0x80 )
  77:Firmware/Middlewares/Third_Party/FreeRTOS/Source/portable/GCC/ARM_CM4F/port.c **** #define portMAX_PRIGROUP_BITS				( ( uint8_t ) 7 )
  78:Firmware/Middlewares/Third_Party/FreeRTOS/Source/portable/GCC/ARM_CM4F/port.c **** #define portPRIORITY_GROUP_MASK				( 0x07UL << 8UL )
  79:Firmware/Middlewares/Third_Party/FreeRTOS/Source/portable/GCC/ARM_CM4F/port.c **** #define portPRIGROUP_SHIFT					( 8UL )
  80:Firmware/Middlewares/Third_Party/FreeRTOS/Source/portable/GCC/ARM_CM4F/port.c **** 
  81:Firmware/Middlewares/Third_Party/FreeRTOS/Source/portable/GCC/ARM_CM4F/port.c **** /* Masks off all bits but the VECTACTIVE bits in the ICSR register. */
  82:Firmware/Middlewares/Third_Party/FreeRTOS/Source/portable/GCC/ARM_CM4F/port.c **** #define portVECTACTIVE_MASK					( 0xFFUL )
  83:Firmware/Middlewares/Third_Party/FreeRTOS/Source/portable/GCC/ARM_CM4F/port.c **** 
  84:Firmware/Middlewares/Third_Party/FreeRTOS/Source/portable/GCC/ARM_CM4F/port.c **** /* Constants required to manipulate the VFP. */
  85:Firmware/Middlewares/Third_Party/FreeRTOS/Source/portable/GCC/ARM_CM4F/port.c **** #define portFPCCR							( ( volatile uint32_t * ) 0xe000ef34 ) /* Floating point context control re
  86:Firmware/Middlewares/Third_Party/FreeRTOS/Source/portable/GCC/ARM_CM4F/port.c **** #define portASPEN_AND_LSPEN_BITS			( 0x3UL << 30UL )
  87:Firmware/Middlewares/Third_Party/FreeRTOS/Source/portable/GCC/ARM_CM4F/port.c **** 
  88:Firmware/Middlewares/Third_Party/FreeRTOS/Source/portable/GCC/ARM_CM4F/port.c **** /* Constants required to set up the initial stack. */
  89:Firmware/Middlewares/Third_Party/FreeRTOS/Source/portable/GCC/ARM_CM4F/port.c **** #define portINITIAL_XPSR					( 0x01000000 )
  90:Firmware/Middlewares/Third_Party/FreeRTOS/Source/portable/GCC/ARM_CM4F/port.c **** #define portINITIAL_EXC_RETURN				( 0xfffffffd )
  91:Firmware/Middlewares/Third_Party/FreeRTOS/Source/portable/GCC/ARM_CM4F/port.c **** 
  92:Firmware/Middlewares/Third_Party/FreeRTOS/Source/portable/GCC/ARM_CM4F/port.c **** /* The systick is a 24-bit counter. */
  93:Firmware/Middlewares/Third_Party/FreeRTOS/Source/portable/GCC/ARM_CM4F/port.c **** #define portMAX_24_BIT_NUMBER				( 0xffffffUL )
  94:Firmware/Middlewares/Third_Party/FreeRTOS/Source/portable/GCC/ARM_CM4F/port.c **** 
  95:Firmware/Middlewares/Third_Party/FreeRTOS/Source/portable/GCC/ARM_CM4F/port.c **** /* For strict compliance with the Cortex-M spec the task start address should
  96:Firmware/Middlewares/Third_Party/FreeRTOS/Source/portable/GCC/ARM_CM4F/port.c **** have bit-0 clear, as it is loaded into the PC on exit from an ISR. */
  97:Firmware/Middlewares/Third_Party/FreeRTOS/Source/portable/GCC/ARM_CM4F/port.c **** #define portSTART_ADDRESS_MASK		( ( StackType_t ) 0xfffffffeUL )
  98:Firmware/Middlewares/Third_Party/FreeRTOS/Source/portable/GCC/ARM_CM4F/port.c **** 
  99:Firmware/Middlewares/Third_Party/FreeRTOS/Source/portable/GCC/ARM_CM4F/port.c **** /* A fiddle factor to estimate the number of SysTick counts that would have
 100:Firmware/Middlewares/Third_Party/FreeRTOS/Source/portable/GCC/ARM_CM4F/port.c **** occurred while the SysTick counter is stopped during tickless idle
 101:Firmware/Middlewares/Third_Party/FreeRTOS/Source/portable/GCC/ARM_CM4F/port.c **** calculations. */
 102:Firmware/Middlewares/Third_Party/FreeRTOS/Source/portable/GCC/ARM_CM4F/port.c **** #define portMISSED_COUNTS_FACTOR			( 45UL )
 103:Firmware/Middlewares/Third_Party/FreeRTOS/Source/portable/GCC/ARM_CM4F/port.c **** 
 104:Firmware/Middlewares/Third_Party/FreeRTOS/Source/portable/GCC/ARM_CM4F/port.c **** /* Let the user override the pre-loading of the initial LR with the address of
 105:Firmware/Middlewares/Third_Party/FreeRTOS/Source/portable/GCC/ARM_CM4F/port.c **** prvTaskExitError() in case it messes up unwinding of the stack in the
 106:Firmware/Middlewares/Third_Party/FreeRTOS/Source/portable/GCC/ARM_CM4F/port.c **** debugger. */
 107:Firmware/Middlewares/Third_Party/FreeRTOS/Source/portable/GCC/ARM_CM4F/port.c **** #ifdef configTASK_RETURN_ADDRESS
 108:Firmware/Middlewares/Third_Party/FreeRTOS/Source/portable/GCC/ARM_CM4F/port.c **** 	#define portTASK_RETURN_ADDRESS	configTASK_RETURN_ADDRESS
 109:Firmware/Middlewares/Third_Party/FreeRTOS/Source/portable/GCC/ARM_CM4F/port.c **** #else
 110:Firmware/Middlewares/Third_Party/FreeRTOS/Source/portable/GCC/ARM_CM4F/port.c **** 	#define portTASK_RETURN_ADDRESS	prvTaskExitError
 111:Firmware/Middlewares/Third_Party/FreeRTOS/Source/portable/GCC/ARM_CM4F/port.c **** #endif
 112:Firmware/Middlewares/Third_Party/FreeRTOS/Source/portable/GCC/ARM_CM4F/port.c **** 
 113:Firmware/Middlewares/Third_Party/FreeRTOS/Source/portable/GCC/ARM_CM4F/port.c **** /*
 114:Firmware/Middlewares/Third_Party/FreeRTOS/Source/portable/GCC/ARM_CM4F/port.c ****  * Setup the timer to generate the tick interrupts.  The implementation in this
 115:Firmware/Middlewares/Third_Party/FreeRTOS/Source/portable/GCC/ARM_CM4F/port.c ****  * file is weak to allow application writers to change the timer used to
 116:Firmware/Middlewares/Third_Party/FreeRTOS/Source/portable/GCC/ARM_CM4F/port.c ****  * generate the tick interrupt.
 117:Firmware/Middlewares/Third_Party/FreeRTOS/Source/portable/GCC/ARM_CM4F/port.c ****  */
 118:Firmware/Middlewares/Third_Party/FreeRTOS/Source/portable/GCC/ARM_CM4F/port.c **** void vPortSetupTimerInterrupt( void );
 119:Firmware/Middlewares/Third_Party/FreeRTOS/Source/portable/GCC/ARM_CM4F/port.c **** 
 120:Firmware/Middlewares/Third_Party/FreeRTOS/Source/portable/GCC/ARM_CM4F/port.c **** /*
 121:Firmware/Middlewares/Third_Party/FreeRTOS/Source/portable/GCC/ARM_CM4F/port.c ****  * Exception handlers.
 122:Firmware/Middlewares/Third_Party/FreeRTOS/Source/portable/GCC/ARM_CM4F/port.c ****  */
 123:Firmware/Middlewares/Third_Party/FreeRTOS/Source/portable/GCC/ARM_CM4F/port.c **** void xPortPendSVHandler( void ) __attribute__ (( naked ));
 124:Firmware/Middlewares/Third_Party/FreeRTOS/Source/portable/GCC/ARM_CM4F/port.c **** void xPortSysTickHandler( void );
 125:Firmware/Middlewares/Third_Party/FreeRTOS/Source/portable/GCC/ARM_CM4F/port.c **** void vPortSVCHandler( void ) __attribute__ (( naked ));
 126:Firmware/Middlewares/Third_Party/FreeRTOS/Source/portable/GCC/ARM_CM4F/port.c **** 
 127:Firmware/Middlewares/Third_Party/FreeRTOS/Source/portable/GCC/ARM_CM4F/port.c **** /*
 128:Firmware/Middlewares/Third_Party/FreeRTOS/Source/portable/GCC/ARM_CM4F/port.c ****  * Start first task is a separate function so it can be tested in isolation.
 129:Firmware/Middlewares/Third_Party/FreeRTOS/Source/portable/GCC/ARM_CM4F/port.c ****  */
 130:Firmware/Middlewares/Third_Party/FreeRTOS/Source/portable/GCC/ARM_CM4F/port.c **** static void prvPortStartFirstTask( void ) __attribute__ (( naked ));
ARM GAS  /tmp/cce2QzCt.s 			page 4


 131:Firmware/Middlewares/Third_Party/FreeRTOS/Source/portable/GCC/ARM_CM4F/port.c **** 
 132:Firmware/Middlewares/Third_Party/FreeRTOS/Source/portable/GCC/ARM_CM4F/port.c **** /*
 133:Firmware/Middlewares/Third_Party/FreeRTOS/Source/portable/GCC/ARM_CM4F/port.c ****  * Function to enable the VFP.
 134:Firmware/Middlewares/Third_Party/FreeRTOS/Source/portable/GCC/ARM_CM4F/port.c ****  */
 135:Firmware/Middlewares/Third_Party/FreeRTOS/Source/portable/GCC/ARM_CM4F/port.c **** static void vPortEnableVFP( void ) __attribute__ (( naked ));
 136:Firmware/Middlewares/Third_Party/FreeRTOS/Source/portable/GCC/ARM_CM4F/port.c **** 
 137:Firmware/Middlewares/Third_Party/FreeRTOS/Source/portable/GCC/ARM_CM4F/port.c **** /*
 138:Firmware/Middlewares/Third_Party/FreeRTOS/Source/portable/GCC/ARM_CM4F/port.c ****  * Used to catch tasks that attempt to return from their implementing function.
 139:Firmware/Middlewares/Third_Party/FreeRTOS/Source/portable/GCC/ARM_CM4F/port.c ****  */
 140:Firmware/Middlewares/Third_Party/FreeRTOS/Source/portable/GCC/ARM_CM4F/port.c **** static void prvTaskExitError( void );
 141:Firmware/Middlewares/Third_Party/FreeRTOS/Source/portable/GCC/ARM_CM4F/port.c **** 
 142:Firmware/Middlewares/Third_Party/FreeRTOS/Source/portable/GCC/ARM_CM4F/port.c **** /*-----------------------------------------------------------*/
 143:Firmware/Middlewares/Third_Party/FreeRTOS/Source/portable/GCC/ARM_CM4F/port.c **** 
 144:Firmware/Middlewares/Third_Party/FreeRTOS/Source/portable/GCC/ARM_CM4F/port.c **** /* Each task maintains its own interrupt status in the critical nesting
 145:Firmware/Middlewares/Third_Party/FreeRTOS/Source/portable/GCC/ARM_CM4F/port.c **** variable. */
 146:Firmware/Middlewares/Third_Party/FreeRTOS/Source/portable/GCC/ARM_CM4F/port.c **** static UBaseType_t uxCriticalNesting = 0xaaaaaaaa;
 147:Firmware/Middlewares/Third_Party/FreeRTOS/Source/portable/GCC/ARM_CM4F/port.c **** 
 148:Firmware/Middlewares/Third_Party/FreeRTOS/Source/portable/GCC/ARM_CM4F/port.c **** /*
 149:Firmware/Middlewares/Third_Party/FreeRTOS/Source/portable/GCC/ARM_CM4F/port.c ****  * The number of SysTick increments that make up one tick period.
 150:Firmware/Middlewares/Third_Party/FreeRTOS/Source/portable/GCC/ARM_CM4F/port.c ****  */
 151:Firmware/Middlewares/Third_Party/FreeRTOS/Source/portable/GCC/ARM_CM4F/port.c **** #if( configUSE_TICKLESS_IDLE == 1 )
 152:Firmware/Middlewares/Third_Party/FreeRTOS/Source/portable/GCC/ARM_CM4F/port.c **** 	static uint32_t ulTimerCountsForOneTick = 0;
 153:Firmware/Middlewares/Third_Party/FreeRTOS/Source/portable/GCC/ARM_CM4F/port.c **** #endif /* configUSE_TICKLESS_IDLE */
 154:Firmware/Middlewares/Third_Party/FreeRTOS/Source/portable/GCC/ARM_CM4F/port.c **** 
 155:Firmware/Middlewares/Third_Party/FreeRTOS/Source/portable/GCC/ARM_CM4F/port.c **** /*
 156:Firmware/Middlewares/Third_Party/FreeRTOS/Source/portable/GCC/ARM_CM4F/port.c ****  * The maximum number of tick periods that can be suppressed is limited by the
 157:Firmware/Middlewares/Third_Party/FreeRTOS/Source/portable/GCC/ARM_CM4F/port.c ****  * 24 bit resolution of the SysTick timer.
 158:Firmware/Middlewares/Third_Party/FreeRTOS/Source/portable/GCC/ARM_CM4F/port.c ****  */
 159:Firmware/Middlewares/Third_Party/FreeRTOS/Source/portable/GCC/ARM_CM4F/port.c **** #if( configUSE_TICKLESS_IDLE == 1 )
 160:Firmware/Middlewares/Third_Party/FreeRTOS/Source/portable/GCC/ARM_CM4F/port.c **** 	static uint32_t xMaximumPossibleSuppressedTicks = 0;
 161:Firmware/Middlewares/Third_Party/FreeRTOS/Source/portable/GCC/ARM_CM4F/port.c **** #endif /* configUSE_TICKLESS_IDLE */
 162:Firmware/Middlewares/Third_Party/FreeRTOS/Source/portable/GCC/ARM_CM4F/port.c **** 
 163:Firmware/Middlewares/Third_Party/FreeRTOS/Source/portable/GCC/ARM_CM4F/port.c **** /*
 164:Firmware/Middlewares/Third_Party/FreeRTOS/Source/portable/GCC/ARM_CM4F/port.c ****  * Compensate for the CPU cycles that pass while the SysTick is stopped (low
 165:Firmware/Middlewares/Third_Party/FreeRTOS/Source/portable/GCC/ARM_CM4F/port.c ****  * power functionality only.
 166:Firmware/Middlewares/Third_Party/FreeRTOS/Source/portable/GCC/ARM_CM4F/port.c ****  */
 167:Firmware/Middlewares/Third_Party/FreeRTOS/Source/portable/GCC/ARM_CM4F/port.c **** #if( configUSE_TICKLESS_IDLE == 1 )
 168:Firmware/Middlewares/Third_Party/FreeRTOS/Source/portable/GCC/ARM_CM4F/port.c **** 	static uint32_t ulStoppedTimerCompensation = 0;
 169:Firmware/Middlewares/Third_Party/FreeRTOS/Source/portable/GCC/ARM_CM4F/port.c **** #endif /* configUSE_TICKLESS_IDLE */
 170:Firmware/Middlewares/Third_Party/FreeRTOS/Source/portable/GCC/ARM_CM4F/port.c **** 
 171:Firmware/Middlewares/Third_Party/FreeRTOS/Source/portable/GCC/ARM_CM4F/port.c **** /*
 172:Firmware/Middlewares/Third_Party/FreeRTOS/Source/portable/GCC/ARM_CM4F/port.c ****  * Used by the portASSERT_IF_INTERRUPT_PRIORITY_INVALID() macro to ensure
 173:Firmware/Middlewares/Third_Party/FreeRTOS/Source/portable/GCC/ARM_CM4F/port.c ****  * FreeRTOS API functions are not called from interrupts that have been assigned
 174:Firmware/Middlewares/Third_Party/FreeRTOS/Source/portable/GCC/ARM_CM4F/port.c ****  * a priority above configMAX_SYSCALL_INTERRUPT_PRIORITY.
 175:Firmware/Middlewares/Third_Party/FreeRTOS/Source/portable/GCC/ARM_CM4F/port.c ****  */
 176:Firmware/Middlewares/Third_Party/FreeRTOS/Source/portable/GCC/ARM_CM4F/port.c **** #if( configASSERT_DEFINED == 1 )
 177:Firmware/Middlewares/Third_Party/FreeRTOS/Source/portable/GCC/ARM_CM4F/port.c **** 	 static uint8_t ucMaxSysCallPriority = 0;
 178:Firmware/Middlewares/Third_Party/FreeRTOS/Source/portable/GCC/ARM_CM4F/port.c **** 	 static uint32_t ulMaxPRIGROUPValue = 0;
 179:Firmware/Middlewares/Third_Party/FreeRTOS/Source/portable/GCC/ARM_CM4F/port.c **** 	 static const volatile uint8_t * const pcInterruptPriorityRegisters = ( const volatile uint8_t * c
 180:Firmware/Middlewares/Third_Party/FreeRTOS/Source/portable/GCC/ARM_CM4F/port.c **** #endif /* configASSERT_DEFINED */
 181:Firmware/Middlewares/Third_Party/FreeRTOS/Source/portable/GCC/ARM_CM4F/port.c **** 
 182:Firmware/Middlewares/Third_Party/FreeRTOS/Source/portable/GCC/ARM_CM4F/port.c **** /*-----------------------------------------------------------*/
 183:Firmware/Middlewares/Third_Party/FreeRTOS/Source/portable/GCC/ARM_CM4F/port.c **** 
 184:Firmware/Middlewares/Third_Party/FreeRTOS/Source/portable/GCC/ARM_CM4F/port.c **** /*
 185:Firmware/Middlewares/Third_Party/FreeRTOS/Source/portable/GCC/ARM_CM4F/port.c ****  * See header file for description.
 186:Firmware/Middlewares/Third_Party/FreeRTOS/Source/portable/GCC/ARM_CM4F/port.c ****  */
 187:Firmware/Middlewares/Third_Party/FreeRTOS/Source/portable/GCC/ARM_CM4F/port.c **** StackType_t *pxPortInitialiseStack( StackType_t *pxTopOfStack, TaskFunction_t pxCode, void *pvParam
ARM GAS  /tmp/cce2QzCt.s 			page 5


 188:Firmware/Middlewares/Third_Party/FreeRTOS/Source/portable/GCC/ARM_CM4F/port.c **** {
  51              		.loc 1 188 0
  52              		.cfi_startproc
  53              		@ args = 0, pretend = 0, frame = 16
  54              		@ frame_needed = 1, uses_anonymous_args = 0
  55              		@ link register save eliminated.
  56 0000 80B4     		push	{r7}
  57              	.LCFI0:
  58              		.cfi_def_cfa_offset 4
  59              		.cfi_offset 7, -4
  60 0002 85B0     		sub	sp, sp, #20
  61              	.LCFI1:
  62              		.cfi_def_cfa_offset 24
  63 0004 00AF     		add	r7, sp, #0
  64              	.LCFI2:
  65              		.cfi_def_cfa_register 7
  66 0006 F860     		str	r0, [r7, #12]
  67 0008 B960     		str	r1, [r7, #8]
  68 000a 7A60     		str	r2, [r7, #4]
 189:Firmware/Middlewares/Third_Party/FreeRTOS/Source/portable/GCC/ARM_CM4F/port.c **** 	/* Simulate the stack frame as it would be created by a context switch
 190:Firmware/Middlewares/Third_Party/FreeRTOS/Source/portable/GCC/ARM_CM4F/port.c **** 	interrupt. */
 191:Firmware/Middlewares/Third_Party/FreeRTOS/Source/portable/GCC/ARM_CM4F/port.c **** 
 192:Firmware/Middlewares/Third_Party/FreeRTOS/Source/portable/GCC/ARM_CM4F/port.c **** 	/* Offset added to account for the way the MCU uses the stack on entry/exit
 193:Firmware/Middlewares/Third_Party/FreeRTOS/Source/portable/GCC/ARM_CM4F/port.c **** 	of interrupts, and to ensure alignment. */
 194:Firmware/Middlewares/Third_Party/FreeRTOS/Source/portable/GCC/ARM_CM4F/port.c **** 	pxTopOfStack--;
  69              		.loc 1 194 0
  70 000c FB68     		ldr	r3, [r7, #12]
  71 000e 043B     		subs	r3, r3, #4
  72 0010 FB60     		str	r3, [r7, #12]
 195:Firmware/Middlewares/Third_Party/FreeRTOS/Source/portable/GCC/ARM_CM4F/port.c **** 
 196:Firmware/Middlewares/Third_Party/FreeRTOS/Source/portable/GCC/ARM_CM4F/port.c **** 	*pxTopOfStack = portINITIAL_XPSR;	/* xPSR */
  73              		.loc 1 196 0
  74 0012 FB68     		ldr	r3, [r7, #12]
  75 0014 4FF08072 		mov	r2, #16777216
  76 0018 1A60     		str	r2, [r3]
 197:Firmware/Middlewares/Third_Party/FreeRTOS/Source/portable/GCC/ARM_CM4F/port.c **** 	pxTopOfStack--;
  77              		.loc 1 197 0
  78 001a FB68     		ldr	r3, [r7, #12]
  79 001c 043B     		subs	r3, r3, #4
  80 001e FB60     		str	r3, [r7, #12]
 198:Firmware/Middlewares/Third_Party/FreeRTOS/Source/portable/GCC/ARM_CM4F/port.c **** 	*pxTopOfStack = ( ( StackType_t ) pxCode ) & portSTART_ADDRESS_MASK;	/* PC */
  81              		.loc 1 198 0
  82 0020 BB68     		ldr	r3, [r7, #8]
  83 0022 23F00102 		bic	r2, r3, #1
  84 0026 FB68     		ldr	r3, [r7, #12]
  85 0028 1A60     		str	r2, [r3]
 199:Firmware/Middlewares/Third_Party/FreeRTOS/Source/portable/GCC/ARM_CM4F/port.c **** 	pxTopOfStack--;
  86              		.loc 1 199 0
  87 002a FB68     		ldr	r3, [r7, #12]
  88 002c 043B     		subs	r3, r3, #4
  89 002e FB60     		str	r3, [r7, #12]
 200:Firmware/Middlewares/Third_Party/FreeRTOS/Source/portable/GCC/ARM_CM4F/port.c **** 	*pxTopOfStack = ( StackType_t ) portTASK_RETURN_ADDRESS;	/* LR */
  90              		.loc 1 200 0
  91 0030 0C4A     		ldr	r2, .L3
  92 0032 FB68     		ldr	r3, [r7, #12]
  93 0034 1A60     		str	r2, [r3]
 201:Firmware/Middlewares/Third_Party/FreeRTOS/Source/portable/GCC/ARM_CM4F/port.c **** 
ARM GAS  /tmp/cce2QzCt.s 			page 6


 202:Firmware/Middlewares/Third_Party/FreeRTOS/Source/portable/GCC/ARM_CM4F/port.c **** 	/* Save code space by skipping register initialisation. */
 203:Firmware/Middlewares/Third_Party/FreeRTOS/Source/portable/GCC/ARM_CM4F/port.c **** 	pxTopOfStack -= 5;	/* R12, R3, R2 and R1. */
  94              		.loc 1 203 0
  95 0036 FB68     		ldr	r3, [r7, #12]
  96 0038 143B     		subs	r3, r3, #20
  97 003a FB60     		str	r3, [r7, #12]
 204:Firmware/Middlewares/Third_Party/FreeRTOS/Source/portable/GCC/ARM_CM4F/port.c **** 	*pxTopOfStack = ( StackType_t ) pvParameters;	/* R0 */
  98              		.loc 1 204 0
  99 003c 7A68     		ldr	r2, [r7, #4]
 100 003e FB68     		ldr	r3, [r7, #12]
 101 0040 1A60     		str	r2, [r3]
 205:Firmware/Middlewares/Third_Party/FreeRTOS/Source/portable/GCC/ARM_CM4F/port.c **** 
 206:Firmware/Middlewares/Third_Party/FreeRTOS/Source/portable/GCC/ARM_CM4F/port.c **** 	/* A save method is being used that requires each task to maintain its
 207:Firmware/Middlewares/Third_Party/FreeRTOS/Source/portable/GCC/ARM_CM4F/port.c **** 	own exec return value. */
 208:Firmware/Middlewares/Third_Party/FreeRTOS/Source/portable/GCC/ARM_CM4F/port.c **** 	pxTopOfStack--;
 102              		.loc 1 208 0
 103 0042 FB68     		ldr	r3, [r7, #12]
 104 0044 043B     		subs	r3, r3, #4
 105 0046 FB60     		str	r3, [r7, #12]
 209:Firmware/Middlewares/Third_Party/FreeRTOS/Source/portable/GCC/ARM_CM4F/port.c **** 	*pxTopOfStack = portINITIAL_EXC_RETURN;
 106              		.loc 1 209 0
 107 0048 FB68     		ldr	r3, [r7, #12]
 108 004a 6FF00202 		mvn	r2, #2
 109 004e 1A60     		str	r2, [r3]
 210:Firmware/Middlewares/Third_Party/FreeRTOS/Source/portable/GCC/ARM_CM4F/port.c **** 
 211:Firmware/Middlewares/Third_Party/FreeRTOS/Source/portable/GCC/ARM_CM4F/port.c **** 	pxTopOfStack -= 8;	/* R11, R10, R9, R8, R7, R6, R5 and R4. */
 110              		.loc 1 211 0
 111 0050 FB68     		ldr	r3, [r7, #12]
 112 0052 203B     		subs	r3, r3, #32
 113 0054 FB60     		str	r3, [r7, #12]
 212:Firmware/Middlewares/Third_Party/FreeRTOS/Source/portable/GCC/ARM_CM4F/port.c **** 
 213:Firmware/Middlewares/Third_Party/FreeRTOS/Source/portable/GCC/ARM_CM4F/port.c **** 	return pxTopOfStack;
 114              		.loc 1 213 0
 115 0056 FB68     		ldr	r3, [r7, #12]
 214:Firmware/Middlewares/Third_Party/FreeRTOS/Source/portable/GCC/ARM_CM4F/port.c **** }
 116              		.loc 1 214 0
 117 0058 1846     		mov	r0, r3
 118 005a 1437     		adds	r7, r7, #20
 119              	.LCFI3:
 120              		.cfi_def_cfa_offset 4
 121 005c BD46     		mov	sp, r7
 122              	.LCFI4:
 123              		.cfi_def_cfa_register 13
 124              		@ sp needed
 125 005e 5DF8047B 		ldr	r7, [sp], #4
 126              	.LCFI5:
 127              		.cfi_restore 7
 128              		.cfi_def_cfa_offset 0
 129 0062 7047     		bx	lr
 130              	.L4:
 131              		.align	2
 132              	.L3:
 133 0064 00000000 		.word	prvTaskExitError
 134              		.cfi_endproc
 135              	.LFE4:
 137              		.section	.text.prvTaskExitError,"ax",%progbits
 138              		.align	1
ARM GAS  /tmp/cce2QzCt.s 			page 7


 139              		.syntax unified
 140              		.thumb
 141              		.thumb_func
 142              		.fpu fpv4-sp-d16
 144              	prvTaskExitError:
 145              	.LFB5:
 215:Firmware/Middlewares/Third_Party/FreeRTOS/Source/portable/GCC/ARM_CM4F/port.c **** /*-----------------------------------------------------------*/
 216:Firmware/Middlewares/Third_Party/FreeRTOS/Source/portable/GCC/ARM_CM4F/port.c **** 
 217:Firmware/Middlewares/Third_Party/FreeRTOS/Source/portable/GCC/ARM_CM4F/port.c **** static void prvTaskExitError( void )
 218:Firmware/Middlewares/Third_Party/FreeRTOS/Source/portable/GCC/ARM_CM4F/port.c **** {
 146              		.loc 1 218 0
 147              		.cfi_startproc
 148              		@ args = 0, pretend = 0, frame = 16
 149              		@ frame_needed = 1, uses_anonymous_args = 0
 150              		@ link register save eliminated.
 151 0000 80B4     		push	{r7}
 152              	.LCFI6:
 153              		.cfi_def_cfa_offset 4
 154              		.cfi_offset 7, -4
 155 0002 85B0     		sub	sp, sp, #20
 156              	.LCFI7:
 157              		.cfi_def_cfa_offset 24
 158 0004 00AF     		add	r7, sp, #0
 159              	.LCFI8:
 160              		.cfi_def_cfa_register 7
 219:Firmware/Middlewares/Third_Party/FreeRTOS/Source/portable/GCC/ARM_CM4F/port.c **** volatile uint32_t ulDummy = 0;
 161              		.loc 1 219 0
 162 0006 0023     		movs	r3, #0
 163 0008 7B60     		str	r3, [r7, #4]
 220:Firmware/Middlewares/Third_Party/FreeRTOS/Source/portable/GCC/ARM_CM4F/port.c **** 
 221:Firmware/Middlewares/Third_Party/FreeRTOS/Source/portable/GCC/ARM_CM4F/port.c **** 	/* A function that implements a task must not exit or attempt to return to
 222:Firmware/Middlewares/Third_Party/FreeRTOS/Source/portable/GCC/ARM_CM4F/port.c **** 	its caller as there is nothing to return to.  If a task wants to exit it
 223:Firmware/Middlewares/Third_Party/FreeRTOS/Source/portable/GCC/ARM_CM4F/port.c **** 	should instead call vTaskDelete( NULL ).
 224:Firmware/Middlewares/Third_Party/FreeRTOS/Source/portable/GCC/ARM_CM4F/port.c **** 
 225:Firmware/Middlewares/Third_Party/FreeRTOS/Source/portable/GCC/ARM_CM4F/port.c **** 	Artificially force an assert() to be triggered if configASSERT() is
 226:Firmware/Middlewares/Third_Party/FreeRTOS/Source/portable/GCC/ARM_CM4F/port.c **** 	defined, then stop here so application writers can catch the error. */
 227:Firmware/Middlewares/Third_Party/FreeRTOS/Source/portable/GCC/ARM_CM4F/port.c **** 	configASSERT( uxCriticalNesting == ~0UL );
 164              		.loc 1 227 0
 165 000a 114B     		ldr	r3, .L9
 166 000c 1B68     		ldr	r3, [r3]
 167 000e B3F1FF3F 		cmp	r3, #-1
 168 0012 09D0     		beq	.L6
 169              	.LBB31:
 170              	.LBB32:
 171              		.file 2 "Firmware/Middlewares/Third_Party/FreeRTOS/Source/portable/GCC/ARM_CM4F/portmacro.h"
   1:Firmware/Middlewares/Third_Party/FreeRTOS/Source/portable/GCC/ARM_CM4F/portmacro.h **** /*
   2:Firmware/Middlewares/Third_Party/FreeRTOS/Source/portable/GCC/ARM_CM4F/portmacro.h ****  * FreeRTOS Kernel V10.0.1
   3:Firmware/Middlewares/Third_Party/FreeRTOS/Source/portable/GCC/ARM_CM4F/portmacro.h ****  * Copyright (C) 2017 Amazon.com, Inc. or its affiliates.  All Rights Reserved.
   4:Firmware/Middlewares/Third_Party/FreeRTOS/Source/portable/GCC/ARM_CM4F/portmacro.h ****  *
   5:Firmware/Middlewares/Third_Party/FreeRTOS/Source/portable/GCC/ARM_CM4F/portmacro.h ****  * Permission is hereby granted, free of charge, to any person obtaining a copy of
   6:Firmware/Middlewares/Third_Party/FreeRTOS/Source/portable/GCC/ARM_CM4F/portmacro.h ****  * this software and associated documentation files (the "Software"), to deal in
   7:Firmware/Middlewares/Third_Party/FreeRTOS/Source/portable/GCC/ARM_CM4F/portmacro.h ****  * the Software without restriction, including without limitation the rights to
   8:Firmware/Middlewares/Third_Party/FreeRTOS/Source/portable/GCC/ARM_CM4F/portmacro.h ****  * use, copy, modify, merge, publish, distribute, sublicense, and/or sell copies of
   9:Firmware/Middlewares/Third_Party/FreeRTOS/Source/portable/GCC/ARM_CM4F/portmacro.h ****  * the Software, and to permit persons to whom the Software is furnished to do so,
  10:Firmware/Middlewares/Third_Party/FreeRTOS/Source/portable/GCC/ARM_CM4F/portmacro.h ****  * subject to the following conditions:
  11:Firmware/Middlewares/Third_Party/FreeRTOS/Source/portable/GCC/ARM_CM4F/portmacro.h ****  *
  12:Firmware/Middlewares/Third_Party/FreeRTOS/Source/portable/GCC/ARM_CM4F/portmacro.h ****  * The above copyright notice and this permission notice shall be included in all
ARM GAS  /tmp/cce2QzCt.s 			page 8


  13:Firmware/Middlewares/Third_Party/FreeRTOS/Source/portable/GCC/ARM_CM4F/portmacro.h ****  * copies or substantial portions of the Software.
  14:Firmware/Middlewares/Third_Party/FreeRTOS/Source/portable/GCC/ARM_CM4F/portmacro.h ****  *
  15:Firmware/Middlewares/Third_Party/FreeRTOS/Source/portable/GCC/ARM_CM4F/portmacro.h ****  * THE SOFTWARE IS PROVIDED "AS IS", WITHOUT WARRANTY OF ANY KIND, EXPRESS OR
  16:Firmware/Middlewares/Third_Party/FreeRTOS/Source/portable/GCC/ARM_CM4F/portmacro.h ****  * IMPLIED, INCLUDING BUT NOT LIMITED TO THE WARRANTIES OF MERCHANTABILITY, FITNESS
  17:Firmware/Middlewares/Third_Party/FreeRTOS/Source/portable/GCC/ARM_CM4F/portmacro.h ****  * FOR A PARTICULAR PURPOSE AND NONINFRINGEMENT. IN NO EVENT SHALL THE AUTHORS OR
  18:Firmware/Middlewares/Third_Party/FreeRTOS/Source/portable/GCC/ARM_CM4F/portmacro.h ****  * COPYRIGHT HOLDERS BE LIABLE FOR ANY CLAIM, DAMAGES OR OTHER LIABILITY, WHETHER
  19:Firmware/Middlewares/Third_Party/FreeRTOS/Source/portable/GCC/ARM_CM4F/portmacro.h ****  * IN AN ACTION OF CONTRACT, TORT OR OTHERWISE, ARISING FROM, OUT OF OR IN
  20:Firmware/Middlewares/Third_Party/FreeRTOS/Source/portable/GCC/ARM_CM4F/portmacro.h ****  * CONNECTION WITH THE SOFTWARE OR THE USE OR OTHER DEALINGS IN THE SOFTWARE.
  21:Firmware/Middlewares/Third_Party/FreeRTOS/Source/portable/GCC/ARM_CM4F/portmacro.h ****  *
  22:Firmware/Middlewares/Third_Party/FreeRTOS/Source/portable/GCC/ARM_CM4F/portmacro.h ****  * http://www.FreeRTOS.org
  23:Firmware/Middlewares/Third_Party/FreeRTOS/Source/portable/GCC/ARM_CM4F/portmacro.h ****  * http://aws.amazon.com/freertos
  24:Firmware/Middlewares/Third_Party/FreeRTOS/Source/portable/GCC/ARM_CM4F/portmacro.h ****  *
  25:Firmware/Middlewares/Third_Party/FreeRTOS/Source/portable/GCC/ARM_CM4F/portmacro.h ****  * 1 tab == 4 spaces!
  26:Firmware/Middlewares/Third_Party/FreeRTOS/Source/portable/GCC/ARM_CM4F/portmacro.h ****  */
  27:Firmware/Middlewares/Third_Party/FreeRTOS/Source/portable/GCC/ARM_CM4F/portmacro.h **** 
  28:Firmware/Middlewares/Third_Party/FreeRTOS/Source/portable/GCC/ARM_CM4F/portmacro.h **** 
  29:Firmware/Middlewares/Third_Party/FreeRTOS/Source/portable/GCC/ARM_CM4F/portmacro.h **** #ifndef PORTMACRO_H
  30:Firmware/Middlewares/Third_Party/FreeRTOS/Source/portable/GCC/ARM_CM4F/portmacro.h **** #define PORTMACRO_H
  31:Firmware/Middlewares/Third_Party/FreeRTOS/Source/portable/GCC/ARM_CM4F/portmacro.h **** 
  32:Firmware/Middlewares/Third_Party/FreeRTOS/Source/portable/GCC/ARM_CM4F/portmacro.h **** #ifdef __cplusplus
  33:Firmware/Middlewares/Third_Party/FreeRTOS/Source/portable/GCC/ARM_CM4F/portmacro.h **** extern "C" {
  34:Firmware/Middlewares/Third_Party/FreeRTOS/Source/portable/GCC/ARM_CM4F/portmacro.h **** #endif
  35:Firmware/Middlewares/Third_Party/FreeRTOS/Source/portable/GCC/ARM_CM4F/portmacro.h **** 
  36:Firmware/Middlewares/Third_Party/FreeRTOS/Source/portable/GCC/ARM_CM4F/portmacro.h **** /*-----------------------------------------------------------
  37:Firmware/Middlewares/Third_Party/FreeRTOS/Source/portable/GCC/ARM_CM4F/portmacro.h ****  * Port specific definitions.
  38:Firmware/Middlewares/Third_Party/FreeRTOS/Source/portable/GCC/ARM_CM4F/portmacro.h ****  *
  39:Firmware/Middlewares/Third_Party/FreeRTOS/Source/portable/GCC/ARM_CM4F/portmacro.h ****  * The settings in this file configure FreeRTOS correctly for the
  40:Firmware/Middlewares/Third_Party/FreeRTOS/Source/portable/GCC/ARM_CM4F/portmacro.h ****  * given hardware and compiler.
  41:Firmware/Middlewares/Third_Party/FreeRTOS/Source/portable/GCC/ARM_CM4F/portmacro.h ****  *
  42:Firmware/Middlewares/Third_Party/FreeRTOS/Source/portable/GCC/ARM_CM4F/portmacro.h ****  * These settings should not be altered.
  43:Firmware/Middlewares/Third_Party/FreeRTOS/Source/portable/GCC/ARM_CM4F/portmacro.h ****  *-----------------------------------------------------------
  44:Firmware/Middlewares/Third_Party/FreeRTOS/Source/portable/GCC/ARM_CM4F/portmacro.h ****  */
  45:Firmware/Middlewares/Third_Party/FreeRTOS/Source/portable/GCC/ARM_CM4F/portmacro.h **** 
  46:Firmware/Middlewares/Third_Party/FreeRTOS/Source/portable/GCC/ARM_CM4F/portmacro.h **** /* Type definitions. */
  47:Firmware/Middlewares/Third_Party/FreeRTOS/Source/portable/GCC/ARM_CM4F/portmacro.h **** #define portCHAR		char
  48:Firmware/Middlewares/Third_Party/FreeRTOS/Source/portable/GCC/ARM_CM4F/portmacro.h **** #define portFLOAT		float
  49:Firmware/Middlewares/Third_Party/FreeRTOS/Source/portable/GCC/ARM_CM4F/portmacro.h **** #define portDOUBLE		double
  50:Firmware/Middlewares/Third_Party/FreeRTOS/Source/portable/GCC/ARM_CM4F/portmacro.h **** #define portLONG		long
  51:Firmware/Middlewares/Third_Party/FreeRTOS/Source/portable/GCC/ARM_CM4F/portmacro.h **** #define portSHORT		short
  52:Firmware/Middlewares/Third_Party/FreeRTOS/Source/portable/GCC/ARM_CM4F/portmacro.h **** #define portSTACK_TYPE	uint32_t
  53:Firmware/Middlewares/Third_Party/FreeRTOS/Source/portable/GCC/ARM_CM4F/portmacro.h **** #define portBASE_TYPE	long
  54:Firmware/Middlewares/Third_Party/FreeRTOS/Source/portable/GCC/ARM_CM4F/portmacro.h **** 
  55:Firmware/Middlewares/Third_Party/FreeRTOS/Source/portable/GCC/ARM_CM4F/portmacro.h **** typedef portSTACK_TYPE StackType_t;
  56:Firmware/Middlewares/Third_Party/FreeRTOS/Source/portable/GCC/ARM_CM4F/portmacro.h **** typedef long BaseType_t;
  57:Firmware/Middlewares/Third_Party/FreeRTOS/Source/portable/GCC/ARM_CM4F/portmacro.h **** typedef unsigned long UBaseType_t;
  58:Firmware/Middlewares/Third_Party/FreeRTOS/Source/portable/GCC/ARM_CM4F/portmacro.h **** 
  59:Firmware/Middlewares/Third_Party/FreeRTOS/Source/portable/GCC/ARM_CM4F/portmacro.h **** #if( configUSE_16_BIT_TICKS == 1 )
  60:Firmware/Middlewares/Third_Party/FreeRTOS/Source/portable/GCC/ARM_CM4F/portmacro.h **** 	typedef uint16_t TickType_t;
  61:Firmware/Middlewares/Third_Party/FreeRTOS/Source/portable/GCC/ARM_CM4F/portmacro.h **** 	#define portMAX_DELAY ( TickType_t ) 0xffff
  62:Firmware/Middlewares/Third_Party/FreeRTOS/Source/portable/GCC/ARM_CM4F/portmacro.h **** #else
  63:Firmware/Middlewares/Third_Party/FreeRTOS/Source/portable/GCC/ARM_CM4F/portmacro.h **** 	typedef uint32_t TickType_t;
  64:Firmware/Middlewares/Third_Party/FreeRTOS/Source/portable/GCC/ARM_CM4F/portmacro.h **** 	#define portMAX_DELAY ( TickType_t ) 0xffffffffUL
  65:Firmware/Middlewares/Third_Party/FreeRTOS/Source/portable/GCC/ARM_CM4F/portmacro.h **** 
  66:Firmware/Middlewares/Third_Party/FreeRTOS/Source/portable/GCC/ARM_CM4F/portmacro.h **** 	/* 32-bit tick type on a 32-bit architecture, so reads of the tick count do
  67:Firmware/Middlewares/Third_Party/FreeRTOS/Source/portable/GCC/ARM_CM4F/portmacro.h **** 	not need to be guarded with a critical section. */
  68:Firmware/Middlewares/Third_Party/FreeRTOS/Source/portable/GCC/ARM_CM4F/portmacro.h **** 	#define portTICK_TYPE_IS_ATOMIC 1
  69:Firmware/Middlewares/Third_Party/FreeRTOS/Source/portable/GCC/ARM_CM4F/portmacro.h **** #endif
ARM GAS  /tmp/cce2QzCt.s 			page 9


  70:Firmware/Middlewares/Third_Party/FreeRTOS/Source/portable/GCC/ARM_CM4F/portmacro.h **** /*-----------------------------------------------------------*/
  71:Firmware/Middlewares/Third_Party/FreeRTOS/Source/portable/GCC/ARM_CM4F/portmacro.h **** 
  72:Firmware/Middlewares/Third_Party/FreeRTOS/Source/portable/GCC/ARM_CM4F/portmacro.h **** /* Architecture specifics. */
  73:Firmware/Middlewares/Third_Party/FreeRTOS/Source/portable/GCC/ARM_CM4F/portmacro.h **** #define portSTACK_GROWTH			( -1 )
  74:Firmware/Middlewares/Third_Party/FreeRTOS/Source/portable/GCC/ARM_CM4F/portmacro.h **** #define portTICK_PERIOD_MS			( ( TickType_t ) 1000 / configTICK_RATE_HZ )
  75:Firmware/Middlewares/Third_Party/FreeRTOS/Source/portable/GCC/ARM_CM4F/portmacro.h **** #define portBYTE_ALIGNMENT			8
  76:Firmware/Middlewares/Third_Party/FreeRTOS/Source/portable/GCC/ARM_CM4F/portmacro.h **** /*-----------------------------------------------------------*/
  77:Firmware/Middlewares/Third_Party/FreeRTOS/Source/portable/GCC/ARM_CM4F/portmacro.h **** 
  78:Firmware/Middlewares/Third_Party/FreeRTOS/Source/portable/GCC/ARM_CM4F/portmacro.h **** /* Scheduler utilities. */
  79:Firmware/Middlewares/Third_Party/FreeRTOS/Source/portable/GCC/ARM_CM4F/portmacro.h **** #define portYIELD() 															\
  80:Firmware/Middlewares/Third_Party/FreeRTOS/Source/portable/GCC/ARM_CM4F/portmacro.h **** {																				\
  81:Firmware/Middlewares/Third_Party/FreeRTOS/Source/portable/GCC/ARM_CM4F/portmacro.h **** 	/* Set a PendSV to request a context switch. */								\
  82:Firmware/Middlewares/Third_Party/FreeRTOS/Source/portable/GCC/ARM_CM4F/portmacro.h **** 	portNVIC_INT_CTRL_REG = portNVIC_PENDSVSET_BIT;								\
  83:Firmware/Middlewares/Third_Party/FreeRTOS/Source/portable/GCC/ARM_CM4F/portmacro.h **** 																				\
  84:Firmware/Middlewares/Third_Party/FreeRTOS/Source/portable/GCC/ARM_CM4F/portmacro.h **** 	/* Barriers are normally not required but do ensure the code is completely	\
  85:Firmware/Middlewares/Third_Party/FreeRTOS/Source/portable/GCC/ARM_CM4F/portmacro.h **** 	within the specified behaviour for the architecture. */						\
  86:Firmware/Middlewares/Third_Party/FreeRTOS/Source/portable/GCC/ARM_CM4F/portmacro.h **** 	__asm volatile( "dsb" ::: "memory" );										\
  87:Firmware/Middlewares/Third_Party/FreeRTOS/Source/portable/GCC/ARM_CM4F/portmacro.h **** 	__asm volatile( "isb" );													\
  88:Firmware/Middlewares/Third_Party/FreeRTOS/Source/portable/GCC/ARM_CM4F/portmacro.h **** }
  89:Firmware/Middlewares/Third_Party/FreeRTOS/Source/portable/GCC/ARM_CM4F/portmacro.h **** 
  90:Firmware/Middlewares/Third_Party/FreeRTOS/Source/portable/GCC/ARM_CM4F/portmacro.h **** #define portNVIC_INT_CTRL_REG		( * ( ( volatile uint32_t * ) 0xe000ed04 ) )
  91:Firmware/Middlewares/Third_Party/FreeRTOS/Source/portable/GCC/ARM_CM4F/portmacro.h **** #define portNVIC_PENDSVSET_BIT		( 1UL << 28UL )
  92:Firmware/Middlewares/Third_Party/FreeRTOS/Source/portable/GCC/ARM_CM4F/portmacro.h **** #define portEND_SWITCHING_ISR( xSwitchRequired ) if( xSwitchRequired != pdFALSE ) portYIELD()
  93:Firmware/Middlewares/Third_Party/FreeRTOS/Source/portable/GCC/ARM_CM4F/portmacro.h **** #define portYIELD_FROM_ISR( x ) portEND_SWITCHING_ISR( x )
  94:Firmware/Middlewares/Third_Party/FreeRTOS/Source/portable/GCC/ARM_CM4F/portmacro.h **** /*-----------------------------------------------------------*/
  95:Firmware/Middlewares/Third_Party/FreeRTOS/Source/portable/GCC/ARM_CM4F/portmacro.h **** 
  96:Firmware/Middlewares/Third_Party/FreeRTOS/Source/portable/GCC/ARM_CM4F/portmacro.h **** /* Critical section management. */
  97:Firmware/Middlewares/Third_Party/FreeRTOS/Source/portable/GCC/ARM_CM4F/portmacro.h **** extern void vPortEnterCritical( void );
  98:Firmware/Middlewares/Third_Party/FreeRTOS/Source/portable/GCC/ARM_CM4F/portmacro.h **** extern void vPortExitCritical( void );
  99:Firmware/Middlewares/Third_Party/FreeRTOS/Source/portable/GCC/ARM_CM4F/portmacro.h **** #define portSET_INTERRUPT_MASK_FROM_ISR()		ulPortRaiseBASEPRI()
 100:Firmware/Middlewares/Third_Party/FreeRTOS/Source/portable/GCC/ARM_CM4F/portmacro.h **** #define portCLEAR_INTERRUPT_MASK_FROM_ISR(x)	vPortSetBASEPRI(x)
 101:Firmware/Middlewares/Third_Party/FreeRTOS/Source/portable/GCC/ARM_CM4F/portmacro.h **** #define portDISABLE_INTERRUPTS()				vPortRaiseBASEPRI()
 102:Firmware/Middlewares/Third_Party/FreeRTOS/Source/portable/GCC/ARM_CM4F/portmacro.h **** #define portENABLE_INTERRUPTS()					vPortSetBASEPRI(0)
 103:Firmware/Middlewares/Third_Party/FreeRTOS/Source/portable/GCC/ARM_CM4F/portmacro.h **** #define portENTER_CRITICAL()					vPortEnterCritical()
 104:Firmware/Middlewares/Third_Party/FreeRTOS/Source/portable/GCC/ARM_CM4F/portmacro.h **** #define portEXIT_CRITICAL()						vPortExitCritical()
 105:Firmware/Middlewares/Third_Party/FreeRTOS/Source/portable/GCC/ARM_CM4F/portmacro.h **** 
 106:Firmware/Middlewares/Third_Party/FreeRTOS/Source/portable/GCC/ARM_CM4F/portmacro.h **** /*-----------------------------------------------------------*/
 107:Firmware/Middlewares/Third_Party/FreeRTOS/Source/portable/GCC/ARM_CM4F/portmacro.h **** 
 108:Firmware/Middlewares/Third_Party/FreeRTOS/Source/portable/GCC/ARM_CM4F/portmacro.h **** /* Task function macros as described on the FreeRTOS.org WEB site.  These are
 109:Firmware/Middlewares/Third_Party/FreeRTOS/Source/portable/GCC/ARM_CM4F/portmacro.h **** not necessary for to use this port.  They are defined so the common demo files
 110:Firmware/Middlewares/Third_Party/FreeRTOS/Source/portable/GCC/ARM_CM4F/portmacro.h **** (which build with all the ports) will build. */
 111:Firmware/Middlewares/Third_Party/FreeRTOS/Source/portable/GCC/ARM_CM4F/portmacro.h **** #define portTASK_FUNCTION_PROTO( vFunction, pvParameters ) void vFunction( void *pvParameters )
 112:Firmware/Middlewares/Third_Party/FreeRTOS/Source/portable/GCC/ARM_CM4F/portmacro.h **** #define portTASK_FUNCTION( vFunction, pvParameters ) void vFunction( void *pvParameters )
 113:Firmware/Middlewares/Third_Party/FreeRTOS/Source/portable/GCC/ARM_CM4F/portmacro.h **** /*-----------------------------------------------------------*/
 114:Firmware/Middlewares/Third_Party/FreeRTOS/Source/portable/GCC/ARM_CM4F/portmacro.h **** 
 115:Firmware/Middlewares/Third_Party/FreeRTOS/Source/portable/GCC/ARM_CM4F/portmacro.h **** /* Tickless idle/low power functionality. */
 116:Firmware/Middlewares/Third_Party/FreeRTOS/Source/portable/GCC/ARM_CM4F/portmacro.h **** #ifndef portSUPPRESS_TICKS_AND_SLEEP
 117:Firmware/Middlewares/Third_Party/FreeRTOS/Source/portable/GCC/ARM_CM4F/portmacro.h **** 	extern void vPortSuppressTicksAndSleep( TickType_t xExpectedIdleTime );
 118:Firmware/Middlewares/Third_Party/FreeRTOS/Source/portable/GCC/ARM_CM4F/portmacro.h **** 	#define portSUPPRESS_TICKS_AND_SLEEP( xExpectedIdleTime ) vPortSuppressTicksAndSleep( xExpectedIdl
 119:Firmware/Middlewares/Third_Party/FreeRTOS/Source/portable/GCC/ARM_CM4F/portmacro.h **** #endif
 120:Firmware/Middlewares/Third_Party/FreeRTOS/Source/portable/GCC/ARM_CM4F/portmacro.h **** /*-----------------------------------------------------------*/
 121:Firmware/Middlewares/Third_Party/FreeRTOS/Source/portable/GCC/ARM_CM4F/portmacro.h **** 
 122:Firmware/Middlewares/Third_Party/FreeRTOS/Source/portable/GCC/ARM_CM4F/portmacro.h **** /* Architecture specific optimisations. */
 123:Firmware/Middlewares/Third_Party/FreeRTOS/Source/portable/GCC/ARM_CM4F/portmacro.h **** #ifndef configUSE_PORT_OPTIMISED_TASK_SELECTION
 124:Firmware/Middlewares/Third_Party/FreeRTOS/Source/portable/GCC/ARM_CM4F/portmacro.h **** 	#define configUSE_PORT_OPTIMISED_TASK_SELECTION 1
 125:Firmware/Middlewares/Third_Party/FreeRTOS/Source/portable/GCC/ARM_CM4F/portmacro.h **** #endif
 126:Firmware/Middlewares/Third_Party/FreeRTOS/Source/portable/GCC/ARM_CM4F/portmacro.h **** 
ARM GAS  /tmp/cce2QzCt.s 			page 10


 127:Firmware/Middlewares/Third_Party/FreeRTOS/Source/portable/GCC/ARM_CM4F/portmacro.h **** #if configUSE_PORT_OPTIMISED_TASK_SELECTION == 1
 128:Firmware/Middlewares/Third_Party/FreeRTOS/Source/portable/GCC/ARM_CM4F/portmacro.h **** 
 129:Firmware/Middlewares/Third_Party/FreeRTOS/Source/portable/GCC/ARM_CM4F/portmacro.h **** 	/* Generic helper function. */
 130:Firmware/Middlewares/Third_Party/FreeRTOS/Source/portable/GCC/ARM_CM4F/portmacro.h **** 	__attribute__( ( always_inline ) ) static inline uint8_t ucPortCountLeadingZeros( uint32_t ulBitma
 131:Firmware/Middlewares/Third_Party/FreeRTOS/Source/portable/GCC/ARM_CM4F/portmacro.h **** 	{
 132:Firmware/Middlewares/Third_Party/FreeRTOS/Source/portable/GCC/ARM_CM4F/portmacro.h **** 	uint8_t ucReturn;
 133:Firmware/Middlewares/Third_Party/FreeRTOS/Source/portable/GCC/ARM_CM4F/portmacro.h **** 
 134:Firmware/Middlewares/Third_Party/FreeRTOS/Source/portable/GCC/ARM_CM4F/portmacro.h **** 		__asm volatile ( "clz %0, %1" : "=r" ( ucReturn ) : "r" ( ulBitmap ) : "memory" );
 135:Firmware/Middlewares/Third_Party/FreeRTOS/Source/portable/GCC/ARM_CM4F/portmacro.h **** 		return ucReturn;
 136:Firmware/Middlewares/Third_Party/FreeRTOS/Source/portable/GCC/ARM_CM4F/portmacro.h **** 	}
 137:Firmware/Middlewares/Third_Party/FreeRTOS/Source/portable/GCC/ARM_CM4F/portmacro.h **** 
 138:Firmware/Middlewares/Third_Party/FreeRTOS/Source/portable/GCC/ARM_CM4F/portmacro.h **** 	/* Check the configuration. */
 139:Firmware/Middlewares/Third_Party/FreeRTOS/Source/portable/GCC/ARM_CM4F/portmacro.h **** 	#if( configMAX_PRIORITIES > 32 )
 140:Firmware/Middlewares/Third_Party/FreeRTOS/Source/portable/GCC/ARM_CM4F/portmacro.h **** 		#error configUSE_PORT_OPTIMISED_TASK_SELECTION can only be set to 1 when configMAX_PRIORITIES is 
 141:Firmware/Middlewares/Third_Party/FreeRTOS/Source/portable/GCC/ARM_CM4F/portmacro.h **** 	#endif
 142:Firmware/Middlewares/Third_Party/FreeRTOS/Source/portable/GCC/ARM_CM4F/portmacro.h **** 
 143:Firmware/Middlewares/Third_Party/FreeRTOS/Source/portable/GCC/ARM_CM4F/portmacro.h **** 	/* Store/clear the ready priorities in a bit map. */
 144:Firmware/Middlewares/Third_Party/FreeRTOS/Source/portable/GCC/ARM_CM4F/portmacro.h **** 	#define portRECORD_READY_PRIORITY( uxPriority, uxReadyPriorities ) ( uxReadyPriorities ) |= ( 1UL 
 145:Firmware/Middlewares/Third_Party/FreeRTOS/Source/portable/GCC/ARM_CM4F/portmacro.h **** 	#define portRESET_READY_PRIORITY( uxPriority, uxReadyPriorities ) ( uxReadyPriorities ) &= ~( 1UL 
 146:Firmware/Middlewares/Third_Party/FreeRTOS/Source/portable/GCC/ARM_CM4F/portmacro.h **** 
 147:Firmware/Middlewares/Third_Party/FreeRTOS/Source/portable/GCC/ARM_CM4F/portmacro.h **** 	/*-----------------------------------------------------------*/
 148:Firmware/Middlewares/Third_Party/FreeRTOS/Source/portable/GCC/ARM_CM4F/portmacro.h **** 
 149:Firmware/Middlewares/Third_Party/FreeRTOS/Source/portable/GCC/ARM_CM4F/portmacro.h **** 	#define portGET_HIGHEST_PRIORITY( uxTopPriority, uxReadyPriorities ) uxTopPriority = ( 31UL - ( ui
 150:Firmware/Middlewares/Third_Party/FreeRTOS/Source/portable/GCC/ARM_CM4F/portmacro.h **** 
 151:Firmware/Middlewares/Third_Party/FreeRTOS/Source/portable/GCC/ARM_CM4F/portmacro.h **** #endif /* configUSE_PORT_OPTIMISED_TASK_SELECTION */
 152:Firmware/Middlewares/Third_Party/FreeRTOS/Source/portable/GCC/ARM_CM4F/portmacro.h **** 
 153:Firmware/Middlewares/Third_Party/FreeRTOS/Source/portable/GCC/ARM_CM4F/portmacro.h **** /*-----------------------------------------------------------*/
 154:Firmware/Middlewares/Third_Party/FreeRTOS/Source/portable/GCC/ARM_CM4F/portmacro.h **** 
 155:Firmware/Middlewares/Third_Party/FreeRTOS/Source/portable/GCC/ARM_CM4F/portmacro.h **** #ifdef configASSERT
 156:Firmware/Middlewares/Third_Party/FreeRTOS/Source/portable/GCC/ARM_CM4F/portmacro.h **** 	void vPortValidateInterruptPriority( void );
 157:Firmware/Middlewares/Third_Party/FreeRTOS/Source/portable/GCC/ARM_CM4F/portmacro.h **** 	#define portASSERT_IF_INTERRUPT_PRIORITY_INVALID() 	vPortValidateInterruptPriority()
 158:Firmware/Middlewares/Third_Party/FreeRTOS/Source/portable/GCC/ARM_CM4F/portmacro.h **** #endif
 159:Firmware/Middlewares/Third_Party/FreeRTOS/Source/portable/GCC/ARM_CM4F/portmacro.h **** 
 160:Firmware/Middlewares/Third_Party/FreeRTOS/Source/portable/GCC/ARM_CM4F/portmacro.h **** /* portNOP() is not required by this port. */
 161:Firmware/Middlewares/Third_Party/FreeRTOS/Source/portable/GCC/ARM_CM4F/portmacro.h **** #define portNOP()
 162:Firmware/Middlewares/Third_Party/FreeRTOS/Source/portable/GCC/ARM_CM4F/portmacro.h **** 
 163:Firmware/Middlewares/Third_Party/FreeRTOS/Source/portable/GCC/ARM_CM4F/portmacro.h **** #define portINLINE	__inline
 164:Firmware/Middlewares/Third_Party/FreeRTOS/Source/portable/GCC/ARM_CM4F/portmacro.h **** 
 165:Firmware/Middlewares/Third_Party/FreeRTOS/Source/portable/GCC/ARM_CM4F/portmacro.h **** #ifndef portFORCE_INLINE
 166:Firmware/Middlewares/Third_Party/FreeRTOS/Source/portable/GCC/ARM_CM4F/portmacro.h **** 	#define portFORCE_INLINE inline __attribute__(( always_inline))
 167:Firmware/Middlewares/Third_Party/FreeRTOS/Source/portable/GCC/ARM_CM4F/portmacro.h **** #endif
 168:Firmware/Middlewares/Third_Party/FreeRTOS/Source/portable/GCC/ARM_CM4F/portmacro.h **** 
 169:Firmware/Middlewares/Third_Party/FreeRTOS/Source/portable/GCC/ARM_CM4F/portmacro.h **** portFORCE_INLINE static BaseType_t xPortIsInsideInterrupt( void )
 170:Firmware/Middlewares/Third_Party/FreeRTOS/Source/portable/GCC/ARM_CM4F/portmacro.h **** {
 171:Firmware/Middlewares/Third_Party/FreeRTOS/Source/portable/GCC/ARM_CM4F/portmacro.h **** uint32_t ulCurrentInterrupt;
 172:Firmware/Middlewares/Third_Party/FreeRTOS/Source/portable/GCC/ARM_CM4F/portmacro.h **** BaseType_t xReturn;
 173:Firmware/Middlewares/Third_Party/FreeRTOS/Source/portable/GCC/ARM_CM4F/portmacro.h **** 
 174:Firmware/Middlewares/Third_Party/FreeRTOS/Source/portable/GCC/ARM_CM4F/portmacro.h **** 	/* Obtain the number of the currently executing interrupt. */
 175:Firmware/Middlewares/Third_Party/FreeRTOS/Source/portable/GCC/ARM_CM4F/portmacro.h **** 	__asm volatile( "mrs %0, ipsr" : "=r"( ulCurrentInterrupt ) :: "memory" );
 176:Firmware/Middlewares/Third_Party/FreeRTOS/Source/portable/GCC/ARM_CM4F/portmacro.h **** 
 177:Firmware/Middlewares/Third_Party/FreeRTOS/Source/portable/GCC/ARM_CM4F/portmacro.h **** 	if( ulCurrentInterrupt == 0 )
 178:Firmware/Middlewares/Third_Party/FreeRTOS/Source/portable/GCC/ARM_CM4F/portmacro.h **** 	{
 179:Firmware/Middlewares/Third_Party/FreeRTOS/Source/portable/GCC/ARM_CM4F/portmacro.h **** 		xReturn = pdFALSE;
 180:Firmware/Middlewares/Third_Party/FreeRTOS/Source/portable/GCC/ARM_CM4F/portmacro.h **** 	}
 181:Firmware/Middlewares/Third_Party/FreeRTOS/Source/portable/GCC/ARM_CM4F/portmacro.h **** 	else
 182:Firmware/Middlewares/Third_Party/FreeRTOS/Source/portable/GCC/ARM_CM4F/portmacro.h **** 	{
 183:Firmware/Middlewares/Third_Party/FreeRTOS/Source/portable/GCC/ARM_CM4F/portmacro.h **** 		xReturn = pdTRUE;
ARM GAS  /tmp/cce2QzCt.s 			page 11


 184:Firmware/Middlewares/Third_Party/FreeRTOS/Source/portable/GCC/ARM_CM4F/portmacro.h **** 	}
 185:Firmware/Middlewares/Third_Party/FreeRTOS/Source/portable/GCC/ARM_CM4F/portmacro.h **** 
 186:Firmware/Middlewares/Third_Party/FreeRTOS/Source/portable/GCC/ARM_CM4F/portmacro.h **** 	return xReturn;
 187:Firmware/Middlewares/Third_Party/FreeRTOS/Source/portable/GCC/ARM_CM4F/portmacro.h **** }
 188:Firmware/Middlewares/Third_Party/FreeRTOS/Source/portable/GCC/ARM_CM4F/portmacro.h **** 
 189:Firmware/Middlewares/Third_Party/FreeRTOS/Source/portable/GCC/ARM_CM4F/portmacro.h **** /*-----------------------------------------------------------*/
 190:Firmware/Middlewares/Third_Party/FreeRTOS/Source/portable/GCC/ARM_CM4F/portmacro.h **** 
 191:Firmware/Middlewares/Third_Party/FreeRTOS/Source/portable/GCC/ARM_CM4F/portmacro.h **** portFORCE_INLINE static void vPortRaiseBASEPRI( void )
 192:Firmware/Middlewares/Third_Party/FreeRTOS/Source/portable/GCC/ARM_CM4F/portmacro.h **** {
 193:Firmware/Middlewares/Third_Party/FreeRTOS/Source/portable/GCC/ARM_CM4F/portmacro.h **** uint32_t ulNewBASEPRI;
 194:Firmware/Middlewares/Third_Party/FreeRTOS/Source/portable/GCC/ARM_CM4F/portmacro.h **** 
 195:Firmware/Middlewares/Third_Party/FreeRTOS/Source/portable/GCC/ARM_CM4F/portmacro.h **** 	__asm volatile
 172              		.loc 2 195 0 discriminator 1
 173              		.syntax unified
 174              	@ 195 "Firmware/Middlewares/Third_Party/FreeRTOS/Source/portable/GCC/ARM_CM4F/portmacro.h" 1
 175 0014 4FF05003 			mov r3, #80												
 176 0018 83F31188 		msr basepri, r3											
 177 001c BFF36F8F 		isb														
 178 0020 BFF34F8F 		dsb														
 179              	
 180              	@ 0 "" 2
 181              		.thumb
 182              		.syntax unified
 183 0024 FB60     		str	r3, [r7, #12]
 184              	.L7:
 185              	.LBE32:
 186              	.LBE31:
 187              		.loc 1 227 0 discriminator 1
 188 0026 FEE7     		b	.L7
 189              	.L6:
 190              	.LBB33:
 191              	.LBB34:
 192              		.loc 2 195 0
 193              		.syntax unified
 194              	@ 195 "Firmware/Middlewares/Third_Party/FreeRTOS/Source/portable/GCC/ARM_CM4F/portmacro.h" 1
 195 0028 4FF05003 			mov r3, #80												
 196 002c 83F31188 		msr basepri, r3											
 197 0030 BFF36F8F 		isb														
 198 0034 BFF34F8F 		dsb														
 199              	
 200              	@ 0 "" 2
 201              		.thumb
 202              		.syntax unified
 203 0038 BB60     		str	r3, [r7, #8]
 204              	.LBE34:
 205              	.LBE33:
 228:Firmware/Middlewares/Third_Party/FreeRTOS/Source/portable/GCC/ARM_CM4F/port.c **** 	portDISABLE_INTERRUPTS();
 229:Firmware/Middlewares/Third_Party/FreeRTOS/Source/portable/GCC/ARM_CM4F/port.c **** 	while( ulDummy == 0 )
 206              		.loc 1 229 0
 207 003a 00BF     		nop
 208              	.L8:
 209              		.loc 1 229 0 is_stmt 0 discriminator 1
 210 003c 7B68     		ldr	r3, [r7, #4]
 211 003e 002B     		cmp	r3, #0
 212 0040 FCD0     		beq	.L8
 230:Firmware/Middlewares/Third_Party/FreeRTOS/Source/portable/GCC/ARM_CM4F/port.c **** 	{
 231:Firmware/Middlewares/Third_Party/FreeRTOS/Source/portable/GCC/ARM_CM4F/port.c **** 		/* This file calls prvTaskExitError() after the scheduler has been
ARM GAS  /tmp/cce2QzCt.s 			page 12


 232:Firmware/Middlewares/Third_Party/FreeRTOS/Source/portable/GCC/ARM_CM4F/port.c **** 		started to remove a compiler warning about the function being defined
 233:Firmware/Middlewares/Third_Party/FreeRTOS/Source/portable/GCC/ARM_CM4F/port.c **** 		but never called.  ulDummy is used purely to quieten other warnings
 234:Firmware/Middlewares/Third_Party/FreeRTOS/Source/portable/GCC/ARM_CM4F/port.c **** 		about code appearing after this function is called - making ulDummy
 235:Firmware/Middlewares/Third_Party/FreeRTOS/Source/portable/GCC/ARM_CM4F/port.c **** 		volatile makes the compiler think the function could return and
 236:Firmware/Middlewares/Third_Party/FreeRTOS/Source/portable/GCC/ARM_CM4F/port.c **** 		therefore not output an 'unreachable code' warning for code that appears
 237:Firmware/Middlewares/Third_Party/FreeRTOS/Source/portable/GCC/ARM_CM4F/port.c **** 		after it. */
 238:Firmware/Middlewares/Third_Party/FreeRTOS/Source/portable/GCC/ARM_CM4F/port.c **** 	}
 239:Firmware/Middlewares/Third_Party/FreeRTOS/Source/portable/GCC/ARM_CM4F/port.c **** }
 213              		.loc 1 239 0 is_stmt 1
 214 0042 00BF     		nop
 215 0044 1437     		adds	r7, r7, #20
 216              	.LCFI9:
 217              		.cfi_def_cfa_offset 4
 218 0046 BD46     		mov	sp, r7
 219              	.LCFI10:
 220              		.cfi_def_cfa_register 13
 221              		@ sp needed
 222 0048 5DF8047B 		ldr	r7, [sp], #4
 223              	.LCFI11:
 224              		.cfi_restore 7
 225              		.cfi_def_cfa_offset 0
 226 004c 7047     		bx	lr
 227              	.L10:
 228 004e 00BF     		.align	2
 229              	.L9:
 230 0050 00000000 		.word	uxCriticalNesting
 231              		.cfi_endproc
 232              	.LFE5:
 234              		.section	.text.SVC_Handler,"ax",%progbits
 235              		.align	1
 236              		.global	SVC_Handler
 237              		.syntax unified
 238              		.thumb
 239              		.thumb_func
 240              		.fpu fpv4-sp-d16
 242              	SVC_Handler:
 243              	.LFB6:
 240:Firmware/Middlewares/Third_Party/FreeRTOS/Source/portable/GCC/ARM_CM4F/port.c **** /*-----------------------------------------------------------*/
 241:Firmware/Middlewares/Third_Party/FreeRTOS/Source/portable/GCC/ARM_CM4F/port.c **** 
 242:Firmware/Middlewares/Third_Party/FreeRTOS/Source/portable/GCC/ARM_CM4F/port.c **** void vPortSVCHandler( void )
 243:Firmware/Middlewares/Third_Party/FreeRTOS/Source/portable/GCC/ARM_CM4F/port.c **** {
 244              		.loc 1 243 0
 245              		.cfi_startproc
 246              		@ Naked Function: prologue and epilogue provided by programmer.
 247              		@ args = 0, pretend = 0, frame = 0
 248              		@ frame_needed = 1, uses_anonymous_args = 0
 244:Firmware/Middlewares/Third_Party/FreeRTOS/Source/portable/GCC/ARM_CM4F/port.c **** 	__asm volatile (
 249              		.loc 1 244 0
 250              		.syntax unified
 251              	@ 244 "Firmware/Middlewares/Third_Party/FreeRTOS/Source/portable/GCC/ARM_CM4F/port.c" 1
 252 0000 074B     			ldr	r3, pxCurrentTCBConst2		
 253 0002 1968     		ldr r1, [r3]					
 254 0004 0868     		ldr r0, [r1]					
 255 0006 B0E8F04F 		ldmia r0!, {r4-r11, r14}		
 256 000a 80F30988 		msr psp, r0						
 257 000e BFF36F8F 		isb								
 258 0012 4FF00000 		mov r0, #0 						
ARM GAS  /tmp/cce2QzCt.s 			page 13


 259 0016 80F31188 		msr	basepri, r0					
 260 001a 7047     		bx r14							
 261              										
 262 001c AFF30080 		.align 4						
 263 0020 00000000 	pxCurrentTCBConst2: .word pxCurrentTCB				
 264              	
 265              	@ 0 "" 2
 245:Firmware/Middlewares/Third_Party/FreeRTOS/Source/portable/GCC/ARM_CM4F/port.c **** 					"	ldr	r3, pxCurrentTCBConst2		\n" /* Restore the context. */
 246:Firmware/Middlewares/Third_Party/FreeRTOS/Source/portable/GCC/ARM_CM4F/port.c **** 					"	ldr r1, [r3]					\n" /* Use pxCurrentTCBConst to get the pxCurrentTCB address. */
 247:Firmware/Middlewares/Third_Party/FreeRTOS/Source/portable/GCC/ARM_CM4F/port.c **** 					"	ldr r0, [r1]					\n" /* The first item in pxCurrentTCB is the task top of stack. */
 248:Firmware/Middlewares/Third_Party/FreeRTOS/Source/portable/GCC/ARM_CM4F/port.c **** 					"	ldmia r0!, {r4-r11, r14}		\n" /* Pop the registers that are not automatically saved on excep
 249:Firmware/Middlewares/Third_Party/FreeRTOS/Source/portable/GCC/ARM_CM4F/port.c **** 					"	msr psp, r0						\n" /* Restore the task stack pointer. */
 250:Firmware/Middlewares/Third_Party/FreeRTOS/Source/portable/GCC/ARM_CM4F/port.c **** 					"	isb								\n"
 251:Firmware/Middlewares/Third_Party/FreeRTOS/Source/portable/GCC/ARM_CM4F/port.c **** 					"	mov r0, #0 						\n"
 252:Firmware/Middlewares/Third_Party/FreeRTOS/Source/portable/GCC/ARM_CM4F/port.c **** 					"	msr	basepri, r0					\n"
 253:Firmware/Middlewares/Third_Party/FreeRTOS/Source/portable/GCC/ARM_CM4F/port.c **** 					"	bx r14							\n"
 254:Firmware/Middlewares/Third_Party/FreeRTOS/Source/portable/GCC/ARM_CM4F/port.c **** 					"									\n"
 255:Firmware/Middlewares/Third_Party/FreeRTOS/Source/portable/GCC/ARM_CM4F/port.c **** 					"	.align 4						\n"
 256:Firmware/Middlewares/Third_Party/FreeRTOS/Source/portable/GCC/ARM_CM4F/port.c **** 					"pxCurrentTCBConst2: .word pxCurrentTCB				\n"
 257:Firmware/Middlewares/Third_Party/FreeRTOS/Source/portable/GCC/ARM_CM4F/port.c **** 				);
 258:Firmware/Middlewares/Third_Party/FreeRTOS/Source/portable/GCC/ARM_CM4F/port.c **** }
 266              		.loc 1 258 0
 267              		.thumb
 268              		.syntax unified
 269 0024 00BF     		nop
 270              		.cfi_endproc
 271              	.LFE6:
 273 0026 00BF     		.section	.text.prvPortStartFirstTask,"ax",%progbits
 274              		.align	1
 275              		.syntax unified
 276              		.thumb
 277              		.thumb_func
 278              		.fpu fpv4-sp-d16
 280              	prvPortStartFirstTask:
 281              	.LFB7:
 259:Firmware/Middlewares/Third_Party/FreeRTOS/Source/portable/GCC/ARM_CM4F/port.c **** /*-----------------------------------------------------------*/
 260:Firmware/Middlewares/Third_Party/FreeRTOS/Source/portable/GCC/ARM_CM4F/port.c **** 
 261:Firmware/Middlewares/Third_Party/FreeRTOS/Source/portable/GCC/ARM_CM4F/port.c **** static void prvPortStartFirstTask( void )
 262:Firmware/Middlewares/Third_Party/FreeRTOS/Source/portable/GCC/ARM_CM4F/port.c **** {
 282              		.loc 1 262 0
 283              		.cfi_startproc
 284              		@ Naked Function: prologue and epilogue provided by programmer.
 285              		@ args = 0, pretend = 0, frame = 0
 286              		@ frame_needed = 1, uses_anonymous_args = 0
 263:Firmware/Middlewares/Third_Party/FreeRTOS/Source/portable/GCC/ARM_CM4F/port.c **** 	/* Start the first task.  This also clears the bit that indicates the FPU is
 264:Firmware/Middlewares/Third_Party/FreeRTOS/Source/portable/GCC/ARM_CM4F/port.c **** 	in use in case the FPU was used before the scheduler was started - which
 265:Firmware/Middlewares/Third_Party/FreeRTOS/Source/portable/GCC/ARM_CM4F/port.c **** 	would otherwise result in the unnecessary leaving of space in the SVC stack
 266:Firmware/Middlewares/Third_Party/FreeRTOS/Source/portable/GCC/ARM_CM4F/port.c **** 	for lazy saving of FPU registers. */
 267:Firmware/Middlewares/Third_Party/FreeRTOS/Source/portable/GCC/ARM_CM4F/port.c **** 	__asm volatile(
 287              		.loc 1 267 0
 288              		.syntax unified
 289              	@ 267 "Firmware/Middlewares/Third_Party/FreeRTOS/Source/portable/GCC/ARM_CM4F/port.c" 1
 290 0000 0848     		 ldr r0, =0xE000ED08 	
 291 0002 0068     	 ldr r0, [r0] 			
 292 0004 0068     	 ldr r0, [r0] 			
 293 0006 80F30888 	 msr msp, r0			
 294 000a 4FF00000 	 mov r0, #0			
ARM GAS  /tmp/cce2QzCt.s 			page 14


 295 000e 80F31488 	 msr control, r0		
 296 0012 62B6     	 cpsie i				
 297 0014 61B6     	 cpsie f				
 298 0016 BFF34F8F 	 dsb					
 299 001a BFF36F8F 	 isb					
 300 001e 00DF     	 svc 0					
 301 0020 00BF     	 nop					
 302              	
 303              	@ 0 "" 2
 268:Firmware/Middlewares/Third_Party/FreeRTOS/Source/portable/GCC/ARM_CM4F/port.c **** 					" ldr r0, =0xE000ED08 	\n" /* Use the NVIC offset register to locate the stack. */
 269:Firmware/Middlewares/Third_Party/FreeRTOS/Source/portable/GCC/ARM_CM4F/port.c **** 					" ldr r0, [r0] 			\n"
 270:Firmware/Middlewares/Third_Party/FreeRTOS/Source/portable/GCC/ARM_CM4F/port.c **** 					" ldr r0, [r0] 			\n"
 271:Firmware/Middlewares/Third_Party/FreeRTOS/Source/portable/GCC/ARM_CM4F/port.c **** 					" msr msp, r0			\n" /* Set the msp back to the start of the stack. */
 272:Firmware/Middlewares/Third_Party/FreeRTOS/Source/portable/GCC/ARM_CM4F/port.c **** 					" mov r0, #0			\n" /* Clear the bit that indicates the FPU is in use, see comment above. */
 273:Firmware/Middlewares/Third_Party/FreeRTOS/Source/portable/GCC/ARM_CM4F/port.c **** 					" msr control, r0		\n"
 274:Firmware/Middlewares/Third_Party/FreeRTOS/Source/portable/GCC/ARM_CM4F/port.c **** 					" cpsie i				\n" /* Globally enable interrupts. */
 275:Firmware/Middlewares/Third_Party/FreeRTOS/Source/portable/GCC/ARM_CM4F/port.c **** 					" cpsie f				\n"
 276:Firmware/Middlewares/Third_Party/FreeRTOS/Source/portable/GCC/ARM_CM4F/port.c **** 					" dsb					\n"
 277:Firmware/Middlewares/Third_Party/FreeRTOS/Source/portable/GCC/ARM_CM4F/port.c **** 					" isb					\n"
 278:Firmware/Middlewares/Third_Party/FreeRTOS/Source/portable/GCC/ARM_CM4F/port.c **** 					" svc 0					\n" /* System call to start first task. */
 279:Firmware/Middlewares/Third_Party/FreeRTOS/Source/portable/GCC/ARM_CM4F/port.c **** 					" nop					\n"
 280:Firmware/Middlewares/Third_Party/FreeRTOS/Source/portable/GCC/ARM_CM4F/port.c **** 				);
 281:Firmware/Middlewares/Third_Party/FreeRTOS/Source/portable/GCC/ARM_CM4F/port.c **** }
 304              		.loc 1 281 0
 305              		.thumb
 306              		.syntax unified
 307 0022 00BF     		nop
 308              		.cfi_endproc
 309              	.LFE7:
 311              		.section	.text.xPortStartScheduler,"ax",%progbits
 312              		.align	1
 313              		.global	xPortStartScheduler
 314              		.syntax unified
 315              		.thumb
 316              		.thumb_func
 317              		.fpu fpv4-sp-d16
 319              	xPortStartScheduler:
 320              	.LFB8:
 282:Firmware/Middlewares/Third_Party/FreeRTOS/Source/portable/GCC/ARM_CM4F/port.c **** /*-----------------------------------------------------------*/
 283:Firmware/Middlewares/Third_Party/FreeRTOS/Source/portable/GCC/ARM_CM4F/port.c **** 
 284:Firmware/Middlewares/Third_Party/FreeRTOS/Source/portable/GCC/ARM_CM4F/port.c **** /*
 285:Firmware/Middlewares/Third_Party/FreeRTOS/Source/portable/GCC/ARM_CM4F/port.c ****  * See header file for description.
 286:Firmware/Middlewares/Third_Party/FreeRTOS/Source/portable/GCC/ARM_CM4F/port.c ****  */
 287:Firmware/Middlewares/Third_Party/FreeRTOS/Source/portable/GCC/ARM_CM4F/port.c **** BaseType_t xPortStartScheduler( void )
 288:Firmware/Middlewares/Third_Party/FreeRTOS/Source/portable/GCC/ARM_CM4F/port.c **** {
 321              		.loc 1 288 0
 322              		.cfi_startproc
 323              		@ args = 0, pretend = 0, frame = 24
 324              		@ frame_needed = 1, uses_anonymous_args = 0
 325 0000 80B5     		push	{r7, lr}
 326              	.LCFI12:
 327              		.cfi_def_cfa_offset 8
 328              		.cfi_offset 7, -8
 329              		.cfi_offset 14, -4
 330 0002 86B0     		sub	sp, sp, #24
 331              	.LCFI13:
 332              		.cfi_def_cfa_offset 32
ARM GAS  /tmp/cce2QzCt.s 			page 15


 333 0004 00AF     		add	r7, sp, #0
 334              	.LCFI14:
 335              		.cfi_def_cfa_register 7
 289:Firmware/Middlewares/Third_Party/FreeRTOS/Source/portable/GCC/ARM_CM4F/port.c **** 	/* configMAX_SYSCALL_INTERRUPT_PRIORITY must not be set to 0.
 290:Firmware/Middlewares/Third_Party/FreeRTOS/Source/portable/GCC/ARM_CM4F/port.c **** 	See http://www.FreeRTOS.org/RTOS-Cortex-M3-M4.html */
 291:Firmware/Middlewares/Third_Party/FreeRTOS/Source/portable/GCC/ARM_CM4F/port.c **** 	configASSERT( configMAX_SYSCALL_INTERRUPT_PRIORITY );
 292:Firmware/Middlewares/Third_Party/FreeRTOS/Source/portable/GCC/ARM_CM4F/port.c **** 
 293:Firmware/Middlewares/Third_Party/FreeRTOS/Source/portable/GCC/ARM_CM4F/port.c **** 	/* This port can be used on all revisions of the Cortex-M7 core other than
 294:Firmware/Middlewares/Third_Party/FreeRTOS/Source/portable/GCC/ARM_CM4F/port.c **** 	the r0p1 parts.  r0p1 parts should use the port from the
 295:Firmware/Middlewares/Third_Party/FreeRTOS/Source/portable/GCC/ARM_CM4F/port.c **** 	/source/portable/GCC/ARM_CM7/r0p1 directory. */
 296:Firmware/Middlewares/Third_Party/FreeRTOS/Source/portable/GCC/ARM_CM4F/port.c **** 	configASSERT( portCPUID != portCORTEX_M7_r0p1_ID );
 336              		.loc 1 296 0
 337 0006 444B     		ldr	r3, .L23
 338 0008 1B68     		ldr	r3, [r3]
 339 000a 444A     		ldr	r2, .L23+4
 340 000c 9342     		cmp	r3, r2
 341 000e 09D1     		bne	.L14
 342              	.LBB35:
 343              	.LBB36:
 344              		.loc 2 195 0 discriminator 1
 345              		.syntax unified
 346              	@ 195 "Firmware/Middlewares/Third_Party/FreeRTOS/Source/portable/GCC/ARM_CM4F/portmacro.h" 1
 347 0010 4FF05003 			mov r3, #80												
 348 0014 83F31188 		msr basepri, r3											
 349 0018 BFF36F8F 		isb														
 350 001c BFF34F8F 		dsb														
 351              	
 352              	@ 0 "" 2
 353              		.thumb
 354              		.syntax unified
 355 0020 3B61     		str	r3, [r7, #16]
 356              	.L15:
 357              	.LBE36:
 358              	.LBE35:
 359              		.loc 1 296 0 discriminator 2
 360 0022 FEE7     		b	.L15
 361              	.L14:
 297:Firmware/Middlewares/Third_Party/FreeRTOS/Source/portable/GCC/ARM_CM4F/port.c **** 	configASSERT( portCPUID != portCORTEX_M7_r0p0_ID );
 362              		.loc 1 297 0
 363 0024 3C4B     		ldr	r3, .L23
 364 0026 1B68     		ldr	r3, [r3]
 365 0028 3D4A     		ldr	r2, .L23+8
 366 002a 9342     		cmp	r3, r2
 367 002c 09D1     		bne	.L16
 368              	.LBB37:
 369              	.LBB38:
 370              		.loc 2 195 0 discriminator 1
 371              		.syntax unified
 372              	@ 195 "Firmware/Middlewares/Third_Party/FreeRTOS/Source/portable/GCC/ARM_CM4F/portmacro.h" 1
 373 002e 4FF05003 			mov r3, #80												
 374 0032 83F31188 		msr basepri, r3											
 375 0036 BFF36F8F 		isb														
 376 003a BFF34F8F 		dsb														
 377              	
 378              	@ 0 "" 2
 379              		.thumb
 380              		.syntax unified
ARM GAS  /tmp/cce2QzCt.s 			page 16


 381 003e FB60     		str	r3, [r7, #12]
 382              	.L17:
 383              	.LBE38:
 384              	.LBE37:
 385              		.loc 1 297 0 discriminator 3
 386 0040 FEE7     		b	.L17
 387              	.L16:
 388              	.LBB39:
 298:Firmware/Middlewares/Third_Party/FreeRTOS/Source/portable/GCC/ARM_CM4F/port.c **** 
 299:Firmware/Middlewares/Third_Party/FreeRTOS/Source/portable/GCC/ARM_CM4F/port.c **** 	#if( configASSERT_DEFINED == 1 )
 300:Firmware/Middlewares/Third_Party/FreeRTOS/Source/portable/GCC/ARM_CM4F/port.c **** 	{
 301:Firmware/Middlewares/Third_Party/FreeRTOS/Source/portable/GCC/ARM_CM4F/port.c **** 		volatile uint32_t ulOriginalPriority;
 302:Firmware/Middlewares/Third_Party/FreeRTOS/Source/portable/GCC/ARM_CM4F/port.c **** 		volatile uint8_t * const pucFirstUserPriorityRegister = ( volatile uint8_t * const ) ( portNVIC_I
 389              		.loc 1 302 0
 390 0042 384B     		ldr	r3, .L23+12
 391 0044 7B61     		str	r3, [r7, #20]
 303:Firmware/Middlewares/Third_Party/FreeRTOS/Source/portable/GCC/ARM_CM4F/port.c **** 		volatile uint8_t ucMaxPriorityValue;
 304:Firmware/Middlewares/Third_Party/FreeRTOS/Source/portable/GCC/ARM_CM4F/port.c **** 
 305:Firmware/Middlewares/Third_Party/FreeRTOS/Source/portable/GCC/ARM_CM4F/port.c **** 		/* Determine the maximum priority from which ISR safe FreeRTOS API
 306:Firmware/Middlewares/Third_Party/FreeRTOS/Source/portable/GCC/ARM_CM4F/port.c **** 		functions can be called.  ISR safe functions are those that end in
 307:Firmware/Middlewares/Third_Party/FreeRTOS/Source/portable/GCC/ARM_CM4F/port.c **** 		"FromISR".  FreeRTOS maintains separate thread and ISR API functions to
 308:Firmware/Middlewares/Third_Party/FreeRTOS/Source/portable/GCC/ARM_CM4F/port.c **** 		ensure interrupt entry is as fast and simple as possible.
 309:Firmware/Middlewares/Third_Party/FreeRTOS/Source/portable/GCC/ARM_CM4F/port.c **** 
 310:Firmware/Middlewares/Third_Party/FreeRTOS/Source/portable/GCC/ARM_CM4F/port.c **** 		Save the interrupt priority value that is about to be clobbered. */
 311:Firmware/Middlewares/Third_Party/FreeRTOS/Source/portable/GCC/ARM_CM4F/port.c **** 		ulOriginalPriority = *pucFirstUserPriorityRegister;
 392              		.loc 1 311 0
 393 0046 7B69     		ldr	r3, [r7, #20]
 394 0048 1B78     		ldrb	r3, [r3]
 395 004a DBB2     		uxtb	r3, r3
 396 004c 7B60     		str	r3, [r7, #4]
 312:Firmware/Middlewares/Third_Party/FreeRTOS/Source/portable/GCC/ARM_CM4F/port.c **** 
 313:Firmware/Middlewares/Third_Party/FreeRTOS/Source/portable/GCC/ARM_CM4F/port.c **** 		/* Determine the number of priority bits available.  First write to all
 314:Firmware/Middlewares/Third_Party/FreeRTOS/Source/portable/GCC/ARM_CM4F/port.c **** 		possible bits. */
 315:Firmware/Middlewares/Third_Party/FreeRTOS/Source/portable/GCC/ARM_CM4F/port.c **** 		*pucFirstUserPriorityRegister = portMAX_8_BIT_VALUE;
 397              		.loc 1 315 0
 398 004e 7B69     		ldr	r3, [r7, #20]
 399 0050 FF22     		movs	r2, #255
 400 0052 1A70     		strb	r2, [r3]
 316:Firmware/Middlewares/Third_Party/FreeRTOS/Source/portable/GCC/ARM_CM4F/port.c **** 
 317:Firmware/Middlewares/Third_Party/FreeRTOS/Source/portable/GCC/ARM_CM4F/port.c **** 		/* Read the value back to see how many bits stuck. */
 318:Firmware/Middlewares/Third_Party/FreeRTOS/Source/portable/GCC/ARM_CM4F/port.c **** 		ucMaxPriorityValue = *pucFirstUserPriorityRegister;
 401              		.loc 1 318 0
 402 0054 7B69     		ldr	r3, [r7, #20]
 403 0056 1B78     		ldrb	r3, [r3]
 404 0058 DBB2     		uxtb	r3, r3
 405 005a FB70     		strb	r3, [r7, #3]
 319:Firmware/Middlewares/Third_Party/FreeRTOS/Source/portable/GCC/ARM_CM4F/port.c **** 
 320:Firmware/Middlewares/Third_Party/FreeRTOS/Source/portable/GCC/ARM_CM4F/port.c **** 		/* Use the same mask on the maximum system call priority. */
 321:Firmware/Middlewares/Third_Party/FreeRTOS/Source/portable/GCC/ARM_CM4F/port.c **** 		ucMaxSysCallPriority = configMAX_SYSCALL_INTERRUPT_PRIORITY & ucMaxPriorityValue;
 406              		.loc 1 321 0
 407 005c FB78     		ldrb	r3, [r7, #3]
 408 005e DBB2     		uxtb	r3, r3
 409 0060 03F05003 		and	r3, r3, #80
 410 0064 DAB2     		uxtb	r2, r3
 411 0066 304B     		ldr	r3, .L23+16
 412 0068 1A70     		strb	r2, [r3]
 322:Firmware/Middlewares/Third_Party/FreeRTOS/Source/portable/GCC/ARM_CM4F/port.c **** 
ARM GAS  /tmp/cce2QzCt.s 			page 17


 323:Firmware/Middlewares/Third_Party/FreeRTOS/Source/portable/GCC/ARM_CM4F/port.c **** 		/* Calculate the maximum acceptable priority group value for the number
 324:Firmware/Middlewares/Third_Party/FreeRTOS/Source/portable/GCC/ARM_CM4F/port.c **** 		of bits read back. */
 325:Firmware/Middlewares/Third_Party/FreeRTOS/Source/portable/GCC/ARM_CM4F/port.c **** 		ulMaxPRIGROUPValue = portMAX_PRIGROUP_BITS;
 413              		.loc 1 325 0
 414 006a 304B     		ldr	r3, .L23+20
 415 006c 0722     		movs	r2, #7
 416 006e 1A60     		str	r2, [r3]
 326:Firmware/Middlewares/Third_Party/FreeRTOS/Source/portable/GCC/ARM_CM4F/port.c **** 		while( ( ucMaxPriorityValue & portTOP_BIT_OF_BYTE ) == portTOP_BIT_OF_BYTE )
 417              		.loc 1 326 0
 418 0070 09E0     		b	.L18
 419              	.L19:
 327:Firmware/Middlewares/Third_Party/FreeRTOS/Source/portable/GCC/ARM_CM4F/port.c **** 		{
 328:Firmware/Middlewares/Third_Party/FreeRTOS/Source/portable/GCC/ARM_CM4F/port.c **** 			ulMaxPRIGROUPValue--;
 420              		.loc 1 328 0
 421 0072 2E4B     		ldr	r3, .L23+20
 422 0074 1B68     		ldr	r3, [r3]
 423 0076 013B     		subs	r3, r3, #1
 424 0078 2C4A     		ldr	r2, .L23+20
 425 007a 1360     		str	r3, [r2]
 329:Firmware/Middlewares/Third_Party/FreeRTOS/Source/portable/GCC/ARM_CM4F/port.c **** 			ucMaxPriorityValue <<= ( uint8_t ) 0x01;
 426              		.loc 1 329 0
 427 007c FB78     		ldrb	r3, [r7, #3]
 428 007e DBB2     		uxtb	r3, r3
 429 0080 5B00     		lsls	r3, r3, #1
 430 0082 DBB2     		uxtb	r3, r3
 431 0084 FB70     		strb	r3, [r7, #3]
 432              	.L18:
 326:Firmware/Middlewares/Third_Party/FreeRTOS/Source/portable/GCC/ARM_CM4F/port.c **** 		while( ( ucMaxPriorityValue & portTOP_BIT_OF_BYTE ) == portTOP_BIT_OF_BYTE )
 433              		.loc 1 326 0
 434 0086 FB78     		ldrb	r3, [r7, #3]
 435 0088 DBB2     		uxtb	r3, r3
 436 008a 03F08003 		and	r3, r3, #128
 437 008e 802B     		cmp	r3, #128
 438 0090 EFD0     		beq	.L19
 330:Firmware/Middlewares/Third_Party/FreeRTOS/Source/portable/GCC/ARM_CM4F/port.c **** 		}
 331:Firmware/Middlewares/Third_Party/FreeRTOS/Source/portable/GCC/ARM_CM4F/port.c **** 
 332:Firmware/Middlewares/Third_Party/FreeRTOS/Source/portable/GCC/ARM_CM4F/port.c **** 		#ifdef __NVIC_PRIO_BITS
 333:Firmware/Middlewares/Third_Party/FreeRTOS/Source/portable/GCC/ARM_CM4F/port.c **** 		{
 334:Firmware/Middlewares/Third_Party/FreeRTOS/Source/portable/GCC/ARM_CM4F/port.c **** 			/* Check the CMSIS configuration that defines the number of
 335:Firmware/Middlewares/Third_Party/FreeRTOS/Source/portable/GCC/ARM_CM4F/port.c **** 			priority bits matches the number of priority bits actually queried
 336:Firmware/Middlewares/Third_Party/FreeRTOS/Source/portable/GCC/ARM_CM4F/port.c **** 			from the hardware. */
 337:Firmware/Middlewares/Third_Party/FreeRTOS/Source/portable/GCC/ARM_CM4F/port.c **** 			configASSERT( ( portMAX_PRIGROUP_BITS - ulMaxPRIGROUPValue ) == __NVIC_PRIO_BITS );
 338:Firmware/Middlewares/Third_Party/FreeRTOS/Source/portable/GCC/ARM_CM4F/port.c **** 		}
 339:Firmware/Middlewares/Third_Party/FreeRTOS/Source/portable/GCC/ARM_CM4F/port.c **** 		#endif
 340:Firmware/Middlewares/Third_Party/FreeRTOS/Source/portable/GCC/ARM_CM4F/port.c **** 
 341:Firmware/Middlewares/Third_Party/FreeRTOS/Source/portable/GCC/ARM_CM4F/port.c **** 		#ifdef configPRIO_BITS
 342:Firmware/Middlewares/Third_Party/FreeRTOS/Source/portable/GCC/ARM_CM4F/port.c **** 		{
 343:Firmware/Middlewares/Third_Party/FreeRTOS/Source/portable/GCC/ARM_CM4F/port.c **** 			/* Check the FreeRTOS configuration that defines the number of
 344:Firmware/Middlewares/Third_Party/FreeRTOS/Source/portable/GCC/ARM_CM4F/port.c **** 			priority bits matches the number of priority bits actually queried
 345:Firmware/Middlewares/Third_Party/FreeRTOS/Source/portable/GCC/ARM_CM4F/port.c **** 			from the hardware. */
 346:Firmware/Middlewares/Third_Party/FreeRTOS/Source/portable/GCC/ARM_CM4F/port.c **** 			configASSERT( ( portMAX_PRIGROUP_BITS - ulMaxPRIGROUPValue ) == configPRIO_BITS );
 439              		.loc 1 346 0
 440 0092 264B     		ldr	r3, .L23+20
 441 0094 1B68     		ldr	r3, [r3]
 442 0096 C3F10703 		rsb	r3, r3, #7
 443 009a 042B     		cmp	r3, #4
 444 009c 09D0     		beq	.L20
ARM GAS  /tmp/cce2QzCt.s 			page 18


 445              	.LBB40:
 446              	.LBB41:
 447              		.loc 2 195 0 discriminator 1
 448              		.syntax unified
 449              	@ 195 "Firmware/Middlewares/Third_Party/FreeRTOS/Source/portable/GCC/ARM_CM4F/portmacro.h" 1
 450 009e 4FF05003 			mov r3, #80												
 451 00a2 83F31188 		msr basepri, r3											
 452 00a6 BFF36F8F 		isb														
 453 00aa BFF34F8F 		dsb														
 454              	
 455              	@ 0 "" 2
 456              		.thumb
 457              		.syntax unified
 458 00ae BB60     		str	r3, [r7, #8]
 459              	.L21:
 460              	.LBE41:
 461              	.LBE40:
 462              		.loc 1 346 0 discriminator 4
 463 00b0 FEE7     		b	.L21
 464              	.L20:
 347:Firmware/Middlewares/Third_Party/FreeRTOS/Source/portable/GCC/ARM_CM4F/port.c **** 		}
 348:Firmware/Middlewares/Third_Party/FreeRTOS/Source/portable/GCC/ARM_CM4F/port.c **** 		#endif
 349:Firmware/Middlewares/Third_Party/FreeRTOS/Source/portable/GCC/ARM_CM4F/port.c **** 
 350:Firmware/Middlewares/Third_Party/FreeRTOS/Source/portable/GCC/ARM_CM4F/port.c **** 		/* Shift the priority group value back to its position within the AIRCR
 351:Firmware/Middlewares/Third_Party/FreeRTOS/Source/portable/GCC/ARM_CM4F/port.c **** 		register. */
 352:Firmware/Middlewares/Third_Party/FreeRTOS/Source/portable/GCC/ARM_CM4F/port.c **** 		ulMaxPRIGROUPValue <<= portPRIGROUP_SHIFT;
 465              		.loc 1 352 0
 466 00b2 1E4B     		ldr	r3, .L23+20
 467 00b4 1B68     		ldr	r3, [r3]
 468 00b6 1B02     		lsls	r3, r3, #8
 469 00b8 1C4A     		ldr	r2, .L23+20
 470 00ba 1360     		str	r3, [r2]
 353:Firmware/Middlewares/Third_Party/FreeRTOS/Source/portable/GCC/ARM_CM4F/port.c **** 		ulMaxPRIGROUPValue &= portPRIORITY_GROUP_MASK;
 471              		.loc 1 353 0
 472 00bc 1B4B     		ldr	r3, .L23+20
 473 00be 1B68     		ldr	r3, [r3]
 474 00c0 03F4E063 		and	r3, r3, #1792
 475 00c4 194A     		ldr	r2, .L23+20
 476 00c6 1360     		str	r3, [r2]
 354:Firmware/Middlewares/Third_Party/FreeRTOS/Source/portable/GCC/ARM_CM4F/port.c **** 
 355:Firmware/Middlewares/Third_Party/FreeRTOS/Source/portable/GCC/ARM_CM4F/port.c **** 		/* Restore the clobbered interrupt priority register to its original
 356:Firmware/Middlewares/Third_Party/FreeRTOS/Source/portable/GCC/ARM_CM4F/port.c **** 		value. */
 357:Firmware/Middlewares/Third_Party/FreeRTOS/Source/portable/GCC/ARM_CM4F/port.c **** 		*pucFirstUserPriorityRegister = ulOriginalPriority;
 477              		.loc 1 357 0
 478 00c8 7B68     		ldr	r3, [r7, #4]
 479 00ca DAB2     		uxtb	r2, r3
 480 00cc 7B69     		ldr	r3, [r7, #20]
 481 00ce 1A70     		strb	r2, [r3]
 482              	.LBE39:
 358:Firmware/Middlewares/Third_Party/FreeRTOS/Source/portable/GCC/ARM_CM4F/port.c **** 	}
 359:Firmware/Middlewares/Third_Party/FreeRTOS/Source/portable/GCC/ARM_CM4F/port.c **** 	#endif /* conifgASSERT_DEFINED */
 360:Firmware/Middlewares/Third_Party/FreeRTOS/Source/portable/GCC/ARM_CM4F/port.c **** 
 361:Firmware/Middlewares/Third_Party/FreeRTOS/Source/portable/GCC/ARM_CM4F/port.c **** 	/* Make PendSV and SysTick the lowest priority interrupts. */
 362:Firmware/Middlewares/Third_Party/FreeRTOS/Source/portable/GCC/ARM_CM4F/port.c **** 	portNVIC_SYSPRI2_REG |= portNVIC_PENDSV_PRI;
 483              		.loc 1 362 0
 484 00d0 174B     		ldr	r3, .L23+24
 485 00d2 1B68     		ldr	r3, [r3]
ARM GAS  /tmp/cce2QzCt.s 			page 19


 486 00d4 164A     		ldr	r2, .L23+24
 487 00d6 43F47003 		orr	r3, r3, #15728640
 488 00da 1360     		str	r3, [r2]
 363:Firmware/Middlewares/Third_Party/FreeRTOS/Source/portable/GCC/ARM_CM4F/port.c **** 	portNVIC_SYSPRI2_REG |= portNVIC_SYSTICK_PRI;
 489              		.loc 1 363 0
 490 00dc 144B     		ldr	r3, .L23+24
 491 00de 1B68     		ldr	r3, [r3]
 492 00e0 134A     		ldr	r2, .L23+24
 493 00e2 43F07043 		orr	r3, r3, #-268435456
 494 00e6 1360     		str	r3, [r2]
 364:Firmware/Middlewares/Third_Party/FreeRTOS/Source/portable/GCC/ARM_CM4F/port.c **** 
 365:Firmware/Middlewares/Third_Party/FreeRTOS/Source/portable/GCC/ARM_CM4F/port.c **** 	/* Start the timer that generates the tick ISR.  Interrupts are disabled
 366:Firmware/Middlewares/Third_Party/FreeRTOS/Source/portable/GCC/ARM_CM4F/port.c **** 	here already. */
 367:Firmware/Middlewares/Third_Party/FreeRTOS/Source/portable/GCC/ARM_CM4F/port.c **** 	vPortSetupTimerInterrupt();
 495              		.loc 1 367 0
 496 00e8 FFF7FEFF 		bl	vPortSetupTimerInterrupt
 368:Firmware/Middlewares/Third_Party/FreeRTOS/Source/portable/GCC/ARM_CM4F/port.c **** 
 369:Firmware/Middlewares/Third_Party/FreeRTOS/Source/portable/GCC/ARM_CM4F/port.c **** 	/* Initialise the critical nesting count ready for the first task. */
 370:Firmware/Middlewares/Third_Party/FreeRTOS/Source/portable/GCC/ARM_CM4F/port.c **** 	uxCriticalNesting = 0;
 497              		.loc 1 370 0
 498 00ec 114B     		ldr	r3, .L23+28
 499 00ee 0022     		movs	r2, #0
 500 00f0 1A60     		str	r2, [r3]
 371:Firmware/Middlewares/Third_Party/FreeRTOS/Source/portable/GCC/ARM_CM4F/port.c **** 
 372:Firmware/Middlewares/Third_Party/FreeRTOS/Source/portable/GCC/ARM_CM4F/port.c **** 	/* Ensure the VFP is enabled - it should be anyway. */
 373:Firmware/Middlewares/Third_Party/FreeRTOS/Source/portable/GCC/ARM_CM4F/port.c **** 	vPortEnableVFP();
 501              		.loc 1 373 0
 502 00f2 FFF7FEFF 		bl	vPortEnableVFP
 374:Firmware/Middlewares/Third_Party/FreeRTOS/Source/portable/GCC/ARM_CM4F/port.c **** 
 375:Firmware/Middlewares/Third_Party/FreeRTOS/Source/portable/GCC/ARM_CM4F/port.c **** 	/* Lazy save always. */
 376:Firmware/Middlewares/Third_Party/FreeRTOS/Source/portable/GCC/ARM_CM4F/port.c **** 	*( portFPCCR ) |= portASPEN_AND_LSPEN_BITS;
 503              		.loc 1 376 0
 504 00f6 104B     		ldr	r3, .L23+32
 505 00f8 1B68     		ldr	r3, [r3]
 506 00fa 0F4A     		ldr	r2, .L23+32
 507 00fc 43F04043 		orr	r3, r3, #-1073741824
 508 0100 1360     		str	r3, [r2]
 377:Firmware/Middlewares/Third_Party/FreeRTOS/Source/portable/GCC/ARM_CM4F/port.c **** 
 378:Firmware/Middlewares/Third_Party/FreeRTOS/Source/portable/GCC/ARM_CM4F/port.c **** 	/* Start the first task. */
 379:Firmware/Middlewares/Third_Party/FreeRTOS/Source/portable/GCC/ARM_CM4F/port.c **** 	prvPortStartFirstTask();
 509              		.loc 1 379 0
 510 0102 FFF7FEFF 		bl	prvPortStartFirstTask
 380:Firmware/Middlewares/Third_Party/FreeRTOS/Source/portable/GCC/ARM_CM4F/port.c **** 
 381:Firmware/Middlewares/Third_Party/FreeRTOS/Source/portable/GCC/ARM_CM4F/port.c **** 	/* Should never get here as the tasks will now be executing!  Call the task
 382:Firmware/Middlewares/Third_Party/FreeRTOS/Source/portable/GCC/ARM_CM4F/port.c **** 	exit error function to prevent compiler warnings about a static function
 383:Firmware/Middlewares/Third_Party/FreeRTOS/Source/portable/GCC/ARM_CM4F/port.c **** 	not being called in the case that the application writer overrides this
 384:Firmware/Middlewares/Third_Party/FreeRTOS/Source/portable/GCC/ARM_CM4F/port.c **** 	functionality by defining configTASK_RETURN_ADDRESS.  Call
 385:Firmware/Middlewares/Third_Party/FreeRTOS/Source/portable/GCC/ARM_CM4F/port.c **** 	vTaskSwitchContext() so link time optimisation does not remove the
 386:Firmware/Middlewares/Third_Party/FreeRTOS/Source/portable/GCC/ARM_CM4F/port.c **** 	symbol. */
 387:Firmware/Middlewares/Third_Party/FreeRTOS/Source/portable/GCC/ARM_CM4F/port.c **** 	vTaskSwitchContext();
 511              		.loc 1 387 0
 512 0106 FFF7FEFF 		bl	vTaskSwitchContext
 388:Firmware/Middlewares/Third_Party/FreeRTOS/Source/portable/GCC/ARM_CM4F/port.c **** 	prvTaskExitError();
 513              		.loc 1 388 0
 514 010a FFF7FEFF 		bl	prvTaskExitError
 389:Firmware/Middlewares/Third_Party/FreeRTOS/Source/portable/GCC/ARM_CM4F/port.c **** 
 390:Firmware/Middlewares/Third_Party/FreeRTOS/Source/portable/GCC/ARM_CM4F/port.c **** 	/* Should not get here! */
ARM GAS  /tmp/cce2QzCt.s 			page 20


 391:Firmware/Middlewares/Third_Party/FreeRTOS/Source/portable/GCC/ARM_CM4F/port.c **** 	return 0;
 515              		.loc 1 391 0
 516 010e 0023     		movs	r3, #0
 392:Firmware/Middlewares/Third_Party/FreeRTOS/Source/portable/GCC/ARM_CM4F/port.c **** }
 517              		.loc 1 392 0
 518 0110 1846     		mov	r0, r3
 519 0112 1837     		adds	r7, r7, #24
 520              	.LCFI15:
 521              		.cfi_def_cfa_offset 8
 522 0114 BD46     		mov	sp, r7
 523              	.LCFI16:
 524              		.cfi_def_cfa_register 13
 525              		@ sp needed
 526 0116 80BD     		pop	{r7, pc}
 527              	.L24:
 528              		.align	2
 529              	.L23:
 530 0118 00ED00E0 		.word	-536810240
 531 011c 71C20F41 		.word	1091551857
 532 0120 70C20F41 		.word	1091551856
 533 0124 00E400E0 		.word	-536812544
 534 0128 00000000 		.word	ucMaxSysCallPriority
 535 012c 00000000 		.word	ulMaxPRIGROUPValue
 536 0130 20ED00E0 		.word	-536810208
 537 0134 00000000 		.word	uxCriticalNesting
 538 0138 34EF00E0 		.word	-536809676
 539              		.cfi_endproc
 540              	.LFE8:
 542              		.section	.text.vPortEndScheduler,"ax",%progbits
 543              		.align	1
 544              		.global	vPortEndScheduler
 545              		.syntax unified
 546              		.thumb
 547              		.thumb_func
 548              		.fpu fpv4-sp-d16
 550              	vPortEndScheduler:
 551              	.LFB9:
 393:Firmware/Middlewares/Third_Party/FreeRTOS/Source/portable/GCC/ARM_CM4F/port.c **** /*-----------------------------------------------------------*/
 394:Firmware/Middlewares/Third_Party/FreeRTOS/Source/portable/GCC/ARM_CM4F/port.c **** 
 395:Firmware/Middlewares/Third_Party/FreeRTOS/Source/portable/GCC/ARM_CM4F/port.c **** void vPortEndScheduler( void )
 396:Firmware/Middlewares/Third_Party/FreeRTOS/Source/portable/GCC/ARM_CM4F/port.c **** {
 552              		.loc 1 396 0
 553              		.cfi_startproc
 554              		@ args = 0, pretend = 0, frame = 8
 555              		@ frame_needed = 1, uses_anonymous_args = 0
 556              		@ link register save eliminated.
 557 0000 80B4     		push	{r7}
 558              	.LCFI17:
 559              		.cfi_def_cfa_offset 4
 560              		.cfi_offset 7, -4
 561 0002 83B0     		sub	sp, sp, #12
 562              	.LCFI18:
 563              		.cfi_def_cfa_offset 16
 564 0004 00AF     		add	r7, sp, #0
 565              	.LCFI19:
 566              		.cfi_def_cfa_register 7
 397:Firmware/Middlewares/Third_Party/FreeRTOS/Source/portable/GCC/ARM_CM4F/port.c **** 	/* Not implemented in ports where there is nothing to return to.
ARM GAS  /tmp/cce2QzCt.s 			page 21


 398:Firmware/Middlewares/Third_Party/FreeRTOS/Source/portable/GCC/ARM_CM4F/port.c **** 	Artificially force an assert. */
 399:Firmware/Middlewares/Third_Party/FreeRTOS/Source/portable/GCC/ARM_CM4F/port.c **** 	configASSERT( uxCriticalNesting == 1000UL );
 567              		.loc 1 399 0
 568 0006 0A4B     		ldr	r3, .L29
 569 0008 1B68     		ldr	r3, [r3]
 570 000a B3F57A7F 		cmp	r3, #1000
 571 000e 09D0     		beq	.L28
 572              	.LBB42:
 573              	.LBB43:
 574              		.loc 2 195 0 discriminator 1
 575              		.syntax unified
 576              	@ 195 "Firmware/Middlewares/Third_Party/FreeRTOS/Source/portable/GCC/ARM_CM4F/portmacro.h" 1
 577 0010 4FF05003 			mov r3, #80												
 578 0014 83F31188 		msr basepri, r3											
 579 0018 BFF36F8F 		isb														
 580 001c BFF34F8F 		dsb														
 581              	
 582              	@ 0 "" 2
 583              		.thumb
 584              		.syntax unified
 585 0020 7B60     		str	r3, [r7, #4]
 586              	.L27:
 587              	.LBE43:
 588              	.LBE42:
 589              		.loc 1 399 0 discriminator 1
 590 0022 FEE7     		b	.L27
 591              	.L28:
 400:Firmware/Middlewares/Third_Party/FreeRTOS/Source/portable/GCC/ARM_CM4F/port.c **** }
 592              		.loc 1 400 0
 593 0024 00BF     		nop
 594 0026 0C37     		adds	r7, r7, #12
 595              	.LCFI20:
 596              		.cfi_def_cfa_offset 4
 597 0028 BD46     		mov	sp, r7
 598              	.LCFI21:
 599              		.cfi_def_cfa_register 13
 600              		@ sp needed
 601 002a 5DF8047B 		ldr	r7, [sp], #4
 602              	.LCFI22:
 603              		.cfi_restore 7
 604              		.cfi_def_cfa_offset 0
 605 002e 7047     		bx	lr
 606              	.L30:
 607              		.align	2
 608              	.L29:
 609 0030 00000000 		.word	uxCriticalNesting
 610              		.cfi_endproc
 611              	.LFE9:
 613              		.section	.text.vPortEnterCritical,"ax",%progbits
 614              		.align	1
 615              		.global	vPortEnterCritical
 616              		.syntax unified
 617              		.thumb
 618              		.thumb_func
 619              		.fpu fpv4-sp-d16
 621              	vPortEnterCritical:
 622              	.LFB10:
ARM GAS  /tmp/cce2QzCt.s 			page 22


 401:Firmware/Middlewares/Third_Party/FreeRTOS/Source/portable/GCC/ARM_CM4F/port.c **** /*-----------------------------------------------------------*/
 402:Firmware/Middlewares/Third_Party/FreeRTOS/Source/portable/GCC/ARM_CM4F/port.c **** 
 403:Firmware/Middlewares/Third_Party/FreeRTOS/Source/portable/GCC/ARM_CM4F/port.c **** void vPortEnterCritical( void )
 404:Firmware/Middlewares/Third_Party/FreeRTOS/Source/portable/GCC/ARM_CM4F/port.c **** {
 623              		.loc 1 404 0
 624              		.cfi_startproc
 625              		@ args = 0, pretend = 0, frame = 8
 626              		@ frame_needed = 1, uses_anonymous_args = 0
 627              		@ link register save eliminated.
 628 0000 80B4     		push	{r7}
 629              	.LCFI23:
 630              		.cfi_def_cfa_offset 4
 631              		.cfi_offset 7, -4
 632 0002 83B0     		sub	sp, sp, #12
 633              	.LCFI24:
 634              		.cfi_def_cfa_offset 16
 635 0004 00AF     		add	r7, sp, #0
 636              	.LCFI25:
 637              		.cfi_def_cfa_register 7
 638              	.LBB44:
 639              	.LBB45:
 640              		.loc 2 195 0
 641              		.syntax unified
 642              	@ 195 "Firmware/Middlewares/Third_Party/FreeRTOS/Source/portable/GCC/ARM_CM4F/portmacro.h" 1
 643 0006 4FF05003 			mov r3, #80												
 644 000a 83F31188 		msr basepri, r3											
 645 000e BFF36F8F 		isb														
 646 0012 BFF34F8F 		dsb														
 647              	
 648              	@ 0 "" 2
 649              		.thumb
 650              		.syntax unified
 651 0016 7B60     		str	r3, [r7, #4]
 652              	.LBE45:
 653              	.LBE44:
 405:Firmware/Middlewares/Third_Party/FreeRTOS/Source/portable/GCC/ARM_CM4F/port.c **** 	portDISABLE_INTERRUPTS();
 406:Firmware/Middlewares/Third_Party/FreeRTOS/Source/portable/GCC/ARM_CM4F/port.c **** 	uxCriticalNesting++;
 654              		.loc 1 406 0
 655 0018 0E4B     		ldr	r3, .L35
 656 001a 1B68     		ldr	r3, [r3]
 657 001c 0133     		adds	r3, r3, #1
 658 001e 0D4A     		ldr	r2, .L35
 659 0020 1360     		str	r3, [r2]
 407:Firmware/Middlewares/Third_Party/FreeRTOS/Source/portable/GCC/ARM_CM4F/port.c **** 
 408:Firmware/Middlewares/Third_Party/FreeRTOS/Source/portable/GCC/ARM_CM4F/port.c **** 	/* This is not the interrupt safe version of the enter critical function so
 409:Firmware/Middlewares/Third_Party/FreeRTOS/Source/portable/GCC/ARM_CM4F/port.c **** 	assert() if it is being called from an interrupt context.  Only API
 410:Firmware/Middlewares/Third_Party/FreeRTOS/Source/portable/GCC/ARM_CM4F/port.c **** 	functions that end in "FromISR" can be used in an interrupt.  Only assert if
 411:Firmware/Middlewares/Third_Party/FreeRTOS/Source/portable/GCC/ARM_CM4F/port.c **** 	the critical nesting count is 1 to protect against recursive calls if the
 412:Firmware/Middlewares/Third_Party/FreeRTOS/Source/portable/GCC/ARM_CM4F/port.c **** 	assert function also uses a critical section. */
 413:Firmware/Middlewares/Third_Party/FreeRTOS/Source/portable/GCC/ARM_CM4F/port.c **** 	if( uxCriticalNesting == 1 )
 660              		.loc 1 413 0
 661 0022 0C4B     		ldr	r3, .L35
 662 0024 1B68     		ldr	r3, [r3]
 663 0026 012B     		cmp	r3, #1
 664 0028 0ED1     		bne	.L34
 414:Firmware/Middlewares/Third_Party/FreeRTOS/Source/portable/GCC/ARM_CM4F/port.c **** 	{
 415:Firmware/Middlewares/Third_Party/FreeRTOS/Source/portable/GCC/ARM_CM4F/port.c **** 		configASSERT( ( portNVIC_INT_CTRL_REG & portVECTACTIVE_MASK ) == 0 );
ARM GAS  /tmp/cce2QzCt.s 			page 23


 665              		.loc 1 415 0
 666 002a 0B4B     		ldr	r3, .L35+4
 667 002c 1B68     		ldr	r3, [r3]
 668 002e DBB2     		uxtb	r3, r3
 669 0030 002B     		cmp	r3, #0
 670 0032 09D0     		beq	.L34
 671              	.LBB46:
 672              	.LBB47:
 673              		.loc 2 195 0 discriminator 1
 674              		.syntax unified
 675              	@ 195 "Firmware/Middlewares/Third_Party/FreeRTOS/Source/portable/GCC/ARM_CM4F/portmacro.h" 1
 676 0034 4FF05003 			mov r3, #80												
 677 0038 83F31188 		msr basepri, r3											
 678 003c BFF36F8F 		isb														
 679 0040 BFF34F8F 		dsb														
 680              	
 681              	@ 0 "" 2
 682              		.thumb
 683              		.syntax unified
 684 0044 3B60     		str	r3, [r7]
 685              	.L33:
 686              	.LBE47:
 687              	.LBE46:
 688              		.loc 1 415 0 discriminator 1
 689 0046 FEE7     		b	.L33
 690              	.L34:
 416:Firmware/Middlewares/Third_Party/FreeRTOS/Source/portable/GCC/ARM_CM4F/port.c **** 	}
 417:Firmware/Middlewares/Third_Party/FreeRTOS/Source/portable/GCC/ARM_CM4F/port.c **** }
 691              		.loc 1 417 0
 692 0048 00BF     		nop
 693 004a 0C37     		adds	r7, r7, #12
 694              	.LCFI26:
 695              		.cfi_def_cfa_offset 4
 696 004c BD46     		mov	sp, r7
 697              	.LCFI27:
 698              		.cfi_def_cfa_register 13
 699              		@ sp needed
 700 004e 5DF8047B 		ldr	r7, [sp], #4
 701              	.LCFI28:
 702              		.cfi_restore 7
 703              		.cfi_def_cfa_offset 0
 704 0052 7047     		bx	lr
 705              	.L36:
 706              		.align	2
 707              	.L35:
 708 0054 00000000 		.word	uxCriticalNesting
 709 0058 04ED00E0 		.word	-536810236
 710              		.cfi_endproc
 711              	.LFE10:
 713              		.section	.text.vPortExitCritical,"ax",%progbits
 714              		.align	1
 715              		.global	vPortExitCritical
 716              		.syntax unified
 717              		.thumb
 718              		.thumb_func
 719              		.fpu fpv4-sp-d16
 721              	vPortExitCritical:
ARM GAS  /tmp/cce2QzCt.s 			page 24


 722              	.LFB11:
 418:Firmware/Middlewares/Third_Party/FreeRTOS/Source/portable/GCC/ARM_CM4F/port.c **** /*-----------------------------------------------------------*/
 419:Firmware/Middlewares/Third_Party/FreeRTOS/Source/portable/GCC/ARM_CM4F/port.c **** 
 420:Firmware/Middlewares/Third_Party/FreeRTOS/Source/portable/GCC/ARM_CM4F/port.c **** void vPortExitCritical( void )
 421:Firmware/Middlewares/Third_Party/FreeRTOS/Source/portable/GCC/ARM_CM4F/port.c **** {
 723              		.loc 1 421 0
 724              		.cfi_startproc
 725              		@ args = 0, pretend = 0, frame = 8
 726              		@ frame_needed = 1, uses_anonymous_args = 0
 727              		@ link register save eliminated.
 728 0000 80B4     		push	{r7}
 729              	.LCFI29:
 730              		.cfi_def_cfa_offset 4
 731              		.cfi_offset 7, -4
 732 0002 83B0     		sub	sp, sp, #12
 733              	.LCFI30:
 734              		.cfi_def_cfa_offset 16
 735 0004 00AF     		add	r7, sp, #0
 736              	.LCFI31:
 737              		.cfi_def_cfa_register 7
 422:Firmware/Middlewares/Third_Party/FreeRTOS/Source/portable/GCC/ARM_CM4F/port.c **** 	configASSERT( uxCriticalNesting );
 738              		.loc 1 422 0
 739 0006 114B     		ldr	r3, .L42
 740 0008 1B68     		ldr	r3, [r3]
 741 000a 002B     		cmp	r3, #0
 742 000c 09D1     		bne	.L38
 743              	.LBB48:
 744              	.LBB49:
 745              		.loc 2 195 0 discriminator 1
 746              		.syntax unified
 747              	@ 195 "Firmware/Middlewares/Third_Party/FreeRTOS/Source/portable/GCC/ARM_CM4F/portmacro.h" 1
 748 000e 4FF05003 			mov r3, #80												
 749 0012 83F31188 		msr basepri, r3											
 750 0016 BFF36F8F 		isb														
 751 001a BFF34F8F 		dsb														
 752              	
 753              	@ 0 "" 2
 754              		.thumb
 755              		.syntax unified
 756 001e 7B60     		str	r3, [r7, #4]
 757              	.L39:
 758              	.LBE49:
 759              	.LBE48:
 760              		.loc 1 422 0 discriminator 1
 761 0020 FEE7     		b	.L39
 762              	.L38:
 423:Firmware/Middlewares/Third_Party/FreeRTOS/Source/portable/GCC/ARM_CM4F/port.c **** 	uxCriticalNesting--;
 763              		.loc 1 423 0
 764 0022 0A4B     		ldr	r3, .L42
 765 0024 1B68     		ldr	r3, [r3]
 766 0026 013B     		subs	r3, r3, #1
 767 0028 084A     		ldr	r2, .L42
 768 002a 1360     		str	r3, [r2]
 424:Firmware/Middlewares/Third_Party/FreeRTOS/Source/portable/GCC/ARM_CM4F/port.c **** 	if( uxCriticalNesting == 0 )
 769              		.loc 1 424 0
 770 002c 074B     		ldr	r3, .L42
 771 002e 1B68     		ldr	r3, [r3]
ARM GAS  /tmp/cce2QzCt.s 			page 25


 772 0030 002B     		cmp	r3, #0
 773 0032 04D1     		bne	.L41
 774 0034 0023     		movs	r3, #0
 775 0036 3B60     		str	r3, [r7]
 776              	.LBB50:
 777              	.LBB51:
 196:Firmware/Middlewares/Third_Party/FreeRTOS/Source/portable/GCC/ARM_CM4F/portmacro.h **** 	(
 197:Firmware/Middlewares/Third_Party/FreeRTOS/Source/portable/GCC/ARM_CM4F/portmacro.h **** 		"	mov %0, %1												\n"	\
 198:Firmware/Middlewares/Third_Party/FreeRTOS/Source/portable/GCC/ARM_CM4F/portmacro.h **** 		"	msr basepri, %0											\n" \
 199:Firmware/Middlewares/Third_Party/FreeRTOS/Source/portable/GCC/ARM_CM4F/portmacro.h **** 		"	isb														\n" \
 200:Firmware/Middlewares/Third_Party/FreeRTOS/Source/portable/GCC/ARM_CM4F/portmacro.h **** 		"	dsb														\n" \
 201:Firmware/Middlewares/Third_Party/FreeRTOS/Source/portable/GCC/ARM_CM4F/portmacro.h **** 		:"=r" (ulNewBASEPRI) : "i" ( configMAX_SYSCALL_INTERRUPT_PRIORITY ) : "memory"
 202:Firmware/Middlewares/Third_Party/FreeRTOS/Source/portable/GCC/ARM_CM4F/portmacro.h **** 	);
 203:Firmware/Middlewares/Third_Party/FreeRTOS/Source/portable/GCC/ARM_CM4F/portmacro.h **** }
 204:Firmware/Middlewares/Third_Party/FreeRTOS/Source/portable/GCC/ARM_CM4F/portmacro.h **** 
 205:Firmware/Middlewares/Third_Party/FreeRTOS/Source/portable/GCC/ARM_CM4F/portmacro.h **** /*-----------------------------------------------------------*/
 206:Firmware/Middlewares/Third_Party/FreeRTOS/Source/portable/GCC/ARM_CM4F/portmacro.h **** 
 207:Firmware/Middlewares/Third_Party/FreeRTOS/Source/portable/GCC/ARM_CM4F/portmacro.h **** portFORCE_INLINE static uint32_t ulPortRaiseBASEPRI( void )
 208:Firmware/Middlewares/Third_Party/FreeRTOS/Source/portable/GCC/ARM_CM4F/portmacro.h **** {
 209:Firmware/Middlewares/Third_Party/FreeRTOS/Source/portable/GCC/ARM_CM4F/portmacro.h **** uint32_t ulOriginalBASEPRI, ulNewBASEPRI;
 210:Firmware/Middlewares/Third_Party/FreeRTOS/Source/portable/GCC/ARM_CM4F/portmacro.h **** 
 211:Firmware/Middlewares/Third_Party/FreeRTOS/Source/portable/GCC/ARM_CM4F/portmacro.h **** 	__asm volatile
 212:Firmware/Middlewares/Third_Party/FreeRTOS/Source/portable/GCC/ARM_CM4F/portmacro.h **** 	(
 213:Firmware/Middlewares/Third_Party/FreeRTOS/Source/portable/GCC/ARM_CM4F/portmacro.h **** 		"	mrs %0, basepri											\n" \
 214:Firmware/Middlewares/Third_Party/FreeRTOS/Source/portable/GCC/ARM_CM4F/portmacro.h **** 		"	mov %1, %2												\n"	\
 215:Firmware/Middlewares/Third_Party/FreeRTOS/Source/portable/GCC/ARM_CM4F/portmacro.h **** 		"	msr basepri, %1											\n" \
 216:Firmware/Middlewares/Third_Party/FreeRTOS/Source/portable/GCC/ARM_CM4F/portmacro.h **** 		"	isb														\n" \
 217:Firmware/Middlewares/Third_Party/FreeRTOS/Source/portable/GCC/ARM_CM4F/portmacro.h **** 		"	dsb														\n" \
 218:Firmware/Middlewares/Third_Party/FreeRTOS/Source/portable/GCC/ARM_CM4F/portmacro.h **** 		:"=r" (ulOriginalBASEPRI), "=r" (ulNewBASEPRI) : "i" ( configMAX_SYSCALL_INTERRUPT_PRIORITY ) : "
 219:Firmware/Middlewares/Third_Party/FreeRTOS/Source/portable/GCC/ARM_CM4F/portmacro.h **** 	);
 220:Firmware/Middlewares/Third_Party/FreeRTOS/Source/portable/GCC/ARM_CM4F/portmacro.h **** 
 221:Firmware/Middlewares/Third_Party/FreeRTOS/Source/portable/GCC/ARM_CM4F/portmacro.h **** 	/* This return will not be reached but is necessary to prevent compiler
 222:Firmware/Middlewares/Third_Party/FreeRTOS/Source/portable/GCC/ARM_CM4F/portmacro.h **** 	warnings. */
 223:Firmware/Middlewares/Third_Party/FreeRTOS/Source/portable/GCC/ARM_CM4F/portmacro.h **** 	return ulOriginalBASEPRI;
 224:Firmware/Middlewares/Third_Party/FreeRTOS/Source/portable/GCC/ARM_CM4F/portmacro.h **** }
 225:Firmware/Middlewares/Third_Party/FreeRTOS/Source/portable/GCC/ARM_CM4F/portmacro.h **** /*-----------------------------------------------------------*/
 226:Firmware/Middlewares/Third_Party/FreeRTOS/Source/portable/GCC/ARM_CM4F/portmacro.h **** 
 227:Firmware/Middlewares/Third_Party/FreeRTOS/Source/portable/GCC/ARM_CM4F/portmacro.h **** portFORCE_INLINE static void vPortSetBASEPRI( uint32_t ulNewMaskValue )
 228:Firmware/Middlewares/Third_Party/FreeRTOS/Source/portable/GCC/ARM_CM4F/portmacro.h **** {
 229:Firmware/Middlewares/Third_Party/FreeRTOS/Source/portable/GCC/ARM_CM4F/portmacro.h **** 	__asm volatile
 778              		.loc 2 229 0
 779 0038 3B68     		ldr	r3, [r7]
 780              		.syntax unified
 781              	@ 229 "Firmware/Middlewares/Third_Party/FreeRTOS/Source/portable/GCC/ARM_CM4F/portmacro.h" 1
 782 003a 83F31188 			msr basepri, r3	
 783              	@ 0 "" 2
 784              		.thumb
 785              		.syntax unified
 786              	.L41:
 787              	.LBE51:
 788              	.LBE50:
 425:Firmware/Middlewares/Third_Party/FreeRTOS/Source/portable/GCC/ARM_CM4F/port.c **** 	{
 426:Firmware/Middlewares/Third_Party/FreeRTOS/Source/portable/GCC/ARM_CM4F/port.c **** 		portENABLE_INTERRUPTS();
 427:Firmware/Middlewares/Third_Party/FreeRTOS/Source/portable/GCC/ARM_CM4F/port.c **** 	}
 428:Firmware/Middlewares/Third_Party/FreeRTOS/Source/portable/GCC/ARM_CM4F/port.c **** }
 789              		.loc 1 428 0
 790 003e 00BF     		nop
ARM GAS  /tmp/cce2QzCt.s 			page 26


 791 0040 0C37     		adds	r7, r7, #12
 792              	.LCFI32:
 793              		.cfi_def_cfa_offset 4
 794 0042 BD46     		mov	sp, r7
 795              	.LCFI33:
 796              		.cfi_def_cfa_register 13
 797              		@ sp needed
 798 0044 5DF8047B 		ldr	r7, [sp], #4
 799              	.LCFI34:
 800              		.cfi_restore 7
 801              		.cfi_def_cfa_offset 0
 802 0048 7047     		bx	lr
 803              	.L43:
 804 004a 00BF     		.align	2
 805              	.L42:
 806 004c 00000000 		.word	uxCriticalNesting
 807              		.cfi_endproc
 808              	.LFE11:
 810              		.section	.text.PendSV_Handler,"ax",%progbits
 811              		.align	1
 812              		.global	PendSV_Handler
 813              		.syntax unified
 814              		.thumb
 815              		.thumb_func
 816              		.fpu fpv4-sp-d16
 818              	PendSV_Handler:
 819              	.LFB12:
 429:Firmware/Middlewares/Third_Party/FreeRTOS/Source/portable/GCC/ARM_CM4F/port.c **** /*-----------------------------------------------------------*/
 430:Firmware/Middlewares/Third_Party/FreeRTOS/Source/portable/GCC/ARM_CM4F/port.c **** 
 431:Firmware/Middlewares/Third_Party/FreeRTOS/Source/portable/GCC/ARM_CM4F/port.c **** void xPortPendSVHandler( void )
 432:Firmware/Middlewares/Third_Party/FreeRTOS/Source/portable/GCC/ARM_CM4F/port.c **** {
 820              		.loc 1 432 0
 821              		.cfi_startproc
 822              		@ Naked Function: prologue and epilogue provided by programmer.
 823              		@ args = 0, pretend = 0, frame = 0
 824              		@ frame_needed = 1, uses_anonymous_args = 0
 433:Firmware/Middlewares/Third_Party/FreeRTOS/Source/portable/GCC/ARM_CM4F/port.c **** 	/* This is a naked function. */
 434:Firmware/Middlewares/Third_Party/FreeRTOS/Source/portable/GCC/ARM_CM4F/port.c **** 
 435:Firmware/Middlewares/Third_Party/FreeRTOS/Source/portable/GCC/ARM_CM4F/port.c **** 	__asm volatile
 825              		.loc 1 435 0
 826              		.syntax unified
 827              	@ 435 "Firmware/Middlewares/Third_Party/FreeRTOS/Source/portable/GCC/ARM_CM4F/port.c" 1
 828 0000 EFF30980 			mrs r0, psp							
 829 0004 BFF36F8F 		isb									
 830              											
 831 0008 154B     		ldr	r3, pxCurrentTCBConst			
 832 000a 1A68     		ldr	r2, [r3]						
 833              											
 834 000c 1EF0100F 		tst r14, #0x10						
 835 0010 08BF     		it eq								
 836 0012 20ED108A 		vstmdbeq r0!, {s16-s31}				
 837              											
 838 0016 20E9F04F 		stmdb r0!, {r4-r11, r14}			
 839 001a 1060     		str r0, [r2]						
 840              											
 841 001c 2DE90900 		stmdb sp!, {r0, r3}					
 842 0020 4FF05000 		mov r0, #80 							
ARM GAS  /tmp/cce2QzCt.s 			page 27


 843 0024 80F31188 		msr basepri, r0						
 844 0028 BFF34F8F 		dsb									
 845 002c BFF36F8F 		isb									
 846 0030 FFF7FEFF 		bl vTaskSwitchContext				
 847 0034 4FF00000 		mov r0, #0							
 848 0038 80F31188 		msr basepri, r0						
 849 003c 09BC     		ldmia sp!, {r0, r3}					
 850              											
 851 003e 1968     		ldr r1, [r3]						
 852 0040 0868     		ldr r0, [r1]						
 853              											
 854 0042 B0E8F04F 		ldmia r0!, {r4-r11, r14}			
 855              											
 856 0046 1EF0100F 		tst r14, #0x10						
 857 004a 08BF     		it eq								
 858 004c B0EC108A 		vldmiaeq r0!, {s16-s31}				
 859              											
 860 0050 80F30988 		msr psp, r0							
 861 0054 BFF36F8F 		isb									
 862              											
 863              											
 864 0058 7047     		bx r14								
 865              											
 866 005a 00BFAFF3 		.align 4							
 866      0080
 867 0060 00000000 	pxCurrentTCBConst: .word pxCurrentTCB	
 868              	
 869              	@ 0 "" 2
 436:Firmware/Middlewares/Third_Party/FreeRTOS/Source/portable/GCC/ARM_CM4F/port.c **** 	(
 437:Firmware/Middlewares/Third_Party/FreeRTOS/Source/portable/GCC/ARM_CM4F/port.c **** 	"	mrs r0, psp							\n"
 438:Firmware/Middlewares/Third_Party/FreeRTOS/Source/portable/GCC/ARM_CM4F/port.c **** 	"	isb									\n"
 439:Firmware/Middlewares/Third_Party/FreeRTOS/Source/portable/GCC/ARM_CM4F/port.c **** 	"										\n"
 440:Firmware/Middlewares/Third_Party/FreeRTOS/Source/portable/GCC/ARM_CM4F/port.c **** 	"	ldr	r3, pxCurrentTCBConst			\n" /* Get the location of the current TCB. */
 441:Firmware/Middlewares/Third_Party/FreeRTOS/Source/portable/GCC/ARM_CM4F/port.c **** 	"	ldr	r2, [r3]						\n"
 442:Firmware/Middlewares/Third_Party/FreeRTOS/Source/portable/GCC/ARM_CM4F/port.c **** 	"										\n"
 443:Firmware/Middlewares/Third_Party/FreeRTOS/Source/portable/GCC/ARM_CM4F/port.c **** 	"	tst r14, #0x10						\n" /* Is the task using the FPU context?  If so, push high vfp registers. *
 444:Firmware/Middlewares/Third_Party/FreeRTOS/Source/portable/GCC/ARM_CM4F/port.c **** 	"	it eq								\n"
 445:Firmware/Middlewares/Third_Party/FreeRTOS/Source/portable/GCC/ARM_CM4F/port.c **** 	"	vstmdbeq r0!, {s16-s31}				\n"
 446:Firmware/Middlewares/Third_Party/FreeRTOS/Source/portable/GCC/ARM_CM4F/port.c **** 	"										\n"
 447:Firmware/Middlewares/Third_Party/FreeRTOS/Source/portable/GCC/ARM_CM4F/port.c **** 	"	stmdb r0!, {r4-r11, r14}			\n" /* Save the core registers. */
 448:Firmware/Middlewares/Third_Party/FreeRTOS/Source/portable/GCC/ARM_CM4F/port.c **** 	"	str r0, [r2]						\n" /* Save the new top of stack into the first member of the TCB. */
 449:Firmware/Middlewares/Third_Party/FreeRTOS/Source/portable/GCC/ARM_CM4F/port.c **** 	"										\n"
 450:Firmware/Middlewares/Third_Party/FreeRTOS/Source/portable/GCC/ARM_CM4F/port.c **** 	"	stmdb sp!, {r0, r3}					\n"
 451:Firmware/Middlewares/Third_Party/FreeRTOS/Source/portable/GCC/ARM_CM4F/port.c **** 	"	mov r0, %0 							\n"
 452:Firmware/Middlewares/Third_Party/FreeRTOS/Source/portable/GCC/ARM_CM4F/port.c **** 	"	msr basepri, r0						\n"
 453:Firmware/Middlewares/Third_Party/FreeRTOS/Source/portable/GCC/ARM_CM4F/port.c **** 	"	dsb									\n"
 454:Firmware/Middlewares/Third_Party/FreeRTOS/Source/portable/GCC/ARM_CM4F/port.c **** 	"	isb									\n"
 455:Firmware/Middlewares/Third_Party/FreeRTOS/Source/portable/GCC/ARM_CM4F/port.c **** 	"	bl vTaskSwitchContext				\n"
 456:Firmware/Middlewares/Third_Party/FreeRTOS/Source/portable/GCC/ARM_CM4F/port.c **** 	"	mov r0, #0							\n"
 457:Firmware/Middlewares/Third_Party/FreeRTOS/Source/portable/GCC/ARM_CM4F/port.c **** 	"	msr basepri, r0						\n"
 458:Firmware/Middlewares/Third_Party/FreeRTOS/Source/portable/GCC/ARM_CM4F/port.c **** 	"	ldmia sp!, {r0, r3}					\n"
 459:Firmware/Middlewares/Third_Party/FreeRTOS/Source/portable/GCC/ARM_CM4F/port.c **** 	"										\n"
 460:Firmware/Middlewares/Third_Party/FreeRTOS/Source/portable/GCC/ARM_CM4F/port.c **** 	"	ldr r1, [r3]						\n" /* The first item in pxCurrentTCB is the task top of stack. */
 461:Firmware/Middlewares/Third_Party/FreeRTOS/Source/portable/GCC/ARM_CM4F/port.c **** 	"	ldr r0, [r1]						\n"
 462:Firmware/Middlewares/Third_Party/FreeRTOS/Source/portable/GCC/ARM_CM4F/port.c **** 	"										\n"
 463:Firmware/Middlewares/Third_Party/FreeRTOS/Source/portable/GCC/ARM_CM4F/port.c **** 	"	ldmia r0!, {r4-r11, r14}			\n" /* Pop the core registers. */
 464:Firmware/Middlewares/Third_Party/FreeRTOS/Source/portable/GCC/ARM_CM4F/port.c **** 	"										\n"
ARM GAS  /tmp/cce2QzCt.s 			page 28


 465:Firmware/Middlewares/Third_Party/FreeRTOS/Source/portable/GCC/ARM_CM4F/port.c **** 	"	tst r14, #0x10						\n" /* Is the task using the FPU context?  If so, pop the high vfp registers
 466:Firmware/Middlewares/Third_Party/FreeRTOS/Source/portable/GCC/ARM_CM4F/port.c **** 	"	it eq								\n"
 467:Firmware/Middlewares/Third_Party/FreeRTOS/Source/portable/GCC/ARM_CM4F/port.c **** 	"	vldmiaeq r0!, {s16-s31}				\n"
 468:Firmware/Middlewares/Third_Party/FreeRTOS/Source/portable/GCC/ARM_CM4F/port.c **** 	"										\n"
 469:Firmware/Middlewares/Third_Party/FreeRTOS/Source/portable/GCC/ARM_CM4F/port.c **** 	"	msr psp, r0							\n"
 470:Firmware/Middlewares/Third_Party/FreeRTOS/Source/portable/GCC/ARM_CM4F/port.c **** 	"	isb									\n"
 471:Firmware/Middlewares/Third_Party/FreeRTOS/Source/portable/GCC/ARM_CM4F/port.c **** 	"										\n"
 472:Firmware/Middlewares/Third_Party/FreeRTOS/Source/portable/GCC/ARM_CM4F/port.c **** 	#ifdef WORKAROUND_PMU_CM001 /* XMC4000 specific errata workaround. */
 473:Firmware/Middlewares/Third_Party/FreeRTOS/Source/portable/GCC/ARM_CM4F/port.c **** 		#if WORKAROUND_PMU_CM001 == 1
 474:Firmware/Middlewares/Third_Party/FreeRTOS/Source/portable/GCC/ARM_CM4F/port.c **** 	"			push { r14 }				\n"
 475:Firmware/Middlewares/Third_Party/FreeRTOS/Source/portable/GCC/ARM_CM4F/port.c **** 	"			pop { pc }					\n"
 476:Firmware/Middlewares/Third_Party/FreeRTOS/Source/portable/GCC/ARM_CM4F/port.c **** 		#endif
 477:Firmware/Middlewares/Third_Party/FreeRTOS/Source/portable/GCC/ARM_CM4F/port.c **** 	#endif
 478:Firmware/Middlewares/Third_Party/FreeRTOS/Source/portable/GCC/ARM_CM4F/port.c **** 	"										\n"
 479:Firmware/Middlewares/Third_Party/FreeRTOS/Source/portable/GCC/ARM_CM4F/port.c **** 	"	bx r14								\n"
 480:Firmware/Middlewares/Third_Party/FreeRTOS/Source/portable/GCC/ARM_CM4F/port.c **** 	"										\n"
 481:Firmware/Middlewares/Third_Party/FreeRTOS/Source/portable/GCC/ARM_CM4F/port.c **** 	"	.align 4							\n"
 482:Firmware/Middlewares/Third_Party/FreeRTOS/Source/portable/GCC/ARM_CM4F/port.c **** 	"pxCurrentTCBConst: .word pxCurrentTCB	\n"
 483:Firmware/Middlewares/Third_Party/FreeRTOS/Source/portable/GCC/ARM_CM4F/port.c **** 	::"i"(configMAX_SYSCALL_INTERRUPT_PRIORITY)
 484:Firmware/Middlewares/Third_Party/FreeRTOS/Source/portable/GCC/ARM_CM4F/port.c **** 	);
 485:Firmware/Middlewares/Third_Party/FreeRTOS/Source/portable/GCC/ARM_CM4F/port.c **** }
 870              		.loc 1 485 0
 871              		.thumb
 872              		.syntax unified
 873 0064 00BF     		nop
 874              		.cfi_endproc
 875              	.LFE12:
 877 0066 00BF     		.section	.text.SysTick_Handler,"ax",%progbits
 878              		.align	1
 879              		.global	SysTick_Handler
 880              		.syntax unified
 881              		.thumb
 882              		.thumb_func
 883              		.fpu fpv4-sp-d16
 885              	SysTick_Handler:
 886              	.LFB13:
 486:Firmware/Middlewares/Third_Party/FreeRTOS/Source/portable/GCC/ARM_CM4F/port.c **** /*-----------------------------------------------------------*/
 487:Firmware/Middlewares/Third_Party/FreeRTOS/Source/portable/GCC/ARM_CM4F/port.c **** 
 488:Firmware/Middlewares/Third_Party/FreeRTOS/Source/portable/GCC/ARM_CM4F/port.c **** void xPortSysTickHandler( void )
 489:Firmware/Middlewares/Third_Party/FreeRTOS/Source/portable/GCC/ARM_CM4F/port.c **** {
 887              		.loc 1 489 0
 888              		.cfi_startproc
 889              		@ args = 0, pretend = 0, frame = 8
 890              		@ frame_needed = 1, uses_anonymous_args = 0
 891 0000 80B5     		push	{r7, lr}
 892              	.LCFI35:
 893              		.cfi_def_cfa_offset 8
 894              		.cfi_offset 7, -8
 895              		.cfi_offset 14, -4
 896 0002 82B0     		sub	sp, sp, #8
 897              	.LCFI36:
 898              		.cfi_def_cfa_offset 16
 899 0004 00AF     		add	r7, sp, #0
 900              	.LCFI37:
 901              		.cfi_def_cfa_register 7
 902              	.LBB52:
 903              	.LBB53:
ARM GAS  /tmp/cce2QzCt.s 			page 29


 195:Firmware/Middlewares/Third_Party/FreeRTOS/Source/portable/GCC/ARM_CM4F/portmacro.h **** 	(
 904              		.loc 2 195 0
 905              		.syntax unified
 906              	@ 195 "Firmware/Middlewares/Third_Party/FreeRTOS/Source/portable/GCC/ARM_CM4F/portmacro.h" 1
 907 0006 4FF05003 			mov r3, #80												
 908 000a 83F31188 		msr basepri, r3											
 909 000e BFF36F8F 		isb														
 910 0012 BFF34F8F 		dsb														
 911              	
 912              	@ 0 "" 2
 913              		.thumb
 914              		.syntax unified
 915 0016 7B60     		str	r3, [r7, #4]
 916              	.LBE53:
 917              	.LBE52:
 490:Firmware/Middlewares/Third_Party/FreeRTOS/Source/portable/GCC/ARM_CM4F/port.c **** 	/* The SysTick runs at the lowest interrupt priority, so when this interrupt
 491:Firmware/Middlewares/Third_Party/FreeRTOS/Source/portable/GCC/ARM_CM4F/port.c **** 	executes all interrupts must be unmasked.  There is therefore no need to
 492:Firmware/Middlewares/Third_Party/FreeRTOS/Source/portable/GCC/ARM_CM4F/port.c **** 	save and then restore the interrupt mask value as its value is already
 493:Firmware/Middlewares/Third_Party/FreeRTOS/Source/portable/GCC/ARM_CM4F/port.c **** 	known. */
 494:Firmware/Middlewares/Third_Party/FreeRTOS/Source/portable/GCC/ARM_CM4F/port.c **** 	portDISABLE_INTERRUPTS();
 495:Firmware/Middlewares/Third_Party/FreeRTOS/Source/portable/GCC/ARM_CM4F/port.c **** 	{
 496:Firmware/Middlewares/Third_Party/FreeRTOS/Source/portable/GCC/ARM_CM4F/port.c **** 		/* Increment the RTOS tick. */
 497:Firmware/Middlewares/Third_Party/FreeRTOS/Source/portable/GCC/ARM_CM4F/port.c **** 		if( xTaskIncrementTick() != pdFALSE )
 918              		.loc 1 497 0
 919 0018 FFF7FEFF 		bl	xTaskIncrementTick
 920 001c 0346     		mov	r3, r0
 921 001e 002B     		cmp	r3, #0
 922 0020 03D0     		beq	.L46
 498:Firmware/Middlewares/Third_Party/FreeRTOS/Source/portable/GCC/ARM_CM4F/port.c **** 		{
 499:Firmware/Middlewares/Third_Party/FreeRTOS/Source/portable/GCC/ARM_CM4F/port.c **** 			/* A context switch is required.  Context switching is performed in
 500:Firmware/Middlewares/Third_Party/FreeRTOS/Source/portable/GCC/ARM_CM4F/port.c **** 			the PendSV interrupt.  Pend the PendSV interrupt. */
 501:Firmware/Middlewares/Third_Party/FreeRTOS/Source/portable/GCC/ARM_CM4F/port.c **** 			portNVIC_INT_CTRL_REG = portNVIC_PENDSVSET_BIT;
 923              		.loc 1 501 0
 924 0022 064B     		ldr	r3, .L47
 925 0024 4FF08052 		mov	r2, #268435456
 926 0028 1A60     		str	r2, [r3]
 927              	.L46:
 928 002a 0023     		movs	r3, #0
 929 002c 3B60     		str	r3, [r7]
 930              	.LBB54:
 931              	.LBB55:
 932              		.loc 2 229 0
 933 002e 3B68     		ldr	r3, [r7]
 934              		.syntax unified
 935              	@ 229 "Firmware/Middlewares/Third_Party/FreeRTOS/Source/portable/GCC/ARM_CM4F/portmacro.h" 1
 936 0030 83F31188 			msr basepri, r3	
 937              	@ 0 "" 2
 938              		.thumb
 939              		.syntax unified
 940              	.LBE55:
 941              	.LBE54:
 502:Firmware/Middlewares/Third_Party/FreeRTOS/Source/portable/GCC/ARM_CM4F/port.c **** 		}
 503:Firmware/Middlewares/Third_Party/FreeRTOS/Source/portable/GCC/ARM_CM4F/port.c **** 	}
 504:Firmware/Middlewares/Third_Party/FreeRTOS/Source/portable/GCC/ARM_CM4F/port.c **** 	portENABLE_INTERRUPTS();
 505:Firmware/Middlewares/Third_Party/FreeRTOS/Source/portable/GCC/ARM_CM4F/port.c **** }
 942              		.loc 1 505 0
 943 0034 00BF     		nop
ARM GAS  /tmp/cce2QzCt.s 			page 30


 944 0036 0837     		adds	r7, r7, #8
 945              	.LCFI38:
 946              		.cfi_def_cfa_offset 8
 947 0038 BD46     		mov	sp, r7
 948              	.LCFI39:
 949              		.cfi_def_cfa_register 13
 950              		@ sp needed
 951 003a 80BD     		pop	{r7, pc}
 952              	.L48:
 953              		.align	2
 954              	.L47:
 955 003c 04ED00E0 		.word	-536810236
 956              		.cfi_endproc
 957              	.LFE13:
 959              		.section	.text.vPortSetupTimerInterrupt,"ax",%progbits
 960              		.align	1
 961              		.weak	vPortSetupTimerInterrupt
 962              		.syntax unified
 963              		.thumb
 964              		.thumb_func
 965              		.fpu fpv4-sp-d16
 967              	vPortSetupTimerInterrupt:
 968              	.LFB14:
 506:Firmware/Middlewares/Third_Party/FreeRTOS/Source/portable/GCC/ARM_CM4F/port.c **** /*-----------------------------------------------------------*/
 507:Firmware/Middlewares/Third_Party/FreeRTOS/Source/portable/GCC/ARM_CM4F/port.c **** 
 508:Firmware/Middlewares/Third_Party/FreeRTOS/Source/portable/GCC/ARM_CM4F/port.c **** #if( configUSE_TICKLESS_IDLE == 1 )
 509:Firmware/Middlewares/Third_Party/FreeRTOS/Source/portable/GCC/ARM_CM4F/port.c **** 
 510:Firmware/Middlewares/Third_Party/FreeRTOS/Source/portable/GCC/ARM_CM4F/port.c **** 	__attribute__((weak)) void vPortSuppressTicksAndSleep( TickType_t xExpectedIdleTime )
 511:Firmware/Middlewares/Third_Party/FreeRTOS/Source/portable/GCC/ARM_CM4F/port.c **** 	{
 512:Firmware/Middlewares/Third_Party/FreeRTOS/Source/portable/GCC/ARM_CM4F/port.c **** 	uint32_t ulReloadValue, ulCompleteTickPeriods, ulCompletedSysTickDecrements;
 513:Firmware/Middlewares/Third_Party/FreeRTOS/Source/portable/GCC/ARM_CM4F/port.c **** 	TickType_t xModifiableIdleTime;
 514:Firmware/Middlewares/Third_Party/FreeRTOS/Source/portable/GCC/ARM_CM4F/port.c **** 
 515:Firmware/Middlewares/Third_Party/FreeRTOS/Source/portable/GCC/ARM_CM4F/port.c **** 		/* Make sure the SysTick reload value does not overflow the counter. */
 516:Firmware/Middlewares/Third_Party/FreeRTOS/Source/portable/GCC/ARM_CM4F/port.c **** 		if( xExpectedIdleTime > xMaximumPossibleSuppressedTicks )
 517:Firmware/Middlewares/Third_Party/FreeRTOS/Source/portable/GCC/ARM_CM4F/port.c **** 		{
 518:Firmware/Middlewares/Third_Party/FreeRTOS/Source/portable/GCC/ARM_CM4F/port.c **** 			xExpectedIdleTime = xMaximumPossibleSuppressedTicks;
 519:Firmware/Middlewares/Third_Party/FreeRTOS/Source/portable/GCC/ARM_CM4F/port.c **** 		}
 520:Firmware/Middlewares/Third_Party/FreeRTOS/Source/portable/GCC/ARM_CM4F/port.c **** 
 521:Firmware/Middlewares/Third_Party/FreeRTOS/Source/portable/GCC/ARM_CM4F/port.c **** 		/* Stop the SysTick momentarily.  The time the SysTick is stopped for
 522:Firmware/Middlewares/Third_Party/FreeRTOS/Source/portable/GCC/ARM_CM4F/port.c **** 		is accounted for as best it can be, but using the tickless mode will
 523:Firmware/Middlewares/Third_Party/FreeRTOS/Source/portable/GCC/ARM_CM4F/port.c **** 		inevitably result in some tiny drift of the time maintained by the
 524:Firmware/Middlewares/Third_Party/FreeRTOS/Source/portable/GCC/ARM_CM4F/port.c **** 		kernel with respect to calendar time. */
 525:Firmware/Middlewares/Third_Party/FreeRTOS/Source/portable/GCC/ARM_CM4F/port.c **** 		portNVIC_SYSTICK_CTRL_REG &= ~portNVIC_SYSTICK_ENABLE_BIT;
 526:Firmware/Middlewares/Third_Party/FreeRTOS/Source/portable/GCC/ARM_CM4F/port.c **** 
 527:Firmware/Middlewares/Third_Party/FreeRTOS/Source/portable/GCC/ARM_CM4F/port.c **** 		/* Calculate the reload value required to wait xExpectedIdleTime
 528:Firmware/Middlewares/Third_Party/FreeRTOS/Source/portable/GCC/ARM_CM4F/port.c **** 		tick periods.  -1 is used because this code will execute part way
 529:Firmware/Middlewares/Third_Party/FreeRTOS/Source/portable/GCC/ARM_CM4F/port.c **** 		through one of the tick periods. */
 530:Firmware/Middlewares/Third_Party/FreeRTOS/Source/portable/GCC/ARM_CM4F/port.c **** 		ulReloadValue = portNVIC_SYSTICK_CURRENT_VALUE_REG + ( ulTimerCountsForOneTick * ( xExpectedIdleT
 531:Firmware/Middlewares/Third_Party/FreeRTOS/Source/portable/GCC/ARM_CM4F/port.c **** 		if( ulReloadValue > ulStoppedTimerCompensation )
 532:Firmware/Middlewares/Third_Party/FreeRTOS/Source/portable/GCC/ARM_CM4F/port.c **** 		{
 533:Firmware/Middlewares/Third_Party/FreeRTOS/Source/portable/GCC/ARM_CM4F/port.c **** 			ulReloadValue -= ulStoppedTimerCompensation;
 534:Firmware/Middlewares/Third_Party/FreeRTOS/Source/portable/GCC/ARM_CM4F/port.c **** 		}
 535:Firmware/Middlewares/Third_Party/FreeRTOS/Source/portable/GCC/ARM_CM4F/port.c **** 
 536:Firmware/Middlewares/Third_Party/FreeRTOS/Source/portable/GCC/ARM_CM4F/port.c **** 		/* Enter a critical section but don't use the taskENTER_CRITICAL()
 537:Firmware/Middlewares/Third_Party/FreeRTOS/Source/portable/GCC/ARM_CM4F/port.c **** 		method as that will mask interrupts that should exit sleep mode. */
 538:Firmware/Middlewares/Third_Party/FreeRTOS/Source/portable/GCC/ARM_CM4F/port.c **** 		__asm volatile( "cpsid i" ::: "memory" );
 539:Firmware/Middlewares/Third_Party/FreeRTOS/Source/portable/GCC/ARM_CM4F/port.c **** 		__asm volatile( "dsb" );
ARM GAS  /tmp/cce2QzCt.s 			page 31


 540:Firmware/Middlewares/Third_Party/FreeRTOS/Source/portable/GCC/ARM_CM4F/port.c **** 		__asm volatile( "isb" );
 541:Firmware/Middlewares/Third_Party/FreeRTOS/Source/portable/GCC/ARM_CM4F/port.c **** 
 542:Firmware/Middlewares/Third_Party/FreeRTOS/Source/portable/GCC/ARM_CM4F/port.c **** 		/* If a context switch is pending or a task is waiting for the scheduler
 543:Firmware/Middlewares/Third_Party/FreeRTOS/Source/portable/GCC/ARM_CM4F/port.c **** 		to be unsuspended then abandon the low power entry. */
 544:Firmware/Middlewares/Third_Party/FreeRTOS/Source/portable/GCC/ARM_CM4F/port.c **** 		if( eTaskConfirmSleepModeStatus() == eAbortSleep )
 545:Firmware/Middlewares/Third_Party/FreeRTOS/Source/portable/GCC/ARM_CM4F/port.c **** 		{
 546:Firmware/Middlewares/Third_Party/FreeRTOS/Source/portable/GCC/ARM_CM4F/port.c **** 			/* Restart from whatever is left in the count register to complete
 547:Firmware/Middlewares/Third_Party/FreeRTOS/Source/portable/GCC/ARM_CM4F/port.c **** 			this tick period. */
 548:Firmware/Middlewares/Third_Party/FreeRTOS/Source/portable/GCC/ARM_CM4F/port.c **** 			portNVIC_SYSTICK_LOAD_REG = portNVIC_SYSTICK_CURRENT_VALUE_REG;
 549:Firmware/Middlewares/Third_Party/FreeRTOS/Source/portable/GCC/ARM_CM4F/port.c **** 
 550:Firmware/Middlewares/Third_Party/FreeRTOS/Source/portable/GCC/ARM_CM4F/port.c **** 			/* Restart SysTick. */
 551:Firmware/Middlewares/Third_Party/FreeRTOS/Source/portable/GCC/ARM_CM4F/port.c **** 			portNVIC_SYSTICK_CTRL_REG |= portNVIC_SYSTICK_ENABLE_BIT;
 552:Firmware/Middlewares/Third_Party/FreeRTOS/Source/portable/GCC/ARM_CM4F/port.c **** 
 553:Firmware/Middlewares/Third_Party/FreeRTOS/Source/portable/GCC/ARM_CM4F/port.c **** 			/* Reset the reload register to the value required for normal tick
 554:Firmware/Middlewares/Third_Party/FreeRTOS/Source/portable/GCC/ARM_CM4F/port.c **** 			periods. */
 555:Firmware/Middlewares/Third_Party/FreeRTOS/Source/portable/GCC/ARM_CM4F/port.c **** 			portNVIC_SYSTICK_LOAD_REG = ulTimerCountsForOneTick - 1UL;
 556:Firmware/Middlewares/Third_Party/FreeRTOS/Source/portable/GCC/ARM_CM4F/port.c **** 
 557:Firmware/Middlewares/Third_Party/FreeRTOS/Source/portable/GCC/ARM_CM4F/port.c **** 			/* Re-enable interrupts - see comments above the cpsid instruction()
 558:Firmware/Middlewares/Third_Party/FreeRTOS/Source/portable/GCC/ARM_CM4F/port.c **** 			above. */
 559:Firmware/Middlewares/Third_Party/FreeRTOS/Source/portable/GCC/ARM_CM4F/port.c **** 			__asm volatile( "cpsie i" ::: "memory" );
 560:Firmware/Middlewares/Third_Party/FreeRTOS/Source/portable/GCC/ARM_CM4F/port.c **** 		}
 561:Firmware/Middlewares/Third_Party/FreeRTOS/Source/portable/GCC/ARM_CM4F/port.c **** 		else
 562:Firmware/Middlewares/Third_Party/FreeRTOS/Source/portable/GCC/ARM_CM4F/port.c **** 		{
 563:Firmware/Middlewares/Third_Party/FreeRTOS/Source/portable/GCC/ARM_CM4F/port.c **** 			/* Set the new reload value. */
 564:Firmware/Middlewares/Third_Party/FreeRTOS/Source/portable/GCC/ARM_CM4F/port.c **** 			portNVIC_SYSTICK_LOAD_REG = ulReloadValue;
 565:Firmware/Middlewares/Third_Party/FreeRTOS/Source/portable/GCC/ARM_CM4F/port.c **** 
 566:Firmware/Middlewares/Third_Party/FreeRTOS/Source/portable/GCC/ARM_CM4F/port.c **** 			/* Clear the SysTick count flag and set the count value back to
 567:Firmware/Middlewares/Third_Party/FreeRTOS/Source/portable/GCC/ARM_CM4F/port.c **** 			zero. */
 568:Firmware/Middlewares/Third_Party/FreeRTOS/Source/portable/GCC/ARM_CM4F/port.c **** 			portNVIC_SYSTICK_CURRENT_VALUE_REG = 0UL;
 569:Firmware/Middlewares/Third_Party/FreeRTOS/Source/portable/GCC/ARM_CM4F/port.c **** 
 570:Firmware/Middlewares/Third_Party/FreeRTOS/Source/portable/GCC/ARM_CM4F/port.c **** 			/* Restart SysTick. */
 571:Firmware/Middlewares/Third_Party/FreeRTOS/Source/portable/GCC/ARM_CM4F/port.c **** 			portNVIC_SYSTICK_CTRL_REG |= portNVIC_SYSTICK_ENABLE_BIT;
 572:Firmware/Middlewares/Third_Party/FreeRTOS/Source/portable/GCC/ARM_CM4F/port.c **** 
 573:Firmware/Middlewares/Third_Party/FreeRTOS/Source/portable/GCC/ARM_CM4F/port.c **** 			/* Sleep until something happens.  configPRE_SLEEP_PROCESSING() can
 574:Firmware/Middlewares/Third_Party/FreeRTOS/Source/portable/GCC/ARM_CM4F/port.c **** 			set its parameter to 0 to indicate that its implementation contains
 575:Firmware/Middlewares/Third_Party/FreeRTOS/Source/portable/GCC/ARM_CM4F/port.c **** 			its own wait for interrupt or wait for event instruction, and so wfi
 576:Firmware/Middlewares/Third_Party/FreeRTOS/Source/portable/GCC/ARM_CM4F/port.c **** 			should not be executed again.  However, the original expected idle
 577:Firmware/Middlewares/Third_Party/FreeRTOS/Source/portable/GCC/ARM_CM4F/port.c **** 			time variable must remain unmodified, so a copy is taken. */
 578:Firmware/Middlewares/Third_Party/FreeRTOS/Source/portable/GCC/ARM_CM4F/port.c **** 			xModifiableIdleTime = xExpectedIdleTime;
 579:Firmware/Middlewares/Third_Party/FreeRTOS/Source/portable/GCC/ARM_CM4F/port.c **** 			configPRE_SLEEP_PROCESSING( &xModifiableIdleTime );
 580:Firmware/Middlewares/Third_Party/FreeRTOS/Source/portable/GCC/ARM_CM4F/port.c **** 			if( xModifiableIdleTime > 0 )
 581:Firmware/Middlewares/Third_Party/FreeRTOS/Source/portable/GCC/ARM_CM4F/port.c **** 			{
 582:Firmware/Middlewares/Third_Party/FreeRTOS/Source/portable/GCC/ARM_CM4F/port.c **** 				__asm volatile( "dsb" ::: "memory" );
 583:Firmware/Middlewares/Third_Party/FreeRTOS/Source/portable/GCC/ARM_CM4F/port.c **** 				__asm volatile( "wfi" );
 584:Firmware/Middlewares/Third_Party/FreeRTOS/Source/portable/GCC/ARM_CM4F/port.c **** 				__asm volatile( "isb" );
 585:Firmware/Middlewares/Third_Party/FreeRTOS/Source/portable/GCC/ARM_CM4F/port.c **** 			}
 586:Firmware/Middlewares/Third_Party/FreeRTOS/Source/portable/GCC/ARM_CM4F/port.c **** 			configPOST_SLEEP_PROCESSING( &xExpectedIdleTime );
 587:Firmware/Middlewares/Third_Party/FreeRTOS/Source/portable/GCC/ARM_CM4F/port.c **** 
 588:Firmware/Middlewares/Third_Party/FreeRTOS/Source/portable/GCC/ARM_CM4F/port.c **** 			/* Re-enable interrupts to allow the interrupt that brought the MCU
 589:Firmware/Middlewares/Third_Party/FreeRTOS/Source/portable/GCC/ARM_CM4F/port.c **** 			out of sleep mode to execute immediately.  see comments above
 590:Firmware/Middlewares/Third_Party/FreeRTOS/Source/portable/GCC/ARM_CM4F/port.c **** 			__disable_interrupt() call above. */
 591:Firmware/Middlewares/Third_Party/FreeRTOS/Source/portable/GCC/ARM_CM4F/port.c **** 			__asm volatile( "cpsie i" ::: "memory" );
 592:Firmware/Middlewares/Third_Party/FreeRTOS/Source/portable/GCC/ARM_CM4F/port.c **** 			__asm volatile( "dsb" );
 593:Firmware/Middlewares/Third_Party/FreeRTOS/Source/portable/GCC/ARM_CM4F/port.c **** 			__asm volatile( "isb" );
 594:Firmware/Middlewares/Third_Party/FreeRTOS/Source/portable/GCC/ARM_CM4F/port.c **** 
 595:Firmware/Middlewares/Third_Party/FreeRTOS/Source/portable/GCC/ARM_CM4F/port.c **** 			/* Disable interrupts again because the clock is about to be stopped
 596:Firmware/Middlewares/Third_Party/FreeRTOS/Source/portable/GCC/ARM_CM4F/port.c **** 			and interrupts that execute while the clock is stopped will increase
ARM GAS  /tmp/cce2QzCt.s 			page 32


 597:Firmware/Middlewares/Third_Party/FreeRTOS/Source/portable/GCC/ARM_CM4F/port.c **** 			any slippage between the time maintained by the RTOS and calendar
 598:Firmware/Middlewares/Third_Party/FreeRTOS/Source/portable/GCC/ARM_CM4F/port.c **** 			time. */
 599:Firmware/Middlewares/Third_Party/FreeRTOS/Source/portable/GCC/ARM_CM4F/port.c **** 			__asm volatile( "cpsid i" ::: "memory" );
 600:Firmware/Middlewares/Third_Party/FreeRTOS/Source/portable/GCC/ARM_CM4F/port.c **** 			__asm volatile( "dsb" );
 601:Firmware/Middlewares/Third_Party/FreeRTOS/Source/portable/GCC/ARM_CM4F/port.c **** 			__asm volatile( "isb" );
 602:Firmware/Middlewares/Third_Party/FreeRTOS/Source/portable/GCC/ARM_CM4F/port.c **** 
 603:Firmware/Middlewares/Third_Party/FreeRTOS/Source/portable/GCC/ARM_CM4F/port.c **** 			/* Disable the SysTick clock without reading the
 604:Firmware/Middlewares/Third_Party/FreeRTOS/Source/portable/GCC/ARM_CM4F/port.c **** 			portNVIC_SYSTICK_CTRL_REG register to ensure the
 605:Firmware/Middlewares/Third_Party/FreeRTOS/Source/portable/GCC/ARM_CM4F/port.c **** 			portNVIC_SYSTICK_COUNT_FLAG_BIT is not cleared if it is set.  Again,
 606:Firmware/Middlewares/Third_Party/FreeRTOS/Source/portable/GCC/ARM_CM4F/port.c **** 			the time the SysTick is stopped for is accounted for as best it can
 607:Firmware/Middlewares/Third_Party/FreeRTOS/Source/portable/GCC/ARM_CM4F/port.c **** 			be, but using the tickless mode will inevitably result in some tiny
 608:Firmware/Middlewares/Third_Party/FreeRTOS/Source/portable/GCC/ARM_CM4F/port.c **** 			drift of the time maintained by the kernel with respect to calendar
 609:Firmware/Middlewares/Third_Party/FreeRTOS/Source/portable/GCC/ARM_CM4F/port.c **** 			time*/
 610:Firmware/Middlewares/Third_Party/FreeRTOS/Source/portable/GCC/ARM_CM4F/port.c **** 			portNVIC_SYSTICK_CTRL_REG = ( portNVIC_SYSTICK_CLK_BIT | portNVIC_SYSTICK_INT_BIT );
 611:Firmware/Middlewares/Third_Party/FreeRTOS/Source/portable/GCC/ARM_CM4F/port.c **** 
 612:Firmware/Middlewares/Third_Party/FreeRTOS/Source/portable/GCC/ARM_CM4F/port.c **** 			/* Determine if the SysTick clock has already counted to zero and
 613:Firmware/Middlewares/Third_Party/FreeRTOS/Source/portable/GCC/ARM_CM4F/port.c **** 			been set back to the current reload value (the reload back being
 614:Firmware/Middlewares/Third_Party/FreeRTOS/Source/portable/GCC/ARM_CM4F/port.c **** 			correct for the entire expected idle time) or if the SysTick is yet
 615:Firmware/Middlewares/Third_Party/FreeRTOS/Source/portable/GCC/ARM_CM4F/port.c **** 			to count to zero (in which case an interrupt other than the SysTick
 616:Firmware/Middlewares/Third_Party/FreeRTOS/Source/portable/GCC/ARM_CM4F/port.c **** 			must have brought the system out of sleep mode). */
 617:Firmware/Middlewares/Third_Party/FreeRTOS/Source/portable/GCC/ARM_CM4F/port.c **** 			if( ( portNVIC_SYSTICK_CTRL_REG & portNVIC_SYSTICK_COUNT_FLAG_BIT ) != 0 )
 618:Firmware/Middlewares/Third_Party/FreeRTOS/Source/portable/GCC/ARM_CM4F/port.c **** 			{
 619:Firmware/Middlewares/Third_Party/FreeRTOS/Source/portable/GCC/ARM_CM4F/port.c **** 				uint32_t ulCalculatedLoadValue;
 620:Firmware/Middlewares/Third_Party/FreeRTOS/Source/portable/GCC/ARM_CM4F/port.c **** 
 621:Firmware/Middlewares/Third_Party/FreeRTOS/Source/portable/GCC/ARM_CM4F/port.c **** 				/* The tick interrupt is already pending, and the SysTick count
 622:Firmware/Middlewares/Third_Party/FreeRTOS/Source/portable/GCC/ARM_CM4F/port.c **** 				reloaded with ulReloadValue.  Reset the
 623:Firmware/Middlewares/Third_Party/FreeRTOS/Source/portable/GCC/ARM_CM4F/port.c **** 				portNVIC_SYSTICK_LOAD_REG with whatever remains of this tick
 624:Firmware/Middlewares/Third_Party/FreeRTOS/Source/portable/GCC/ARM_CM4F/port.c **** 				period. */
 625:Firmware/Middlewares/Third_Party/FreeRTOS/Source/portable/GCC/ARM_CM4F/port.c **** 				ulCalculatedLoadValue = ( ulTimerCountsForOneTick - 1UL ) - ( ulReloadValue - portNVIC_SYSTICK_
 626:Firmware/Middlewares/Third_Party/FreeRTOS/Source/portable/GCC/ARM_CM4F/port.c **** 
 627:Firmware/Middlewares/Third_Party/FreeRTOS/Source/portable/GCC/ARM_CM4F/port.c **** 				/* Don't allow a tiny value, or values that have somehow
 628:Firmware/Middlewares/Third_Party/FreeRTOS/Source/portable/GCC/ARM_CM4F/port.c **** 				underflowed because the post sleep hook did something
 629:Firmware/Middlewares/Third_Party/FreeRTOS/Source/portable/GCC/ARM_CM4F/port.c **** 				that took too long. */
 630:Firmware/Middlewares/Third_Party/FreeRTOS/Source/portable/GCC/ARM_CM4F/port.c **** 				if( ( ulCalculatedLoadValue < ulStoppedTimerCompensation ) || ( ulCalculatedLoadValue > ulTimer
 631:Firmware/Middlewares/Third_Party/FreeRTOS/Source/portable/GCC/ARM_CM4F/port.c **** 				{
 632:Firmware/Middlewares/Third_Party/FreeRTOS/Source/portable/GCC/ARM_CM4F/port.c **** 					ulCalculatedLoadValue = ( ulTimerCountsForOneTick - 1UL );
 633:Firmware/Middlewares/Third_Party/FreeRTOS/Source/portable/GCC/ARM_CM4F/port.c **** 				}
 634:Firmware/Middlewares/Third_Party/FreeRTOS/Source/portable/GCC/ARM_CM4F/port.c **** 
 635:Firmware/Middlewares/Third_Party/FreeRTOS/Source/portable/GCC/ARM_CM4F/port.c **** 				portNVIC_SYSTICK_LOAD_REG = ulCalculatedLoadValue;
 636:Firmware/Middlewares/Third_Party/FreeRTOS/Source/portable/GCC/ARM_CM4F/port.c **** 
 637:Firmware/Middlewares/Third_Party/FreeRTOS/Source/portable/GCC/ARM_CM4F/port.c **** 				/* As the pending tick will be processed as soon as this
 638:Firmware/Middlewares/Third_Party/FreeRTOS/Source/portable/GCC/ARM_CM4F/port.c **** 				function exits, the tick value maintained by the tick is stepped
 639:Firmware/Middlewares/Third_Party/FreeRTOS/Source/portable/GCC/ARM_CM4F/port.c **** 				forward by one less than the time spent waiting. */
 640:Firmware/Middlewares/Third_Party/FreeRTOS/Source/portable/GCC/ARM_CM4F/port.c **** 				ulCompleteTickPeriods = xExpectedIdleTime - 1UL;
 641:Firmware/Middlewares/Third_Party/FreeRTOS/Source/portable/GCC/ARM_CM4F/port.c **** 			}
 642:Firmware/Middlewares/Third_Party/FreeRTOS/Source/portable/GCC/ARM_CM4F/port.c **** 			else
 643:Firmware/Middlewares/Third_Party/FreeRTOS/Source/portable/GCC/ARM_CM4F/port.c **** 			{
 644:Firmware/Middlewares/Third_Party/FreeRTOS/Source/portable/GCC/ARM_CM4F/port.c **** 				/* Something other than the tick interrupt ended the sleep.
 645:Firmware/Middlewares/Third_Party/FreeRTOS/Source/portable/GCC/ARM_CM4F/port.c **** 				Work out how long the sleep lasted rounded to complete tick
 646:Firmware/Middlewares/Third_Party/FreeRTOS/Source/portable/GCC/ARM_CM4F/port.c **** 				periods (not the ulReload value which accounted for part
 647:Firmware/Middlewares/Third_Party/FreeRTOS/Source/portable/GCC/ARM_CM4F/port.c **** 				ticks). */
 648:Firmware/Middlewares/Third_Party/FreeRTOS/Source/portable/GCC/ARM_CM4F/port.c **** 				ulCompletedSysTickDecrements = ( xExpectedIdleTime * ulTimerCountsForOneTick ) - portNVIC_SYSTI
 649:Firmware/Middlewares/Third_Party/FreeRTOS/Source/portable/GCC/ARM_CM4F/port.c **** 
 650:Firmware/Middlewares/Third_Party/FreeRTOS/Source/portable/GCC/ARM_CM4F/port.c **** 				/* How many complete tick periods passed while the processor
 651:Firmware/Middlewares/Third_Party/FreeRTOS/Source/portable/GCC/ARM_CM4F/port.c **** 				was waiting? */
 652:Firmware/Middlewares/Third_Party/FreeRTOS/Source/portable/GCC/ARM_CM4F/port.c **** 				ulCompleteTickPeriods = ulCompletedSysTickDecrements / ulTimerCountsForOneTick;
 653:Firmware/Middlewares/Third_Party/FreeRTOS/Source/portable/GCC/ARM_CM4F/port.c **** 
ARM GAS  /tmp/cce2QzCt.s 			page 33


 654:Firmware/Middlewares/Third_Party/FreeRTOS/Source/portable/GCC/ARM_CM4F/port.c **** 				/* The reload value is set to whatever fraction of a single tick
 655:Firmware/Middlewares/Third_Party/FreeRTOS/Source/portable/GCC/ARM_CM4F/port.c **** 				period remains. */
 656:Firmware/Middlewares/Third_Party/FreeRTOS/Source/portable/GCC/ARM_CM4F/port.c **** 				portNVIC_SYSTICK_LOAD_REG = ( ( ulCompleteTickPeriods + 1UL ) * ulTimerCountsForOneTick ) - ulC
 657:Firmware/Middlewares/Third_Party/FreeRTOS/Source/portable/GCC/ARM_CM4F/port.c **** 			}
 658:Firmware/Middlewares/Third_Party/FreeRTOS/Source/portable/GCC/ARM_CM4F/port.c **** 
 659:Firmware/Middlewares/Third_Party/FreeRTOS/Source/portable/GCC/ARM_CM4F/port.c **** 			/* Restart SysTick so it runs from portNVIC_SYSTICK_LOAD_REG
 660:Firmware/Middlewares/Third_Party/FreeRTOS/Source/portable/GCC/ARM_CM4F/port.c **** 			again, then set portNVIC_SYSTICK_LOAD_REG back to its standard
 661:Firmware/Middlewares/Third_Party/FreeRTOS/Source/portable/GCC/ARM_CM4F/port.c **** 			value. */
 662:Firmware/Middlewares/Third_Party/FreeRTOS/Source/portable/GCC/ARM_CM4F/port.c **** 			portNVIC_SYSTICK_CURRENT_VALUE_REG = 0UL;
 663:Firmware/Middlewares/Third_Party/FreeRTOS/Source/portable/GCC/ARM_CM4F/port.c **** 			portNVIC_SYSTICK_CTRL_REG |= portNVIC_SYSTICK_ENABLE_BIT;
 664:Firmware/Middlewares/Third_Party/FreeRTOS/Source/portable/GCC/ARM_CM4F/port.c **** 			vTaskStepTick( ulCompleteTickPeriods );
 665:Firmware/Middlewares/Third_Party/FreeRTOS/Source/portable/GCC/ARM_CM4F/port.c **** 			portNVIC_SYSTICK_LOAD_REG = ulTimerCountsForOneTick - 1UL;
 666:Firmware/Middlewares/Third_Party/FreeRTOS/Source/portable/GCC/ARM_CM4F/port.c **** 
 667:Firmware/Middlewares/Third_Party/FreeRTOS/Source/portable/GCC/ARM_CM4F/port.c **** 			/* Exit with interrpts enabled. */
 668:Firmware/Middlewares/Third_Party/FreeRTOS/Source/portable/GCC/ARM_CM4F/port.c **** 			__asm volatile( "cpsie i" ::: "memory" );
 669:Firmware/Middlewares/Third_Party/FreeRTOS/Source/portable/GCC/ARM_CM4F/port.c **** 		}
 670:Firmware/Middlewares/Third_Party/FreeRTOS/Source/portable/GCC/ARM_CM4F/port.c **** 	}
 671:Firmware/Middlewares/Third_Party/FreeRTOS/Source/portable/GCC/ARM_CM4F/port.c **** 
 672:Firmware/Middlewares/Third_Party/FreeRTOS/Source/portable/GCC/ARM_CM4F/port.c **** #endif /* #if configUSE_TICKLESS_IDLE */
 673:Firmware/Middlewares/Third_Party/FreeRTOS/Source/portable/GCC/ARM_CM4F/port.c **** /*-----------------------------------------------------------*/
 674:Firmware/Middlewares/Third_Party/FreeRTOS/Source/portable/GCC/ARM_CM4F/port.c **** 
 675:Firmware/Middlewares/Third_Party/FreeRTOS/Source/portable/GCC/ARM_CM4F/port.c **** /*
 676:Firmware/Middlewares/Third_Party/FreeRTOS/Source/portable/GCC/ARM_CM4F/port.c ****  * Setup the systick timer to generate the tick interrupts at the required
 677:Firmware/Middlewares/Third_Party/FreeRTOS/Source/portable/GCC/ARM_CM4F/port.c ****  * frequency.
 678:Firmware/Middlewares/Third_Party/FreeRTOS/Source/portable/GCC/ARM_CM4F/port.c ****  */
 679:Firmware/Middlewares/Third_Party/FreeRTOS/Source/portable/GCC/ARM_CM4F/port.c **** __attribute__(( weak )) void vPortSetupTimerInterrupt( void )
 680:Firmware/Middlewares/Third_Party/FreeRTOS/Source/portable/GCC/ARM_CM4F/port.c **** {
 969              		.loc 1 680 0
 970              		.cfi_startproc
 971              		@ args = 0, pretend = 0, frame = 0
 972              		@ frame_needed = 1, uses_anonymous_args = 0
 973              		@ link register save eliminated.
 974 0000 80B4     		push	{r7}
 975              	.LCFI40:
 976              		.cfi_def_cfa_offset 4
 977              		.cfi_offset 7, -4
 978 0002 00AF     		add	r7, sp, #0
 979              	.LCFI41:
 980              		.cfi_def_cfa_register 7
 681:Firmware/Middlewares/Third_Party/FreeRTOS/Source/portable/GCC/ARM_CM4F/port.c **** 	/* Calculate the constants required to configure the tick interrupt. */
 682:Firmware/Middlewares/Third_Party/FreeRTOS/Source/portable/GCC/ARM_CM4F/port.c **** 	#if( configUSE_TICKLESS_IDLE == 1 )
 683:Firmware/Middlewares/Third_Party/FreeRTOS/Source/portable/GCC/ARM_CM4F/port.c **** 	{
 684:Firmware/Middlewares/Third_Party/FreeRTOS/Source/portable/GCC/ARM_CM4F/port.c **** 		ulTimerCountsForOneTick = ( configSYSTICK_CLOCK_HZ / configTICK_RATE_HZ );
 685:Firmware/Middlewares/Third_Party/FreeRTOS/Source/portable/GCC/ARM_CM4F/port.c **** 		xMaximumPossibleSuppressedTicks = portMAX_24_BIT_NUMBER / ulTimerCountsForOneTick;
 686:Firmware/Middlewares/Third_Party/FreeRTOS/Source/portable/GCC/ARM_CM4F/port.c **** 		ulStoppedTimerCompensation = portMISSED_COUNTS_FACTOR / ( configCPU_CLOCK_HZ / configSYSTICK_CLOC
 687:Firmware/Middlewares/Third_Party/FreeRTOS/Source/portable/GCC/ARM_CM4F/port.c **** 	}
 688:Firmware/Middlewares/Third_Party/FreeRTOS/Source/portable/GCC/ARM_CM4F/port.c **** 	#endif /* configUSE_TICKLESS_IDLE */
 689:Firmware/Middlewares/Third_Party/FreeRTOS/Source/portable/GCC/ARM_CM4F/port.c **** 
 690:Firmware/Middlewares/Third_Party/FreeRTOS/Source/portable/GCC/ARM_CM4F/port.c **** 	/* Stop and clear the SysTick. */
 691:Firmware/Middlewares/Third_Party/FreeRTOS/Source/portable/GCC/ARM_CM4F/port.c **** 	portNVIC_SYSTICK_CTRL_REG = 0UL;
 981              		.loc 1 691 0
 982 0004 0B4B     		ldr	r3, .L50
 983 0006 0022     		movs	r2, #0
 984 0008 1A60     		str	r2, [r3]
 692:Firmware/Middlewares/Third_Party/FreeRTOS/Source/portable/GCC/ARM_CM4F/port.c **** 	portNVIC_SYSTICK_CURRENT_VALUE_REG = 0UL;
 985              		.loc 1 692 0
 986 000a 0B4B     		ldr	r3, .L50+4
ARM GAS  /tmp/cce2QzCt.s 			page 34


 987 000c 0022     		movs	r2, #0
 988 000e 1A60     		str	r2, [r3]
 693:Firmware/Middlewares/Third_Party/FreeRTOS/Source/portable/GCC/ARM_CM4F/port.c **** 
 694:Firmware/Middlewares/Third_Party/FreeRTOS/Source/portable/GCC/ARM_CM4F/port.c **** 	/* Configure SysTick to interrupt at the requested rate. */
 695:Firmware/Middlewares/Third_Party/FreeRTOS/Source/portable/GCC/ARM_CM4F/port.c **** 	portNVIC_SYSTICK_LOAD_REG = ( configSYSTICK_CLOCK_HZ / configTICK_RATE_HZ ) - 1UL;
 989              		.loc 1 695 0
 990 0010 0A4B     		ldr	r3, .L50+8
 991 0012 1B68     		ldr	r3, [r3]
 992 0014 0A4A     		ldr	r2, .L50+12
 993 0016 A2FB0323 		umull	r2, r3, r2, r3
 994 001a 9B09     		lsrs	r3, r3, #6
 995 001c 094A     		ldr	r2, .L50+16
 996 001e 013B     		subs	r3, r3, #1
 997 0020 1360     		str	r3, [r2]
 696:Firmware/Middlewares/Third_Party/FreeRTOS/Source/portable/GCC/ARM_CM4F/port.c **** 	portNVIC_SYSTICK_CTRL_REG = ( portNVIC_SYSTICK_CLK_BIT | portNVIC_SYSTICK_INT_BIT | portNVIC_SYSTI
 998              		.loc 1 696 0
 999 0022 044B     		ldr	r3, .L50
 1000 0024 0722     		movs	r2, #7
 1001 0026 1A60     		str	r2, [r3]
 697:Firmware/Middlewares/Third_Party/FreeRTOS/Source/portable/GCC/ARM_CM4F/port.c **** }
 1002              		.loc 1 697 0
 1003 0028 00BF     		nop
 1004 002a BD46     		mov	sp, r7
 1005              	.LCFI42:
 1006              		.cfi_def_cfa_register 13
 1007              		@ sp needed
 1008 002c 5DF8047B 		ldr	r7, [sp], #4
 1009              	.LCFI43:
 1010              		.cfi_restore 7
 1011              		.cfi_def_cfa_offset 0
 1012 0030 7047     		bx	lr
 1013              	.L51:
 1014 0032 00BF     		.align	2
 1015              	.L50:
 1016 0034 10E000E0 		.word	-536813552
 1017 0038 18E000E0 		.word	-536813544
 1018 003c 00000000 		.word	SystemCoreClock
 1019 0040 D34D6210 		.word	274877907
 1020 0044 14E000E0 		.word	-536813548
 1021              		.cfi_endproc
 1022              	.LFE14:
 1024              		.section	.text.vPortEnableVFP,"ax",%progbits
 1025              		.align	1
 1026              		.syntax unified
 1027              		.thumb
 1028              		.thumb_func
 1029              		.fpu fpv4-sp-d16
 1031              	vPortEnableVFP:
 1032              	.LFB15:
 698:Firmware/Middlewares/Third_Party/FreeRTOS/Source/portable/GCC/ARM_CM4F/port.c **** /*-----------------------------------------------------------*/
 699:Firmware/Middlewares/Third_Party/FreeRTOS/Source/portable/GCC/ARM_CM4F/port.c **** 
 700:Firmware/Middlewares/Third_Party/FreeRTOS/Source/portable/GCC/ARM_CM4F/port.c **** /* This is a naked function. */
 701:Firmware/Middlewares/Third_Party/FreeRTOS/Source/portable/GCC/ARM_CM4F/port.c **** static void vPortEnableVFP( void )
 702:Firmware/Middlewares/Third_Party/FreeRTOS/Source/portable/GCC/ARM_CM4F/port.c **** {
 1033              		.loc 1 702 0
 1034              		.cfi_startproc
 1035              		@ Naked Function: prologue and epilogue provided by programmer.
ARM GAS  /tmp/cce2QzCt.s 			page 35


 1036              		@ args = 0, pretend = 0, frame = 0
 1037              		@ frame_needed = 1, uses_anonymous_args = 0
 703:Firmware/Middlewares/Third_Party/FreeRTOS/Source/portable/GCC/ARM_CM4F/port.c **** 	__asm volatile
 1038              		.loc 1 703 0
 1039              		.syntax unified
 1040              	@ 703 "Firmware/Middlewares/Third_Party/FreeRTOS/Source/portable/GCC/ARM_CM4F/port.c" 1
 1041 0000 DFF80C00 			ldr.w r0, =0xE000ED88		
 1042 0004 0168     		ldr r1, [r0]				
 1043              									
 1044 0006 41F47001 		orr r1, r1, #( 0xf << 20 )	
 1045 000a 0160     		str r1, [r0]				
 1046 000c 7047     		bx r14						
 1047              	@ 0 "" 2
 704:Firmware/Middlewares/Third_Party/FreeRTOS/Source/portable/GCC/ARM_CM4F/port.c **** 	(
 705:Firmware/Middlewares/Third_Party/FreeRTOS/Source/portable/GCC/ARM_CM4F/port.c **** 		"	ldr.w r0, =0xE000ED88		\n" /* The FPU enable bits are in the CPACR. */
 706:Firmware/Middlewares/Third_Party/FreeRTOS/Source/portable/GCC/ARM_CM4F/port.c **** 		"	ldr r1, [r0]				\n"
 707:Firmware/Middlewares/Third_Party/FreeRTOS/Source/portable/GCC/ARM_CM4F/port.c **** 		"								\n"
 708:Firmware/Middlewares/Third_Party/FreeRTOS/Source/portable/GCC/ARM_CM4F/port.c **** 		"	orr r1, r1, #( 0xf << 20 )	\n" /* Enable CP10 and CP11 coprocessors, then save back. */
 709:Firmware/Middlewares/Third_Party/FreeRTOS/Source/portable/GCC/ARM_CM4F/port.c **** 		"	str r1, [r0]				\n"
 710:Firmware/Middlewares/Third_Party/FreeRTOS/Source/portable/GCC/ARM_CM4F/port.c **** 		"	bx r14						"
 711:Firmware/Middlewares/Third_Party/FreeRTOS/Source/portable/GCC/ARM_CM4F/port.c **** 	);
 712:Firmware/Middlewares/Third_Party/FreeRTOS/Source/portable/GCC/ARM_CM4F/port.c **** }
 1048              		.loc 1 712 0
 1049              		.thumb
 1050              		.syntax unified
 1051 000e 00BF     		nop
 1052              		.cfi_endproc
 1053              	.LFE15:
 1055              		.section	.text.vPortValidateInterruptPriority,"ax",%progbits
 1056              		.align	1
 1057              		.global	vPortValidateInterruptPriority
 1058              		.syntax unified
 1059              		.thumb
 1060              		.thumb_func
 1061              		.fpu fpv4-sp-d16
 1063              	vPortValidateInterruptPriority:
 1064              	.LFB16:
 713:Firmware/Middlewares/Third_Party/FreeRTOS/Source/portable/GCC/ARM_CM4F/port.c **** /*-----------------------------------------------------------*/
 714:Firmware/Middlewares/Third_Party/FreeRTOS/Source/portable/GCC/ARM_CM4F/port.c **** 
 715:Firmware/Middlewares/Third_Party/FreeRTOS/Source/portable/GCC/ARM_CM4F/port.c **** #if( configASSERT_DEFINED == 1 )
 716:Firmware/Middlewares/Third_Party/FreeRTOS/Source/portable/GCC/ARM_CM4F/port.c **** 
 717:Firmware/Middlewares/Third_Party/FreeRTOS/Source/portable/GCC/ARM_CM4F/port.c **** 	void vPortValidateInterruptPriority( void )
 718:Firmware/Middlewares/Third_Party/FreeRTOS/Source/portable/GCC/ARM_CM4F/port.c **** 	{
 1065              		.loc 1 718 0
 1066              		.cfi_startproc
 1067              		@ args = 0, pretend = 0, frame = 16
 1068              		@ frame_needed = 1, uses_anonymous_args = 0
 1069              		@ link register save eliminated.
 1070 0000 80B4     		push	{r7}
 1071              	.LCFI44:
 1072              		.cfi_def_cfa_offset 4
 1073              		.cfi_offset 7, -4
 1074 0002 85B0     		sub	sp, sp, #20
 1075              	.LCFI45:
 1076              		.cfi_def_cfa_offset 24
 1077 0004 00AF     		add	r7, sp, #0
 1078              	.LCFI46:
ARM GAS  /tmp/cce2QzCt.s 			page 36


 1079              		.cfi_def_cfa_register 7
 719:Firmware/Middlewares/Third_Party/FreeRTOS/Source/portable/GCC/ARM_CM4F/port.c **** 	uint32_t ulCurrentInterrupt;
 720:Firmware/Middlewares/Third_Party/FreeRTOS/Source/portable/GCC/ARM_CM4F/port.c **** 	uint8_t ucCurrentPriority;
 721:Firmware/Middlewares/Third_Party/FreeRTOS/Source/portable/GCC/ARM_CM4F/port.c **** 
 722:Firmware/Middlewares/Third_Party/FreeRTOS/Source/portable/GCC/ARM_CM4F/port.c **** 		/* Obtain the number of the currently executing interrupt. */
 723:Firmware/Middlewares/Third_Party/FreeRTOS/Source/portable/GCC/ARM_CM4F/port.c **** 		__asm volatile( "mrs %0, ipsr" : "=r"( ulCurrentInterrupt ) :: "memory" );
 1080              		.loc 1 723 0
 1081              		.syntax unified
 1082              	@ 723 "Firmware/Middlewares/Third_Party/FreeRTOS/Source/portable/GCC/ARM_CM4F/port.c" 1
 1083 0006 EFF30583 		mrs r3, ipsr
 1084              	@ 0 "" 2
 1085              		.thumb
 1086              		.syntax unified
 1087 000a FB60     		str	r3, [r7, #12]
 724:Firmware/Middlewares/Third_Party/FreeRTOS/Source/portable/GCC/ARM_CM4F/port.c **** 
 725:Firmware/Middlewares/Third_Party/FreeRTOS/Source/portable/GCC/ARM_CM4F/port.c **** 		/* Is the interrupt number a user defined interrupt? */
 726:Firmware/Middlewares/Third_Party/FreeRTOS/Source/portable/GCC/ARM_CM4F/port.c **** 		if( ulCurrentInterrupt >= portFIRST_USER_INTERRUPT_NUMBER )
 1088              		.loc 1 726 0
 1089 000c FB68     		ldr	r3, [r7, #12]
 1090 000e 0F2B     		cmp	r3, #15
 1091 0010 13D9     		bls	.L54
 727:Firmware/Middlewares/Third_Party/FreeRTOS/Source/portable/GCC/ARM_CM4F/port.c **** 		{
 728:Firmware/Middlewares/Third_Party/FreeRTOS/Source/portable/GCC/ARM_CM4F/port.c **** 			/* Look up the interrupt's priority. */
 729:Firmware/Middlewares/Third_Party/FreeRTOS/Source/portable/GCC/ARM_CM4F/port.c **** 			ucCurrentPriority = pcInterruptPriorityRegisters[ ulCurrentInterrupt ];
 1092              		.loc 1 729 0
 1093 0012 164A     		ldr	r2, .L59
 1094 0014 FB68     		ldr	r3, [r7, #12]
 1095 0016 1344     		add	r3, r3, r2
 1096 0018 1B78     		ldrb	r3, [r3]
 1097 001a FB72     		strb	r3, [r7, #11]
 730:Firmware/Middlewares/Third_Party/FreeRTOS/Source/portable/GCC/ARM_CM4F/port.c **** 
 731:Firmware/Middlewares/Third_Party/FreeRTOS/Source/portable/GCC/ARM_CM4F/port.c **** 			/* The following assertion will fail if a service routine (ISR) for
 732:Firmware/Middlewares/Third_Party/FreeRTOS/Source/portable/GCC/ARM_CM4F/port.c **** 			an interrupt that has been assigned a priority above
 733:Firmware/Middlewares/Third_Party/FreeRTOS/Source/portable/GCC/ARM_CM4F/port.c **** 			configMAX_SYSCALL_INTERRUPT_PRIORITY calls an ISR safe FreeRTOS API
 734:Firmware/Middlewares/Third_Party/FreeRTOS/Source/portable/GCC/ARM_CM4F/port.c **** 			function.  ISR safe FreeRTOS API functions must *only* be called
 735:Firmware/Middlewares/Third_Party/FreeRTOS/Source/portable/GCC/ARM_CM4F/port.c **** 			from interrupts that have been assigned a priority at or below
 736:Firmware/Middlewares/Third_Party/FreeRTOS/Source/portable/GCC/ARM_CM4F/port.c **** 			configMAX_SYSCALL_INTERRUPT_PRIORITY.
 737:Firmware/Middlewares/Third_Party/FreeRTOS/Source/portable/GCC/ARM_CM4F/port.c **** 
 738:Firmware/Middlewares/Third_Party/FreeRTOS/Source/portable/GCC/ARM_CM4F/port.c **** 			Numerically low interrupt priority numbers represent logically high
 739:Firmware/Middlewares/Third_Party/FreeRTOS/Source/portable/GCC/ARM_CM4F/port.c **** 			interrupt priorities, therefore the priority of the interrupt must
 740:Firmware/Middlewares/Third_Party/FreeRTOS/Source/portable/GCC/ARM_CM4F/port.c **** 			be set to a value equal to or numerically *higher* than
 741:Firmware/Middlewares/Third_Party/FreeRTOS/Source/portable/GCC/ARM_CM4F/port.c **** 			configMAX_SYSCALL_INTERRUPT_PRIORITY.
 742:Firmware/Middlewares/Third_Party/FreeRTOS/Source/portable/GCC/ARM_CM4F/port.c **** 
 743:Firmware/Middlewares/Third_Party/FreeRTOS/Source/portable/GCC/ARM_CM4F/port.c **** 			Interrupts that	use the FreeRTOS API must not be left at their
 744:Firmware/Middlewares/Third_Party/FreeRTOS/Source/portable/GCC/ARM_CM4F/port.c **** 			default priority of	zero as that is the highest possible priority,
 745:Firmware/Middlewares/Third_Party/FreeRTOS/Source/portable/GCC/ARM_CM4F/port.c **** 			which is guaranteed to be above configMAX_SYSCALL_INTERRUPT_PRIORITY,
 746:Firmware/Middlewares/Third_Party/FreeRTOS/Source/portable/GCC/ARM_CM4F/port.c **** 			and	therefore also guaranteed to be invalid.
 747:Firmware/Middlewares/Third_Party/FreeRTOS/Source/portable/GCC/ARM_CM4F/port.c **** 
 748:Firmware/Middlewares/Third_Party/FreeRTOS/Source/portable/GCC/ARM_CM4F/port.c **** 			FreeRTOS maintains separate thread and ISR API functions to ensure
 749:Firmware/Middlewares/Third_Party/FreeRTOS/Source/portable/GCC/ARM_CM4F/port.c **** 			interrupt entry is as fast and simple as possible.
 750:Firmware/Middlewares/Third_Party/FreeRTOS/Source/portable/GCC/ARM_CM4F/port.c **** 
 751:Firmware/Middlewares/Third_Party/FreeRTOS/Source/portable/GCC/ARM_CM4F/port.c **** 			The following links provide detailed information:
 752:Firmware/Middlewares/Third_Party/FreeRTOS/Source/portable/GCC/ARM_CM4F/port.c **** 			http://www.freertos.org/RTOS-Cortex-M3-M4.html
 753:Firmware/Middlewares/Third_Party/FreeRTOS/Source/portable/GCC/ARM_CM4F/port.c **** 			http://www.freertos.org/FAQHelp.html */
 754:Firmware/Middlewares/Third_Party/FreeRTOS/Source/portable/GCC/ARM_CM4F/port.c **** 			configASSERT( ucCurrentPriority >= ucMaxSysCallPriority );
 1098              		.loc 1 754 0
 1099 001c 144B     		ldr	r3, .L59+4
ARM GAS  /tmp/cce2QzCt.s 			page 37


 1100 001e 1B78     		ldrb	r3, [r3]	@ zero_extendqisi2
 1101 0020 FA7A     		ldrb	r2, [r7, #11]	@ zero_extendqisi2
 1102 0022 9A42     		cmp	r2, r3
 1103 0024 09D2     		bcs	.L54
 1104              	.LBB56:
 1105              	.LBB57:
 195:Firmware/Middlewares/Third_Party/FreeRTOS/Source/portable/GCC/ARM_CM4F/portmacro.h **** 	(
 1106              		.loc 2 195 0 discriminator 1
 1107              		.syntax unified
 1108              	@ 195 "Firmware/Middlewares/Third_Party/FreeRTOS/Source/portable/GCC/ARM_CM4F/portmacro.h" 1
 1109 0026 4FF05003 			mov r3, #80												
 1110 002a 83F31188 		msr basepri, r3											
 1111 002e BFF36F8F 		isb														
 1112 0032 BFF34F8F 		dsb														
 1113              	
 1114              	@ 0 "" 2
 1115              		.thumb
 1116              		.syntax unified
 1117 0036 7B60     		str	r3, [r7, #4]
 1118              	.L55:
 1119              	.LBE57:
 1120              	.LBE56:
 1121              		.loc 1 754 0 discriminator 1
 1122 0038 FEE7     		b	.L55
 1123              	.L54:
 755:Firmware/Middlewares/Third_Party/FreeRTOS/Source/portable/GCC/ARM_CM4F/port.c **** 		}
 756:Firmware/Middlewares/Third_Party/FreeRTOS/Source/portable/GCC/ARM_CM4F/port.c **** 
 757:Firmware/Middlewares/Third_Party/FreeRTOS/Source/portable/GCC/ARM_CM4F/port.c **** 		/* Priority grouping:  The interrupt controller (NVIC) allows the bits
 758:Firmware/Middlewares/Third_Party/FreeRTOS/Source/portable/GCC/ARM_CM4F/port.c **** 		that define each interrupt's priority to be split between bits that
 759:Firmware/Middlewares/Third_Party/FreeRTOS/Source/portable/GCC/ARM_CM4F/port.c **** 		define the interrupt's pre-emption priority bits and bits that define
 760:Firmware/Middlewares/Third_Party/FreeRTOS/Source/portable/GCC/ARM_CM4F/port.c **** 		the interrupt's sub-priority.  For simplicity all bits must be defined
 761:Firmware/Middlewares/Third_Party/FreeRTOS/Source/portable/GCC/ARM_CM4F/port.c **** 		to be pre-emption priority bits.  The following assertion will fail if
 762:Firmware/Middlewares/Third_Party/FreeRTOS/Source/portable/GCC/ARM_CM4F/port.c **** 		this is not the case (if some bits represent a sub-priority).
 763:Firmware/Middlewares/Third_Party/FreeRTOS/Source/portable/GCC/ARM_CM4F/port.c **** 
 764:Firmware/Middlewares/Third_Party/FreeRTOS/Source/portable/GCC/ARM_CM4F/port.c **** 		If the application only uses CMSIS libraries for interrupt
 765:Firmware/Middlewares/Third_Party/FreeRTOS/Source/portable/GCC/ARM_CM4F/port.c **** 		configuration then the correct setting can be achieved on all Cortex-M
 766:Firmware/Middlewares/Third_Party/FreeRTOS/Source/portable/GCC/ARM_CM4F/port.c **** 		devices by calling NVIC_SetPriorityGrouping( 0 ); before starting the
 767:Firmware/Middlewares/Third_Party/FreeRTOS/Source/portable/GCC/ARM_CM4F/port.c **** 		scheduler.  Note however that some vendor specific peripheral libraries
 768:Firmware/Middlewares/Third_Party/FreeRTOS/Source/portable/GCC/ARM_CM4F/port.c **** 		assume a non-zero priority group setting, in which cases using a value
 769:Firmware/Middlewares/Third_Party/FreeRTOS/Source/portable/GCC/ARM_CM4F/port.c **** 		of zero will result in unpredictable behaviour. */
 770:Firmware/Middlewares/Third_Party/FreeRTOS/Source/portable/GCC/ARM_CM4F/port.c **** 		configASSERT( ( portAIRCR_REG & portPRIORITY_GROUP_MASK ) <= ulMaxPRIGROUPValue );
 1124              		.loc 1 770 0
 1125 003a 0E4B     		ldr	r3, .L59+8
 1126 003c 1B68     		ldr	r3, [r3]
 1127 003e 03F4E062 		and	r2, r3, #1792
 1128 0042 0D4B     		ldr	r3, .L59+12
 1129 0044 1B68     		ldr	r3, [r3]
 1130 0046 9A42     		cmp	r2, r3
 1131 0048 09D9     		bls	.L58
 1132              	.LBB58:
 1133              	.LBB59:
 195:Firmware/Middlewares/Third_Party/FreeRTOS/Source/portable/GCC/ARM_CM4F/portmacro.h **** 	(
 1134              		.loc 2 195 0 discriminator 1
 1135              		.syntax unified
 1136              	@ 195 "Firmware/Middlewares/Third_Party/FreeRTOS/Source/portable/GCC/ARM_CM4F/portmacro.h" 1
 1137 004a 4FF05003 			mov r3, #80												
 1138 004e 83F31188 		msr basepri, r3											
ARM GAS  /tmp/cce2QzCt.s 			page 38


 1139 0052 BFF36F8F 		isb														
 1140 0056 BFF34F8F 		dsb														
 1141              	
 1142              	@ 0 "" 2
 1143              		.thumb
 1144              		.syntax unified
 1145 005a 3B60     		str	r3, [r7]
 1146              	.L57:
 1147              	.LBE59:
 1148              	.LBE58:
 1149              		.loc 1 770 0 discriminator 2
 1150 005c FEE7     		b	.L57
 1151              	.L58:
 771:Firmware/Middlewares/Third_Party/FreeRTOS/Source/portable/GCC/ARM_CM4F/port.c **** 	}
 1152              		.loc 1 771 0
 1153 005e 00BF     		nop
 1154 0060 1437     		adds	r7, r7, #20
 1155              	.LCFI47:
 1156              		.cfi_def_cfa_offset 4
 1157 0062 BD46     		mov	sp, r7
 1158              	.LCFI48:
 1159              		.cfi_def_cfa_register 13
 1160              		@ sp needed
 1161 0064 5DF8047B 		ldr	r7, [sp], #4
 1162              	.LCFI49:
 1163              		.cfi_restore 7
 1164              		.cfi_def_cfa_offset 0
 1165 0068 7047     		bx	lr
 1166              	.L60:
 1167 006a 00BF     		.align	2
 1168              	.L59:
 1169 006c F0E300E0 		.word	-536812560
 1170 0070 00000000 		.word	ucMaxSysCallPriority
 1171 0074 0CED00E0 		.word	-536810228
 1172 0078 00000000 		.word	ulMaxPRIGROUPValue
 1173              		.cfi_endproc
 1174              	.LFE16:
 1176              		.text
 1177              	.Letext0:
 1178              		.file 3 "/home/zht/stm32tools/arm-gcc/arm-none-eabi/include/machine/_default_types.h"
 1179              		.file 4 "/home/zht/stm32tools/arm-gcc/arm-none-eabi/include/sys/_stdint.h"
 1180              		.file 5 "Firmware/Middlewares/Third_Party/FreeRTOS/Source/include/projdefs.h"
 1181              		.file 6 "Firmware/Core/Inc/FreeRTOSConfig.h"
ARM GAS  /tmp/cce2QzCt.s 			page 39

