ARM GAS  /tmp/ccwOJcWw.s 			page 1


   1              		.cpu cortex-m4
   2              		.eabi_attribute 27, 1
   3              		.eabi_attribute 28, 1
   4              		.eabi_attribute 20, 1
   5              		.eabi_attribute 21, 1
   6              		.eabi_attribute 23, 3
   7              		.eabi_attribute 24, 1
   8              		.eabi_attribute 25, 1
   9              		.eabi_attribute 26, 1
  10              		.eabi_attribute 30, 6
  11              		.eabi_attribute 34, 1
  12              		.eabi_attribute 18, 4
  13              		.file	"queue.c"
  14              		.text
  15              	.Ltext0:
  16              		.cfi_sections	.debug_frame
  17              		.comm	xQueueRegistry,64,4
  18              		.section	.text.xQueueGenericReset,"ax",%progbits
  19              		.align	1
  20              		.global	xQueueGenericReset
  21              		.syntax unified
  22              		.thumb
  23              		.thumb_func
  24              		.fpu fpv4-sp-d16
  26              	xQueueGenericReset:
  27              	.LFB4:
  28              		.file 1 "Firmware/Middlewares/Third_Party/FreeRTOS/Source/queue.c"
   1:Firmware/Middlewares/Third_Party/FreeRTOS/Source/queue.c **** /*
   2:Firmware/Middlewares/Third_Party/FreeRTOS/Source/queue.c ****  * FreeRTOS Kernel V10.0.1
   3:Firmware/Middlewares/Third_Party/FreeRTOS/Source/queue.c ****  * Copyright (C) 2017 Amazon.com, Inc. or its affiliates.  All Rights Reserved.
   4:Firmware/Middlewares/Third_Party/FreeRTOS/Source/queue.c ****  *
   5:Firmware/Middlewares/Third_Party/FreeRTOS/Source/queue.c ****  * Permission is hereby granted, free of charge, to any person obtaining a copy of
   6:Firmware/Middlewares/Third_Party/FreeRTOS/Source/queue.c ****  * this software and associated documentation files (the "Software"), to deal in
   7:Firmware/Middlewares/Third_Party/FreeRTOS/Source/queue.c ****  * the Software without restriction, including without limitation the rights to
   8:Firmware/Middlewares/Third_Party/FreeRTOS/Source/queue.c ****  * use, copy, modify, merge, publish, distribute, sublicense, and/or sell copies of
   9:Firmware/Middlewares/Third_Party/FreeRTOS/Source/queue.c ****  * the Software, and to permit persons to whom the Software is furnished to do so,
  10:Firmware/Middlewares/Third_Party/FreeRTOS/Source/queue.c ****  * subject to the following conditions:
  11:Firmware/Middlewares/Third_Party/FreeRTOS/Source/queue.c ****  *
  12:Firmware/Middlewares/Third_Party/FreeRTOS/Source/queue.c ****  * The above copyright notice and this permission notice shall be included in all
  13:Firmware/Middlewares/Third_Party/FreeRTOS/Source/queue.c ****  * copies or substantial portions of the Software.
  14:Firmware/Middlewares/Third_Party/FreeRTOS/Source/queue.c ****  *
  15:Firmware/Middlewares/Third_Party/FreeRTOS/Source/queue.c ****  * THE SOFTWARE IS PROVIDED "AS IS", WITHOUT WARRANTY OF ANY KIND, EXPRESS OR
  16:Firmware/Middlewares/Third_Party/FreeRTOS/Source/queue.c ****  * IMPLIED, INCLUDING BUT NOT LIMITED TO THE WARRANTIES OF MERCHANTABILITY, FITNESS
  17:Firmware/Middlewares/Third_Party/FreeRTOS/Source/queue.c ****  * FOR A PARTICULAR PURPOSE AND NONINFRINGEMENT. IN NO EVENT SHALL THE AUTHORS OR
  18:Firmware/Middlewares/Third_Party/FreeRTOS/Source/queue.c ****  * COPYRIGHT HOLDERS BE LIABLE FOR ANY CLAIM, DAMAGES OR OTHER LIABILITY, WHETHER
  19:Firmware/Middlewares/Third_Party/FreeRTOS/Source/queue.c ****  * IN AN ACTION OF CONTRACT, TORT OR OTHERWISE, ARISING FROM, OUT OF OR IN
  20:Firmware/Middlewares/Third_Party/FreeRTOS/Source/queue.c ****  * CONNECTION WITH THE SOFTWARE OR THE USE OR OTHER DEALINGS IN THE SOFTWARE.
  21:Firmware/Middlewares/Third_Party/FreeRTOS/Source/queue.c ****  *
  22:Firmware/Middlewares/Third_Party/FreeRTOS/Source/queue.c ****  * http://www.FreeRTOS.org
  23:Firmware/Middlewares/Third_Party/FreeRTOS/Source/queue.c ****  * http://aws.amazon.com/freertos
  24:Firmware/Middlewares/Third_Party/FreeRTOS/Source/queue.c ****  *
  25:Firmware/Middlewares/Third_Party/FreeRTOS/Source/queue.c ****  * 1 tab == 4 spaces!
  26:Firmware/Middlewares/Third_Party/FreeRTOS/Source/queue.c ****  */
  27:Firmware/Middlewares/Third_Party/FreeRTOS/Source/queue.c **** 
  28:Firmware/Middlewares/Third_Party/FreeRTOS/Source/queue.c **** #include <stdlib.h>
  29:Firmware/Middlewares/Third_Party/FreeRTOS/Source/queue.c **** #include <string.h>
  30:Firmware/Middlewares/Third_Party/FreeRTOS/Source/queue.c **** 
ARM GAS  /tmp/ccwOJcWw.s 			page 2


  31:Firmware/Middlewares/Third_Party/FreeRTOS/Source/queue.c **** /* Defining MPU_WRAPPERS_INCLUDED_FROM_API_FILE prevents task.h from redefining
  32:Firmware/Middlewares/Third_Party/FreeRTOS/Source/queue.c **** all the API functions to use the MPU wrappers.  That should only be done when
  33:Firmware/Middlewares/Third_Party/FreeRTOS/Source/queue.c **** task.h is included from an application file. */
  34:Firmware/Middlewares/Third_Party/FreeRTOS/Source/queue.c **** #define MPU_WRAPPERS_INCLUDED_FROM_API_FILE
  35:Firmware/Middlewares/Third_Party/FreeRTOS/Source/queue.c **** 
  36:Firmware/Middlewares/Third_Party/FreeRTOS/Source/queue.c **** #include "FreeRTOS.h"
  37:Firmware/Middlewares/Third_Party/FreeRTOS/Source/queue.c **** #include "task.h"
  38:Firmware/Middlewares/Third_Party/FreeRTOS/Source/queue.c **** #include "queue.h"
  39:Firmware/Middlewares/Third_Party/FreeRTOS/Source/queue.c **** 
  40:Firmware/Middlewares/Third_Party/FreeRTOS/Source/queue.c **** #if ( configUSE_CO_ROUTINES == 1 )
  41:Firmware/Middlewares/Third_Party/FreeRTOS/Source/queue.c **** 	#include "croutine.h"
  42:Firmware/Middlewares/Third_Party/FreeRTOS/Source/queue.c **** #endif
  43:Firmware/Middlewares/Third_Party/FreeRTOS/Source/queue.c **** 
  44:Firmware/Middlewares/Third_Party/FreeRTOS/Source/queue.c **** /* Lint e961 and e750 are suppressed as a MISRA exception justified because the
  45:Firmware/Middlewares/Third_Party/FreeRTOS/Source/queue.c **** MPU ports require MPU_WRAPPERS_INCLUDED_FROM_API_FILE to be defined for the
  46:Firmware/Middlewares/Third_Party/FreeRTOS/Source/queue.c **** header files above, but not in this file, in order to generate the correct
  47:Firmware/Middlewares/Third_Party/FreeRTOS/Source/queue.c **** privileged Vs unprivileged linkage and placement. */
  48:Firmware/Middlewares/Third_Party/FreeRTOS/Source/queue.c **** #undef MPU_WRAPPERS_INCLUDED_FROM_API_FILE /*lint !e961 !e750. */
  49:Firmware/Middlewares/Third_Party/FreeRTOS/Source/queue.c **** 
  50:Firmware/Middlewares/Third_Party/FreeRTOS/Source/queue.c **** 
  51:Firmware/Middlewares/Third_Party/FreeRTOS/Source/queue.c **** /* Constants used with the cRxLock and cTxLock structure members. */
  52:Firmware/Middlewares/Third_Party/FreeRTOS/Source/queue.c **** #define queueUNLOCKED					( ( int8_t ) -1 )
  53:Firmware/Middlewares/Third_Party/FreeRTOS/Source/queue.c **** #define queueLOCKED_UNMODIFIED			( ( int8_t ) 0 )
  54:Firmware/Middlewares/Third_Party/FreeRTOS/Source/queue.c **** 
  55:Firmware/Middlewares/Third_Party/FreeRTOS/Source/queue.c **** /* When the Queue_t structure is used to represent a base queue its pcHead and
  56:Firmware/Middlewares/Third_Party/FreeRTOS/Source/queue.c **** pcTail members are used as pointers into the queue storage area.  When the
  57:Firmware/Middlewares/Third_Party/FreeRTOS/Source/queue.c **** Queue_t structure is used to represent a mutex pcHead and pcTail pointers are
  58:Firmware/Middlewares/Third_Party/FreeRTOS/Source/queue.c **** not necessary, and the pcHead pointer is set to NULL to indicate that the
  59:Firmware/Middlewares/Third_Party/FreeRTOS/Source/queue.c **** pcTail pointer actually points to the mutex holder (if any).  Map alternative
  60:Firmware/Middlewares/Third_Party/FreeRTOS/Source/queue.c **** names to the pcHead and pcTail structure members to ensure the readability of
  61:Firmware/Middlewares/Third_Party/FreeRTOS/Source/queue.c **** the code is maintained despite this dual use of two structure members.  An
  62:Firmware/Middlewares/Third_Party/FreeRTOS/Source/queue.c **** alternative implementation would be to use a union, but use of a union is
  63:Firmware/Middlewares/Third_Party/FreeRTOS/Source/queue.c **** against the coding standard (although an exception to the standard has been
  64:Firmware/Middlewares/Third_Party/FreeRTOS/Source/queue.c **** permitted where the dual use also significantly changes the type of the
  65:Firmware/Middlewares/Third_Party/FreeRTOS/Source/queue.c **** structure member). */
  66:Firmware/Middlewares/Third_Party/FreeRTOS/Source/queue.c **** #define pxMutexHolder					pcTail
  67:Firmware/Middlewares/Third_Party/FreeRTOS/Source/queue.c **** #define uxQueueType						pcHead
  68:Firmware/Middlewares/Third_Party/FreeRTOS/Source/queue.c **** #define queueQUEUE_IS_MUTEX				NULL
  69:Firmware/Middlewares/Third_Party/FreeRTOS/Source/queue.c **** 
  70:Firmware/Middlewares/Third_Party/FreeRTOS/Source/queue.c **** /* Semaphores do not actually store or copy data, so have an item size of
  71:Firmware/Middlewares/Third_Party/FreeRTOS/Source/queue.c **** zero. */
  72:Firmware/Middlewares/Third_Party/FreeRTOS/Source/queue.c **** #define queueSEMAPHORE_QUEUE_ITEM_LENGTH ( ( UBaseType_t ) 0 )
  73:Firmware/Middlewares/Third_Party/FreeRTOS/Source/queue.c **** #define queueMUTEX_GIVE_BLOCK_TIME		 ( ( TickType_t ) 0U )
  74:Firmware/Middlewares/Third_Party/FreeRTOS/Source/queue.c **** 
  75:Firmware/Middlewares/Third_Party/FreeRTOS/Source/queue.c **** #if( configUSE_PREEMPTION == 0 )
  76:Firmware/Middlewares/Third_Party/FreeRTOS/Source/queue.c **** 	/* If the cooperative scheduler is being used then a yield should not be
  77:Firmware/Middlewares/Third_Party/FreeRTOS/Source/queue.c **** 	performed just because a higher priority task has been woken. */
  78:Firmware/Middlewares/Third_Party/FreeRTOS/Source/queue.c **** 	#define queueYIELD_IF_USING_PREEMPTION()
  79:Firmware/Middlewares/Third_Party/FreeRTOS/Source/queue.c **** #else
  80:Firmware/Middlewares/Third_Party/FreeRTOS/Source/queue.c **** 	#define queueYIELD_IF_USING_PREEMPTION() portYIELD_WITHIN_API()
  81:Firmware/Middlewares/Third_Party/FreeRTOS/Source/queue.c **** #endif
  82:Firmware/Middlewares/Third_Party/FreeRTOS/Source/queue.c **** 
  83:Firmware/Middlewares/Third_Party/FreeRTOS/Source/queue.c **** /*
  84:Firmware/Middlewares/Third_Party/FreeRTOS/Source/queue.c ****  * Definition of the queue used by the scheduler.
  85:Firmware/Middlewares/Third_Party/FreeRTOS/Source/queue.c ****  * Items are queued by copy, not reference.  See the following link for the
  86:Firmware/Middlewares/Third_Party/FreeRTOS/Source/queue.c ****  * rationale: http://www.freertos.org/Embedded-RTOS-Queues.html
  87:Firmware/Middlewares/Third_Party/FreeRTOS/Source/queue.c ****  */
ARM GAS  /tmp/ccwOJcWw.s 			page 3


  88:Firmware/Middlewares/Third_Party/FreeRTOS/Source/queue.c **** typedef struct QueueDefinition
  89:Firmware/Middlewares/Third_Party/FreeRTOS/Source/queue.c **** {
  90:Firmware/Middlewares/Third_Party/FreeRTOS/Source/queue.c **** 	int8_t *pcHead;					/*< Points to the beginning of the queue storage area. */
  91:Firmware/Middlewares/Third_Party/FreeRTOS/Source/queue.c **** 	int8_t *pcTail;					/*< Points to the byte at the end of the queue storage area.  Once more byte i
  92:Firmware/Middlewares/Third_Party/FreeRTOS/Source/queue.c **** 	int8_t *pcWriteTo;				/*< Points to the free next place in the storage area. */
  93:Firmware/Middlewares/Third_Party/FreeRTOS/Source/queue.c **** 
  94:Firmware/Middlewares/Third_Party/FreeRTOS/Source/queue.c **** 	union							/* Use of a union is an exception to the coding standard to ensure two mutually exclus
  95:Firmware/Middlewares/Third_Party/FreeRTOS/Source/queue.c **** 	{
  96:Firmware/Middlewares/Third_Party/FreeRTOS/Source/queue.c **** 		int8_t *pcReadFrom;			/*< Points to the last place that a queued item was read from when the stru
  97:Firmware/Middlewares/Third_Party/FreeRTOS/Source/queue.c **** 		UBaseType_t uxRecursiveCallCount;/*< Maintains a count of the number of times a recursive mutex h
  98:Firmware/Middlewares/Third_Party/FreeRTOS/Source/queue.c **** 	} u;
  99:Firmware/Middlewares/Third_Party/FreeRTOS/Source/queue.c **** 
 100:Firmware/Middlewares/Third_Party/FreeRTOS/Source/queue.c **** 	List_t xTasksWaitingToSend;		/*< List of tasks that are blocked waiting to post onto this queue.  
 101:Firmware/Middlewares/Third_Party/FreeRTOS/Source/queue.c **** 	List_t xTasksWaitingToReceive;	/*< List of tasks that are blocked waiting to read from this queue.
 102:Firmware/Middlewares/Third_Party/FreeRTOS/Source/queue.c **** 
 103:Firmware/Middlewares/Third_Party/FreeRTOS/Source/queue.c **** 	volatile UBaseType_t uxMessagesWaiting;/*< The number of items currently in the queue. */
 104:Firmware/Middlewares/Third_Party/FreeRTOS/Source/queue.c **** 	UBaseType_t uxLength;			/*< The length of the queue defined as the number of items it will hold, n
 105:Firmware/Middlewares/Third_Party/FreeRTOS/Source/queue.c **** 	UBaseType_t uxItemSize;			/*< The size of each items that the queue will hold. */
 106:Firmware/Middlewares/Third_Party/FreeRTOS/Source/queue.c **** 
 107:Firmware/Middlewares/Third_Party/FreeRTOS/Source/queue.c **** 	volatile int8_t cRxLock;		/*< Stores the number of items received from the queue (removed from the
 108:Firmware/Middlewares/Third_Party/FreeRTOS/Source/queue.c **** 	volatile int8_t cTxLock;		/*< Stores the number of items transmitted to the queue (added to the qu
 109:Firmware/Middlewares/Third_Party/FreeRTOS/Source/queue.c **** 
 110:Firmware/Middlewares/Third_Party/FreeRTOS/Source/queue.c **** 	#if( ( configSUPPORT_STATIC_ALLOCATION == 1 ) && ( configSUPPORT_DYNAMIC_ALLOCATION == 1 ) )
 111:Firmware/Middlewares/Third_Party/FreeRTOS/Source/queue.c **** 		uint8_t ucStaticallyAllocated;	/*< Set to pdTRUE if the memory used by the queue was statically a
 112:Firmware/Middlewares/Third_Party/FreeRTOS/Source/queue.c **** 	#endif
 113:Firmware/Middlewares/Third_Party/FreeRTOS/Source/queue.c **** 
 114:Firmware/Middlewares/Third_Party/FreeRTOS/Source/queue.c **** 	#if ( configUSE_QUEUE_SETS == 1 )
 115:Firmware/Middlewares/Third_Party/FreeRTOS/Source/queue.c **** 		struct QueueDefinition *pxQueueSetContainer;
 116:Firmware/Middlewares/Third_Party/FreeRTOS/Source/queue.c **** 	#endif
 117:Firmware/Middlewares/Third_Party/FreeRTOS/Source/queue.c **** 
 118:Firmware/Middlewares/Third_Party/FreeRTOS/Source/queue.c **** 	#if ( configUSE_TRACE_FACILITY == 1 )
 119:Firmware/Middlewares/Third_Party/FreeRTOS/Source/queue.c **** 		UBaseType_t uxQueueNumber;
 120:Firmware/Middlewares/Third_Party/FreeRTOS/Source/queue.c **** 		uint8_t ucQueueType;
 121:Firmware/Middlewares/Third_Party/FreeRTOS/Source/queue.c **** 	#endif
 122:Firmware/Middlewares/Third_Party/FreeRTOS/Source/queue.c **** 
 123:Firmware/Middlewares/Third_Party/FreeRTOS/Source/queue.c **** } xQUEUE;
 124:Firmware/Middlewares/Third_Party/FreeRTOS/Source/queue.c **** 
 125:Firmware/Middlewares/Third_Party/FreeRTOS/Source/queue.c **** /* The old xQUEUE name is maintained above then typedefed to the new Queue_t
 126:Firmware/Middlewares/Third_Party/FreeRTOS/Source/queue.c **** name below to enable the use of older kernel aware debuggers. */
 127:Firmware/Middlewares/Third_Party/FreeRTOS/Source/queue.c **** typedef xQUEUE Queue_t;
 128:Firmware/Middlewares/Third_Party/FreeRTOS/Source/queue.c **** 
 129:Firmware/Middlewares/Third_Party/FreeRTOS/Source/queue.c **** /*-----------------------------------------------------------*/
 130:Firmware/Middlewares/Third_Party/FreeRTOS/Source/queue.c **** 
 131:Firmware/Middlewares/Third_Party/FreeRTOS/Source/queue.c **** /*
 132:Firmware/Middlewares/Third_Party/FreeRTOS/Source/queue.c ****  * The queue registry is just a means for kernel aware debuggers to locate
 133:Firmware/Middlewares/Third_Party/FreeRTOS/Source/queue.c ****  * queue structures.  It has no other purpose so is an optional component.
 134:Firmware/Middlewares/Third_Party/FreeRTOS/Source/queue.c ****  */
 135:Firmware/Middlewares/Third_Party/FreeRTOS/Source/queue.c **** #if ( configQUEUE_REGISTRY_SIZE > 0 )
 136:Firmware/Middlewares/Third_Party/FreeRTOS/Source/queue.c **** 
 137:Firmware/Middlewares/Third_Party/FreeRTOS/Source/queue.c **** 	/* The type stored within the queue registry array.  This allows a name
 138:Firmware/Middlewares/Third_Party/FreeRTOS/Source/queue.c **** 	to be assigned to each queue making kernel aware debugging a little
 139:Firmware/Middlewares/Third_Party/FreeRTOS/Source/queue.c **** 	more user friendly. */
 140:Firmware/Middlewares/Third_Party/FreeRTOS/Source/queue.c **** 	typedef struct QUEUE_REGISTRY_ITEM
 141:Firmware/Middlewares/Third_Party/FreeRTOS/Source/queue.c **** 	{
 142:Firmware/Middlewares/Third_Party/FreeRTOS/Source/queue.c **** 		const char *pcQueueName; /*lint !e971 Unqualified char types are allowed for strings and single c
 143:Firmware/Middlewares/Third_Party/FreeRTOS/Source/queue.c **** 		QueueHandle_t xHandle;
 144:Firmware/Middlewares/Third_Party/FreeRTOS/Source/queue.c **** 	} xQueueRegistryItem;
ARM GAS  /tmp/ccwOJcWw.s 			page 4


 145:Firmware/Middlewares/Third_Party/FreeRTOS/Source/queue.c **** 
 146:Firmware/Middlewares/Third_Party/FreeRTOS/Source/queue.c **** 	/* The old xQueueRegistryItem name is maintained above then typedefed to the
 147:Firmware/Middlewares/Third_Party/FreeRTOS/Source/queue.c **** 	new xQueueRegistryItem name below to enable the use of older kernel aware
 148:Firmware/Middlewares/Third_Party/FreeRTOS/Source/queue.c **** 	debuggers. */
 149:Firmware/Middlewares/Third_Party/FreeRTOS/Source/queue.c **** 	typedef xQueueRegistryItem QueueRegistryItem_t;
 150:Firmware/Middlewares/Third_Party/FreeRTOS/Source/queue.c **** 
 151:Firmware/Middlewares/Third_Party/FreeRTOS/Source/queue.c **** 	/* The queue registry is simply an array of QueueRegistryItem_t structures.
 152:Firmware/Middlewares/Third_Party/FreeRTOS/Source/queue.c **** 	The pcQueueName member of a structure being NULL is indicative of the
 153:Firmware/Middlewares/Third_Party/FreeRTOS/Source/queue.c **** 	array position being vacant. */
 154:Firmware/Middlewares/Third_Party/FreeRTOS/Source/queue.c **** 	PRIVILEGED_DATA QueueRegistryItem_t xQueueRegistry[ configQUEUE_REGISTRY_SIZE ];
 155:Firmware/Middlewares/Third_Party/FreeRTOS/Source/queue.c **** 
 156:Firmware/Middlewares/Third_Party/FreeRTOS/Source/queue.c **** #endif /* configQUEUE_REGISTRY_SIZE */
 157:Firmware/Middlewares/Third_Party/FreeRTOS/Source/queue.c **** 
 158:Firmware/Middlewares/Third_Party/FreeRTOS/Source/queue.c **** /*
 159:Firmware/Middlewares/Third_Party/FreeRTOS/Source/queue.c ****  * Unlocks a queue locked by a call to prvLockQueue.  Locking a queue does not
 160:Firmware/Middlewares/Third_Party/FreeRTOS/Source/queue.c ****  * prevent an ISR from adding or removing items to the queue, but does prevent
 161:Firmware/Middlewares/Third_Party/FreeRTOS/Source/queue.c ****  * an ISR from removing tasks from the queue event lists.  If an ISR finds a
 162:Firmware/Middlewares/Third_Party/FreeRTOS/Source/queue.c ****  * queue is locked it will instead increment the appropriate queue lock count
 163:Firmware/Middlewares/Third_Party/FreeRTOS/Source/queue.c ****  * to indicate that a task may require unblocking.  When the queue in unlocked
 164:Firmware/Middlewares/Third_Party/FreeRTOS/Source/queue.c ****  * these lock counts are inspected, and the appropriate action taken.
 165:Firmware/Middlewares/Third_Party/FreeRTOS/Source/queue.c ****  */
 166:Firmware/Middlewares/Third_Party/FreeRTOS/Source/queue.c **** static void prvUnlockQueue( Queue_t * const pxQueue ) PRIVILEGED_FUNCTION;
 167:Firmware/Middlewares/Third_Party/FreeRTOS/Source/queue.c **** 
 168:Firmware/Middlewares/Third_Party/FreeRTOS/Source/queue.c **** /*
 169:Firmware/Middlewares/Third_Party/FreeRTOS/Source/queue.c ****  * Uses a critical section to determine if there is any data in a queue.
 170:Firmware/Middlewares/Third_Party/FreeRTOS/Source/queue.c ****  *
 171:Firmware/Middlewares/Third_Party/FreeRTOS/Source/queue.c ****  * @return pdTRUE if the queue contains no items, otherwise pdFALSE.
 172:Firmware/Middlewares/Third_Party/FreeRTOS/Source/queue.c ****  */
 173:Firmware/Middlewares/Third_Party/FreeRTOS/Source/queue.c **** static BaseType_t prvIsQueueEmpty( const Queue_t *pxQueue ) PRIVILEGED_FUNCTION;
 174:Firmware/Middlewares/Third_Party/FreeRTOS/Source/queue.c **** 
 175:Firmware/Middlewares/Third_Party/FreeRTOS/Source/queue.c **** /*
 176:Firmware/Middlewares/Third_Party/FreeRTOS/Source/queue.c ****  * Uses a critical section to determine if there is any space in a queue.
 177:Firmware/Middlewares/Third_Party/FreeRTOS/Source/queue.c ****  *
 178:Firmware/Middlewares/Third_Party/FreeRTOS/Source/queue.c ****  * @return pdTRUE if there is no space, otherwise pdFALSE;
 179:Firmware/Middlewares/Third_Party/FreeRTOS/Source/queue.c ****  */
 180:Firmware/Middlewares/Third_Party/FreeRTOS/Source/queue.c **** static BaseType_t prvIsQueueFull( const Queue_t *pxQueue ) PRIVILEGED_FUNCTION;
 181:Firmware/Middlewares/Third_Party/FreeRTOS/Source/queue.c **** 
 182:Firmware/Middlewares/Third_Party/FreeRTOS/Source/queue.c **** /*
 183:Firmware/Middlewares/Third_Party/FreeRTOS/Source/queue.c ****  * Copies an item into the queue, either at the front of the queue or the
 184:Firmware/Middlewares/Third_Party/FreeRTOS/Source/queue.c ****  * back of the queue.
 185:Firmware/Middlewares/Third_Party/FreeRTOS/Source/queue.c ****  */
 186:Firmware/Middlewares/Third_Party/FreeRTOS/Source/queue.c **** static BaseType_t prvCopyDataToQueue( Queue_t * const pxQueue, const void *pvItemToQueue, const Bas
 187:Firmware/Middlewares/Third_Party/FreeRTOS/Source/queue.c **** 
 188:Firmware/Middlewares/Third_Party/FreeRTOS/Source/queue.c **** /*
 189:Firmware/Middlewares/Third_Party/FreeRTOS/Source/queue.c ****  * Copies an item out of a queue.
 190:Firmware/Middlewares/Third_Party/FreeRTOS/Source/queue.c ****  */
 191:Firmware/Middlewares/Third_Party/FreeRTOS/Source/queue.c **** static void prvCopyDataFromQueue( Queue_t * const pxQueue, void * const pvBuffer ) PRIVILEGED_FUNCT
 192:Firmware/Middlewares/Third_Party/FreeRTOS/Source/queue.c **** 
 193:Firmware/Middlewares/Third_Party/FreeRTOS/Source/queue.c **** #if ( configUSE_QUEUE_SETS == 1 )
 194:Firmware/Middlewares/Third_Party/FreeRTOS/Source/queue.c **** 	/*
 195:Firmware/Middlewares/Third_Party/FreeRTOS/Source/queue.c **** 	 * Checks to see if a queue is a member of a queue set, and if so, notifies
 196:Firmware/Middlewares/Third_Party/FreeRTOS/Source/queue.c **** 	 * the queue set that the queue contains data.
 197:Firmware/Middlewares/Third_Party/FreeRTOS/Source/queue.c **** 	 */
 198:Firmware/Middlewares/Third_Party/FreeRTOS/Source/queue.c **** 	static BaseType_t prvNotifyQueueSetContainer( const Queue_t * const pxQueue, const BaseType_t xCop
 199:Firmware/Middlewares/Third_Party/FreeRTOS/Source/queue.c **** #endif
 200:Firmware/Middlewares/Third_Party/FreeRTOS/Source/queue.c **** 
 201:Firmware/Middlewares/Third_Party/FreeRTOS/Source/queue.c **** /*
ARM GAS  /tmp/ccwOJcWw.s 			page 5


 202:Firmware/Middlewares/Third_Party/FreeRTOS/Source/queue.c ****  * Called after a Queue_t structure has been allocated either statically or
 203:Firmware/Middlewares/Third_Party/FreeRTOS/Source/queue.c ****  * dynamically to fill in the structure's members.
 204:Firmware/Middlewares/Third_Party/FreeRTOS/Source/queue.c ****  */
 205:Firmware/Middlewares/Third_Party/FreeRTOS/Source/queue.c **** static void prvInitialiseNewQueue( const UBaseType_t uxQueueLength, const UBaseType_t uxItemSize, u
 206:Firmware/Middlewares/Third_Party/FreeRTOS/Source/queue.c **** 
 207:Firmware/Middlewares/Third_Party/FreeRTOS/Source/queue.c **** /*
 208:Firmware/Middlewares/Third_Party/FreeRTOS/Source/queue.c ****  * Mutexes are a special type of queue.  When a mutex is created, first the
 209:Firmware/Middlewares/Third_Party/FreeRTOS/Source/queue.c ****  * queue is created, then prvInitialiseMutex() is called to configure the queue
 210:Firmware/Middlewares/Third_Party/FreeRTOS/Source/queue.c ****  * as a mutex.
 211:Firmware/Middlewares/Third_Party/FreeRTOS/Source/queue.c ****  */
 212:Firmware/Middlewares/Third_Party/FreeRTOS/Source/queue.c **** #if( configUSE_MUTEXES == 1 )
 213:Firmware/Middlewares/Third_Party/FreeRTOS/Source/queue.c **** 	static void prvInitialiseMutex( Queue_t *pxNewQueue ) PRIVILEGED_FUNCTION;
 214:Firmware/Middlewares/Third_Party/FreeRTOS/Source/queue.c **** #endif
 215:Firmware/Middlewares/Third_Party/FreeRTOS/Source/queue.c **** 
 216:Firmware/Middlewares/Third_Party/FreeRTOS/Source/queue.c **** #if( configUSE_MUTEXES == 1 )
 217:Firmware/Middlewares/Third_Party/FreeRTOS/Source/queue.c **** 	/*
 218:Firmware/Middlewares/Third_Party/FreeRTOS/Source/queue.c **** 	 * If a task waiting for a mutex causes the mutex holder to inherit a
 219:Firmware/Middlewares/Third_Party/FreeRTOS/Source/queue.c **** 	 * priority, but the waiting task times out, then the holder should
 220:Firmware/Middlewares/Third_Party/FreeRTOS/Source/queue.c **** 	 * disinherit the priority - but only down to the highest priority of any
 221:Firmware/Middlewares/Third_Party/FreeRTOS/Source/queue.c **** 	 * other tasks that are waiting for the same mutex.  This function returns
 222:Firmware/Middlewares/Third_Party/FreeRTOS/Source/queue.c **** 	 * that priority.
 223:Firmware/Middlewares/Third_Party/FreeRTOS/Source/queue.c **** 	 */
 224:Firmware/Middlewares/Third_Party/FreeRTOS/Source/queue.c **** 	static UBaseType_t prvGetDisinheritPriorityAfterTimeout( const Queue_t * const pxQueue ) PRIVILEGE
 225:Firmware/Middlewares/Third_Party/FreeRTOS/Source/queue.c **** #endif
 226:Firmware/Middlewares/Third_Party/FreeRTOS/Source/queue.c **** /*-----------------------------------------------------------*/
 227:Firmware/Middlewares/Third_Party/FreeRTOS/Source/queue.c **** 
 228:Firmware/Middlewares/Third_Party/FreeRTOS/Source/queue.c **** /*
 229:Firmware/Middlewares/Third_Party/FreeRTOS/Source/queue.c ****  * Macro to mark a queue as locked.  Locking a queue prevents an ISR from
 230:Firmware/Middlewares/Third_Party/FreeRTOS/Source/queue.c ****  * accessing the queue event lists.
 231:Firmware/Middlewares/Third_Party/FreeRTOS/Source/queue.c ****  */
 232:Firmware/Middlewares/Third_Party/FreeRTOS/Source/queue.c **** #define prvLockQueue( pxQueue )								\
 233:Firmware/Middlewares/Third_Party/FreeRTOS/Source/queue.c **** 	taskENTER_CRITICAL();									\
 234:Firmware/Middlewares/Third_Party/FreeRTOS/Source/queue.c **** 	{														\
 235:Firmware/Middlewares/Third_Party/FreeRTOS/Source/queue.c **** 		if( ( pxQueue )->cRxLock == queueUNLOCKED )			\
 236:Firmware/Middlewares/Third_Party/FreeRTOS/Source/queue.c **** 		{													\
 237:Firmware/Middlewares/Third_Party/FreeRTOS/Source/queue.c **** 			( pxQueue )->cRxLock = queueLOCKED_UNMODIFIED;	\
 238:Firmware/Middlewares/Third_Party/FreeRTOS/Source/queue.c **** 		}													\
 239:Firmware/Middlewares/Third_Party/FreeRTOS/Source/queue.c **** 		if( ( pxQueue )->cTxLock == queueUNLOCKED )			\
 240:Firmware/Middlewares/Third_Party/FreeRTOS/Source/queue.c **** 		{													\
 241:Firmware/Middlewares/Third_Party/FreeRTOS/Source/queue.c **** 			( pxQueue )->cTxLock = queueLOCKED_UNMODIFIED;	\
 242:Firmware/Middlewares/Third_Party/FreeRTOS/Source/queue.c **** 		}													\
 243:Firmware/Middlewares/Third_Party/FreeRTOS/Source/queue.c **** 	}														\
 244:Firmware/Middlewares/Third_Party/FreeRTOS/Source/queue.c **** 	taskEXIT_CRITICAL()
 245:Firmware/Middlewares/Third_Party/FreeRTOS/Source/queue.c **** /*-----------------------------------------------------------*/
 246:Firmware/Middlewares/Third_Party/FreeRTOS/Source/queue.c **** 
 247:Firmware/Middlewares/Third_Party/FreeRTOS/Source/queue.c **** BaseType_t xQueueGenericReset( QueueHandle_t xQueue, BaseType_t xNewQueue )
 248:Firmware/Middlewares/Third_Party/FreeRTOS/Source/queue.c **** {
  29              		.loc 1 248 0
  30              		.cfi_startproc
  31              		@ args = 0, pretend = 0, frame = 16
  32              		@ frame_needed = 1, uses_anonymous_args = 0
  33 0000 80B5     		push	{r7, lr}
  34              	.LCFI0:
  35              		.cfi_def_cfa_offset 8
  36              		.cfi_offset 7, -8
  37              		.cfi_offset 14, -4
  38 0002 84B0     		sub	sp, sp, #16
ARM GAS  /tmp/ccwOJcWw.s 			page 6


  39              	.LCFI1:
  40              		.cfi_def_cfa_offset 24
  41 0004 00AF     		add	r7, sp, #0
  42              	.LCFI2:
  43              		.cfi_def_cfa_register 7
  44 0006 7860     		str	r0, [r7, #4]
  45 0008 3960     		str	r1, [r7]
 249:Firmware/Middlewares/Third_Party/FreeRTOS/Source/queue.c **** Queue_t * const pxQueue = ( Queue_t * ) xQueue;
  46              		.loc 1 249 0
  47 000a 7B68     		ldr	r3, [r7, #4]
  48 000c FB60     		str	r3, [r7, #12]
 250:Firmware/Middlewares/Third_Party/FreeRTOS/Source/queue.c **** 
 251:Firmware/Middlewares/Third_Party/FreeRTOS/Source/queue.c **** 	configASSERT( pxQueue );
  49              		.loc 1 251 0
  50 000e FB68     		ldr	r3, [r7, #12]
  51 0010 002B     		cmp	r3, #0
  52 0012 09D1     		bne	.L2
  53              	.LBB118:
  54              	.LBB119:
  55              		.file 2 "Firmware/Middlewares/Third_Party/FreeRTOS/Source/portable/GCC/ARM_CM4F/portmacro.h"
   1:Firmware/Middlewares/Third_Party/FreeRTOS/Source/portable/GCC/ARM_CM4F/portmacro.h **** /*
   2:Firmware/Middlewares/Third_Party/FreeRTOS/Source/portable/GCC/ARM_CM4F/portmacro.h ****  * FreeRTOS Kernel V10.0.1
   3:Firmware/Middlewares/Third_Party/FreeRTOS/Source/portable/GCC/ARM_CM4F/portmacro.h ****  * Copyright (C) 2017 Amazon.com, Inc. or its affiliates.  All Rights Reserved.
   4:Firmware/Middlewares/Third_Party/FreeRTOS/Source/portable/GCC/ARM_CM4F/portmacro.h ****  *
   5:Firmware/Middlewares/Third_Party/FreeRTOS/Source/portable/GCC/ARM_CM4F/portmacro.h ****  * Permission is hereby granted, free of charge, to any person obtaining a copy of
   6:Firmware/Middlewares/Third_Party/FreeRTOS/Source/portable/GCC/ARM_CM4F/portmacro.h ****  * this software and associated documentation files (the "Software"), to deal in
   7:Firmware/Middlewares/Third_Party/FreeRTOS/Source/portable/GCC/ARM_CM4F/portmacro.h ****  * the Software without restriction, including without limitation the rights to
   8:Firmware/Middlewares/Third_Party/FreeRTOS/Source/portable/GCC/ARM_CM4F/portmacro.h ****  * use, copy, modify, merge, publish, distribute, sublicense, and/or sell copies of
   9:Firmware/Middlewares/Third_Party/FreeRTOS/Source/portable/GCC/ARM_CM4F/portmacro.h ****  * the Software, and to permit persons to whom the Software is furnished to do so,
  10:Firmware/Middlewares/Third_Party/FreeRTOS/Source/portable/GCC/ARM_CM4F/portmacro.h ****  * subject to the following conditions:
  11:Firmware/Middlewares/Third_Party/FreeRTOS/Source/portable/GCC/ARM_CM4F/portmacro.h ****  *
  12:Firmware/Middlewares/Third_Party/FreeRTOS/Source/portable/GCC/ARM_CM4F/portmacro.h ****  * The above copyright notice and this permission notice shall be included in all
  13:Firmware/Middlewares/Third_Party/FreeRTOS/Source/portable/GCC/ARM_CM4F/portmacro.h ****  * copies or substantial portions of the Software.
  14:Firmware/Middlewares/Third_Party/FreeRTOS/Source/portable/GCC/ARM_CM4F/portmacro.h ****  *
  15:Firmware/Middlewares/Third_Party/FreeRTOS/Source/portable/GCC/ARM_CM4F/portmacro.h ****  * THE SOFTWARE IS PROVIDED "AS IS", WITHOUT WARRANTY OF ANY KIND, EXPRESS OR
  16:Firmware/Middlewares/Third_Party/FreeRTOS/Source/portable/GCC/ARM_CM4F/portmacro.h ****  * IMPLIED, INCLUDING BUT NOT LIMITED TO THE WARRANTIES OF MERCHANTABILITY, FITNESS
  17:Firmware/Middlewares/Third_Party/FreeRTOS/Source/portable/GCC/ARM_CM4F/portmacro.h ****  * FOR A PARTICULAR PURPOSE AND NONINFRINGEMENT. IN NO EVENT SHALL THE AUTHORS OR
  18:Firmware/Middlewares/Third_Party/FreeRTOS/Source/portable/GCC/ARM_CM4F/portmacro.h ****  * COPYRIGHT HOLDERS BE LIABLE FOR ANY CLAIM, DAMAGES OR OTHER LIABILITY, WHETHER
  19:Firmware/Middlewares/Third_Party/FreeRTOS/Source/portable/GCC/ARM_CM4F/portmacro.h ****  * IN AN ACTION OF CONTRACT, TORT OR OTHERWISE, ARISING FROM, OUT OF OR IN
  20:Firmware/Middlewares/Third_Party/FreeRTOS/Source/portable/GCC/ARM_CM4F/portmacro.h ****  * CONNECTION WITH THE SOFTWARE OR THE USE OR OTHER DEALINGS IN THE SOFTWARE.
  21:Firmware/Middlewares/Third_Party/FreeRTOS/Source/portable/GCC/ARM_CM4F/portmacro.h ****  *
  22:Firmware/Middlewares/Third_Party/FreeRTOS/Source/portable/GCC/ARM_CM4F/portmacro.h ****  * http://www.FreeRTOS.org
  23:Firmware/Middlewares/Third_Party/FreeRTOS/Source/portable/GCC/ARM_CM4F/portmacro.h ****  * http://aws.amazon.com/freertos
  24:Firmware/Middlewares/Third_Party/FreeRTOS/Source/portable/GCC/ARM_CM4F/portmacro.h ****  *
  25:Firmware/Middlewares/Third_Party/FreeRTOS/Source/portable/GCC/ARM_CM4F/portmacro.h ****  * 1 tab == 4 spaces!
  26:Firmware/Middlewares/Third_Party/FreeRTOS/Source/portable/GCC/ARM_CM4F/portmacro.h ****  */
  27:Firmware/Middlewares/Third_Party/FreeRTOS/Source/portable/GCC/ARM_CM4F/portmacro.h **** 
  28:Firmware/Middlewares/Third_Party/FreeRTOS/Source/portable/GCC/ARM_CM4F/portmacro.h **** 
  29:Firmware/Middlewares/Third_Party/FreeRTOS/Source/portable/GCC/ARM_CM4F/portmacro.h **** #ifndef PORTMACRO_H
  30:Firmware/Middlewares/Third_Party/FreeRTOS/Source/portable/GCC/ARM_CM4F/portmacro.h **** #define PORTMACRO_H
  31:Firmware/Middlewares/Third_Party/FreeRTOS/Source/portable/GCC/ARM_CM4F/portmacro.h **** 
  32:Firmware/Middlewares/Third_Party/FreeRTOS/Source/portable/GCC/ARM_CM4F/portmacro.h **** #ifdef __cplusplus
  33:Firmware/Middlewares/Third_Party/FreeRTOS/Source/portable/GCC/ARM_CM4F/portmacro.h **** extern "C" {
  34:Firmware/Middlewares/Third_Party/FreeRTOS/Source/portable/GCC/ARM_CM4F/portmacro.h **** #endif
  35:Firmware/Middlewares/Third_Party/FreeRTOS/Source/portable/GCC/ARM_CM4F/portmacro.h **** 
  36:Firmware/Middlewares/Third_Party/FreeRTOS/Source/portable/GCC/ARM_CM4F/portmacro.h **** /*-----------------------------------------------------------
  37:Firmware/Middlewares/Third_Party/FreeRTOS/Source/portable/GCC/ARM_CM4F/portmacro.h ****  * Port specific definitions.
ARM GAS  /tmp/ccwOJcWw.s 			page 7


  38:Firmware/Middlewares/Third_Party/FreeRTOS/Source/portable/GCC/ARM_CM4F/portmacro.h ****  *
  39:Firmware/Middlewares/Third_Party/FreeRTOS/Source/portable/GCC/ARM_CM4F/portmacro.h ****  * The settings in this file configure FreeRTOS correctly for the
  40:Firmware/Middlewares/Third_Party/FreeRTOS/Source/portable/GCC/ARM_CM4F/portmacro.h ****  * given hardware and compiler.
  41:Firmware/Middlewares/Third_Party/FreeRTOS/Source/portable/GCC/ARM_CM4F/portmacro.h ****  *
  42:Firmware/Middlewares/Third_Party/FreeRTOS/Source/portable/GCC/ARM_CM4F/portmacro.h ****  * These settings should not be altered.
  43:Firmware/Middlewares/Third_Party/FreeRTOS/Source/portable/GCC/ARM_CM4F/portmacro.h ****  *-----------------------------------------------------------
  44:Firmware/Middlewares/Third_Party/FreeRTOS/Source/portable/GCC/ARM_CM4F/portmacro.h ****  */
  45:Firmware/Middlewares/Third_Party/FreeRTOS/Source/portable/GCC/ARM_CM4F/portmacro.h **** 
  46:Firmware/Middlewares/Third_Party/FreeRTOS/Source/portable/GCC/ARM_CM4F/portmacro.h **** /* Type definitions. */
  47:Firmware/Middlewares/Third_Party/FreeRTOS/Source/portable/GCC/ARM_CM4F/portmacro.h **** #define portCHAR		char
  48:Firmware/Middlewares/Third_Party/FreeRTOS/Source/portable/GCC/ARM_CM4F/portmacro.h **** #define portFLOAT		float
  49:Firmware/Middlewares/Third_Party/FreeRTOS/Source/portable/GCC/ARM_CM4F/portmacro.h **** #define portDOUBLE		double
  50:Firmware/Middlewares/Third_Party/FreeRTOS/Source/portable/GCC/ARM_CM4F/portmacro.h **** #define portLONG		long
  51:Firmware/Middlewares/Third_Party/FreeRTOS/Source/portable/GCC/ARM_CM4F/portmacro.h **** #define portSHORT		short
  52:Firmware/Middlewares/Third_Party/FreeRTOS/Source/portable/GCC/ARM_CM4F/portmacro.h **** #define portSTACK_TYPE	uint32_t
  53:Firmware/Middlewares/Third_Party/FreeRTOS/Source/portable/GCC/ARM_CM4F/portmacro.h **** #define portBASE_TYPE	long
  54:Firmware/Middlewares/Third_Party/FreeRTOS/Source/portable/GCC/ARM_CM4F/portmacro.h **** 
  55:Firmware/Middlewares/Third_Party/FreeRTOS/Source/portable/GCC/ARM_CM4F/portmacro.h **** typedef portSTACK_TYPE StackType_t;
  56:Firmware/Middlewares/Third_Party/FreeRTOS/Source/portable/GCC/ARM_CM4F/portmacro.h **** typedef long BaseType_t;
  57:Firmware/Middlewares/Third_Party/FreeRTOS/Source/portable/GCC/ARM_CM4F/portmacro.h **** typedef unsigned long UBaseType_t;
  58:Firmware/Middlewares/Third_Party/FreeRTOS/Source/portable/GCC/ARM_CM4F/portmacro.h **** 
  59:Firmware/Middlewares/Third_Party/FreeRTOS/Source/portable/GCC/ARM_CM4F/portmacro.h **** #if( configUSE_16_BIT_TICKS == 1 )
  60:Firmware/Middlewares/Third_Party/FreeRTOS/Source/portable/GCC/ARM_CM4F/portmacro.h **** 	typedef uint16_t TickType_t;
  61:Firmware/Middlewares/Third_Party/FreeRTOS/Source/portable/GCC/ARM_CM4F/portmacro.h **** 	#define portMAX_DELAY ( TickType_t ) 0xffff
  62:Firmware/Middlewares/Third_Party/FreeRTOS/Source/portable/GCC/ARM_CM4F/portmacro.h **** #else
  63:Firmware/Middlewares/Third_Party/FreeRTOS/Source/portable/GCC/ARM_CM4F/portmacro.h **** 	typedef uint32_t TickType_t;
  64:Firmware/Middlewares/Third_Party/FreeRTOS/Source/portable/GCC/ARM_CM4F/portmacro.h **** 	#define portMAX_DELAY ( TickType_t ) 0xffffffffUL
  65:Firmware/Middlewares/Third_Party/FreeRTOS/Source/portable/GCC/ARM_CM4F/portmacro.h **** 
  66:Firmware/Middlewares/Third_Party/FreeRTOS/Source/portable/GCC/ARM_CM4F/portmacro.h **** 	/* 32-bit tick type on a 32-bit architecture, so reads of the tick count do
  67:Firmware/Middlewares/Third_Party/FreeRTOS/Source/portable/GCC/ARM_CM4F/portmacro.h **** 	not need to be guarded with a critical section. */
  68:Firmware/Middlewares/Third_Party/FreeRTOS/Source/portable/GCC/ARM_CM4F/portmacro.h **** 	#define portTICK_TYPE_IS_ATOMIC 1
  69:Firmware/Middlewares/Third_Party/FreeRTOS/Source/portable/GCC/ARM_CM4F/portmacro.h **** #endif
  70:Firmware/Middlewares/Third_Party/FreeRTOS/Source/portable/GCC/ARM_CM4F/portmacro.h **** /*-----------------------------------------------------------*/
  71:Firmware/Middlewares/Third_Party/FreeRTOS/Source/portable/GCC/ARM_CM4F/portmacro.h **** 
  72:Firmware/Middlewares/Third_Party/FreeRTOS/Source/portable/GCC/ARM_CM4F/portmacro.h **** /* Architecture specifics. */
  73:Firmware/Middlewares/Third_Party/FreeRTOS/Source/portable/GCC/ARM_CM4F/portmacro.h **** #define portSTACK_GROWTH			( -1 )
  74:Firmware/Middlewares/Third_Party/FreeRTOS/Source/portable/GCC/ARM_CM4F/portmacro.h **** #define portTICK_PERIOD_MS			( ( TickType_t ) 1000 / configTICK_RATE_HZ )
  75:Firmware/Middlewares/Third_Party/FreeRTOS/Source/portable/GCC/ARM_CM4F/portmacro.h **** #define portBYTE_ALIGNMENT			8
  76:Firmware/Middlewares/Third_Party/FreeRTOS/Source/portable/GCC/ARM_CM4F/portmacro.h **** /*-----------------------------------------------------------*/
  77:Firmware/Middlewares/Third_Party/FreeRTOS/Source/portable/GCC/ARM_CM4F/portmacro.h **** 
  78:Firmware/Middlewares/Third_Party/FreeRTOS/Source/portable/GCC/ARM_CM4F/portmacro.h **** /* Scheduler utilities. */
  79:Firmware/Middlewares/Third_Party/FreeRTOS/Source/portable/GCC/ARM_CM4F/portmacro.h **** #define portYIELD() 															\
  80:Firmware/Middlewares/Third_Party/FreeRTOS/Source/portable/GCC/ARM_CM4F/portmacro.h **** {																				\
  81:Firmware/Middlewares/Third_Party/FreeRTOS/Source/portable/GCC/ARM_CM4F/portmacro.h **** 	/* Set a PendSV to request a context switch. */								\
  82:Firmware/Middlewares/Third_Party/FreeRTOS/Source/portable/GCC/ARM_CM4F/portmacro.h **** 	portNVIC_INT_CTRL_REG = portNVIC_PENDSVSET_BIT;								\
  83:Firmware/Middlewares/Third_Party/FreeRTOS/Source/portable/GCC/ARM_CM4F/portmacro.h **** 																				\
  84:Firmware/Middlewares/Third_Party/FreeRTOS/Source/portable/GCC/ARM_CM4F/portmacro.h **** 	/* Barriers are normally not required but do ensure the code is completely	\
  85:Firmware/Middlewares/Third_Party/FreeRTOS/Source/portable/GCC/ARM_CM4F/portmacro.h **** 	within the specified behaviour for the architecture. */						\
  86:Firmware/Middlewares/Third_Party/FreeRTOS/Source/portable/GCC/ARM_CM4F/portmacro.h **** 	__asm volatile( "dsb" ::: "memory" );										\
  87:Firmware/Middlewares/Third_Party/FreeRTOS/Source/portable/GCC/ARM_CM4F/portmacro.h **** 	__asm volatile( "isb" );													\
  88:Firmware/Middlewares/Third_Party/FreeRTOS/Source/portable/GCC/ARM_CM4F/portmacro.h **** }
  89:Firmware/Middlewares/Third_Party/FreeRTOS/Source/portable/GCC/ARM_CM4F/portmacro.h **** 
  90:Firmware/Middlewares/Third_Party/FreeRTOS/Source/portable/GCC/ARM_CM4F/portmacro.h **** #define portNVIC_INT_CTRL_REG		( * ( ( volatile uint32_t * ) 0xe000ed04 ) )
  91:Firmware/Middlewares/Third_Party/FreeRTOS/Source/portable/GCC/ARM_CM4F/portmacro.h **** #define portNVIC_PENDSVSET_BIT		( 1UL << 28UL )
  92:Firmware/Middlewares/Third_Party/FreeRTOS/Source/portable/GCC/ARM_CM4F/portmacro.h **** #define portEND_SWITCHING_ISR( xSwitchRequired ) if( xSwitchRequired != pdFALSE ) portYIELD()
  93:Firmware/Middlewares/Third_Party/FreeRTOS/Source/portable/GCC/ARM_CM4F/portmacro.h **** #define portYIELD_FROM_ISR( x ) portEND_SWITCHING_ISR( x )
  94:Firmware/Middlewares/Third_Party/FreeRTOS/Source/portable/GCC/ARM_CM4F/portmacro.h **** /*-----------------------------------------------------------*/
ARM GAS  /tmp/ccwOJcWw.s 			page 8


  95:Firmware/Middlewares/Third_Party/FreeRTOS/Source/portable/GCC/ARM_CM4F/portmacro.h **** 
  96:Firmware/Middlewares/Third_Party/FreeRTOS/Source/portable/GCC/ARM_CM4F/portmacro.h **** /* Critical section management. */
  97:Firmware/Middlewares/Third_Party/FreeRTOS/Source/portable/GCC/ARM_CM4F/portmacro.h **** extern void vPortEnterCritical( void );
  98:Firmware/Middlewares/Third_Party/FreeRTOS/Source/portable/GCC/ARM_CM4F/portmacro.h **** extern void vPortExitCritical( void );
  99:Firmware/Middlewares/Third_Party/FreeRTOS/Source/portable/GCC/ARM_CM4F/portmacro.h **** #define portSET_INTERRUPT_MASK_FROM_ISR()		ulPortRaiseBASEPRI()
 100:Firmware/Middlewares/Third_Party/FreeRTOS/Source/portable/GCC/ARM_CM4F/portmacro.h **** #define portCLEAR_INTERRUPT_MASK_FROM_ISR(x)	vPortSetBASEPRI(x)
 101:Firmware/Middlewares/Third_Party/FreeRTOS/Source/portable/GCC/ARM_CM4F/portmacro.h **** #define portDISABLE_INTERRUPTS()				vPortRaiseBASEPRI()
 102:Firmware/Middlewares/Third_Party/FreeRTOS/Source/portable/GCC/ARM_CM4F/portmacro.h **** #define portENABLE_INTERRUPTS()					vPortSetBASEPRI(0)
 103:Firmware/Middlewares/Third_Party/FreeRTOS/Source/portable/GCC/ARM_CM4F/portmacro.h **** #define portENTER_CRITICAL()					vPortEnterCritical()
 104:Firmware/Middlewares/Third_Party/FreeRTOS/Source/portable/GCC/ARM_CM4F/portmacro.h **** #define portEXIT_CRITICAL()						vPortExitCritical()
 105:Firmware/Middlewares/Third_Party/FreeRTOS/Source/portable/GCC/ARM_CM4F/portmacro.h **** 
 106:Firmware/Middlewares/Third_Party/FreeRTOS/Source/portable/GCC/ARM_CM4F/portmacro.h **** /*-----------------------------------------------------------*/
 107:Firmware/Middlewares/Third_Party/FreeRTOS/Source/portable/GCC/ARM_CM4F/portmacro.h **** 
 108:Firmware/Middlewares/Third_Party/FreeRTOS/Source/portable/GCC/ARM_CM4F/portmacro.h **** /* Task function macros as described on the FreeRTOS.org WEB site.  These are
 109:Firmware/Middlewares/Third_Party/FreeRTOS/Source/portable/GCC/ARM_CM4F/portmacro.h **** not necessary for to use this port.  They are defined so the common demo files
 110:Firmware/Middlewares/Third_Party/FreeRTOS/Source/portable/GCC/ARM_CM4F/portmacro.h **** (which build with all the ports) will build. */
 111:Firmware/Middlewares/Third_Party/FreeRTOS/Source/portable/GCC/ARM_CM4F/portmacro.h **** #define portTASK_FUNCTION_PROTO( vFunction, pvParameters ) void vFunction( void *pvParameters )
 112:Firmware/Middlewares/Third_Party/FreeRTOS/Source/portable/GCC/ARM_CM4F/portmacro.h **** #define portTASK_FUNCTION( vFunction, pvParameters ) void vFunction( void *pvParameters )
 113:Firmware/Middlewares/Third_Party/FreeRTOS/Source/portable/GCC/ARM_CM4F/portmacro.h **** /*-----------------------------------------------------------*/
 114:Firmware/Middlewares/Third_Party/FreeRTOS/Source/portable/GCC/ARM_CM4F/portmacro.h **** 
 115:Firmware/Middlewares/Third_Party/FreeRTOS/Source/portable/GCC/ARM_CM4F/portmacro.h **** /* Tickless idle/low power functionality. */
 116:Firmware/Middlewares/Third_Party/FreeRTOS/Source/portable/GCC/ARM_CM4F/portmacro.h **** #ifndef portSUPPRESS_TICKS_AND_SLEEP
 117:Firmware/Middlewares/Third_Party/FreeRTOS/Source/portable/GCC/ARM_CM4F/portmacro.h **** 	extern void vPortSuppressTicksAndSleep( TickType_t xExpectedIdleTime );
 118:Firmware/Middlewares/Third_Party/FreeRTOS/Source/portable/GCC/ARM_CM4F/portmacro.h **** 	#define portSUPPRESS_TICKS_AND_SLEEP( xExpectedIdleTime ) vPortSuppressTicksAndSleep( xExpectedIdl
 119:Firmware/Middlewares/Third_Party/FreeRTOS/Source/portable/GCC/ARM_CM4F/portmacro.h **** #endif
 120:Firmware/Middlewares/Third_Party/FreeRTOS/Source/portable/GCC/ARM_CM4F/portmacro.h **** /*-----------------------------------------------------------*/
 121:Firmware/Middlewares/Third_Party/FreeRTOS/Source/portable/GCC/ARM_CM4F/portmacro.h **** 
 122:Firmware/Middlewares/Third_Party/FreeRTOS/Source/portable/GCC/ARM_CM4F/portmacro.h **** /* Architecture specific optimisations. */
 123:Firmware/Middlewares/Third_Party/FreeRTOS/Source/portable/GCC/ARM_CM4F/portmacro.h **** #ifndef configUSE_PORT_OPTIMISED_TASK_SELECTION
 124:Firmware/Middlewares/Third_Party/FreeRTOS/Source/portable/GCC/ARM_CM4F/portmacro.h **** 	#define configUSE_PORT_OPTIMISED_TASK_SELECTION 1
 125:Firmware/Middlewares/Third_Party/FreeRTOS/Source/portable/GCC/ARM_CM4F/portmacro.h **** #endif
 126:Firmware/Middlewares/Third_Party/FreeRTOS/Source/portable/GCC/ARM_CM4F/portmacro.h **** 
 127:Firmware/Middlewares/Third_Party/FreeRTOS/Source/portable/GCC/ARM_CM4F/portmacro.h **** #if configUSE_PORT_OPTIMISED_TASK_SELECTION == 1
 128:Firmware/Middlewares/Third_Party/FreeRTOS/Source/portable/GCC/ARM_CM4F/portmacro.h **** 
 129:Firmware/Middlewares/Third_Party/FreeRTOS/Source/portable/GCC/ARM_CM4F/portmacro.h **** 	/* Generic helper function. */
 130:Firmware/Middlewares/Third_Party/FreeRTOS/Source/portable/GCC/ARM_CM4F/portmacro.h **** 	__attribute__( ( always_inline ) ) static inline uint8_t ucPortCountLeadingZeros( uint32_t ulBitma
 131:Firmware/Middlewares/Third_Party/FreeRTOS/Source/portable/GCC/ARM_CM4F/portmacro.h **** 	{
 132:Firmware/Middlewares/Third_Party/FreeRTOS/Source/portable/GCC/ARM_CM4F/portmacro.h **** 	uint8_t ucReturn;
 133:Firmware/Middlewares/Third_Party/FreeRTOS/Source/portable/GCC/ARM_CM4F/portmacro.h **** 
 134:Firmware/Middlewares/Third_Party/FreeRTOS/Source/portable/GCC/ARM_CM4F/portmacro.h **** 		__asm volatile ( "clz %0, %1" : "=r" ( ucReturn ) : "r" ( ulBitmap ) : "memory" );
 135:Firmware/Middlewares/Third_Party/FreeRTOS/Source/portable/GCC/ARM_CM4F/portmacro.h **** 		return ucReturn;
 136:Firmware/Middlewares/Third_Party/FreeRTOS/Source/portable/GCC/ARM_CM4F/portmacro.h **** 	}
 137:Firmware/Middlewares/Third_Party/FreeRTOS/Source/portable/GCC/ARM_CM4F/portmacro.h **** 
 138:Firmware/Middlewares/Third_Party/FreeRTOS/Source/portable/GCC/ARM_CM4F/portmacro.h **** 	/* Check the configuration. */
 139:Firmware/Middlewares/Third_Party/FreeRTOS/Source/portable/GCC/ARM_CM4F/portmacro.h **** 	#if( configMAX_PRIORITIES > 32 )
 140:Firmware/Middlewares/Third_Party/FreeRTOS/Source/portable/GCC/ARM_CM4F/portmacro.h **** 		#error configUSE_PORT_OPTIMISED_TASK_SELECTION can only be set to 1 when configMAX_PRIORITIES is 
 141:Firmware/Middlewares/Third_Party/FreeRTOS/Source/portable/GCC/ARM_CM4F/portmacro.h **** 	#endif
 142:Firmware/Middlewares/Third_Party/FreeRTOS/Source/portable/GCC/ARM_CM4F/portmacro.h **** 
 143:Firmware/Middlewares/Third_Party/FreeRTOS/Source/portable/GCC/ARM_CM4F/portmacro.h **** 	/* Store/clear the ready priorities in a bit map. */
 144:Firmware/Middlewares/Third_Party/FreeRTOS/Source/portable/GCC/ARM_CM4F/portmacro.h **** 	#define portRECORD_READY_PRIORITY( uxPriority, uxReadyPriorities ) ( uxReadyPriorities ) |= ( 1UL 
 145:Firmware/Middlewares/Third_Party/FreeRTOS/Source/portable/GCC/ARM_CM4F/portmacro.h **** 	#define portRESET_READY_PRIORITY( uxPriority, uxReadyPriorities ) ( uxReadyPriorities ) &= ~( 1UL 
 146:Firmware/Middlewares/Third_Party/FreeRTOS/Source/portable/GCC/ARM_CM4F/portmacro.h **** 
 147:Firmware/Middlewares/Third_Party/FreeRTOS/Source/portable/GCC/ARM_CM4F/portmacro.h **** 	/*-----------------------------------------------------------*/
 148:Firmware/Middlewares/Third_Party/FreeRTOS/Source/portable/GCC/ARM_CM4F/portmacro.h **** 
 149:Firmware/Middlewares/Third_Party/FreeRTOS/Source/portable/GCC/ARM_CM4F/portmacro.h **** 	#define portGET_HIGHEST_PRIORITY( uxTopPriority, uxReadyPriorities ) uxTopPriority = ( 31UL - ( ui
 150:Firmware/Middlewares/Third_Party/FreeRTOS/Source/portable/GCC/ARM_CM4F/portmacro.h **** 
 151:Firmware/Middlewares/Third_Party/FreeRTOS/Source/portable/GCC/ARM_CM4F/portmacro.h **** #endif /* configUSE_PORT_OPTIMISED_TASK_SELECTION */
ARM GAS  /tmp/ccwOJcWw.s 			page 9


 152:Firmware/Middlewares/Third_Party/FreeRTOS/Source/portable/GCC/ARM_CM4F/portmacro.h **** 
 153:Firmware/Middlewares/Third_Party/FreeRTOS/Source/portable/GCC/ARM_CM4F/portmacro.h **** /*-----------------------------------------------------------*/
 154:Firmware/Middlewares/Third_Party/FreeRTOS/Source/portable/GCC/ARM_CM4F/portmacro.h **** 
 155:Firmware/Middlewares/Third_Party/FreeRTOS/Source/portable/GCC/ARM_CM4F/portmacro.h **** #ifdef configASSERT
 156:Firmware/Middlewares/Third_Party/FreeRTOS/Source/portable/GCC/ARM_CM4F/portmacro.h **** 	void vPortValidateInterruptPriority( void );
 157:Firmware/Middlewares/Third_Party/FreeRTOS/Source/portable/GCC/ARM_CM4F/portmacro.h **** 	#define portASSERT_IF_INTERRUPT_PRIORITY_INVALID() 	vPortValidateInterruptPriority()
 158:Firmware/Middlewares/Third_Party/FreeRTOS/Source/portable/GCC/ARM_CM4F/portmacro.h **** #endif
 159:Firmware/Middlewares/Third_Party/FreeRTOS/Source/portable/GCC/ARM_CM4F/portmacro.h **** 
 160:Firmware/Middlewares/Third_Party/FreeRTOS/Source/portable/GCC/ARM_CM4F/portmacro.h **** /* portNOP() is not required by this port. */
 161:Firmware/Middlewares/Third_Party/FreeRTOS/Source/portable/GCC/ARM_CM4F/portmacro.h **** #define portNOP()
 162:Firmware/Middlewares/Third_Party/FreeRTOS/Source/portable/GCC/ARM_CM4F/portmacro.h **** 
 163:Firmware/Middlewares/Third_Party/FreeRTOS/Source/portable/GCC/ARM_CM4F/portmacro.h **** #define portINLINE	__inline
 164:Firmware/Middlewares/Third_Party/FreeRTOS/Source/portable/GCC/ARM_CM4F/portmacro.h **** 
 165:Firmware/Middlewares/Third_Party/FreeRTOS/Source/portable/GCC/ARM_CM4F/portmacro.h **** #ifndef portFORCE_INLINE
 166:Firmware/Middlewares/Third_Party/FreeRTOS/Source/portable/GCC/ARM_CM4F/portmacro.h **** 	#define portFORCE_INLINE inline __attribute__(( always_inline))
 167:Firmware/Middlewares/Third_Party/FreeRTOS/Source/portable/GCC/ARM_CM4F/portmacro.h **** #endif
 168:Firmware/Middlewares/Third_Party/FreeRTOS/Source/portable/GCC/ARM_CM4F/portmacro.h **** 
 169:Firmware/Middlewares/Third_Party/FreeRTOS/Source/portable/GCC/ARM_CM4F/portmacro.h **** portFORCE_INLINE static BaseType_t xPortIsInsideInterrupt( void )
 170:Firmware/Middlewares/Third_Party/FreeRTOS/Source/portable/GCC/ARM_CM4F/portmacro.h **** {
 171:Firmware/Middlewares/Third_Party/FreeRTOS/Source/portable/GCC/ARM_CM4F/portmacro.h **** uint32_t ulCurrentInterrupt;
 172:Firmware/Middlewares/Third_Party/FreeRTOS/Source/portable/GCC/ARM_CM4F/portmacro.h **** BaseType_t xReturn;
 173:Firmware/Middlewares/Third_Party/FreeRTOS/Source/portable/GCC/ARM_CM4F/portmacro.h **** 
 174:Firmware/Middlewares/Third_Party/FreeRTOS/Source/portable/GCC/ARM_CM4F/portmacro.h **** 	/* Obtain the number of the currently executing interrupt. */
 175:Firmware/Middlewares/Third_Party/FreeRTOS/Source/portable/GCC/ARM_CM4F/portmacro.h **** 	__asm volatile( "mrs %0, ipsr" : "=r"( ulCurrentInterrupt ) :: "memory" );
 176:Firmware/Middlewares/Third_Party/FreeRTOS/Source/portable/GCC/ARM_CM4F/portmacro.h **** 
 177:Firmware/Middlewares/Third_Party/FreeRTOS/Source/portable/GCC/ARM_CM4F/portmacro.h **** 	if( ulCurrentInterrupt == 0 )
 178:Firmware/Middlewares/Third_Party/FreeRTOS/Source/portable/GCC/ARM_CM4F/portmacro.h **** 	{
 179:Firmware/Middlewares/Third_Party/FreeRTOS/Source/portable/GCC/ARM_CM4F/portmacro.h **** 		xReturn = pdFALSE;
 180:Firmware/Middlewares/Third_Party/FreeRTOS/Source/portable/GCC/ARM_CM4F/portmacro.h **** 	}
 181:Firmware/Middlewares/Third_Party/FreeRTOS/Source/portable/GCC/ARM_CM4F/portmacro.h **** 	else
 182:Firmware/Middlewares/Third_Party/FreeRTOS/Source/portable/GCC/ARM_CM4F/portmacro.h **** 	{
 183:Firmware/Middlewares/Third_Party/FreeRTOS/Source/portable/GCC/ARM_CM4F/portmacro.h **** 		xReturn = pdTRUE;
 184:Firmware/Middlewares/Third_Party/FreeRTOS/Source/portable/GCC/ARM_CM4F/portmacro.h **** 	}
 185:Firmware/Middlewares/Third_Party/FreeRTOS/Source/portable/GCC/ARM_CM4F/portmacro.h **** 
 186:Firmware/Middlewares/Third_Party/FreeRTOS/Source/portable/GCC/ARM_CM4F/portmacro.h **** 	return xReturn;
 187:Firmware/Middlewares/Third_Party/FreeRTOS/Source/portable/GCC/ARM_CM4F/portmacro.h **** }
 188:Firmware/Middlewares/Third_Party/FreeRTOS/Source/portable/GCC/ARM_CM4F/portmacro.h **** 
 189:Firmware/Middlewares/Third_Party/FreeRTOS/Source/portable/GCC/ARM_CM4F/portmacro.h **** /*-----------------------------------------------------------*/
 190:Firmware/Middlewares/Third_Party/FreeRTOS/Source/portable/GCC/ARM_CM4F/portmacro.h **** 
 191:Firmware/Middlewares/Third_Party/FreeRTOS/Source/portable/GCC/ARM_CM4F/portmacro.h **** portFORCE_INLINE static void vPortRaiseBASEPRI( void )
 192:Firmware/Middlewares/Third_Party/FreeRTOS/Source/portable/GCC/ARM_CM4F/portmacro.h **** {
 193:Firmware/Middlewares/Third_Party/FreeRTOS/Source/portable/GCC/ARM_CM4F/portmacro.h **** uint32_t ulNewBASEPRI;
 194:Firmware/Middlewares/Third_Party/FreeRTOS/Source/portable/GCC/ARM_CM4F/portmacro.h **** 
 195:Firmware/Middlewares/Third_Party/FreeRTOS/Source/portable/GCC/ARM_CM4F/portmacro.h **** 	__asm volatile
  56              		.loc 2 195 0 discriminator 1
  57              		.syntax unified
  58              	@ 195 "Firmware/Middlewares/Third_Party/FreeRTOS/Source/portable/GCC/ARM_CM4F/portmacro.h" 1
  59 0014 4FF05003 			mov r3, #80												
  60 0018 83F31188 		msr basepri, r3											
  61 001c BFF36F8F 		isb														
  62 0020 BFF34F8F 		dsb														
  63              	
  64              	@ 0 "" 2
  65              		.thumb
  66              		.syntax unified
  67 0024 BB60     		str	r3, [r7, #8]
  68              	.L3:
ARM GAS  /tmp/ccwOJcWw.s 			page 10


  69              	.LBE119:
  70              	.LBE118:
  71              		.loc 1 251 0 discriminator 1
  72 0026 FEE7     		b	.L3
  73              	.L2:
 252:Firmware/Middlewares/Third_Party/FreeRTOS/Source/queue.c **** 
 253:Firmware/Middlewares/Third_Party/FreeRTOS/Source/queue.c **** 	taskENTER_CRITICAL();
  74              		.loc 1 253 0
  75 0028 FFF7FEFF 		bl	vPortEnterCritical
 254:Firmware/Middlewares/Third_Party/FreeRTOS/Source/queue.c **** 	{
 255:Firmware/Middlewares/Third_Party/FreeRTOS/Source/queue.c **** 		pxQueue->pcTail = pxQueue->pcHead + ( pxQueue->uxLength * pxQueue->uxItemSize );
  76              		.loc 1 255 0
  77 002c FB68     		ldr	r3, [r7, #12]
  78 002e 1A68     		ldr	r2, [r3]
  79 0030 FB68     		ldr	r3, [r7, #12]
  80 0032 DB6B     		ldr	r3, [r3, #60]
  81 0034 F968     		ldr	r1, [r7, #12]
  82 0036 096C     		ldr	r1, [r1, #64]
  83 0038 01FB03F3 		mul	r3, r1, r3
  84 003c 1A44     		add	r2, r2, r3
  85 003e FB68     		ldr	r3, [r7, #12]
  86 0040 5A60     		str	r2, [r3, #4]
 256:Firmware/Middlewares/Third_Party/FreeRTOS/Source/queue.c **** 		pxQueue->uxMessagesWaiting = ( UBaseType_t ) 0U;
  87              		.loc 1 256 0
  88 0042 FB68     		ldr	r3, [r7, #12]
  89 0044 0022     		movs	r2, #0
  90 0046 9A63     		str	r2, [r3, #56]
 257:Firmware/Middlewares/Third_Party/FreeRTOS/Source/queue.c **** 		pxQueue->pcWriteTo = pxQueue->pcHead;
  91              		.loc 1 257 0
  92 0048 FB68     		ldr	r3, [r7, #12]
  93 004a 1A68     		ldr	r2, [r3]
  94 004c FB68     		ldr	r3, [r7, #12]
  95 004e 9A60     		str	r2, [r3, #8]
 258:Firmware/Middlewares/Third_Party/FreeRTOS/Source/queue.c **** 		pxQueue->u.pcReadFrom = pxQueue->pcHead + ( ( pxQueue->uxLength - ( UBaseType_t ) 1U ) * pxQueue-
  96              		.loc 1 258 0
  97 0050 FB68     		ldr	r3, [r7, #12]
  98 0052 1A68     		ldr	r2, [r3]
  99 0054 FB68     		ldr	r3, [r7, #12]
 100 0056 DB6B     		ldr	r3, [r3, #60]
 101 0058 013B     		subs	r3, r3, #1
 102 005a F968     		ldr	r1, [r7, #12]
 103 005c 096C     		ldr	r1, [r1, #64]
 104 005e 01FB03F3 		mul	r3, r1, r3
 105 0062 1A44     		add	r2, r2, r3
 106 0064 FB68     		ldr	r3, [r7, #12]
 107 0066 DA60     		str	r2, [r3, #12]
 259:Firmware/Middlewares/Third_Party/FreeRTOS/Source/queue.c **** 		pxQueue->cRxLock = queueUNLOCKED;
 108              		.loc 1 259 0
 109 0068 FB68     		ldr	r3, [r7, #12]
 110 006a FF22     		movs	r2, #255
 111 006c 83F84420 		strb	r2, [r3, #68]
 260:Firmware/Middlewares/Third_Party/FreeRTOS/Source/queue.c **** 		pxQueue->cTxLock = queueUNLOCKED;
 112              		.loc 1 260 0
 113 0070 FB68     		ldr	r3, [r7, #12]
 114 0072 FF22     		movs	r2, #255
 115 0074 83F84520 		strb	r2, [r3, #69]
 261:Firmware/Middlewares/Third_Party/FreeRTOS/Source/queue.c **** 
ARM GAS  /tmp/ccwOJcWw.s 			page 11


 262:Firmware/Middlewares/Third_Party/FreeRTOS/Source/queue.c **** 		if( xNewQueue == pdFALSE )
 116              		.loc 1 262 0
 117 0078 3B68     		ldr	r3, [r7]
 118 007a 002B     		cmp	r3, #0
 119 007c 14D1     		bne	.L4
 263:Firmware/Middlewares/Third_Party/FreeRTOS/Source/queue.c **** 		{
 264:Firmware/Middlewares/Third_Party/FreeRTOS/Source/queue.c **** 			/* If there are tasks blocked waiting to read from the queue, then
 265:Firmware/Middlewares/Third_Party/FreeRTOS/Source/queue.c **** 			the tasks will remain blocked as after this function exits the queue
 266:Firmware/Middlewares/Third_Party/FreeRTOS/Source/queue.c **** 			will still be empty.  If there are tasks blocked waiting to write to
 267:Firmware/Middlewares/Third_Party/FreeRTOS/Source/queue.c **** 			the queue, then one should be unblocked as after this function exits
 268:Firmware/Middlewares/Third_Party/FreeRTOS/Source/queue.c **** 			it will be possible to write to it. */
 269:Firmware/Middlewares/Third_Party/FreeRTOS/Source/queue.c **** 			if( listLIST_IS_EMPTY( &( pxQueue->xTasksWaitingToSend ) ) == pdFALSE )
 120              		.loc 1 269 0
 121 007e FB68     		ldr	r3, [r7, #12]
 122 0080 1B69     		ldr	r3, [r3, #16]
 123 0082 002B     		cmp	r3, #0
 124 0084 1AD0     		beq	.L5
 270:Firmware/Middlewares/Third_Party/FreeRTOS/Source/queue.c **** 			{
 271:Firmware/Middlewares/Third_Party/FreeRTOS/Source/queue.c **** 				if( xTaskRemoveFromEventList( &( pxQueue->xTasksWaitingToSend ) ) != pdFALSE )
 125              		.loc 1 271 0
 126 0086 FB68     		ldr	r3, [r7, #12]
 127 0088 1033     		adds	r3, r3, #16
 128 008a 1846     		mov	r0, r3
 129 008c FFF7FEFF 		bl	xTaskRemoveFromEventList
 130 0090 0346     		mov	r3, r0
 131 0092 002B     		cmp	r3, #0
 132 0094 12D0     		beq	.L5
 272:Firmware/Middlewares/Third_Party/FreeRTOS/Source/queue.c **** 				{
 273:Firmware/Middlewares/Third_Party/FreeRTOS/Source/queue.c **** 					queueYIELD_IF_USING_PREEMPTION();
 133              		.loc 1 273 0
 134 0096 0D4B     		ldr	r3, .L7
 135 0098 4FF08052 		mov	r2, #268435456
 136 009c 1A60     		str	r2, [r3]
 137              		.syntax unified
 138              	@ 273 "Firmware/Middlewares/Third_Party/FreeRTOS/Source/queue.c" 1
 139 009e BFF34F8F 		dsb
 140              	@ 0 "" 2
 141              	@ 273 "Firmware/Middlewares/Third_Party/FreeRTOS/Source/queue.c" 1
 142 00a2 BFF36F8F 		isb
 143              	@ 0 "" 2
 144              		.thumb
 145              		.syntax unified
 146 00a6 09E0     		b	.L5
 147              	.L4:
 274:Firmware/Middlewares/Third_Party/FreeRTOS/Source/queue.c **** 				}
 275:Firmware/Middlewares/Third_Party/FreeRTOS/Source/queue.c **** 				else
 276:Firmware/Middlewares/Third_Party/FreeRTOS/Source/queue.c **** 				{
 277:Firmware/Middlewares/Third_Party/FreeRTOS/Source/queue.c **** 					mtCOVERAGE_TEST_MARKER();
 278:Firmware/Middlewares/Third_Party/FreeRTOS/Source/queue.c **** 				}
 279:Firmware/Middlewares/Third_Party/FreeRTOS/Source/queue.c **** 			}
 280:Firmware/Middlewares/Third_Party/FreeRTOS/Source/queue.c **** 			else
 281:Firmware/Middlewares/Third_Party/FreeRTOS/Source/queue.c **** 			{
 282:Firmware/Middlewares/Third_Party/FreeRTOS/Source/queue.c **** 				mtCOVERAGE_TEST_MARKER();
 283:Firmware/Middlewares/Third_Party/FreeRTOS/Source/queue.c **** 			}
 284:Firmware/Middlewares/Third_Party/FreeRTOS/Source/queue.c **** 		}
 285:Firmware/Middlewares/Third_Party/FreeRTOS/Source/queue.c **** 		else
 286:Firmware/Middlewares/Third_Party/FreeRTOS/Source/queue.c **** 		{
ARM GAS  /tmp/ccwOJcWw.s 			page 12


 287:Firmware/Middlewares/Third_Party/FreeRTOS/Source/queue.c **** 			/* Ensure the event queues start in the correct state. */
 288:Firmware/Middlewares/Third_Party/FreeRTOS/Source/queue.c **** 			vListInitialise( &( pxQueue->xTasksWaitingToSend ) );
 148              		.loc 1 288 0
 149 00a8 FB68     		ldr	r3, [r7, #12]
 150 00aa 1033     		adds	r3, r3, #16
 151 00ac 1846     		mov	r0, r3
 152 00ae FFF7FEFF 		bl	vListInitialise
 289:Firmware/Middlewares/Third_Party/FreeRTOS/Source/queue.c **** 			vListInitialise( &( pxQueue->xTasksWaitingToReceive ) );
 153              		.loc 1 289 0
 154 00b2 FB68     		ldr	r3, [r7, #12]
 155 00b4 2433     		adds	r3, r3, #36
 156 00b6 1846     		mov	r0, r3
 157 00b8 FFF7FEFF 		bl	vListInitialise
 158              	.L5:
 290:Firmware/Middlewares/Third_Party/FreeRTOS/Source/queue.c **** 		}
 291:Firmware/Middlewares/Third_Party/FreeRTOS/Source/queue.c **** 	}
 292:Firmware/Middlewares/Third_Party/FreeRTOS/Source/queue.c **** 	taskEXIT_CRITICAL();
 159              		.loc 1 292 0
 160 00bc FFF7FEFF 		bl	vPortExitCritical
 293:Firmware/Middlewares/Third_Party/FreeRTOS/Source/queue.c **** 
 294:Firmware/Middlewares/Third_Party/FreeRTOS/Source/queue.c **** 	/* A value is returned for calling semantic consistency with previous
 295:Firmware/Middlewares/Third_Party/FreeRTOS/Source/queue.c **** 	versions. */
 296:Firmware/Middlewares/Third_Party/FreeRTOS/Source/queue.c **** 	return pdPASS;
 161              		.loc 1 296 0
 162 00c0 0123     		movs	r3, #1
 297:Firmware/Middlewares/Third_Party/FreeRTOS/Source/queue.c **** }
 163              		.loc 1 297 0
 164 00c2 1846     		mov	r0, r3
 165 00c4 1037     		adds	r7, r7, #16
 166              	.LCFI3:
 167              		.cfi_def_cfa_offset 8
 168 00c6 BD46     		mov	sp, r7
 169              	.LCFI4:
 170              		.cfi_def_cfa_register 13
 171              		@ sp needed
 172 00c8 80BD     		pop	{r7, pc}
 173              	.L8:
 174 00ca 00BF     		.align	2
 175              	.L7:
 176 00cc 04ED00E0 		.word	-536810236
 177              		.cfi_endproc
 178              	.LFE4:
 180              		.section	.text.xQueueGenericCreateStatic,"ax",%progbits
 181              		.align	1
 182              		.global	xQueueGenericCreateStatic
 183              		.syntax unified
 184              		.thumb
 185              		.thumb_func
 186              		.fpu fpv4-sp-d16
 188              	xQueueGenericCreateStatic:
 189              	.LFB5:
 298:Firmware/Middlewares/Third_Party/FreeRTOS/Source/queue.c **** /*-----------------------------------------------------------*/
 299:Firmware/Middlewares/Third_Party/FreeRTOS/Source/queue.c **** 
 300:Firmware/Middlewares/Third_Party/FreeRTOS/Source/queue.c **** #if( configSUPPORT_STATIC_ALLOCATION == 1 )
 301:Firmware/Middlewares/Third_Party/FreeRTOS/Source/queue.c **** 
 302:Firmware/Middlewares/Third_Party/FreeRTOS/Source/queue.c **** 	QueueHandle_t xQueueGenericCreateStatic( const UBaseType_t uxQueueLength, const UBaseType_t uxItem
 303:Firmware/Middlewares/Third_Party/FreeRTOS/Source/queue.c **** 	{
ARM GAS  /tmp/ccwOJcWw.s 			page 13


 190              		.loc 1 303 0
 191              		.cfi_startproc
 192              		@ args = 4, pretend = 0, frame = 48
 193              		@ frame_needed = 1, uses_anonymous_args = 0
 194 0000 80B5     		push	{r7, lr}
 195              	.LCFI5:
 196              		.cfi_def_cfa_offset 8
 197              		.cfi_offset 7, -8
 198              		.cfi_offset 14, -4
 199 0002 8EB0     		sub	sp, sp, #56
 200              	.LCFI6:
 201              		.cfi_def_cfa_offset 64
 202 0004 02AF     		add	r7, sp, #8
 203              	.LCFI7:
 204              		.cfi_def_cfa 7, 56
 205 0006 F860     		str	r0, [r7, #12]
 206 0008 B960     		str	r1, [r7, #8]
 207 000a 7A60     		str	r2, [r7, #4]
 208 000c 3B60     		str	r3, [r7]
 304:Firmware/Middlewares/Third_Party/FreeRTOS/Source/queue.c **** 	Queue_t *pxNewQueue;
 305:Firmware/Middlewares/Third_Party/FreeRTOS/Source/queue.c **** 
 306:Firmware/Middlewares/Third_Party/FreeRTOS/Source/queue.c **** 		configASSERT( uxQueueLength > ( UBaseType_t ) 0 );
 209              		.loc 1 306 0
 210 000e FB68     		ldr	r3, [r7, #12]
 211 0010 002B     		cmp	r3, #0
 212 0012 09D1     		bne	.L10
 213              	.LBB120:
 214              	.LBB121:
 215              		.loc 2 195 0 discriminator 1
 216              		.syntax unified
 217              	@ 195 "Firmware/Middlewares/Third_Party/FreeRTOS/Source/portable/GCC/ARM_CM4F/portmacro.h" 1
 218 0014 4FF05003 			mov r3, #80												
 219 0018 83F31188 		msr basepri, r3											
 220 001c BFF36F8F 		isb														
 221 0020 BFF34F8F 		dsb														
 222              	
 223              	@ 0 "" 2
 224              		.thumb
 225              		.syntax unified
 226 0024 BB62     		str	r3, [r7, #40]
 227              	.L11:
 228              	.LBE121:
 229              	.LBE120:
 230              		.loc 1 306 0 discriminator 1
 231 0026 FEE7     		b	.L11
 232              	.L10:
 307:Firmware/Middlewares/Third_Party/FreeRTOS/Source/queue.c **** 
 308:Firmware/Middlewares/Third_Party/FreeRTOS/Source/queue.c **** 		/* The StaticQueue_t structure and the queue storage area must be
 309:Firmware/Middlewares/Third_Party/FreeRTOS/Source/queue.c **** 		supplied. */
 310:Firmware/Middlewares/Third_Party/FreeRTOS/Source/queue.c **** 		configASSERT( pxStaticQueue != NULL );
 233              		.loc 1 310 0
 234 0028 3B68     		ldr	r3, [r7]
 235 002a 002B     		cmp	r3, #0
 236 002c 09D1     		bne	.L12
 237              	.LBB122:
 238              	.LBB123:
 239              		.loc 2 195 0 discriminator 1
ARM GAS  /tmp/ccwOJcWw.s 			page 14


 240              		.syntax unified
 241              	@ 195 "Firmware/Middlewares/Third_Party/FreeRTOS/Source/portable/GCC/ARM_CM4F/portmacro.h" 1
 242 002e 4FF05003 			mov r3, #80												
 243 0032 83F31188 		msr basepri, r3											
 244 0036 BFF36F8F 		isb														
 245 003a BFF34F8F 		dsb														
 246              	
 247              	@ 0 "" 2
 248              		.thumb
 249              		.syntax unified
 250 003e 7B62     		str	r3, [r7, #36]
 251              	.L13:
 252              	.LBE123:
 253              	.LBE122:
 254              		.loc 1 310 0 discriminator 2
 255 0040 FEE7     		b	.L13
 256              	.L12:
 311:Firmware/Middlewares/Third_Party/FreeRTOS/Source/queue.c **** 
 312:Firmware/Middlewares/Third_Party/FreeRTOS/Source/queue.c **** 		/* A queue storage area should be provided if the item size is not 0, and
 313:Firmware/Middlewares/Third_Party/FreeRTOS/Source/queue.c **** 		should not be provided if the item size is 0. */
 314:Firmware/Middlewares/Third_Party/FreeRTOS/Source/queue.c **** 		configASSERT( !( ( pucQueueStorage != NULL ) && ( uxItemSize == 0 ) ) );
 257              		.loc 1 314 0
 258 0042 7B68     		ldr	r3, [r7, #4]
 259 0044 002B     		cmp	r3, #0
 260 0046 02D0     		beq	.L14
 261              		.loc 1 314 0 is_stmt 0 discriminator 2
 262 0048 BB68     		ldr	r3, [r7, #8]
 263 004a 002B     		cmp	r3, #0
 264 004c 01D0     		beq	.L15
 265              	.L14:
 266              		.loc 1 314 0 discriminator 3
 267 004e 0123     		movs	r3, #1
 268 0050 00E0     		b	.L16
 269              	.L15:
 270              		.loc 1 314 0 discriminator 4
 271 0052 0023     		movs	r3, #0
 272              	.L16:
 273              		.loc 1 314 0 discriminator 6
 274 0054 002B     		cmp	r3, #0
 275 0056 09D1     		bne	.L17
 276              	.LBB124:
 277              	.LBB125:
 278              		.loc 2 195 0 is_stmt 1 discriminator 7
 279              		.syntax unified
 280              	@ 195 "Firmware/Middlewares/Third_Party/FreeRTOS/Source/portable/GCC/ARM_CM4F/portmacro.h" 1
 281 0058 4FF05003 			mov r3, #80												
 282 005c 83F31188 		msr basepri, r3											
 283 0060 BFF36F8F 		isb														
 284 0064 BFF34F8F 		dsb														
 285              	
 286              	@ 0 "" 2
 287              		.thumb
 288              		.syntax unified
 289 0068 3B62     		str	r3, [r7, #32]
 290              	.L18:
 291              	.LBE125:
 292              	.LBE124:
ARM GAS  /tmp/ccwOJcWw.s 			page 15


 293              		.loc 1 314 0 discriminator 3
 294 006a FEE7     		b	.L18
 295              	.L17:
 315:Firmware/Middlewares/Third_Party/FreeRTOS/Source/queue.c **** 		configASSERT( !( ( pucQueueStorage == NULL ) && ( uxItemSize != 0 ) ) );
 296              		.loc 1 315 0
 297 006c 7B68     		ldr	r3, [r7, #4]
 298 006e 002B     		cmp	r3, #0
 299 0070 02D1     		bne	.L19
 300              		.loc 1 315 0 is_stmt 0 discriminator 2
 301 0072 BB68     		ldr	r3, [r7, #8]
 302 0074 002B     		cmp	r3, #0
 303 0076 01D1     		bne	.L20
 304              	.L19:
 305              		.loc 1 315 0 discriminator 3
 306 0078 0123     		movs	r3, #1
 307 007a 00E0     		b	.L21
 308              	.L20:
 309              		.loc 1 315 0 discriminator 4
 310 007c 0023     		movs	r3, #0
 311              	.L21:
 312              		.loc 1 315 0 discriminator 6
 313 007e 002B     		cmp	r3, #0
 314 0080 09D1     		bne	.L22
 315              	.LBB126:
 316              	.LBB127:
 317              		.loc 2 195 0 is_stmt 1 discriminator 7
 318              		.syntax unified
 319              	@ 195 "Firmware/Middlewares/Third_Party/FreeRTOS/Source/portable/GCC/ARM_CM4F/portmacro.h" 1
 320 0082 4FF05003 			mov r3, #80												
 321 0086 83F31188 		msr basepri, r3											
 322 008a BFF36F8F 		isb														
 323 008e BFF34F8F 		dsb														
 324              	
 325              	@ 0 "" 2
 326              		.thumb
 327              		.syntax unified
 328 0092 FB61     		str	r3, [r7, #28]
 329              	.L23:
 330              	.LBE127:
 331              	.LBE126:
 332              		.loc 1 315 0 discriminator 4
 333 0094 FEE7     		b	.L23
 334              	.L22:
 335              	.LBB128:
 316:Firmware/Middlewares/Third_Party/FreeRTOS/Source/queue.c **** 
 317:Firmware/Middlewares/Third_Party/FreeRTOS/Source/queue.c **** 		#if( configASSERT_DEFINED == 1 )
 318:Firmware/Middlewares/Third_Party/FreeRTOS/Source/queue.c **** 		{
 319:Firmware/Middlewares/Third_Party/FreeRTOS/Source/queue.c **** 			/* Sanity check that the size of the structure used to declare a
 320:Firmware/Middlewares/Third_Party/FreeRTOS/Source/queue.c **** 			variable of type StaticQueue_t or StaticSemaphore_t equals the size of
 321:Firmware/Middlewares/Third_Party/FreeRTOS/Source/queue.c **** 			the real queue and semaphore structures. */
 322:Firmware/Middlewares/Third_Party/FreeRTOS/Source/queue.c **** 			volatile size_t xSize = sizeof( StaticQueue_t );
 336              		.loc 1 322 0
 337 0096 5023     		movs	r3, #80
 338 0098 7B61     		str	r3, [r7, #20]
 323:Firmware/Middlewares/Third_Party/FreeRTOS/Source/queue.c **** 			configASSERT( xSize == sizeof( Queue_t ) );
 339              		.loc 1 323 0
 340 009a 7B69     		ldr	r3, [r7, #20]
ARM GAS  /tmp/ccwOJcWw.s 			page 16


 341 009c 502B     		cmp	r3, #80
 342 009e 09D0     		beq	.L24
 343              	.LBB129:
 344              	.LBB130:
 345              		.loc 2 195 0 discriminator 1
 346              		.syntax unified
 347              	@ 195 "Firmware/Middlewares/Third_Party/FreeRTOS/Source/portable/GCC/ARM_CM4F/portmacro.h" 1
 348 00a0 4FF05003 			mov r3, #80												
 349 00a4 83F31188 		msr basepri, r3											
 350 00a8 BFF36F8F 		isb														
 351 00ac BFF34F8F 		dsb														
 352              	
 353              	@ 0 "" 2
 354              		.thumb
 355              		.syntax unified
 356 00b0 BB61     		str	r3, [r7, #24]
 357              	.L25:
 358              	.LBE130:
 359              	.LBE129:
 360              		.loc 1 323 0 discriminator 5
 361 00b2 FEE7     		b	.L25
 362              	.L24:
 363              	.LBE128:
 324:Firmware/Middlewares/Third_Party/FreeRTOS/Source/queue.c **** 		}
 325:Firmware/Middlewares/Third_Party/FreeRTOS/Source/queue.c **** 		#endif /* configASSERT_DEFINED */
 326:Firmware/Middlewares/Third_Party/FreeRTOS/Source/queue.c **** 
 327:Firmware/Middlewares/Third_Party/FreeRTOS/Source/queue.c **** 		/* The address of a statically allocated queue was passed in, use it.
 328:Firmware/Middlewares/Third_Party/FreeRTOS/Source/queue.c **** 		The address of a statically allocated storage area was also passed in
 329:Firmware/Middlewares/Third_Party/FreeRTOS/Source/queue.c **** 		but is already set. */
 330:Firmware/Middlewares/Third_Party/FreeRTOS/Source/queue.c **** 		pxNewQueue = ( Queue_t * ) pxStaticQueue; /*lint !e740 Unusual cast is ok as the structures are d
 364              		.loc 1 330 0
 365 00b4 3B68     		ldr	r3, [r7]
 366 00b6 FB62     		str	r3, [r7, #44]
 331:Firmware/Middlewares/Third_Party/FreeRTOS/Source/queue.c **** 
 332:Firmware/Middlewares/Third_Party/FreeRTOS/Source/queue.c **** 		if( pxNewQueue != NULL )
 367              		.loc 1 332 0
 368 00b8 FB6A     		ldr	r3, [r7, #44]
 369 00ba 002B     		cmp	r3, #0
 370 00bc 0DD0     		beq	.L26
 333:Firmware/Middlewares/Third_Party/FreeRTOS/Source/queue.c **** 		{
 334:Firmware/Middlewares/Third_Party/FreeRTOS/Source/queue.c **** 			#if( configSUPPORT_DYNAMIC_ALLOCATION == 1 )
 335:Firmware/Middlewares/Third_Party/FreeRTOS/Source/queue.c **** 			{
 336:Firmware/Middlewares/Third_Party/FreeRTOS/Source/queue.c **** 				/* Queues can be allocated wither statically or dynamically, so
 337:Firmware/Middlewares/Third_Party/FreeRTOS/Source/queue.c **** 				note this queue was allocated statically in case the queue is
 338:Firmware/Middlewares/Third_Party/FreeRTOS/Source/queue.c **** 				later deleted. */
 339:Firmware/Middlewares/Third_Party/FreeRTOS/Source/queue.c **** 				pxNewQueue->ucStaticallyAllocated = pdTRUE;
 371              		.loc 1 339 0
 372 00be FB6A     		ldr	r3, [r7, #44]
 373 00c0 0122     		movs	r2, #1
 374 00c2 83F84620 		strb	r2, [r3, #70]
 340:Firmware/Middlewares/Third_Party/FreeRTOS/Source/queue.c **** 			}
 341:Firmware/Middlewares/Third_Party/FreeRTOS/Source/queue.c **** 			#endif /* configSUPPORT_DYNAMIC_ALLOCATION */
 342:Firmware/Middlewares/Third_Party/FreeRTOS/Source/queue.c **** 
 343:Firmware/Middlewares/Third_Party/FreeRTOS/Source/queue.c **** 			prvInitialiseNewQueue( uxQueueLength, uxItemSize, pucQueueStorage, ucQueueType, pxNewQueue );
 375              		.loc 1 343 0
 376 00c6 97F83820 		ldrb	r2, [r7, #56]	@ zero_extendqisi2
 377 00ca FB6A     		ldr	r3, [r7, #44]
ARM GAS  /tmp/ccwOJcWw.s 			page 17


 378 00cc 0093     		str	r3, [sp]
 379 00ce 1346     		mov	r3, r2
 380 00d0 7A68     		ldr	r2, [r7, #4]
 381 00d2 B968     		ldr	r1, [r7, #8]
 382 00d4 F868     		ldr	r0, [r7, #12]
 383 00d6 FFF7FEFF 		bl	prvInitialiseNewQueue
 384              	.L26:
 344:Firmware/Middlewares/Third_Party/FreeRTOS/Source/queue.c **** 		}
 345:Firmware/Middlewares/Third_Party/FreeRTOS/Source/queue.c **** 		else
 346:Firmware/Middlewares/Third_Party/FreeRTOS/Source/queue.c **** 		{
 347:Firmware/Middlewares/Third_Party/FreeRTOS/Source/queue.c **** 			traceQUEUE_CREATE_FAILED( ucQueueType );
 348:Firmware/Middlewares/Third_Party/FreeRTOS/Source/queue.c **** 		}
 349:Firmware/Middlewares/Third_Party/FreeRTOS/Source/queue.c **** 
 350:Firmware/Middlewares/Third_Party/FreeRTOS/Source/queue.c **** 		return pxNewQueue;
 385              		.loc 1 350 0
 386 00da FB6A     		ldr	r3, [r7, #44]
 351:Firmware/Middlewares/Third_Party/FreeRTOS/Source/queue.c **** 	}
 387              		.loc 1 351 0
 388 00dc 1846     		mov	r0, r3
 389 00de 3037     		adds	r7, r7, #48
 390              	.LCFI8:
 391              		.cfi_def_cfa_offset 8
 392 00e0 BD46     		mov	sp, r7
 393              	.LCFI9:
 394              		.cfi_def_cfa_register 13
 395              		@ sp needed
 396 00e2 80BD     		pop	{r7, pc}
 397              		.cfi_endproc
 398              	.LFE5:
 400              		.section	.text.xQueueGenericCreate,"ax",%progbits
 401              		.align	1
 402              		.global	xQueueGenericCreate
 403              		.syntax unified
 404              		.thumb
 405              		.thumb_func
 406              		.fpu fpv4-sp-d16
 408              	xQueueGenericCreate:
 409              	.LFB6:
 352:Firmware/Middlewares/Third_Party/FreeRTOS/Source/queue.c **** 
 353:Firmware/Middlewares/Third_Party/FreeRTOS/Source/queue.c **** #endif /* configSUPPORT_STATIC_ALLOCATION */
 354:Firmware/Middlewares/Third_Party/FreeRTOS/Source/queue.c **** /*-----------------------------------------------------------*/
 355:Firmware/Middlewares/Third_Party/FreeRTOS/Source/queue.c **** 
 356:Firmware/Middlewares/Third_Party/FreeRTOS/Source/queue.c **** #if( configSUPPORT_DYNAMIC_ALLOCATION == 1 )
 357:Firmware/Middlewares/Third_Party/FreeRTOS/Source/queue.c **** 
 358:Firmware/Middlewares/Third_Party/FreeRTOS/Source/queue.c **** 	QueueHandle_t xQueueGenericCreate( const UBaseType_t uxQueueLength, const UBaseType_t uxItemSize, 
 359:Firmware/Middlewares/Third_Party/FreeRTOS/Source/queue.c **** 	{
 410              		.loc 1 359 0
 411              		.cfi_startproc
 412              		@ args = 0, pretend = 0, frame = 32
 413              		@ frame_needed = 1, uses_anonymous_args = 0
 414 0000 80B5     		push	{r7, lr}
 415              	.LCFI10:
 416              		.cfi_def_cfa_offset 8
 417              		.cfi_offset 7, -8
 418              		.cfi_offset 14, -4
 419 0002 8AB0     		sub	sp, sp, #40
 420              	.LCFI11:
ARM GAS  /tmp/ccwOJcWw.s 			page 18


 421              		.cfi_def_cfa_offset 48
 422 0004 02AF     		add	r7, sp, #8
 423              	.LCFI12:
 424              		.cfi_def_cfa 7, 40
 425 0006 F860     		str	r0, [r7, #12]
 426 0008 B960     		str	r1, [r7, #8]
 427 000a 1346     		mov	r3, r2
 428 000c FB71     		strb	r3, [r7, #7]
 360:Firmware/Middlewares/Third_Party/FreeRTOS/Source/queue.c **** 	Queue_t *pxNewQueue;
 361:Firmware/Middlewares/Third_Party/FreeRTOS/Source/queue.c **** 	size_t xQueueSizeInBytes;
 362:Firmware/Middlewares/Third_Party/FreeRTOS/Source/queue.c **** 	uint8_t *pucQueueStorage;
 363:Firmware/Middlewares/Third_Party/FreeRTOS/Source/queue.c **** 
 364:Firmware/Middlewares/Third_Party/FreeRTOS/Source/queue.c **** 		configASSERT( uxQueueLength > ( UBaseType_t ) 0 );
 429              		.loc 1 364 0
 430 000e FB68     		ldr	r3, [r7, #12]
 431 0010 002B     		cmp	r3, #0
 432 0012 09D1     		bne	.L29
 433              	.LBB131:
 434              	.LBB132:
 435              		.loc 2 195 0 discriminator 1
 436              		.syntax unified
 437              	@ 195 "Firmware/Middlewares/Third_Party/FreeRTOS/Source/portable/GCC/ARM_CM4F/portmacro.h" 1
 438 0014 4FF05003 			mov r3, #80												
 439 0018 83F31188 		msr basepri, r3											
 440 001c BFF36F8F 		isb														
 441 0020 BFF34F8F 		dsb														
 442              	
 443              	@ 0 "" 2
 444              		.thumb
 445              		.syntax unified
 446 0024 3B61     		str	r3, [r7, #16]
 447              	.L30:
 448              	.LBE132:
 449              	.LBE131:
 450              		.loc 1 364 0 discriminator 1
 451 0026 FEE7     		b	.L30
 452              	.L29:
 365:Firmware/Middlewares/Third_Party/FreeRTOS/Source/queue.c **** 
 366:Firmware/Middlewares/Third_Party/FreeRTOS/Source/queue.c **** 		if( uxItemSize == ( UBaseType_t ) 0 )
 453              		.loc 1 366 0
 454 0028 BB68     		ldr	r3, [r7, #8]
 455 002a 002B     		cmp	r3, #0
 456 002c 02D1     		bne	.L31
 367:Firmware/Middlewares/Third_Party/FreeRTOS/Source/queue.c **** 		{
 368:Firmware/Middlewares/Third_Party/FreeRTOS/Source/queue.c **** 			/* There is not going to be a queue storage area. */
 369:Firmware/Middlewares/Third_Party/FreeRTOS/Source/queue.c **** 			xQueueSizeInBytes = ( size_t ) 0;
 457              		.loc 1 369 0
 458 002e 0023     		movs	r3, #0
 459 0030 FB61     		str	r3, [r7, #28]
 460 0032 04E0     		b	.L32
 461              	.L31:
 370:Firmware/Middlewares/Third_Party/FreeRTOS/Source/queue.c **** 		}
 371:Firmware/Middlewares/Third_Party/FreeRTOS/Source/queue.c **** 		else
 372:Firmware/Middlewares/Third_Party/FreeRTOS/Source/queue.c **** 		{
 373:Firmware/Middlewares/Third_Party/FreeRTOS/Source/queue.c **** 			/* Allocate enough space to hold the maximum number of items that
 374:Firmware/Middlewares/Third_Party/FreeRTOS/Source/queue.c **** 			can be in the queue at any time. */
 375:Firmware/Middlewares/Third_Party/FreeRTOS/Source/queue.c **** 			xQueueSizeInBytes = ( size_t ) ( uxQueueLength * uxItemSize ); /*lint !e961 MISRA exception as t
ARM GAS  /tmp/ccwOJcWw.s 			page 19


 462              		.loc 1 375 0
 463 0034 FB68     		ldr	r3, [r7, #12]
 464 0036 BA68     		ldr	r2, [r7, #8]
 465 0038 02FB03F3 		mul	r3, r2, r3
 466 003c FB61     		str	r3, [r7, #28]
 467              	.L32:
 376:Firmware/Middlewares/Third_Party/FreeRTOS/Source/queue.c **** 		}
 377:Firmware/Middlewares/Third_Party/FreeRTOS/Source/queue.c **** 
 378:Firmware/Middlewares/Third_Party/FreeRTOS/Source/queue.c **** 		pxNewQueue = ( Queue_t * ) pvPortMalloc( sizeof( Queue_t ) + xQueueSizeInBytes );
 468              		.loc 1 378 0
 469 003e FB69     		ldr	r3, [r7, #28]
 470 0040 5033     		adds	r3, r3, #80
 471 0042 1846     		mov	r0, r3
 472 0044 FFF7FEFF 		bl	pvPortMalloc
 473 0048 B861     		str	r0, [r7, #24]
 379:Firmware/Middlewares/Third_Party/FreeRTOS/Source/queue.c **** 
 380:Firmware/Middlewares/Third_Party/FreeRTOS/Source/queue.c **** 		if( pxNewQueue != NULL )
 474              		.loc 1 380 0
 475 004a BB69     		ldr	r3, [r7, #24]
 476 004c 002B     		cmp	r3, #0
 477 004e 0FD0     		beq	.L33
 381:Firmware/Middlewares/Third_Party/FreeRTOS/Source/queue.c **** 		{
 382:Firmware/Middlewares/Third_Party/FreeRTOS/Source/queue.c **** 			/* Jump past the queue structure to find the location of the queue
 383:Firmware/Middlewares/Third_Party/FreeRTOS/Source/queue.c **** 			storage area. */
 384:Firmware/Middlewares/Third_Party/FreeRTOS/Source/queue.c **** 			pucQueueStorage = ( ( uint8_t * ) pxNewQueue ) + sizeof( Queue_t );
 478              		.loc 1 384 0
 479 0050 BB69     		ldr	r3, [r7, #24]
 480 0052 5033     		adds	r3, r3, #80
 481 0054 7B61     		str	r3, [r7, #20]
 385:Firmware/Middlewares/Third_Party/FreeRTOS/Source/queue.c **** 
 386:Firmware/Middlewares/Third_Party/FreeRTOS/Source/queue.c **** 			#if( configSUPPORT_STATIC_ALLOCATION == 1 )
 387:Firmware/Middlewares/Third_Party/FreeRTOS/Source/queue.c **** 			{
 388:Firmware/Middlewares/Third_Party/FreeRTOS/Source/queue.c **** 				/* Queues can be created either statically or dynamically, so
 389:Firmware/Middlewares/Third_Party/FreeRTOS/Source/queue.c **** 				note this task was created dynamically in case it is later
 390:Firmware/Middlewares/Third_Party/FreeRTOS/Source/queue.c **** 				deleted. */
 391:Firmware/Middlewares/Third_Party/FreeRTOS/Source/queue.c **** 				pxNewQueue->ucStaticallyAllocated = pdFALSE;
 482              		.loc 1 391 0
 483 0056 BB69     		ldr	r3, [r7, #24]
 484 0058 0022     		movs	r2, #0
 485 005a 83F84620 		strb	r2, [r3, #70]
 392:Firmware/Middlewares/Third_Party/FreeRTOS/Source/queue.c **** 			}
 393:Firmware/Middlewares/Third_Party/FreeRTOS/Source/queue.c **** 			#endif /* configSUPPORT_STATIC_ALLOCATION */
 394:Firmware/Middlewares/Third_Party/FreeRTOS/Source/queue.c **** 
 395:Firmware/Middlewares/Third_Party/FreeRTOS/Source/queue.c **** 			prvInitialiseNewQueue( uxQueueLength, uxItemSize, pucQueueStorage, ucQueueType, pxNewQueue );
 486              		.loc 1 395 0
 487 005e FA79     		ldrb	r2, [r7, #7]	@ zero_extendqisi2
 488 0060 BB69     		ldr	r3, [r7, #24]
 489 0062 0093     		str	r3, [sp]
 490 0064 1346     		mov	r3, r2
 491 0066 7A69     		ldr	r2, [r7, #20]
 492 0068 B968     		ldr	r1, [r7, #8]
 493 006a F868     		ldr	r0, [r7, #12]
 494 006c FFF7FEFF 		bl	prvInitialiseNewQueue
 495              	.L33:
 396:Firmware/Middlewares/Third_Party/FreeRTOS/Source/queue.c **** 		}
 397:Firmware/Middlewares/Third_Party/FreeRTOS/Source/queue.c **** 		else
 398:Firmware/Middlewares/Third_Party/FreeRTOS/Source/queue.c **** 		{
ARM GAS  /tmp/ccwOJcWw.s 			page 20


 399:Firmware/Middlewares/Third_Party/FreeRTOS/Source/queue.c **** 			traceQUEUE_CREATE_FAILED( ucQueueType );
 400:Firmware/Middlewares/Third_Party/FreeRTOS/Source/queue.c **** 		}
 401:Firmware/Middlewares/Third_Party/FreeRTOS/Source/queue.c **** 
 402:Firmware/Middlewares/Third_Party/FreeRTOS/Source/queue.c **** 		return pxNewQueue;
 496              		.loc 1 402 0
 497 0070 BB69     		ldr	r3, [r7, #24]
 403:Firmware/Middlewares/Third_Party/FreeRTOS/Source/queue.c **** 	}
 498              		.loc 1 403 0
 499 0072 1846     		mov	r0, r3
 500 0074 2037     		adds	r7, r7, #32
 501              	.LCFI13:
 502              		.cfi_def_cfa_offset 8
 503 0076 BD46     		mov	sp, r7
 504              	.LCFI14:
 505              		.cfi_def_cfa_register 13
 506              		@ sp needed
 507 0078 80BD     		pop	{r7, pc}
 508              		.cfi_endproc
 509              	.LFE6:
 511              		.section	.text.prvInitialiseNewQueue,"ax",%progbits
 512              		.align	1
 513              		.syntax unified
 514              		.thumb
 515              		.thumb_func
 516              		.fpu fpv4-sp-d16
 518              	prvInitialiseNewQueue:
 519              	.LFB7:
 404:Firmware/Middlewares/Third_Party/FreeRTOS/Source/queue.c **** 
 405:Firmware/Middlewares/Third_Party/FreeRTOS/Source/queue.c **** #endif /* configSUPPORT_STATIC_ALLOCATION */
 406:Firmware/Middlewares/Third_Party/FreeRTOS/Source/queue.c **** /*-----------------------------------------------------------*/
 407:Firmware/Middlewares/Third_Party/FreeRTOS/Source/queue.c **** 
 408:Firmware/Middlewares/Third_Party/FreeRTOS/Source/queue.c **** static void prvInitialiseNewQueue( const UBaseType_t uxQueueLength, const UBaseType_t uxItemSize, u
 409:Firmware/Middlewares/Third_Party/FreeRTOS/Source/queue.c **** {
 520              		.loc 1 409 0
 521              		.cfi_startproc
 522              		@ args = 4, pretend = 0, frame = 16
 523              		@ frame_needed = 1, uses_anonymous_args = 0
 524 0000 80B5     		push	{r7, lr}
 525              	.LCFI15:
 526              		.cfi_def_cfa_offset 8
 527              		.cfi_offset 7, -8
 528              		.cfi_offset 14, -4
 529 0002 84B0     		sub	sp, sp, #16
 530              	.LCFI16:
 531              		.cfi_def_cfa_offset 24
 532 0004 00AF     		add	r7, sp, #0
 533              	.LCFI17:
 534              		.cfi_def_cfa_register 7
 535 0006 F860     		str	r0, [r7, #12]
 536 0008 B960     		str	r1, [r7, #8]
 537 000a 7A60     		str	r2, [r7, #4]
 538 000c FB70     		strb	r3, [r7, #3]
 410:Firmware/Middlewares/Third_Party/FreeRTOS/Source/queue.c **** 	/* Remove compiler warnings about unused parameters should
 411:Firmware/Middlewares/Third_Party/FreeRTOS/Source/queue.c **** 	configUSE_TRACE_FACILITY not be set to 1. */
 412:Firmware/Middlewares/Third_Party/FreeRTOS/Source/queue.c **** 	( void ) ucQueueType;
 413:Firmware/Middlewares/Third_Party/FreeRTOS/Source/queue.c **** 
 414:Firmware/Middlewares/Third_Party/FreeRTOS/Source/queue.c **** 	if( uxItemSize == ( UBaseType_t ) 0 )
ARM GAS  /tmp/ccwOJcWw.s 			page 21


 539              		.loc 1 414 0
 540 000e BB68     		ldr	r3, [r7, #8]
 541 0010 002B     		cmp	r3, #0
 542 0012 03D1     		bne	.L36
 415:Firmware/Middlewares/Third_Party/FreeRTOS/Source/queue.c **** 	{
 416:Firmware/Middlewares/Third_Party/FreeRTOS/Source/queue.c **** 		/* No RAM was allocated for the queue storage area, but PC head cannot
 417:Firmware/Middlewares/Third_Party/FreeRTOS/Source/queue.c **** 		be set to NULL because NULL is used as a key to say the queue is used as
 418:Firmware/Middlewares/Third_Party/FreeRTOS/Source/queue.c **** 		a mutex.  Therefore just set pcHead to point to the queue as a benign
 419:Firmware/Middlewares/Third_Party/FreeRTOS/Source/queue.c **** 		value that is known to be within the memory map. */
 420:Firmware/Middlewares/Third_Party/FreeRTOS/Source/queue.c **** 		pxNewQueue->pcHead = ( int8_t * ) pxNewQueue;
 543              		.loc 1 420 0
 544 0014 BB69     		ldr	r3, [r7, #24]
 545 0016 BA69     		ldr	r2, [r7, #24]
 546 0018 1A60     		str	r2, [r3]
 547 001a 02E0     		b	.L37
 548              	.L36:
 421:Firmware/Middlewares/Third_Party/FreeRTOS/Source/queue.c **** 	}
 422:Firmware/Middlewares/Third_Party/FreeRTOS/Source/queue.c **** 	else
 423:Firmware/Middlewares/Third_Party/FreeRTOS/Source/queue.c **** 	{
 424:Firmware/Middlewares/Third_Party/FreeRTOS/Source/queue.c **** 		/* Set the head to the start of the queue storage area. */
 425:Firmware/Middlewares/Third_Party/FreeRTOS/Source/queue.c **** 		pxNewQueue->pcHead = ( int8_t * ) pucQueueStorage;
 549              		.loc 1 425 0
 550 001c BB69     		ldr	r3, [r7, #24]
 551 001e 7A68     		ldr	r2, [r7, #4]
 552 0020 1A60     		str	r2, [r3]
 553              	.L37:
 426:Firmware/Middlewares/Third_Party/FreeRTOS/Source/queue.c **** 	}
 427:Firmware/Middlewares/Third_Party/FreeRTOS/Source/queue.c **** 
 428:Firmware/Middlewares/Third_Party/FreeRTOS/Source/queue.c **** 	/* Initialise the queue members as described where the queue type is
 429:Firmware/Middlewares/Third_Party/FreeRTOS/Source/queue.c **** 	defined. */
 430:Firmware/Middlewares/Third_Party/FreeRTOS/Source/queue.c **** 	pxNewQueue->uxLength = uxQueueLength;
 554              		.loc 1 430 0
 555 0022 BB69     		ldr	r3, [r7, #24]
 556 0024 FA68     		ldr	r2, [r7, #12]
 557 0026 DA63     		str	r2, [r3, #60]
 431:Firmware/Middlewares/Third_Party/FreeRTOS/Source/queue.c **** 	pxNewQueue->uxItemSize = uxItemSize;
 558              		.loc 1 431 0
 559 0028 BB69     		ldr	r3, [r7, #24]
 560 002a BA68     		ldr	r2, [r7, #8]
 561 002c 1A64     		str	r2, [r3, #64]
 432:Firmware/Middlewares/Third_Party/FreeRTOS/Source/queue.c **** 	( void ) xQueueGenericReset( pxNewQueue, pdTRUE );
 562              		.loc 1 432 0
 563 002e 0121     		movs	r1, #1
 564 0030 B869     		ldr	r0, [r7, #24]
 565 0032 FFF7FEFF 		bl	xQueueGenericReset
 433:Firmware/Middlewares/Third_Party/FreeRTOS/Source/queue.c **** 
 434:Firmware/Middlewares/Third_Party/FreeRTOS/Source/queue.c **** 	#if ( configUSE_TRACE_FACILITY == 1 )
 435:Firmware/Middlewares/Third_Party/FreeRTOS/Source/queue.c **** 	{
 436:Firmware/Middlewares/Third_Party/FreeRTOS/Source/queue.c **** 		pxNewQueue->ucQueueType = ucQueueType;
 566              		.loc 1 436 0
 567 0036 BB69     		ldr	r3, [r7, #24]
 568 0038 FA78     		ldrb	r2, [r7, #3]
 569 003a 83F84C20 		strb	r2, [r3, #76]
 437:Firmware/Middlewares/Third_Party/FreeRTOS/Source/queue.c **** 	}
 438:Firmware/Middlewares/Third_Party/FreeRTOS/Source/queue.c **** 	#endif /* configUSE_TRACE_FACILITY */
 439:Firmware/Middlewares/Third_Party/FreeRTOS/Source/queue.c **** 
 440:Firmware/Middlewares/Third_Party/FreeRTOS/Source/queue.c **** 	#if( configUSE_QUEUE_SETS == 1 )
ARM GAS  /tmp/ccwOJcWw.s 			page 22


 441:Firmware/Middlewares/Third_Party/FreeRTOS/Source/queue.c **** 	{
 442:Firmware/Middlewares/Third_Party/FreeRTOS/Source/queue.c **** 		pxNewQueue->pxQueueSetContainer = NULL;
 443:Firmware/Middlewares/Third_Party/FreeRTOS/Source/queue.c **** 	}
 444:Firmware/Middlewares/Third_Party/FreeRTOS/Source/queue.c **** 	#endif /* configUSE_QUEUE_SETS */
 445:Firmware/Middlewares/Third_Party/FreeRTOS/Source/queue.c **** 
 446:Firmware/Middlewares/Third_Party/FreeRTOS/Source/queue.c **** 	traceQUEUE_CREATE( pxNewQueue );
 447:Firmware/Middlewares/Third_Party/FreeRTOS/Source/queue.c **** }
 570              		.loc 1 447 0
 571 003e 00BF     		nop
 572 0040 1037     		adds	r7, r7, #16
 573              	.LCFI18:
 574              		.cfi_def_cfa_offset 8
 575 0042 BD46     		mov	sp, r7
 576              	.LCFI19:
 577              		.cfi_def_cfa_register 13
 578              		@ sp needed
 579 0044 80BD     		pop	{r7, pc}
 580              		.cfi_endproc
 581              	.LFE7:
 583              		.section	.text.prvInitialiseMutex,"ax",%progbits
 584              		.align	1
 585              		.syntax unified
 586              		.thumb
 587              		.thumb_func
 588              		.fpu fpv4-sp-d16
 590              	prvInitialiseMutex:
 591              	.LFB8:
 448:Firmware/Middlewares/Third_Party/FreeRTOS/Source/queue.c **** /*-----------------------------------------------------------*/
 449:Firmware/Middlewares/Third_Party/FreeRTOS/Source/queue.c **** 
 450:Firmware/Middlewares/Third_Party/FreeRTOS/Source/queue.c **** #if( configUSE_MUTEXES == 1 )
 451:Firmware/Middlewares/Third_Party/FreeRTOS/Source/queue.c **** 
 452:Firmware/Middlewares/Third_Party/FreeRTOS/Source/queue.c **** 	static void prvInitialiseMutex( Queue_t *pxNewQueue )
 453:Firmware/Middlewares/Third_Party/FreeRTOS/Source/queue.c **** 	{
 592              		.loc 1 453 0
 593              		.cfi_startproc
 594              		@ args = 0, pretend = 0, frame = 8
 595              		@ frame_needed = 1, uses_anonymous_args = 0
 596 0000 80B5     		push	{r7, lr}
 597              	.LCFI20:
 598              		.cfi_def_cfa_offset 8
 599              		.cfi_offset 7, -8
 600              		.cfi_offset 14, -4
 601 0002 82B0     		sub	sp, sp, #8
 602              	.LCFI21:
 603              		.cfi_def_cfa_offset 16
 604 0004 00AF     		add	r7, sp, #0
 605              	.LCFI22:
 606              		.cfi_def_cfa_register 7
 607 0006 7860     		str	r0, [r7, #4]
 454:Firmware/Middlewares/Third_Party/FreeRTOS/Source/queue.c **** 		if( pxNewQueue != NULL )
 608              		.loc 1 454 0
 609 0008 7B68     		ldr	r3, [r7, #4]
 610 000a 002B     		cmp	r3, #0
 611 000c 0ED0     		beq	.L40
 455:Firmware/Middlewares/Third_Party/FreeRTOS/Source/queue.c **** 		{
 456:Firmware/Middlewares/Third_Party/FreeRTOS/Source/queue.c **** 			/* The queue create function will set all the queue structure members
 457:Firmware/Middlewares/Third_Party/FreeRTOS/Source/queue.c **** 			correctly for a generic queue, but this function is creating a
ARM GAS  /tmp/ccwOJcWw.s 			page 23


 458:Firmware/Middlewares/Third_Party/FreeRTOS/Source/queue.c **** 			mutex.  Overwrite those members that need to be set differently -
 459:Firmware/Middlewares/Third_Party/FreeRTOS/Source/queue.c **** 			in particular the information required for priority inheritance. */
 460:Firmware/Middlewares/Third_Party/FreeRTOS/Source/queue.c **** 			pxNewQueue->pxMutexHolder = NULL;
 612              		.loc 1 460 0
 613 000e 7B68     		ldr	r3, [r7, #4]
 614 0010 0022     		movs	r2, #0
 615 0012 5A60     		str	r2, [r3, #4]
 461:Firmware/Middlewares/Third_Party/FreeRTOS/Source/queue.c **** 			pxNewQueue->uxQueueType = queueQUEUE_IS_MUTEX;
 616              		.loc 1 461 0
 617 0014 7B68     		ldr	r3, [r7, #4]
 618 0016 0022     		movs	r2, #0
 619 0018 1A60     		str	r2, [r3]
 462:Firmware/Middlewares/Third_Party/FreeRTOS/Source/queue.c **** 
 463:Firmware/Middlewares/Third_Party/FreeRTOS/Source/queue.c **** 			/* In case this is a recursive mutex. */
 464:Firmware/Middlewares/Third_Party/FreeRTOS/Source/queue.c **** 			pxNewQueue->u.uxRecursiveCallCount = 0;
 620              		.loc 1 464 0
 621 001a 7B68     		ldr	r3, [r7, #4]
 622 001c 0022     		movs	r2, #0
 623 001e DA60     		str	r2, [r3, #12]
 465:Firmware/Middlewares/Third_Party/FreeRTOS/Source/queue.c **** 
 466:Firmware/Middlewares/Third_Party/FreeRTOS/Source/queue.c **** 			traceCREATE_MUTEX( pxNewQueue );
 467:Firmware/Middlewares/Third_Party/FreeRTOS/Source/queue.c **** 
 468:Firmware/Middlewares/Third_Party/FreeRTOS/Source/queue.c **** 			/* Start with the semaphore in the expected state. */
 469:Firmware/Middlewares/Third_Party/FreeRTOS/Source/queue.c **** 			( void ) xQueueGenericSend( pxNewQueue, NULL, ( TickType_t ) 0U, queueSEND_TO_BACK );
 624              		.loc 1 469 0
 625 0020 0023     		movs	r3, #0
 626 0022 0022     		movs	r2, #0
 627 0024 0021     		movs	r1, #0
 628 0026 7868     		ldr	r0, [r7, #4]
 629 0028 FFF7FEFF 		bl	xQueueGenericSend
 630              	.L40:
 470:Firmware/Middlewares/Third_Party/FreeRTOS/Source/queue.c **** 		}
 471:Firmware/Middlewares/Third_Party/FreeRTOS/Source/queue.c **** 		else
 472:Firmware/Middlewares/Third_Party/FreeRTOS/Source/queue.c **** 		{
 473:Firmware/Middlewares/Third_Party/FreeRTOS/Source/queue.c **** 			traceCREATE_MUTEX_FAILED();
 474:Firmware/Middlewares/Third_Party/FreeRTOS/Source/queue.c **** 		}
 475:Firmware/Middlewares/Third_Party/FreeRTOS/Source/queue.c **** 	}
 631              		.loc 1 475 0
 632 002c 00BF     		nop
 633 002e 0837     		adds	r7, r7, #8
 634              	.LCFI23:
 635              		.cfi_def_cfa_offset 8
 636 0030 BD46     		mov	sp, r7
 637              	.LCFI24:
 638              		.cfi_def_cfa_register 13
 639              		@ sp needed
 640 0032 80BD     		pop	{r7, pc}
 641              		.cfi_endproc
 642              	.LFE8:
 644              		.section	.text.xQueueCreateMutex,"ax",%progbits
 645              		.align	1
 646              		.global	xQueueCreateMutex
 647              		.syntax unified
 648              		.thumb
 649              		.thumb_func
 650              		.fpu fpv4-sp-d16
 652              	xQueueCreateMutex:
ARM GAS  /tmp/ccwOJcWw.s 			page 24


 653              	.LFB9:
 476:Firmware/Middlewares/Third_Party/FreeRTOS/Source/queue.c **** 
 477:Firmware/Middlewares/Third_Party/FreeRTOS/Source/queue.c **** #endif /* configUSE_MUTEXES */
 478:Firmware/Middlewares/Third_Party/FreeRTOS/Source/queue.c **** /*-----------------------------------------------------------*/
 479:Firmware/Middlewares/Third_Party/FreeRTOS/Source/queue.c **** 
 480:Firmware/Middlewares/Third_Party/FreeRTOS/Source/queue.c **** #if( ( configUSE_MUTEXES == 1 ) && ( configSUPPORT_DYNAMIC_ALLOCATION == 1 ) )
 481:Firmware/Middlewares/Third_Party/FreeRTOS/Source/queue.c **** 
 482:Firmware/Middlewares/Third_Party/FreeRTOS/Source/queue.c **** 	QueueHandle_t xQueueCreateMutex( const uint8_t ucQueueType )
 483:Firmware/Middlewares/Third_Party/FreeRTOS/Source/queue.c **** 	{
 654              		.loc 1 483 0
 655              		.cfi_startproc
 656              		@ args = 0, pretend = 0, frame = 24
 657              		@ frame_needed = 1, uses_anonymous_args = 0
 658 0000 80B5     		push	{r7, lr}
 659              	.LCFI25:
 660              		.cfi_def_cfa_offset 8
 661              		.cfi_offset 7, -8
 662              		.cfi_offset 14, -4
 663 0002 86B0     		sub	sp, sp, #24
 664              	.LCFI26:
 665              		.cfi_def_cfa_offset 32
 666 0004 00AF     		add	r7, sp, #0
 667              	.LCFI27:
 668              		.cfi_def_cfa_register 7
 669 0006 0346     		mov	r3, r0
 670 0008 FB71     		strb	r3, [r7, #7]
 484:Firmware/Middlewares/Third_Party/FreeRTOS/Source/queue.c **** 	Queue_t *pxNewQueue;
 485:Firmware/Middlewares/Third_Party/FreeRTOS/Source/queue.c **** 	const UBaseType_t uxMutexLength = ( UBaseType_t ) 1, uxMutexSize = ( UBaseType_t ) 0;
 671              		.loc 1 485 0
 672 000a 0123     		movs	r3, #1
 673 000c 7B61     		str	r3, [r7, #20]
 674 000e 0023     		movs	r3, #0
 675 0010 3B61     		str	r3, [r7, #16]
 486:Firmware/Middlewares/Third_Party/FreeRTOS/Source/queue.c **** 
 487:Firmware/Middlewares/Third_Party/FreeRTOS/Source/queue.c **** 		pxNewQueue = ( Queue_t * ) xQueueGenericCreate( uxMutexLength, uxMutexSize, ucQueueType );
 676              		.loc 1 487 0
 677 0012 FB79     		ldrb	r3, [r7, #7]	@ zero_extendqisi2
 678 0014 1A46     		mov	r2, r3
 679 0016 3969     		ldr	r1, [r7, #16]
 680 0018 7869     		ldr	r0, [r7, #20]
 681 001a FFF7FEFF 		bl	xQueueGenericCreate
 682 001e F860     		str	r0, [r7, #12]
 488:Firmware/Middlewares/Third_Party/FreeRTOS/Source/queue.c **** 		prvInitialiseMutex( pxNewQueue );
 683              		.loc 1 488 0
 684 0020 F868     		ldr	r0, [r7, #12]
 685 0022 FFF7FEFF 		bl	prvInitialiseMutex
 489:Firmware/Middlewares/Third_Party/FreeRTOS/Source/queue.c **** 
 490:Firmware/Middlewares/Third_Party/FreeRTOS/Source/queue.c **** 		return pxNewQueue;
 686              		.loc 1 490 0
 687 0026 FB68     		ldr	r3, [r7, #12]
 491:Firmware/Middlewares/Third_Party/FreeRTOS/Source/queue.c **** 	}
 688              		.loc 1 491 0
 689 0028 1846     		mov	r0, r3
 690 002a 1837     		adds	r7, r7, #24
 691              	.LCFI28:
 692              		.cfi_def_cfa_offset 8
 693 002c BD46     		mov	sp, r7
ARM GAS  /tmp/ccwOJcWw.s 			page 25


 694              	.LCFI29:
 695              		.cfi_def_cfa_register 13
 696              		@ sp needed
 697 002e 80BD     		pop	{r7, pc}
 698              		.cfi_endproc
 699              	.LFE9:
 701              		.section	.text.xQueueCreateMutexStatic,"ax",%progbits
 702              		.align	1
 703              		.global	xQueueCreateMutexStatic
 704              		.syntax unified
 705              		.thumb
 706              		.thumb_func
 707              		.fpu fpv4-sp-d16
 709              	xQueueCreateMutexStatic:
 710              	.LFB10:
 492:Firmware/Middlewares/Third_Party/FreeRTOS/Source/queue.c **** 
 493:Firmware/Middlewares/Third_Party/FreeRTOS/Source/queue.c **** #endif /* configUSE_MUTEXES */
 494:Firmware/Middlewares/Third_Party/FreeRTOS/Source/queue.c **** /*-----------------------------------------------------------*/
 495:Firmware/Middlewares/Third_Party/FreeRTOS/Source/queue.c **** 
 496:Firmware/Middlewares/Third_Party/FreeRTOS/Source/queue.c **** #if( ( configUSE_MUTEXES == 1 ) && ( configSUPPORT_STATIC_ALLOCATION == 1 ) )
 497:Firmware/Middlewares/Third_Party/FreeRTOS/Source/queue.c **** 
 498:Firmware/Middlewares/Third_Party/FreeRTOS/Source/queue.c **** 	QueueHandle_t xQueueCreateMutexStatic( const uint8_t ucQueueType, StaticQueue_t *pxStaticQueue )
 499:Firmware/Middlewares/Third_Party/FreeRTOS/Source/queue.c **** 	{
 711              		.loc 1 499 0
 712              		.cfi_startproc
 713              		@ args = 0, pretend = 0, frame = 24
 714              		@ frame_needed = 1, uses_anonymous_args = 0
 715 0000 80B5     		push	{r7, lr}
 716              	.LCFI30:
 717              		.cfi_def_cfa_offset 8
 718              		.cfi_offset 7, -8
 719              		.cfi_offset 14, -4
 720 0002 88B0     		sub	sp, sp, #32
 721              	.LCFI31:
 722              		.cfi_def_cfa_offset 40
 723 0004 02AF     		add	r7, sp, #8
 724              	.LCFI32:
 725              		.cfi_def_cfa 7, 32
 726 0006 0346     		mov	r3, r0
 727 0008 3960     		str	r1, [r7]
 728 000a FB71     		strb	r3, [r7, #7]
 500:Firmware/Middlewares/Third_Party/FreeRTOS/Source/queue.c **** 	Queue_t *pxNewQueue;
 501:Firmware/Middlewares/Third_Party/FreeRTOS/Source/queue.c **** 	const UBaseType_t uxMutexLength = ( UBaseType_t ) 1, uxMutexSize = ( UBaseType_t ) 0;
 729              		.loc 1 501 0
 730 000c 0123     		movs	r3, #1
 731 000e 7B61     		str	r3, [r7, #20]
 732 0010 0023     		movs	r3, #0
 733 0012 3B61     		str	r3, [r7, #16]
 502:Firmware/Middlewares/Third_Party/FreeRTOS/Source/queue.c **** 
 503:Firmware/Middlewares/Third_Party/FreeRTOS/Source/queue.c **** 		/* Prevent compiler warnings about unused parameters if
 504:Firmware/Middlewares/Third_Party/FreeRTOS/Source/queue.c **** 		configUSE_TRACE_FACILITY does not equal 1. */
 505:Firmware/Middlewares/Third_Party/FreeRTOS/Source/queue.c **** 		( void ) ucQueueType;
 506:Firmware/Middlewares/Third_Party/FreeRTOS/Source/queue.c **** 
 507:Firmware/Middlewares/Third_Party/FreeRTOS/Source/queue.c **** 		pxNewQueue = ( Queue_t * ) xQueueGenericCreateStatic( uxMutexLength, uxMutexSize, NULL, pxStaticQ
 734              		.loc 1 507 0
 735 0014 FB79     		ldrb	r3, [r7, #7]	@ zero_extendqisi2
 736 0016 0093     		str	r3, [sp]
ARM GAS  /tmp/ccwOJcWw.s 			page 26


 737 0018 3B68     		ldr	r3, [r7]
 738 001a 0022     		movs	r2, #0
 739 001c 3969     		ldr	r1, [r7, #16]
 740 001e 7869     		ldr	r0, [r7, #20]
 741 0020 FFF7FEFF 		bl	xQueueGenericCreateStatic
 742 0024 F860     		str	r0, [r7, #12]
 508:Firmware/Middlewares/Third_Party/FreeRTOS/Source/queue.c **** 		prvInitialiseMutex( pxNewQueue );
 743              		.loc 1 508 0
 744 0026 F868     		ldr	r0, [r7, #12]
 745 0028 FFF7FEFF 		bl	prvInitialiseMutex
 509:Firmware/Middlewares/Third_Party/FreeRTOS/Source/queue.c **** 
 510:Firmware/Middlewares/Third_Party/FreeRTOS/Source/queue.c **** 		return pxNewQueue;
 746              		.loc 1 510 0
 747 002c FB68     		ldr	r3, [r7, #12]
 511:Firmware/Middlewares/Third_Party/FreeRTOS/Source/queue.c **** 	}
 748              		.loc 1 511 0
 749 002e 1846     		mov	r0, r3
 750 0030 1837     		adds	r7, r7, #24
 751              	.LCFI33:
 752              		.cfi_def_cfa_offset 8
 753 0032 BD46     		mov	sp, r7
 754              	.LCFI34:
 755              		.cfi_def_cfa_register 13
 756              		@ sp needed
 757 0034 80BD     		pop	{r7, pc}
 758              		.cfi_endproc
 759              	.LFE10:
 761              		.section	.text.xQueueGetMutexHolder,"ax",%progbits
 762              		.align	1
 763              		.global	xQueueGetMutexHolder
 764              		.syntax unified
 765              		.thumb
 766              		.thumb_func
 767              		.fpu fpv4-sp-d16
 769              	xQueueGetMutexHolder:
 770              	.LFB11:
 512:Firmware/Middlewares/Third_Party/FreeRTOS/Source/queue.c **** 
 513:Firmware/Middlewares/Third_Party/FreeRTOS/Source/queue.c **** #endif /* configUSE_MUTEXES */
 514:Firmware/Middlewares/Third_Party/FreeRTOS/Source/queue.c **** /*-----------------------------------------------------------*/
 515:Firmware/Middlewares/Third_Party/FreeRTOS/Source/queue.c **** 
 516:Firmware/Middlewares/Third_Party/FreeRTOS/Source/queue.c **** #if ( ( configUSE_MUTEXES == 1 ) && ( INCLUDE_xSemaphoreGetMutexHolder == 1 ) )
 517:Firmware/Middlewares/Third_Party/FreeRTOS/Source/queue.c **** 
 518:Firmware/Middlewares/Third_Party/FreeRTOS/Source/queue.c **** 	void* xQueueGetMutexHolder( QueueHandle_t xSemaphore )
 519:Firmware/Middlewares/Third_Party/FreeRTOS/Source/queue.c **** 	{
 771              		.loc 1 519 0
 772              		.cfi_startproc
 773              		@ args = 0, pretend = 0, frame = 16
 774              		@ frame_needed = 1, uses_anonymous_args = 0
 775 0000 80B5     		push	{r7, lr}
 776              	.LCFI35:
 777              		.cfi_def_cfa_offset 8
 778              		.cfi_offset 7, -8
 779              		.cfi_offset 14, -4
 780 0002 84B0     		sub	sp, sp, #16
 781              	.LCFI36:
 782              		.cfi_def_cfa_offset 24
 783 0004 00AF     		add	r7, sp, #0
ARM GAS  /tmp/ccwOJcWw.s 			page 27


 784              	.LCFI37:
 785              		.cfi_def_cfa_register 7
 786 0006 7860     		str	r0, [r7, #4]
 520:Firmware/Middlewares/Third_Party/FreeRTOS/Source/queue.c **** 	void *pxReturn;
 521:Firmware/Middlewares/Third_Party/FreeRTOS/Source/queue.c **** 
 522:Firmware/Middlewares/Third_Party/FreeRTOS/Source/queue.c **** 		/* This function is called by xSemaphoreGetMutexHolder(), and should not
 523:Firmware/Middlewares/Third_Party/FreeRTOS/Source/queue.c **** 		be called directly.  Note:  This is a good way of determining if the
 524:Firmware/Middlewares/Third_Party/FreeRTOS/Source/queue.c **** 		calling task is the mutex holder, but not a good way of determining the
 525:Firmware/Middlewares/Third_Party/FreeRTOS/Source/queue.c **** 		identity of the mutex holder, as the holder may change between the
 526:Firmware/Middlewares/Third_Party/FreeRTOS/Source/queue.c **** 		following critical section exiting and the function returning. */
 527:Firmware/Middlewares/Third_Party/FreeRTOS/Source/queue.c **** 		taskENTER_CRITICAL();
 787              		.loc 1 527 0
 788 0008 FFF7FEFF 		bl	vPortEnterCritical
 528:Firmware/Middlewares/Third_Party/FreeRTOS/Source/queue.c **** 		{
 529:Firmware/Middlewares/Third_Party/FreeRTOS/Source/queue.c **** 			if( ( ( Queue_t * ) xSemaphore )->uxQueueType == queueQUEUE_IS_MUTEX )
 789              		.loc 1 529 0
 790 000c 7B68     		ldr	r3, [r7, #4]
 791 000e 1B68     		ldr	r3, [r3]
 792 0010 002B     		cmp	r3, #0
 793 0012 03D1     		bne	.L46
 530:Firmware/Middlewares/Third_Party/FreeRTOS/Source/queue.c **** 			{
 531:Firmware/Middlewares/Third_Party/FreeRTOS/Source/queue.c **** 				pxReturn = ( void * ) ( ( Queue_t * ) xSemaphore )->pxMutexHolder;
 794              		.loc 1 531 0
 795 0014 7B68     		ldr	r3, [r7, #4]
 796 0016 5B68     		ldr	r3, [r3, #4]
 797 0018 FB60     		str	r3, [r7, #12]
 798 001a 01E0     		b	.L47
 799              	.L46:
 532:Firmware/Middlewares/Third_Party/FreeRTOS/Source/queue.c **** 			}
 533:Firmware/Middlewares/Third_Party/FreeRTOS/Source/queue.c **** 			else
 534:Firmware/Middlewares/Third_Party/FreeRTOS/Source/queue.c **** 			{
 535:Firmware/Middlewares/Third_Party/FreeRTOS/Source/queue.c **** 				pxReturn = NULL;
 800              		.loc 1 535 0
 801 001c 0023     		movs	r3, #0
 802 001e FB60     		str	r3, [r7, #12]
 803              	.L47:
 536:Firmware/Middlewares/Third_Party/FreeRTOS/Source/queue.c **** 			}
 537:Firmware/Middlewares/Third_Party/FreeRTOS/Source/queue.c **** 		}
 538:Firmware/Middlewares/Third_Party/FreeRTOS/Source/queue.c **** 		taskEXIT_CRITICAL();
 804              		.loc 1 538 0
 805 0020 FFF7FEFF 		bl	vPortExitCritical
 539:Firmware/Middlewares/Third_Party/FreeRTOS/Source/queue.c **** 
 540:Firmware/Middlewares/Third_Party/FreeRTOS/Source/queue.c **** 		return pxReturn;
 806              		.loc 1 540 0
 807 0024 FB68     		ldr	r3, [r7, #12]
 541:Firmware/Middlewares/Third_Party/FreeRTOS/Source/queue.c **** 	} /*lint !e818 xSemaphore cannot be a pointer to const because it is a typedef. */
 808              		.loc 1 541 0
 809 0026 1846     		mov	r0, r3
 810 0028 1037     		adds	r7, r7, #16
 811              	.LCFI38:
 812              		.cfi_def_cfa_offset 8
 813 002a BD46     		mov	sp, r7
 814              	.LCFI39:
 815              		.cfi_def_cfa_register 13
 816              		@ sp needed
 817 002c 80BD     		pop	{r7, pc}
 818              		.cfi_endproc
ARM GAS  /tmp/ccwOJcWw.s 			page 28


 819              	.LFE11:
 821              		.section	.text.xQueueGetMutexHolderFromISR,"ax",%progbits
 822              		.align	1
 823              		.global	xQueueGetMutexHolderFromISR
 824              		.syntax unified
 825              		.thumb
 826              		.thumb_func
 827              		.fpu fpv4-sp-d16
 829              	xQueueGetMutexHolderFromISR:
 830              	.LFB12:
 542:Firmware/Middlewares/Third_Party/FreeRTOS/Source/queue.c **** 
 543:Firmware/Middlewares/Third_Party/FreeRTOS/Source/queue.c **** #endif
 544:Firmware/Middlewares/Third_Party/FreeRTOS/Source/queue.c **** /*-----------------------------------------------------------*/
 545:Firmware/Middlewares/Third_Party/FreeRTOS/Source/queue.c **** 
 546:Firmware/Middlewares/Third_Party/FreeRTOS/Source/queue.c **** #if ( ( configUSE_MUTEXES == 1 ) && ( INCLUDE_xSemaphoreGetMutexHolder == 1 ) )
 547:Firmware/Middlewares/Third_Party/FreeRTOS/Source/queue.c **** 
 548:Firmware/Middlewares/Third_Party/FreeRTOS/Source/queue.c **** 	void* xQueueGetMutexHolderFromISR( QueueHandle_t xSemaphore )
 549:Firmware/Middlewares/Third_Party/FreeRTOS/Source/queue.c **** 	{
 831              		.loc 1 549 0
 832              		.cfi_startproc
 833              		@ args = 0, pretend = 0, frame = 16
 834              		@ frame_needed = 1, uses_anonymous_args = 0
 835              		@ link register save eliminated.
 836 0000 80B4     		push	{r7}
 837              	.LCFI40:
 838              		.cfi_def_cfa_offset 4
 839              		.cfi_offset 7, -4
 840 0002 85B0     		sub	sp, sp, #20
 841              	.LCFI41:
 842              		.cfi_def_cfa_offset 24
 843 0004 00AF     		add	r7, sp, #0
 844              	.LCFI42:
 845              		.cfi_def_cfa_register 7
 846 0006 7860     		str	r0, [r7, #4]
 550:Firmware/Middlewares/Third_Party/FreeRTOS/Source/queue.c **** 	void *pxReturn;
 551:Firmware/Middlewares/Third_Party/FreeRTOS/Source/queue.c **** 
 552:Firmware/Middlewares/Third_Party/FreeRTOS/Source/queue.c **** 		configASSERT( xSemaphore );
 847              		.loc 1 552 0
 848 0008 7B68     		ldr	r3, [r7, #4]
 849 000a 002B     		cmp	r3, #0
 850 000c 09D1     		bne	.L50
 851              	.LBB133:
 852              	.LBB134:
 853              		.loc 2 195 0 discriminator 1
 854              		.syntax unified
 855              	@ 195 "Firmware/Middlewares/Third_Party/FreeRTOS/Source/portable/GCC/ARM_CM4F/portmacro.h" 1
 856 000e 4FF05003 			mov r3, #80												
 857 0012 83F31188 		msr basepri, r3											
 858 0016 BFF36F8F 		isb														
 859 001a BFF34F8F 		dsb														
 860              	
 861              	@ 0 "" 2
 862              		.thumb
 863              		.syntax unified
 864 001e BB60     		str	r3, [r7, #8]
 865              	.L51:
 866              	.LBE134:
ARM GAS  /tmp/ccwOJcWw.s 			page 29


 867              	.LBE133:
 868              		.loc 1 552 0 discriminator 1
 869 0020 FEE7     		b	.L51
 870              	.L50:
 553:Firmware/Middlewares/Third_Party/FreeRTOS/Source/queue.c **** 
 554:Firmware/Middlewares/Third_Party/FreeRTOS/Source/queue.c **** 		/* Mutexes cannot be used in interrupt service routines, so the mutex
 555:Firmware/Middlewares/Third_Party/FreeRTOS/Source/queue.c **** 		holder should not change in an ISR, and therefore a critical section is
 556:Firmware/Middlewares/Third_Party/FreeRTOS/Source/queue.c **** 		not required here. */
 557:Firmware/Middlewares/Third_Party/FreeRTOS/Source/queue.c **** 		if( ( ( Queue_t * ) xSemaphore )->uxQueueType == queueQUEUE_IS_MUTEX )
 871              		.loc 1 557 0
 872 0022 7B68     		ldr	r3, [r7, #4]
 873 0024 1B68     		ldr	r3, [r3]
 874 0026 002B     		cmp	r3, #0
 875 0028 03D1     		bne	.L52
 558:Firmware/Middlewares/Third_Party/FreeRTOS/Source/queue.c **** 		{
 559:Firmware/Middlewares/Third_Party/FreeRTOS/Source/queue.c **** 			pxReturn = ( void * ) ( ( Queue_t * ) xSemaphore )->pxMutexHolder;
 876              		.loc 1 559 0
 877 002a 7B68     		ldr	r3, [r7, #4]
 878 002c 5B68     		ldr	r3, [r3, #4]
 879 002e FB60     		str	r3, [r7, #12]
 880 0030 01E0     		b	.L53
 881              	.L52:
 560:Firmware/Middlewares/Third_Party/FreeRTOS/Source/queue.c **** 		}
 561:Firmware/Middlewares/Third_Party/FreeRTOS/Source/queue.c **** 		else
 562:Firmware/Middlewares/Third_Party/FreeRTOS/Source/queue.c **** 		{
 563:Firmware/Middlewares/Third_Party/FreeRTOS/Source/queue.c **** 			pxReturn = NULL;
 882              		.loc 1 563 0
 883 0032 0023     		movs	r3, #0
 884 0034 FB60     		str	r3, [r7, #12]
 885              	.L53:
 564:Firmware/Middlewares/Third_Party/FreeRTOS/Source/queue.c **** 		}
 565:Firmware/Middlewares/Third_Party/FreeRTOS/Source/queue.c **** 
 566:Firmware/Middlewares/Third_Party/FreeRTOS/Source/queue.c **** 		return pxReturn;
 886              		.loc 1 566 0
 887 0036 FB68     		ldr	r3, [r7, #12]
 567:Firmware/Middlewares/Third_Party/FreeRTOS/Source/queue.c **** 	} /*lint !e818 xSemaphore cannot be a pointer to const because it is a typedef. */
 888              		.loc 1 567 0
 889 0038 1846     		mov	r0, r3
 890 003a 1437     		adds	r7, r7, #20
 891              	.LCFI43:
 892              		.cfi_def_cfa_offset 4
 893 003c BD46     		mov	sp, r7
 894              	.LCFI44:
 895              		.cfi_def_cfa_register 13
 896              		@ sp needed
 897 003e 5DF8047B 		ldr	r7, [sp], #4
 898              	.LCFI45:
 899              		.cfi_restore 7
 900              		.cfi_def_cfa_offset 0
 901 0042 7047     		bx	lr
 902              		.cfi_endproc
 903              	.LFE12:
 905              		.section	.text.xQueueGiveMutexRecursive,"ax",%progbits
 906              		.align	1
 907              		.global	xQueueGiveMutexRecursive
 908              		.syntax unified
 909              		.thumb
ARM GAS  /tmp/ccwOJcWw.s 			page 30


 910              		.thumb_func
 911              		.fpu fpv4-sp-d16
 913              	xQueueGiveMutexRecursive:
 914              	.LFB13:
 568:Firmware/Middlewares/Third_Party/FreeRTOS/Source/queue.c **** 
 569:Firmware/Middlewares/Third_Party/FreeRTOS/Source/queue.c **** #endif
 570:Firmware/Middlewares/Third_Party/FreeRTOS/Source/queue.c **** /*-----------------------------------------------------------*/
 571:Firmware/Middlewares/Third_Party/FreeRTOS/Source/queue.c **** 
 572:Firmware/Middlewares/Third_Party/FreeRTOS/Source/queue.c **** #if ( configUSE_RECURSIVE_MUTEXES == 1 )
 573:Firmware/Middlewares/Third_Party/FreeRTOS/Source/queue.c **** 
 574:Firmware/Middlewares/Third_Party/FreeRTOS/Source/queue.c **** 	BaseType_t xQueueGiveMutexRecursive( QueueHandle_t xMutex )
 575:Firmware/Middlewares/Third_Party/FreeRTOS/Source/queue.c **** 	{
 915              		.loc 1 575 0
 916              		.cfi_startproc
 917              		@ args = 0, pretend = 0, frame = 24
 918              		@ frame_needed = 1, uses_anonymous_args = 0
 919 0000 90B5     		push	{r4, r7, lr}
 920              	.LCFI46:
 921              		.cfi_def_cfa_offset 12
 922              		.cfi_offset 4, -12
 923              		.cfi_offset 7, -8
 924              		.cfi_offset 14, -4
 925 0002 87B0     		sub	sp, sp, #28
 926              	.LCFI47:
 927              		.cfi_def_cfa_offset 40
 928 0004 00AF     		add	r7, sp, #0
 929              	.LCFI48:
 930              		.cfi_def_cfa_register 7
 931 0006 7860     		str	r0, [r7, #4]
 576:Firmware/Middlewares/Third_Party/FreeRTOS/Source/queue.c **** 	BaseType_t xReturn;
 577:Firmware/Middlewares/Third_Party/FreeRTOS/Source/queue.c **** 	Queue_t * const pxMutex = ( Queue_t * ) xMutex;
 932              		.loc 1 577 0
 933 0008 7B68     		ldr	r3, [r7, #4]
 934 000a 3B61     		str	r3, [r7, #16]
 578:Firmware/Middlewares/Third_Party/FreeRTOS/Source/queue.c **** 
 579:Firmware/Middlewares/Third_Party/FreeRTOS/Source/queue.c **** 		configASSERT( pxMutex );
 935              		.loc 1 579 0
 936 000c 3B69     		ldr	r3, [r7, #16]
 937 000e 002B     		cmp	r3, #0
 938 0010 09D1     		bne	.L56
 939              	.LBB135:
 940              	.LBB136:
 941              		.loc 2 195 0 discriminator 1
 942              		.syntax unified
 943              	@ 195 "Firmware/Middlewares/Third_Party/FreeRTOS/Source/portable/GCC/ARM_CM4F/portmacro.h" 1
 944 0012 4FF05003 			mov r3, #80												
 945 0016 83F31188 		msr basepri, r3											
 946 001a BFF36F8F 		isb														
 947 001e BFF34F8F 		dsb														
 948              	
 949              	@ 0 "" 2
 950              		.thumb
 951              		.syntax unified
 952 0022 FB60     		str	r3, [r7, #12]
 953              	.L57:
 954              	.LBE136:
 955              	.LBE135:
ARM GAS  /tmp/ccwOJcWw.s 			page 31


 956              		.loc 1 579 0 discriminator 1
 957 0024 FEE7     		b	.L57
 958              	.L56:
 580:Firmware/Middlewares/Third_Party/FreeRTOS/Source/queue.c **** 
 581:Firmware/Middlewares/Third_Party/FreeRTOS/Source/queue.c **** 		/* If this is the task that holds the mutex then pxMutexHolder will not
 582:Firmware/Middlewares/Third_Party/FreeRTOS/Source/queue.c **** 		change outside of this task.  If this task does not hold the mutex then
 583:Firmware/Middlewares/Third_Party/FreeRTOS/Source/queue.c **** 		pxMutexHolder can never coincidentally equal the tasks handle, and as
 584:Firmware/Middlewares/Third_Party/FreeRTOS/Source/queue.c **** 		this is the only condition we are interested in it does not matter if
 585:Firmware/Middlewares/Third_Party/FreeRTOS/Source/queue.c **** 		pxMutexHolder is accessed simultaneously by another task.  Therefore no
 586:Firmware/Middlewares/Third_Party/FreeRTOS/Source/queue.c **** 		mutual exclusion is required to test the pxMutexHolder variable. */
 587:Firmware/Middlewares/Third_Party/FreeRTOS/Source/queue.c **** 		if( pxMutex->pxMutexHolder == ( void * ) xTaskGetCurrentTaskHandle() ) /*lint !e961 Not a redunda
 959              		.loc 1 587 0
 960 0026 3B69     		ldr	r3, [r7, #16]
 961 0028 5C68     		ldr	r4, [r3, #4]
 962 002a FFF7FEFF 		bl	xTaskGetCurrentTaskHandle
 963 002e 0346     		mov	r3, r0
 964 0030 9C42     		cmp	r4, r3
 965 0032 11D1     		bne	.L58
 588:Firmware/Middlewares/Third_Party/FreeRTOS/Source/queue.c **** 		{
 589:Firmware/Middlewares/Third_Party/FreeRTOS/Source/queue.c **** 			traceGIVE_MUTEX_RECURSIVE( pxMutex );
 590:Firmware/Middlewares/Third_Party/FreeRTOS/Source/queue.c **** 
 591:Firmware/Middlewares/Third_Party/FreeRTOS/Source/queue.c **** 			/* uxRecursiveCallCount cannot be zero if pxMutexHolder is equal to
 592:Firmware/Middlewares/Third_Party/FreeRTOS/Source/queue.c **** 			the task handle, therefore no underflow check is required.  Also,
 593:Firmware/Middlewares/Third_Party/FreeRTOS/Source/queue.c **** 			uxRecursiveCallCount is only modified by the mutex holder, and as
 594:Firmware/Middlewares/Third_Party/FreeRTOS/Source/queue.c **** 			there can only be one, no mutual exclusion is required to modify the
 595:Firmware/Middlewares/Third_Party/FreeRTOS/Source/queue.c **** 			uxRecursiveCallCount member. */
 596:Firmware/Middlewares/Third_Party/FreeRTOS/Source/queue.c **** 			( pxMutex->u.uxRecursiveCallCount )--;
 966              		.loc 1 596 0
 967 0034 3B69     		ldr	r3, [r7, #16]
 968 0036 DB68     		ldr	r3, [r3, #12]
 969 0038 5A1E     		subs	r2, r3, #1
 970 003a 3B69     		ldr	r3, [r7, #16]
 971 003c DA60     		str	r2, [r3, #12]
 597:Firmware/Middlewares/Third_Party/FreeRTOS/Source/queue.c **** 
 598:Firmware/Middlewares/Third_Party/FreeRTOS/Source/queue.c **** 			/* Has the recursive call count unwound to 0? */
 599:Firmware/Middlewares/Third_Party/FreeRTOS/Source/queue.c **** 			if( pxMutex->u.uxRecursiveCallCount == ( UBaseType_t ) 0 )
 972              		.loc 1 599 0
 973 003e 3B69     		ldr	r3, [r7, #16]
 974 0040 DB68     		ldr	r3, [r3, #12]
 975 0042 002B     		cmp	r3, #0
 976 0044 05D1     		bne	.L59
 600:Firmware/Middlewares/Third_Party/FreeRTOS/Source/queue.c **** 			{
 601:Firmware/Middlewares/Third_Party/FreeRTOS/Source/queue.c **** 				/* Return the mutex.  This will automatically unblock any other
 602:Firmware/Middlewares/Third_Party/FreeRTOS/Source/queue.c **** 				task that might be waiting to access the mutex. */
 603:Firmware/Middlewares/Third_Party/FreeRTOS/Source/queue.c **** 				( void ) xQueueGenericSend( pxMutex, NULL, queueMUTEX_GIVE_BLOCK_TIME, queueSEND_TO_BACK );
 977              		.loc 1 603 0
 978 0046 0023     		movs	r3, #0
 979 0048 0022     		movs	r2, #0
 980 004a 0021     		movs	r1, #0
 981 004c 3869     		ldr	r0, [r7, #16]
 982 004e FFF7FEFF 		bl	xQueueGenericSend
 983              	.L59:
 604:Firmware/Middlewares/Third_Party/FreeRTOS/Source/queue.c **** 			}
 605:Firmware/Middlewares/Third_Party/FreeRTOS/Source/queue.c **** 			else
 606:Firmware/Middlewares/Third_Party/FreeRTOS/Source/queue.c **** 			{
 607:Firmware/Middlewares/Third_Party/FreeRTOS/Source/queue.c **** 				mtCOVERAGE_TEST_MARKER();
 608:Firmware/Middlewares/Third_Party/FreeRTOS/Source/queue.c **** 			}
ARM GAS  /tmp/ccwOJcWw.s 			page 32


 609:Firmware/Middlewares/Third_Party/FreeRTOS/Source/queue.c **** 
 610:Firmware/Middlewares/Third_Party/FreeRTOS/Source/queue.c **** 			xReturn = pdPASS;
 984              		.loc 1 610 0
 985 0052 0123     		movs	r3, #1
 986 0054 7B61     		str	r3, [r7, #20]
 987 0056 01E0     		b	.L60
 988              	.L58:
 611:Firmware/Middlewares/Third_Party/FreeRTOS/Source/queue.c **** 		}
 612:Firmware/Middlewares/Third_Party/FreeRTOS/Source/queue.c **** 		else
 613:Firmware/Middlewares/Third_Party/FreeRTOS/Source/queue.c **** 		{
 614:Firmware/Middlewares/Third_Party/FreeRTOS/Source/queue.c **** 			/* The mutex cannot be given because the calling task is not the
 615:Firmware/Middlewares/Third_Party/FreeRTOS/Source/queue.c **** 			holder. */
 616:Firmware/Middlewares/Third_Party/FreeRTOS/Source/queue.c **** 			xReturn = pdFAIL;
 989              		.loc 1 616 0
 990 0058 0023     		movs	r3, #0
 991 005a 7B61     		str	r3, [r7, #20]
 992              	.L60:
 617:Firmware/Middlewares/Third_Party/FreeRTOS/Source/queue.c **** 
 618:Firmware/Middlewares/Third_Party/FreeRTOS/Source/queue.c **** 			traceGIVE_MUTEX_RECURSIVE_FAILED( pxMutex );
 619:Firmware/Middlewares/Third_Party/FreeRTOS/Source/queue.c **** 		}
 620:Firmware/Middlewares/Third_Party/FreeRTOS/Source/queue.c **** 
 621:Firmware/Middlewares/Third_Party/FreeRTOS/Source/queue.c **** 		return xReturn;
 993              		.loc 1 621 0
 994 005c 7B69     		ldr	r3, [r7, #20]
 622:Firmware/Middlewares/Third_Party/FreeRTOS/Source/queue.c **** 	}
 995              		.loc 1 622 0
 996 005e 1846     		mov	r0, r3
 997 0060 1C37     		adds	r7, r7, #28
 998              	.LCFI49:
 999              		.cfi_def_cfa_offset 12
 1000 0062 BD46     		mov	sp, r7
 1001              	.LCFI50:
 1002              		.cfi_def_cfa_register 13
 1003              		@ sp needed
 1004 0064 90BD     		pop	{r4, r7, pc}
 1005              		.cfi_endproc
 1006              	.LFE13:
 1008              		.section	.text.xQueueTakeMutexRecursive,"ax",%progbits
 1009              		.align	1
 1010              		.global	xQueueTakeMutexRecursive
 1011              		.syntax unified
 1012              		.thumb
 1013              		.thumb_func
 1014              		.fpu fpv4-sp-d16
 1016              	xQueueTakeMutexRecursive:
 1017              	.LFB14:
 623:Firmware/Middlewares/Third_Party/FreeRTOS/Source/queue.c **** 
 624:Firmware/Middlewares/Third_Party/FreeRTOS/Source/queue.c **** #endif /* configUSE_RECURSIVE_MUTEXES */
 625:Firmware/Middlewares/Third_Party/FreeRTOS/Source/queue.c **** /*-----------------------------------------------------------*/
 626:Firmware/Middlewares/Third_Party/FreeRTOS/Source/queue.c **** 
 627:Firmware/Middlewares/Third_Party/FreeRTOS/Source/queue.c **** #if ( configUSE_RECURSIVE_MUTEXES == 1 )
 628:Firmware/Middlewares/Third_Party/FreeRTOS/Source/queue.c **** 
 629:Firmware/Middlewares/Third_Party/FreeRTOS/Source/queue.c **** 	BaseType_t xQueueTakeMutexRecursive( QueueHandle_t xMutex, TickType_t xTicksToWait )
 630:Firmware/Middlewares/Third_Party/FreeRTOS/Source/queue.c **** 	{
 1018              		.loc 1 630 0
 1019              		.cfi_startproc
 1020              		@ args = 0, pretend = 0, frame = 24
ARM GAS  /tmp/ccwOJcWw.s 			page 33


 1021              		@ frame_needed = 1, uses_anonymous_args = 0
 1022 0000 90B5     		push	{r4, r7, lr}
 1023              	.LCFI51:
 1024              		.cfi_def_cfa_offset 12
 1025              		.cfi_offset 4, -12
 1026              		.cfi_offset 7, -8
 1027              		.cfi_offset 14, -4
 1028 0002 87B0     		sub	sp, sp, #28
 1029              	.LCFI52:
 1030              		.cfi_def_cfa_offset 40
 1031 0004 00AF     		add	r7, sp, #0
 1032              	.LCFI53:
 1033              		.cfi_def_cfa_register 7
 1034 0006 7860     		str	r0, [r7, #4]
 1035 0008 3960     		str	r1, [r7]
 631:Firmware/Middlewares/Third_Party/FreeRTOS/Source/queue.c **** 	BaseType_t xReturn;
 632:Firmware/Middlewares/Third_Party/FreeRTOS/Source/queue.c **** 	Queue_t * const pxMutex = ( Queue_t * ) xMutex;
 1036              		.loc 1 632 0
 1037 000a 7B68     		ldr	r3, [r7, #4]
 1038 000c 3B61     		str	r3, [r7, #16]
 633:Firmware/Middlewares/Third_Party/FreeRTOS/Source/queue.c **** 
 634:Firmware/Middlewares/Third_Party/FreeRTOS/Source/queue.c **** 		configASSERT( pxMutex );
 1039              		.loc 1 634 0
 1040 000e 3B69     		ldr	r3, [r7, #16]
 1041 0010 002B     		cmp	r3, #0
 1042 0012 09D1     		bne	.L63
 1043              	.LBB137:
 1044              	.LBB138:
 1045              		.loc 2 195 0 discriminator 1
 1046              		.syntax unified
 1047              	@ 195 "Firmware/Middlewares/Third_Party/FreeRTOS/Source/portable/GCC/ARM_CM4F/portmacro.h" 1
 1048 0014 4FF05003 			mov r3, #80												
 1049 0018 83F31188 		msr basepri, r3											
 1050 001c BFF36F8F 		isb														
 1051 0020 BFF34F8F 		dsb														
 1052              	
 1053              	@ 0 "" 2
 1054              		.thumb
 1055              		.syntax unified
 1056 0024 FB60     		str	r3, [r7, #12]
 1057              	.L64:
 1058              	.LBE138:
 1059              	.LBE137:
 1060              		.loc 1 634 0 discriminator 1
 1061 0026 FEE7     		b	.L64
 1062              	.L63:
 635:Firmware/Middlewares/Third_Party/FreeRTOS/Source/queue.c **** 
 636:Firmware/Middlewares/Third_Party/FreeRTOS/Source/queue.c **** 		/* Comments regarding mutual exclusion as per those within
 637:Firmware/Middlewares/Third_Party/FreeRTOS/Source/queue.c **** 		xQueueGiveMutexRecursive(). */
 638:Firmware/Middlewares/Third_Party/FreeRTOS/Source/queue.c **** 
 639:Firmware/Middlewares/Third_Party/FreeRTOS/Source/queue.c **** 		traceTAKE_MUTEX_RECURSIVE( pxMutex );
 640:Firmware/Middlewares/Third_Party/FreeRTOS/Source/queue.c **** 
 641:Firmware/Middlewares/Third_Party/FreeRTOS/Source/queue.c **** 		if( pxMutex->pxMutexHolder == ( void * ) xTaskGetCurrentTaskHandle() ) /*lint !e961 Cast is not r
 1063              		.loc 1 641 0
 1064 0028 3B69     		ldr	r3, [r7, #16]
 1065 002a 5C68     		ldr	r4, [r3, #4]
 1066 002c FFF7FEFF 		bl	xTaskGetCurrentTaskHandle
ARM GAS  /tmp/ccwOJcWw.s 			page 34


 1067 0030 0346     		mov	r3, r0
 1068 0032 9C42     		cmp	r4, r3
 1069 0034 07D1     		bne	.L65
 642:Firmware/Middlewares/Third_Party/FreeRTOS/Source/queue.c **** 		{
 643:Firmware/Middlewares/Third_Party/FreeRTOS/Source/queue.c **** 			( pxMutex->u.uxRecursiveCallCount )++;
 1070              		.loc 1 643 0
 1071 0036 3B69     		ldr	r3, [r7, #16]
 1072 0038 DB68     		ldr	r3, [r3, #12]
 1073 003a 5A1C     		adds	r2, r3, #1
 1074 003c 3B69     		ldr	r3, [r7, #16]
 1075 003e DA60     		str	r2, [r3, #12]
 644:Firmware/Middlewares/Third_Party/FreeRTOS/Source/queue.c **** 			xReturn = pdPASS;
 1076              		.loc 1 644 0
 1077 0040 0123     		movs	r3, #1
 1078 0042 7B61     		str	r3, [r7, #20]
 1079 0044 0CE0     		b	.L66
 1080              	.L65:
 645:Firmware/Middlewares/Third_Party/FreeRTOS/Source/queue.c **** 		}
 646:Firmware/Middlewares/Third_Party/FreeRTOS/Source/queue.c **** 		else
 647:Firmware/Middlewares/Third_Party/FreeRTOS/Source/queue.c **** 		{
 648:Firmware/Middlewares/Third_Party/FreeRTOS/Source/queue.c **** 			xReturn = xQueueSemaphoreTake( pxMutex, xTicksToWait );
 1081              		.loc 1 648 0
 1082 0046 3968     		ldr	r1, [r7]
 1083 0048 3869     		ldr	r0, [r7, #16]
 1084 004a FFF7FEFF 		bl	xQueueSemaphoreTake
 1085 004e 7861     		str	r0, [r7, #20]
 649:Firmware/Middlewares/Third_Party/FreeRTOS/Source/queue.c **** 
 650:Firmware/Middlewares/Third_Party/FreeRTOS/Source/queue.c **** 			/* pdPASS will only be returned if the mutex was successfully
 651:Firmware/Middlewares/Third_Party/FreeRTOS/Source/queue.c **** 			obtained.  The calling task may have entered the Blocked state
 652:Firmware/Middlewares/Third_Party/FreeRTOS/Source/queue.c **** 			before reaching here. */
 653:Firmware/Middlewares/Third_Party/FreeRTOS/Source/queue.c **** 			if( xReturn != pdFAIL )
 1086              		.loc 1 653 0
 1087 0050 7B69     		ldr	r3, [r7, #20]
 1088 0052 002B     		cmp	r3, #0
 1089 0054 04D0     		beq	.L66
 654:Firmware/Middlewares/Third_Party/FreeRTOS/Source/queue.c **** 			{
 655:Firmware/Middlewares/Third_Party/FreeRTOS/Source/queue.c **** 				( pxMutex->u.uxRecursiveCallCount )++;
 1090              		.loc 1 655 0
 1091 0056 3B69     		ldr	r3, [r7, #16]
 1092 0058 DB68     		ldr	r3, [r3, #12]
 1093 005a 5A1C     		adds	r2, r3, #1
 1094 005c 3B69     		ldr	r3, [r7, #16]
 1095 005e DA60     		str	r2, [r3, #12]
 1096              	.L66:
 656:Firmware/Middlewares/Third_Party/FreeRTOS/Source/queue.c **** 			}
 657:Firmware/Middlewares/Third_Party/FreeRTOS/Source/queue.c **** 			else
 658:Firmware/Middlewares/Third_Party/FreeRTOS/Source/queue.c **** 			{
 659:Firmware/Middlewares/Third_Party/FreeRTOS/Source/queue.c **** 				traceTAKE_MUTEX_RECURSIVE_FAILED( pxMutex );
 660:Firmware/Middlewares/Third_Party/FreeRTOS/Source/queue.c **** 			}
 661:Firmware/Middlewares/Third_Party/FreeRTOS/Source/queue.c **** 		}
 662:Firmware/Middlewares/Third_Party/FreeRTOS/Source/queue.c **** 
 663:Firmware/Middlewares/Third_Party/FreeRTOS/Source/queue.c **** 		return xReturn;
 1097              		.loc 1 663 0
 1098 0060 7B69     		ldr	r3, [r7, #20]
 664:Firmware/Middlewares/Third_Party/FreeRTOS/Source/queue.c **** 	}
 1099              		.loc 1 664 0
 1100 0062 1846     		mov	r0, r3
ARM GAS  /tmp/ccwOJcWw.s 			page 35


 1101 0064 1C37     		adds	r7, r7, #28
 1102              	.LCFI54:
 1103              		.cfi_def_cfa_offset 12
 1104 0066 BD46     		mov	sp, r7
 1105              	.LCFI55:
 1106              		.cfi_def_cfa_register 13
 1107              		@ sp needed
 1108 0068 90BD     		pop	{r4, r7, pc}
 1109              		.cfi_endproc
 1110              	.LFE14:
 1112              		.section	.text.xQueueCreateCountingSemaphoreStatic,"ax",%progbits
 1113              		.align	1
 1114              		.global	xQueueCreateCountingSemaphoreStatic
 1115              		.syntax unified
 1116              		.thumb
 1117              		.thumb_func
 1118              		.fpu fpv4-sp-d16
 1120              	xQueueCreateCountingSemaphoreStatic:
 1121              	.LFB15:
 665:Firmware/Middlewares/Third_Party/FreeRTOS/Source/queue.c **** 
 666:Firmware/Middlewares/Third_Party/FreeRTOS/Source/queue.c **** #endif /* configUSE_RECURSIVE_MUTEXES */
 667:Firmware/Middlewares/Third_Party/FreeRTOS/Source/queue.c **** /*-----------------------------------------------------------*/
 668:Firmware/Middlewares/Third_Party/FreeRTOS/Source/queue.c **** 
 669:Firmware/Middlewares/Third_Party/FreeRTOS/Source/queue.c **** #if( ( configUSE_COUNTING_SEMAPHORES == 1 ) && ( configSUPPORT_STATIC_ALLOCATION == 1 ) )
 670:Firmware/Middlewares/Third_Party/FreeRTOS/Source/queue.c **** 
 671:Firmware/Middlewares/Third_Party/FreeRTOS/Source/queue.c **** 	QueueHandle_t xQueueCreateCountingSemaphoreStatic( const UBaseType_t uxMaxCount, const UBaseType_t
 672:Firmware/Middlewares/Third_Party/FreeRTOS/Source/queue.c **** 	{
 1122              		.loc 1 672 0
 1123              		.cfi_startproc
 1124              		@ args = 0, pretend = 0, frame = 32
 1125              		@ frame_needed = 1, uses_anonymous_args = 0
 1126 0000 80B5     		push	{r7, lr}
 1127              	.LCFI56:
 1128              		.cfi_def_cfa_offset 8
 1129              		.cfi_offset 7, -8
 1130              		.cfi_offset 14, -4
 1131 0002 8AB0     		sub	sp, sp, #40
 1132              	.LCFI57:
 1133              		.cfi_def_cfa_offset 48
 1134 0004 02AF     		add	r7, sp, #8
 1135              	.LCFI58:
 1136              		.cfi_def_cfa 7, 40
 1137 0006 F860     		str	r0, [r7, #12]
 1138 0008 B960     		str	r1, [r7, #8]
 1139 000a 7A60     		str	r2, [r7, #4]
 673:Firmware/Middlewares/Third_Party/FreeRTOS/Source/queue.c **** 	QueueHandle_t xHandle;
 674:Firmware/Middlewares/Third_Party/FreeRTOS/Source/queue.c **** 
 675:Firmware/Middlewares/Third_Party/FreeRTOS/Source/queue.c **** 		configASSERT( uxMaxCount != 0 );
 1140              		.loc 1 675 0
 1141 000c FB68     		ldr	r3, [r7, #12]
 1142 000e 002B     		cmp	r3, #0
 1143 0010 09D1     		bne	.L69
 1144              	.LBB139:
 1145              	.LBB140:
 1146              		.loc 2 195 0 discriminator 1
 1147              		.syntax unified
 1148              	@ 195 "Firmware/Middlewares/Third_Party/FreeRTOS/Source/portable/GCC/ARM_CM4F/portmacro.h" 1
ARM GAS  /tmp/ccwOJcWw.s 			page 36


 1149 0012 4FF05003 			mov r3, #80												
 1150 0016 83F31188 		msr basepri, r3											
 1151 001a BFF36F8F 		isb														
 1152 001e BFF34F8F 		dsb														
 1153              	
 1154              	@ 0 "" 2
 1155              		.thumb
 1156              		.syntax unified
 1157 0022 BB61     		str	r3, [r7, #24]
 1158              	.L70:
 1159              	.LBE140:
 1160              	.LBE139:
 1161              		.loc 1 675 0 discriminator 1
 1162 0024 FEE7     		b	.L70
 1163              	.L69:
 676:Firmware/Middlewares/Third_Party/FreeRTOS/Source/queue.c **** 		configASSERT( uxInitialCount <= uxMaxCount );
 1164              		.loc 1 676 0
 1165 0026 BA68     		ldr	r2, [r7, #8]
 1166 0028 FB68     		ldr	r3, [r7, #12]
 1167 002a 9A42     		cmp	r2, r3
 1168 002c 09D9     		bls	.L71
 1169              	.LBB141:
 1170              	.LBB142:
 1171              		.loc 2 195 0 discriminator 1
 1172              		.syntax unified
 1173              	@ 195 "Firmware/Middlewares/Third_Party/FreeRTOS/Source/portable/GCC/ARM_CM4F/portmacro.h" 1
 1174 002e 4FF05003 			mov r3, #80												
 1175 0032 83F31188 		msr basepri, r3											
 1176 0036 BFF36F8F 		isb														
 1177 003a BFF34F8F 		dsb														
 1178              	
 1179              	@ 0 "" 2
 1180              		.thumb
 1181              		.syntax unified
 1182 003e 7B61     		str	r3, [r7, #20]
 1183              	.L72:
 1184              	.LBE142:
 1185              	.LBE141:
 1186              		.loc 1 676 0 discriminator 2
 1187 0040 FEE7     		b	.L72
 1188              	.L71:
 677:Firmware/Middlewares/Third_Party/FreeRTOS/Source/queue.c **** 
 678:Firmware/Middlewares/Third_Party/FreeRTOS/Source/queue.c **** 		xHandle = xQueueGenericCreateStatic( uxMaxCount, queueSEMAPHORE_QUEUE_ITEM_LENGTH, NULL, pxStatic
 1189              		.loc 1 678 0
 1190 0042 0223     		movs	r3, #2
 1191 0044 0093     		str	r3, [sp]
 1192 0046 7B68     		ldr	r3, [r7, #4]
 1193 0048 0022     		movs	r2, #0
 1194 004a 0021     		movs	r1, #0
 1195 004c F868     		ldr	r0, [r7, #12]
 1196 004e FFF7FEFF 		bl	xQueueGenericCreateStatic
 1197 0052 F861     		str	r0, [r7, #28]
 679:Firmware/Middlewares/Third_Party/FreeRTOS/Source/queue.c **** 
 680:Firmware/Middlewares/Third_Party/FreeRTOS/Source/queue.c **** 		if( xHandle != NULL )
 1198              		.loc 1 680 0
 1199 0054 FB69     		ldr	r3, [r7, #28]
 1200 0056 002B     		cmp	r3, #0
ARM GAS  /tmp/ccwOJcWw.s 			page 37


 1201 0058 02D0     		beq	.L73
 681:Firmware/Middlewares/Third_Party/FreeRTOS/Source/queue.c **** 		{
 682:Firmware/Middlewares/Third_Party/FreeRTOS/Source/queue.c **** 			( ( Queue_t * ) xHandle )->uxMessagesWaiting = uxInitialCount;
 1202              		.loc 1 682 0
 1203 005a FB69     		ldr	r3, [r7, #28]
 1204 005c BA68     		ldr	r2, [r7, #8]
 1205 005e 9A63     		str	r2, [r3, #56]
 1206              	.L73:
 683:Firmware/Middlewares/Third_Party/FreeRTOS/Source/queue.c **** 
 684:Firmware/Middlewares/Third_Party/FreeRTOS/Source/queue.c **** 			traceCREATE_COUNTING_SEMAPHORE();
 685:Firmware/Middlewares/Third_Party/FreeRTOS/Source/queue.c **** 		}
 686:Firmware/Middlewares/Third_Party/FreeRTOS/Source/queue.c **** 		else
 687:Firmware/Middlewares/Third_Party/FreeRTOS/Source/queue.c **** 		{
 688:Firmware/Middlewares/Third_Party/FreeRTOS/Source/queue.c **** 			traceCREATE_COUNTING_SEMAPHORE_FAILED();
 689:Firmware/Middlewares/Third_Party/FreeRTOS/Source/queue.c **** 		}
 690:Firmware/Middlewares/Third_Party/FreeRTOS/Source/queue.c **** 
 691:Firmware/Middlewares/Third_Party/FreeRTOS/Source/queue.c **** 		return xHandle;
 1207              		.loc 1 691 0
 1208 0060 FB69     		ldr	r3, [r7, #28]
 692:Firmware/Middlewares/Third_Party/FreeRTOS/Source/queue.c **** 	}
 1209              		.loc 1 692 0
 1210 0062 1846     		mov	r0, r3
 1211 0064 2037     		adds	r7, r7, #32
 1212              	.LCFI59:
 1213              		.cfi_def_cfa_offset 8
 1214 0066 BD46     		mov	sp, r7
 1215              	.LCFI60:
 1216              		.cfi_def_cfa_register 13
 1217              		@ sp needed
 1218 0068 80BD     		pop	{r7, pc}
 1219              		.cfi_endproc
 1220              	.LFE15:
 1222              		.section	.text.xQueueCreateCountingSemaphore,"ax",%progbits
 1223              		.align	1
 1224              		.global	xQueueCreateCountingSemaphore
 1225              		.syntax unified
 1226              		.thumb
 1227              		.thumb_func
 1228              		.fpu fpv4-sp-d16
 1230              	xQueueCreateCountingSemaphore:
 1231              	.LFB16:
 693:Firmware/Middlewares/Third_Party/FreeRTOS/Source/queue.c **** 
 694:Firmware/Middlewares/Third_Party/FreeRTOS/Source/queue.c **** #endif /* ( ( configUSE_COUNTING_SEMAPHORES == 1 ) && ( configSUPPORT_DYNAMIC_ALLOCATION == 1 ) ) *
 695:Firmware/Middlewares/Third_Party/FreeRTOS/Source/queue.c **** /*-----------------------------------------------------------*/
 696:Firmware/Middlewares/Third_Party/FreeRTOS/Source/queue.c **** 
 697:Firmware/Middlewares/Third_Party/FreeRTOS/Source/queue.c **** #if( ( configUSE_COUNTING_SEMAPHORES == 1 ) && ( configSUPPORT_DYNAMIC_ALLOCATION == 1 ) )
 698:Firmware/Middlewares/Third_Party/FreeRTOS/Source/queue.c **** 
 699:Firmware/Middlewares/Third_Party/FreeRTOS/Source/queue.c **** 	QueueHandle_t xQueueCreateCountingSemaphore( const UBaseType_t uxMaxCount, const UBaseType_t uxIni
 700:Firmware/Middlewares/Third_Party/FreeRTOS/Source/queue.c **** 	{
 1232              		.loc 1 700 0
 1233              		.cfi_startproc
 1234              		@ args = 0, pretend = 0, frame = 24
 1235              		@ frame_needed = 1, uses_anonymous_args = 0
 1236 0000 80B5     		push	{r7, lr}
 1237              	.LCFI61:
 1238              		.cfi_def_cfa_offset 8
 1239              		.cfi_offset 7, -8
ARM GAS  /tmp/ccwOJcWw.s 			page 38


 1240              		.cfi_offset 14, -4
 1241 0002 86B0     		sub	sp, sp, #24
 1242              	.LCFI62:
 1243              		.cfi_def_cfa_offset 32
 1244 0004 00AF     		add	r7, sp, #0
 1245              	.LCFI63:
 1246              		.cfi_def_cfa_register 7
 1247 0006 7860     		str	r0, [r7, #4]
 1248 0008 3960     		str	r1, [r7]
 701:Firmware/Middlewares/Third_Party/FreeRTOS/Source/queue.c **** 	QueueHandle_t xHandle;
 702:Firmware/Middlewares/Third_Party/FreeRTOS/Source/queue.c **** 
 703:Firmware/Middlewares/Third_Party/FreeRTOS/Source/queue.c **** 		configASSERT( uxMaxCount != 0 );
 1249              		.loc 1 703 0
 1250 000a 7B68     		ldr	r3, [r7, #4]
 1251 000c 002B     		cmp	r3, #0
 1252 000e 09D1     		bne	.L76
 1253              	.LBB143:
 1254              	.LBB144:
 1255              		.loc 2 195 0 discriminator 1
 1256              		.syntax unified
 1257              	@ 195 "Firmware/Middlewares/Third_Party/FreeRTOS/Source/portable/GCC/ARM_CM4F/portmacro.h" 1
 1258 0010 4FF05003 			mov r3, #80												
 1259 0014 83F31188 		msr basepri, r3											
 1260 0018 BFF36F8F 		isb														
 1261 001c BFF34F8F 		dsb														
 1262              	
 1263              	@ 0 "" 2
 1264              		.thumb
 1265              		.syntax unified
 1266 0020 3B61     		str	r3, [r7, #16]
 1267              	.L77:
 1268              	.LBE144:
 1269              	.LBE143:
 1270              		.loc 1 703 0 discriminator 1
 1271 0022 FEE7     		b	.L77
 1272              	.L76:
 704:Firmware/Middlewares/Third_Party/FreeRTOS/Source/queue.c **** 		configASSERT( uxInitialCount <= uxMaxCount );
 1273              		.loc 1 704 0
 1274 0024 3A68     		ldr	r2, [r7]
 1275 0026 7B68     		ldr	r3, [r7, #4]
 1276 0028 9A42     		cmp	r2, r3
 1277 002a 09D9     		bls	.L78
 1278              	.LBB145:
 1279              	.LBB146:
 1280              		.loc 2 195 0 discriminator 1
 1281              		.syntax unified
 1282              	@ 195 "Firmware/Middlewares/Third_Party/FreeRTOS/Source/portable/GCC/ARM_CM4F/portmacro.h" 1
 1283 002c 4FF05003 			mov r3, #80												
 1284 0030 83F31188 		msr basepri, r3											
 1285 0034 BFF36F8F 		isb														
 1286 0038 BFF34F8F 		dsb														
 1287              	
 1288              	@ 0 "" 2
 1289              		.thumb
 1290              		.syntax unified
 1291 003c FB60     		str	r3, [r7, #12]
 1292              	.L79:
ARM GAS  /tmp/ccwOJcWw.s 			page 39


 1293              	.LBE146:
 1294              	.LBE145:
 1295              		.loc 1 704 0 discriminator 2
 1296 003e FEE7     		b	.L79
 1297              	.L78:
 705:Firmware/Middlewares/Third_Party/FreeRTOS/Source/queue.c **** 
 706:Firmware/Middlewares/Third_Party/FreeRTOS/Source/queue.c **** 		xHandle = xQueueGenericCreate( uxMaxCount, queueSEMAPHORE_QUEUE_ITEM_LENGTH, queueQUEUE_TYPE_COUN
 1298              		.loc 1 706 0
 1299 0040 0222     		movs	r2, #2
 1300 0042 0021     		movs	r1, #0
 1301 0044 7868     		ldr	r0, [r7, #4]
 1302 0046 FFF7FEFF 		bl	xQueueGenericCreate
 1303 004a 7861     		str	r0, [r7, #20]
 707:Firmware/Middlewares/Third_Party/FreeRTOS/Source/queue.c **** 
 708:Firmware/Middlewares/Third_Party/FreeRTOS/Source/queue.c **** 		if( xHandle != NULL )
 1304              		.loc 1 708 0
 1305 004c 7B69     		ldr	r3, [r7, #20]
 1306 004e 002B     		cmp	r3, #0
 1307 0050 02D0     		beq	.L80
 709:Firmware/Middlewares/Third_Party/FreeRTOS/Source/queue.c **** 		{
 710:Firmware/Middlewares/Third_Party/FreeRTOS/Source/queue.c **** 			( ( Queue_t * ) xHandle )->uxMessagesWaiting = uxInitialCount;
 1308              		.loc 1 710 0
 1309 0052 7B69     		ldr	r3, [r7, #20]
 1310 0054 3A68     		ldr	r2, [r7]
 1311 0056 9A63     		str	r2, [r3, #56]
 1312              	.L80:
 711:Firmware/Middlewares/Third_Party/FreeRTOS/Source/queue.c **** 
 712:Firmware/Middlewares/Third_Party/FreeRTOS/Source/queue.c **** 			traceCREATE_COUNTING_SEMAPHORE();
 713:Firmware/Middlewares/Third_Party/FreeRTOS/Source/queue.c **** 		}
 714:Firmware/Middlewares/Third_Party/FreeRTOS/Source/queue.c **** 		else
 715:Firmware/Middlewares/Third_Party/FreeRTOS/Source/queue.c **** 		{
 716:Firmware/Middlewares/Third_Party/FreeRTOS/Source/queue.c **** 			traceCREATE_COUNTING_SEMAPHORE_FAILED();
 717:Firmware/Middlewares/Third_Party/FreeRTOS/Source/queue.c **** 		}
 718:Firmware/Middlewares/Third_Party/FreeRTOS/Source/queue.c **** 
 719:Firmware/Middlewares/Third_Party/FreeRTOS/Source/queue.c **** 		return xHandle;
 1313              		.loc 1 719 0
 1314 0058 7B69     		ldr	r3, [r7, #20]
 720:Firmware/Middlewares/Third_Party/FreeRTOS/Source/queue.c **** 	}
 1315              		.loc 1 720 0
 1316 005a 1846     		mov	r0, r3
 1317 005c 1837     		adds	r7, r7, #24
 1318              	.LCFI64:
 1319              		.cfi_def_cfa_offset 8
 1320 005e BD46     		mov	sp, r7
 1321              	.LCFI65:
 1322              		.cfi_def_cfa_register 13
 1323              		@ sp needed
 1324 0060 80BD     		pop	{r7, pc}
 1325              		.cfi_endproc
 1326              	.LFE16:
 1328              		.section	.text.xQueueGenericSend,"ax",%progbits
 1329              		.align	1
 1330              		.global	xQueueGenericSend
 1331              		.syntax unified
 1332              		.thumb
 1333              		.thumb_func
 1334              		.fpu fpv4-sp-d16
ARM GAS  /tmp/ccwOJcWw.s 			page 40


 1336              	xQueueGenericSend:
 1337              	.LFB17:
 721:Firmware/Middlewares/Third_Party/FreeRTOS/Source/queue.c **** 
 722:Firmware/Middlewares/Third_Party/FreeRTOS/Source/queue.c **** #endif /* ( ( configUSE_COUNTING_SEMAPHORES == 1 ) && ( configSUPPORT_DYNAMIC_ALLOCATION == 1 ) ) *
 723:Firmware/Middlewares/Third_Party/FreeRTOS/Source/queue.c **** /*-----------------------------------------------------------*/
 724:Firmware/Middlewares/Third_Party/FreeRTOS/Source/queue.c **** 
 725:Firmware/Middlewares/Third_Party/FreeRTOS/Source/queue.c **** BaseType_t xQueueGenericSend( QueueHandle_t xQueue, const void * const pvItemToQueue, TickType_t xT
 726:Firmware/Middlewares/Third_Party/FreeRTOS/Source/queue.c **** {
 1338              		.loc 1 726 0
 1339              		.cfi_startproc
 1340              		@ args = 0, pretend = 0, frame = 56
 1341              		@ frame_needed = 1, uses_anonymous_args = 0
 1342 0000 80B5     		push	{r7, lr}
 1343              	.LCFI66:
 1344              		.cfi_def_cfa_offset 8
 1345              		.cfi_offset 7, -8
 1346              		.cfi_offset 14, -4
 1347 0002 8EB0     		sub	sp, sp, #56
 1348              	.LCFI67:
 1349              		.cfi_def_cfa_offset 64
 1350 0004 00AF     		add	r7, sp, #0
 1351              	.LCFI68:
 1352              		.cfi_def_cfa_register 7
 1353 0006 F860     		str	r0, [r7, #12]
 1354 0008 B960     		str	r1, [r7, #8]
 1355 000a 7A60     		str	r2, [r7, #4]
 1356 000c 3B60     		str	r3, [r7]
 727:Firmware/Middlewares/Third_Party/FreeRTOS/Source/queue.c **** BaseType_t xEntryTimeSet = pdFALSE, xYieldRequired;
 1357              		.loc 1 727 0
 1358 000e 0023     		movs	r3, #0
 1359 0010 7B63     		str	r3, [r7, #52]
 728:Firmware/Middlewares/Third_Party/FreeRTOS/Source/queue.c **** TimeOut_t xTimeOut;
 729:Firmware/Middlewares/Third_Party/FreeRTOS/Source/queue.c **** Queue_t * const pxQueue = ( Queue_t * ) xQueue;
 1360              		.loc 1 729 0
 1361 0012 FB68     		ldr	r3, [r7, #12]
 1362 0014 3B63     		str	r3, [r7, #48]
 730:Firmware/Middlewares/Third_Party/FreeRTOS/Source/queue.c **** 
 731:Firmware/Middlewares/Third_Party/FreeRTOS/Source/queue.c **** 	configASSERT( pxQueue );
 1363              		.loc 1 731 0
 1364 0016 3B6B     		ldr	r3, [r7, #48]
 1365 0018 002B     		cmp	r3, #0
 1366 001a 09D1     		bne	.L83
 1367              	.LBB147:
 1368              	.LBB148:
 1369              		.loc 2 195 0 discriminator 1
 1370              		.syntax unified
 1371              	@ 195 "Firmware/Middlewares/Third_Party/FreeRTOS/Source/portable/GCC/ARM_CM4F/portmacro.h" 1
 1372 001c 4FF05003 			mov r3, #80												
 1373 0020 83F31188 		msr basepri, r3											
 1374 0024 BFF36F8F 		isb														
 1375 0028 BFF34F8F 		dsb														
 1376              	
 1377              	@ 0 "" 2
 1378              		.thumb
 1379              		.syntax unified
 1380 002c BB62     		str	r3, [r7, #40]
 1381              	.L84:
ARM GAS  /tmp/ccwOJcWw.s 			page 41


 1382              	.LBE148:
 1383              	.LBE147:
 1384              		.loc 1 731 0 discriminator 1
 1385 002e FEE7     		b	.L84
 1386              	.L83:
 732:Firmware/Middlewares/Third_Party/FreeRTOS/Source/queue.c **** 	configASSERT( !( ( pvItemToQueue == NULL ) && ( pxQueue->uxItemSize != ( UBaseType_t ) 0U ) ) );
 1387              		.loc 1 732 0
 1388 0030 BB68     		ldr	r3, [r7, #8]
 1389 0032 002B     		cmp	r3, #0
 1390 0034 03D1     		bne	.L85
 1391              		.loc 1 732 0 is_stmt 0 discriminator 2
 1392 0036 3B6B     		ldr	r3, [r7, #48]
 1393 0038 1B6C     		ldr	r3, [r3, #64]
 1394 003a 002B     		cmp	r3, #0
 1395 003c 01D1     		bne	.L86
 1396              	.L85:
 1397              		.loc 1 732 0 discriminator 3
 1398 003e 0123     		movs	r3, #1
 1399 0040 00E0     		b	.L87
 1400              	.L86:
 1401              		.loc 1 732 0 discriminator 4
 1402 0042 0023     		movs	r3, #0
 1403              	.L87:
 1404              		.loc 1 732 0 discriminator 6
 1405 0044 002B     		cmp	r3, #0
 1406 0046 09D1     		bne	.L88
 1407              	.LBB149:
 1408              	.LBB150:
 1409              		.loc 2 195 0 is_stmt 1 discriminator 7
 1410              		.syntax unified
 1411              	@ 195 "Firmware/Middlewares/Third_Party/FreeRTOS/Source/portable/GCC/ARM_CM4F/portmacro.h" 1
 1412 0048 4FF05003 			mov r3, #80												
 1413 004c 83F31188 		msr basepri, r3											
 1414 0050 BFF36F8F 		isb														
 1415 0054 BFF34F8F 		dsb														
 1416              	
 1417              	@ 0 "" 2
 1418              		.thumb
 1419              		.syntax unified
 1420 0058 7B62     		str	r3, [r7, #36]
 1421              	.L89:
 1422              	.LBE150:
 1423              	.LBE149:
 1424              		.loc 1 732 0 discriminator 2
 1425 005a FEE7     		b	.L89
 1426              	.L88:
 733:Firmware/Middlewares/Third_Party/FreeRTOS/Source/queue.c **** 	configASSERT( !( ( xCopyPosition == queueOVERWRITE ) && ( pxQueue->uxLength != 1 ) ) );
 1427              		.loc 1 733 0
 1428 005c 3B68     		ldr	r3, [r7]
 1429 005e 022B     		cmp	r3, #2
 1430 0060 03D1     		bne	.L90
 1431              		.loc 1 733 0 is_stmt 0 discriminator 2
 1432 0062 3B6B     		ldr	r3, [r7, #48]
 1433 0064 DB6B     		ldr	r3, [r3, #60]
 1434 0066 012B     		cmp	r3, #1
 1435 0068 01D1     		bne	.L91
 1436              	.L90:
ARM GAS  /tmp/ccwOJcWw.s 			page 42


 1437              		.loc 1 733 0 discriminator 3
 1438 006a 0123     		movs	r3, #1
 1439 006c 00E0     		b	.L92
 1440              	.L91:
 1441              		.loc 1 733 0 discriminator 4
 1442 006e 0023     		movs	r3, #0
 1443              	.L92:
 1444              		.loc 1 733 0 discriminator 6
 1445 0070 002B     		cmp	r3, #0
 1446 0072 09D1     		bne	.L93
 1447              	.LBB151:
 1448              	.LBB152:
 1449              		.loc 2 195 0 is_stmt 1 discriminator 7
 1450              		.syntax unified
 1451              	@ 195 "Firmware/Middlewares/Third_Party/FreeRTOS/Source/portable/GCC/ARM_CM4F/portmacro.h" 1
 1452 0074 4FF05003 			mov r3, #80												
 1453 0078 83F31188 		msr basepri, r3											
 1454 007c BFF36F8F 		isb														
 1455 0080 BFF34F8F 		dsb														
 1456              	
 1457              	@ 0 "" 2
 1458              		.thumb
 1459              		.syntax unified
 1460 0084 3B62     		str	r3, [r7, #32]
 1461              	.L94:
 1462              	.LBE152:
 1463              	.LBE151:
 1464              		.loc 1 733 0 discriminator 3
 1465 0086 FEE7     		b	.L94
 1466              	.L93:
 734:Firmware/Middlewares/Third_Party/FreeRTOS/Source/queue.c **** 	#if ( ( INCLUDE_xTaskGetSchedulerState == 1 ) || ( configUSE_TIMERS == 1 ) )
 735:Firmware/Middlewares/Third_Party/FreeRTOS/Source/queue.c **** 	{
 736:Firmware/Middlewares/Third_Party/FreeRTOS/Source/queue.c **** 		configASSERT( !( ( xTaskGetSchedulerState() == taskSCHEDULER_SUSPENDED ) && ( xTicksToWait != 0 )
 1467              		.loc 1 736 0
 1468 0088 FFF7FEFF 		bl	xTaskGetSchedulerState
 1469 008c 0346     		mov	r3, r0
 1470 008e 002B     		cmp	r3, #0
 1471 0090 02D1     		bne	.L95
 1472              		.loc 1 736 0 is_stmt 0 discriminator 2
 1473 0092 7B68     		ldr	r3, [r7, #4]
 1474 0094 002B     		cmp	r3, #0
 1475 0096 01D1     		bne	.L96
 1476              	.L95:
 1477              		.loc 1 736 0 discriminator 3
 1478 0098 0123     		movs	r3, #1
 1479 009a 00E0     		b	.L97
 1480              	.L96:
 1481              		.loc 1 736 0 discriminator 4
 1482 009c 0023     		movs	r3, #0
 1483              	.L97:
 1484              		.loc 1 736 0 discriminator 6
 1485 009e 002B     		cmp	r3, #0
 1486 00a0 09D1     		bne	.L98
 1487              	.LBB153:
 1488              	.LBB154:
 1489              		.loc 2 195 0 is_stmt 1 discriminator 7
 1490              		.syntax unified
ARM GAS  /tmp/ccwOJcWw.s 			page 43


 1491              	@ 195 "Firmware/Middlewares/Third_Party/FreeRTOS/Source/portable/GCC/ARM_CM4F/portmacro.h" 1
 1492 00a2 4FF05003 			mov r3, #80												
 1493 00a6 83F31188 		msr basepri, r3											
 1494 00aa BFF36F8F 		isb														
 1495 00ae BFF34F8F 		dsb														
 1496              	
 1497              	@ 0 "" 2
 1498              		.thumb
 1499              		.syntax unified
 1500 00b2 FB61     		str	r3, [r7, #28]
 1501              	.L99:
 1502              	.LBE154:
 1503              	.LBE153:
 1504              		.loc 1 736 0 discriminator 4
 1505 00b4 FEE7     		b	.L99
 1506              	.L98:
 737:Firmware/Middlewares/Third_Party/FreeRTOS/Source/queue.c **** 	}
 738:Firmware/Middlewares/Third_Party/FreeRTOS/Source/queue.c **** 	#endif
 739:Firmware/Middlewares/Third_Party/FreeRTOS/Source/queue.c **** 
 740:Firmware/Middlewares/Third_Party/FreeRTOS/Source/queue.c **** 
 741:Firmware/Middlewares/Third_Party/FreeRTOS/Source/queue.c **** 	/* This function relaxes the coding standard somewhat to allow return
 742:Firmware/Middlewares/Third_Party/FreeRTOS/Source/queue.c **** 	statements within the function itself.  This is done in the interest
 743:Firmware/Middlewares/Third_Party/FreeRTOS/Source/queue.c **** 	of execution time efficiency. */
 744:Firmware/Middlewares/Third_Party/FreeRTOS/Source/queue.c **** 	for( ;; )
 745:Firmware/Middlewares/Third_Party/FreeRTOS/Source/queue.c **** 	{
 746:Firmware/Middlewares/Third_Party/FreeRTOS/Source/queue.c **** 		taskENTER_CRITICAL();
 1507              		.loc 1 746 0
 1508 00b6 FFF7FEFF 		bl	vPortEnterCritical
 747:Firmware/Middlewares/Third_Party/FreeRTOS/Source/queue.c **** 		{
 748:Firmware/Middlewares/Third_Party/FreeRTOS/Source/queue.c **** 			/* Is there room on the queue now?  The running task must be the
 749:Firmware/Middlewares/Third_Party/FreeRTOS/Source/queue.c **** 			highest priority task wanting to access the queue.  If the head item
 750:Firmware/Middlewares/Third_Party/FreeRTOS/Source/queue.c **** 			in the queue is to be overwritten then it does not matter if the
 751:Firmware/Middlewares/Third_Party/FreeRTOS/Source/queue.c **** 			queue is full. */
 752:Firmware/Middlewares/Third_Party/FreeRTOS/Source/queue.c **** 			if( ( pxQueue->uxMessagesWaiting < pxQueue->uxLength ) || ( xCopyPosition == queueOVERWRITE ) )
 1509              		.loc 1 752 0
 1510 00ba 3B6B     		ldr	r3, [r7, #48]
 1511 00bc 9A6B     		ldr	r2, [r3, #56]
 1512 00be 3B6B     		ldr	r3, [r7, #48]
 1513 00c0 DB6B     		ldr	r3, [r3, #60]
 1514 00c2 9A42     		cmp	r2, r3
 1515 00c4 02D3     		bcc	.L100
 1516              		.loc 1 752 0 is_stmt 0 discriminator 1
 1517 00c6 3B68     		ldr	r3, [r7]
 1518 00c8 022B     		cmp	r3, #2
 1519 00ca 29D1     		bne	.L101
 1520              	.L100:
 753:Firmware/Middlewares/Third_Party/FreeRTOS/Source/queue.c **** 			{
 754:Firmware/Middlewares/Third_Party/FreeRTOS/Source/queue.c **** 				traceQUEUE_SEND( pxQueue );
 755:Firmware/Middlewares/Third_Party/FreeRTOS/Source/queue.c **** 				xYieldRequired = prvCopyDataToQueue( pxQueue, pvItemToQueue, xCopyPosition );
 1521              		.loc 1 755 0 is_stmt 1
 1522 00cc 3A68     		ldr	r2, [r7]
 1523 00ce B968     		ldr	r1, [r7, #8]
 1524 00d0 386B     		ldr	r0, [r7, #48]
 1525 00d2 FFF7FEFF 		bl	prvCopyDataToQueue
 1526 00d6 F862     		str	r0, [r7, #44]
 756:Firmware/Middlewares/Third_Party/FreeRTOS/Source/queue.c **** 
 757:Firmware/Middlewares/Third_Party/FreeRTOS/Source/queue.c **** 				#if ( configUSE_QUEUE_SETS == 1 )
ARM GAS  /tmp/ccwOJcWw.s 			page 44


 758:Firmware/Middlewares/Third_Party/FreeRTOS/Source/queue.c **** 				{
 759:Firmware/Middlewares/Third_Party/FreeRTOS/Source/queue.c **** 					if( pxQueue->pxQueueSetContainer != NULL )
 760:Firmware/Middlewares/Third_Party/FreeRTOS/Source/queue.c **** 					{
 761:Firmware/Middlewares/Third_Party/FreeRTOS/Source/queue.c **** 						if( prvNotifyQueueSetContainer( pxQueue, xCopyPosition ) != pdFALSE )
 762:Firmware/Middlewares/Third_Party/FreeRTOS/Source/queue.c **** 						{
 763:Firmware/Middlewares/Third_Party/FreeRTOS/Source/queue.c **** 							/* The queue is a member of a queue set, and posting
 764:Firmware/Middlewares/Third_Party/FreeRTOS/Source/queue.c **** 							to the queue set caused a higher priority task to
 765:Firmware/Middlewares/Third_Party/FreeRTOS/Source/queue.c **** 							unblock. A context switch is required. */
 766:Firmware/Middlewares/Third_Party/FreeRTOS/Source/queue.c **** 							queueYIELD_IF_USING_PREEMPTION();
 767:Firmware/Middlewares/Third_Party/FreeRTOS/Source/queue.c **** 						}
 768:Firmware/Middlewares/Third_Party/FreeRTOS/Source/queue.c **** 						else
 769:Firmware/Middlewares/Third_Party/FreeRTOS/Source/queue.c **** 						{
 770:Firmware/Middlewares/Third_Party/FreeRTOS/Source/queue.c **** 							mtCOVERAGE_TEST_MARKER();
 771:Firmware/Middlewares/Third_Party/FreeRTOS/Source/queue.c **** 						}
 772:Firmware/Middlewares/Third_Party/FreeRTOS/Source/queue.c **** 					}
 773:Firmware/Middlewares/Third_Party/FreeRTOS/Source/queue.c **** 					else
 774:Firmware/Middlewares/Third_Party/FreeRTOS/Source/queue.c **** 					{
 775:Firmware/Middlewares/Third_Party/FreeRTOS/Source/queue.c **** 						/* If there was a task waiting for data to arrive on the
 776:Firmware/Middlewares/Third_Party/FreeRTOS/Source/queue.c **** 						queue then unblock it now. */
 777:Firmware/Middlewares/Third_Party/FreeRTOS/Source/queue.c **** 						if( listLIST_IS_EMPTY( &( pxQueue->xTasksWaitingToReceive ) ) == pdFALSE )
 778:Firmware/Middlewares/Third_Party/FreeRTOS/Source/queue.c **** 						{
 779:Firmware/Middlewares/Third_Party/FreeRTOS/Source/queue.c **** 							if( xTaskRemoveFromEventList( &( pxQueue->xTasksWaitingToReceive ) ) != pdFALSE )
 780:Firmware/Middlewares/Third_Party/FreeRTOS/Source/queue.c **** 							{
 781:Firmware/Middlewares/Third_Party/FreeRTOS/Source/queue.c **** 								/* The unblocked task has a priority higher than
 782:Firmware/Middlewares/Third_Party/FreeRTOS/Source/queue.c **** 								our own so yield immediately.  Yes it is ok to
 783:Firmware/Middlewares/Third_Party/FreeRTOS/Source/queue.c **** 								do this from within the critical section - the
 784:Firmware/Middlewares/Third_Party/FreeRTOS/Source/queue.c **** 								kernel takes care of that. */
 785:Firmware/Middlewares/Third_Party/FreeRTOS/Source/queue.c **** 								queueYIELD_IF_USING_PREEMPTION();
 786:Firmware/Middlewares/Third_Party/FreeRTOS/Source/queue.c **** 							}
 787:Firmware/Middlewares/Third_Party/FreeRTOS/Source/queue.c **** 							else
 788:Firmware/Middlewares/Third_Party/FreeRTOS/Source/queue.c **** 							{
 789:Firmware/Middlewares/Third_Party/FreeRTOS/Source/queue.c **** 								mtCOVERAGE_TEST_MARKER();
 790:Firmware/Middlewares/Third_Party/FreeRTOS/Source/queue.c **** 							}
 791:Firmware/Middlewares/Third_Party/FreeRTOS/Source/queue.c **** 						}
 792:Firmware/Middlewares/Third_Party/FreeRTOS/Source/queue.c **** 						else if( xYieldRequired != pdFALSE )
 793:Firmware/Middlewares/Third_Party/FreeRTOS/Source/queue.c **** 						{
 794:Firmware/Middlewares/Third_Party/FreeRTOS/Source/queue.c **** 							/* This path is a special case that will only get
 795:Firmware/Middlewares/Third_Party/FreeRTOS/Source/queue.c **** 							executed if the task was holding multiple mutexes
 796:Firmware/Middlewares/Third_Party/FreeRTOS/Source/queue.c **** 							and the mutexes were given back in an order that is
 797:Firmware/Middlewares/Third_Party/FreeRTOS/Source/queue.c **** 							different to that in which they were taken. */
 798:Firmware/Middlewares/Third_Party/FreeRTOS/Source/queue.c **** 							queueYIELD_IF_USING_PREEMPTION();
 799:Firmware/Middlewares/Third_Party/FreeRTOS/Source/queue.c **** 						}
 800:Firmware/Middlewares/Third_Party/FreeRTOS/Source/queue.c **** 						else
 801:Firmware/Middlewares/Third_Party/FreeRTOS/Source/queue.c **** 						{
 802:Firmware/Middlewares/Third_Party/FreeRTOS/Source/queue.c **** 							mtCOVERAGE_TEST_MARKER();
 803:Firmware/Middlewares/Third_Party/FreeRTOS/Source/queue.c **** 						}
 804:Firmware/Middlewares/Third_Party/FreeRTOS/Source/queue.c **** 					}
 805:Firmware/Middlewares/Third_Party/FreeRTOS/Source/queue.c **** 				}
 806:Firmware/Middlewares/Third_Party/FreeRTOS/Source/queue.c **** 				#else /* configUSE_QUEUE_SETS */
 807:Firmware/Middlewares/Third_Party/FreeRTOS/Source/queue.c **** 				{
 808:Firmware/Middlewares/Third_Party/FreeRTOS/Source/queue.c **** 					/* If there was a task waiting for data to arrive on the
 809:Firmware/Middlewares/Third_Party/FreeRTOS/Source/queue.c **** 					queue then unblock it now. */
 810:Firmware/Middlewares/Third_Party/FreeRTOS/Source/queue.c **** 					if( listLIST_IS_EMPTY( &( pxQueue->xTasksWaitingToReceive ) ) == pdFALSE )
 1527              		.loc 1 810 0
 1528 00d8 3B6B     		ldr	r3, [r7, #48]
 1529 00da 5B6A     		ldr	r3, [r3, #36]
 1530 00dc 002B     		cmp	r3, #0
ARM GAS  /tmp/ccwOJcWw.s 			page 45


 1531 00de 10D0     		beq	.L102
 811:Firmware/Middlewares/Third_Party/FreeRTOS/Source/queue.c **** 					{
 812:Firmware/Middlewares/Third_Party/FreeRTOS/Source/queue.c **** 						if( xTaskRemoveFromEventList( &( pxQueue->xTasksWaitingToReceive ) ) != pdFALSE )
 1532              		.loc 1 812 0
 1533 00e0 3B6B     		ldr	r3, [r7, #48]
 1534 00e2 2433     		adds	r3, r3, #36
 1535 00e4 1846     		mov	r0, r3
 1536 00e6 FFF7FEFF 		bl	xTaskRemoveFromEventList
 1537 00ea 0346     		mov	r3, r0
 1538 00ec 002B     		cmp	r3, #0
 1539 00ee 13D0     		beq	.L103
 813:Firmware/Middlewares/Third_Party/FreeRTOS/Source/queue.c **** 						{
 814:Firmware/Middlewares/Third_Party/FreeRTOS/Source/queue.c **** 							/* The unblocked task has a priority higher than
 815:Firmware/Middlewares/Third_Party/FreeRTOS/Source/queue.c **** 							our own so yield immediately.  Yes it is ok to do
 816:Firmware/Middlewares/Third_Party/FreeRTOS/Source/queue.c **** 							this from within the critical section - the kernel
 817:Firmware/Middlewares/Third_Party/FreeRTOS/Source/queue.c **** 							takes care of that. */
 818:Firmware/Middlewares/Third_Party/FreeRTOS/Source/queue.c **** 							queueYIELD_IF_USING_PREEMPTION();
 1540              		.loc 1 818 0
 1541 00f0 3F4B     		ldr	r3, .L115
 1542 00f2 4FF08052 		mov	r2, #268435456
 1543 00f6 1A60     		str	r2, [r3]
 1544              		.syntax unified
 1545              	@ 818 "Firmware/Middlewares/Third_Party/FreeRTOS/Source/queue.c" 1
 1546 00f8 BFF34F8F 		dsb
 1547              	@ 0 "" 2
 1548              	@ 818 "Firmware/Middlewares/Third_Party/FreeRTOS/Source/queue.c" 1
 1549 00fc BFF36F8F 		isb
 1550              	@ 0 "" 2
 1551              		.thumb
 1552              		.syntax unified
 1553 0100 0AE0     		b	.L103
 1554              	.L102:
 819:Firmware/Middlewares/Third_Party/FreeRTOS/Source/queue.c **** 						}
 820:Firmware/Middlewares/Third_Party/FreeRTOS/Source/queue.c **** 						else
 821:Firmware/Middlewares/Third_Party/FreeRTOS/Source/queue.c **** 						{
 822:Firmware/Middlewares/Third_Party/FreeRTOS/Source/queue.c **** 							mtCOVERAGE_TEST_MARKER();
 823:Firmware/Middlewares/Third_Party/FreeRTOS/Source/queue.c **** 						}
 824:Firmware/Middlewares/Third_Party/FreeRTOS/Source/queue.c **** 					}
 825:Firmware/Middlewares/Third_Party/FreeRTOS/Source/queue.c **** 					else if( xYieldRequired != pdFALSE )
 1555              		.loc 1 825 0
 1556 0102 FB6A     		ldr	r3, [r7, #44]
 1557 0104 002B     		cmp	r3, #0
 1558 0106 07D0     		beq	.L103
 826:Firmware/Middlewares/Third_Party/FreeRTOS/Source/queue.c **** 					{
 827:Firmware/Middlewares/Third_Party/FreeRTOS/Source/queue.c **** 						/* This path is a special case that will only get
 828:Firmware/Middlewares/Third_Party/FreeRTOS/Source/queue.c **** 						executed if the task was holding multiple mutexes and
 829:Firmware/Middlewares/Third_Party/FreeRTOS/Source/queue.c **** 						the mutexes were given back in an order that is
 830:Firmware/Middlewares/Third_Party/FreeRTOS/Source/queue.c **** 						different to that in which they were taken. */
 831:Firmware/Middlewares/Third_Party/FreeRTOS/Source/queue.c **** 						queueYIELD_IF_USING_PREEMPTION();
 1559              		.loc 1 831 0
 1560 0108 394B     		ldr	r3, .L115
 1561 010a 4FF08052 		mov	r2, #268435456
 1562 010e 1A60     		str	r2, [r3]
 1563              		.syntax unified
 1564              	@ 831 "Firmware/Middlewares/Third_Party/FreeRTOS/Source/queue.c" 1
 1565 0110 BFF34F8F 		dsb
 1566              	@ 0 "" 2
ARM GAS  /tmp/ccwOJcWw.s 			page 46


 1567              	@ 831 "Firmware/Middlewares/Third_Party/FreeRTOS/Source/queue.c" 1
 1568 0114 BFF36F8F 		isb
 1569              	@ 0 "" 2
 1570              		.thumb
 1571              		.syntax unified
 1572              	.L103:
 832:Firmware/Middlewares/Third_Party/FreeRTOS/Source/queue.c **** 					}
 833:Firmware/Middlewares/Third_Party/FreeRTOS/Source/queue.c **** 					else
 834:Firmware/Middlewares/Third_Party/FreeRTOS/Source/queue.c **** 					{
 835:Firmware/Middlewares/Third_Party/FreeRTOS/Source/queue.c **** 						mtCOVERAGE_TEST_MARKER();
 836:Firmware/Middlewares/Third_Party/FreeRTOS/Source/queue.c **** 					}
 837:Firmware/Middlewares/Third_Party/FreeRTOS/Source/queue.c **** 				}
 838:Firmware/Middlewares/Third_Party/FreeRTOS/Source/queue.c **** 				#endif /* configUSE_QUEUE_SETS */
 839:Firmware/Middlewares/Third_Party/FreeRTOS/Source/queue.c **** 
 840:Firmware/Middlewares/Third_Party/FreeRTOS/Source/queue.c **** 				taskEXIT_CRITICAL();
 1573              		.loc 1 840 0
 1574 0118 FFF7FEFF 		bl	vPortExitCritical
 841:Firmware/Middlewares/Third_Party/FreeRTOS/Source/queue.c **** 				return pdPASS;
 1575              		.loc 1 841 0
 1576 011c 0123     		movs	r3, #1
 1577 011e 63E0     		b	.L114
 1578              	.L101:
 842:Firmware/Middlewares/Third_Party/FreeRTOS/Source/queue.c **** 			}
 843:Firmware/Middlewares/Third_Party/FreeRTOS/Source/queue.c **** 			else
 844:Firmware/Middlewares/Third_Party/FreeRTOS/Source/queue.c **** 			{
 845:Firmware/Middlewares/Third_Party/FreeRTOS/Source/queue.c **** 				if( xTicksToWait == ( TickType_t ) 0 )
 1579              		.loc 1 845 0
 1580 0120 7B68     		ldr	r3, [r7, #4]
 1581 0122 002B     		cmp	r3, #0
 1582 0124 03D1     		bne	.L105
 846:Firmware/Middlewares/Third_Party/FreeRTOS/Source/queue.c **** 				{
 847:Firmware/Middlewares/Third_Party/FreeRTOS/Source/queue.c **** 					/* The queue was full and no block time is specified (or
 848:Firmware/Middlewares/Third_Party/FreeRTOS/Source/queue.c **** 					the block time has expired) so leave now. */
 849:Firmware/Middlewares/Third_Party/FreeRTOS/Source/queue.c **** 					taskEXIT_CRITICAL();
 1583              		.loc 1 849 0
 1584 0126 FFF7FEFF 		bl	vPortExitCritical
 850:Firmware/Middlewares/Third_Party/FreeRTOS/Source/queue.c **** 
 851:Firmware/Middlewares/Third_Party/FreeRTOS/Source/queue.c **** 					/* Return to the original privilege level before exiting
 852:Firmware/Middlewares/Third_Party/FreeRTOS/Source/queue.c **** 					the function. */
 853:Firmware/Middlewares/Third_Party/FreeRTOS/Source/queue.c **** 					traceQUEUE_SEND_FAILED( pxQueue );
 854:Firmware/Middlewares/Third_Party/FreeRTOS/Source/queue.c **** 					return errQUEUE_FULL;
 1585              		.loc 1 854 0
 1586 012a 0023     		movs	r3, #0
 1587 012c 5CE0     		b	.L114
 1588              	.L105:
 855:Firmware/Middlewares/Third_Party/FreeRTOS/Source/queue.c **** 				}
 856:Firmware/Middlewares/Third_Party/FreeRTOS/Source/queue.c **** 				else if( xEntryTimeSet == pdFALSE )
 1589              		.loc 1 856 0
 1590 012e 7B6B     		ldr	r3, [r7, #52]
 1591 0130 002B     		cmp	r3, #0
 1592 0132 06D1     		bne	.L106
 857:Firmware/Middlewares/Third_Party/FreeRTOS/Source/queue.c **** 				{
 858:Firmware/Middlewares/Third_Party/FreeRTOS/Source/queue.c **** 					/* The queue was full and a block time was specified so
 859:Firmware/Middlewares/Third_Party/FreeRTOS/Source/queue.c **** 					configure the timeout structure. */
 860:Firmware/Middlewares/Third_Party/FreeRTOS/Source/queue.c **** 					vTaskInternalSetTimeOutState( &xTimeOut );
 1593              		.loc 1 860 0
 1594 0134 07F11403 		add	r3, r7, #20
ARM GAS  /tmp/ccwOJcWw.s 			page 47


 1595 0138 1846     		mov	r0, r3
 1596 013a FFF7FEFF 		bl	vTaskInternalSetTimeOutState
 861:Firmware/Middlewares/Third_Party/FreeRTOS/Source/queue.c **** 					xEntryTimeSet = pdTRUE;
 1597              		.loc 1 861 0
 1598 013e 0123     		movs	r3, #1
 1599 0140 7B63     		str	r3, [r7, #52]
 1600              	.L106:
 862:Firmware/Middlewares/Third_Party/FreeRTOS/Source/queue.c **** 				}
 863:Firmware/Middlewares/Third_Party/FreeRTOS/Source/queue.c **** 				else
 864:Firmware/Middlewares/Third_Party/FreeRTOS/Source/queue.c **** 				{
 865:Firmware/Middlewares/Third_Party/FreeRTOS/Source/queue.c **** 					/* Entry time was already set. */
 866:Firmware/Middlewares/Third_Party/FreeRTOS/Source/queue.c **** 					mtCOVERAGE_TEST_MARKER();
 867:Firmware/Middlewares/Third_Party/FreeRTOS/Source/queue.c **** 				}
 868:Firmware/Middlewares/Third_Party/FreeRTOS/Source/queue.c **** 			}
 869:Firmware/Middlewares/Third_Party/FreeRTOS/Source/queue.c **** 		}
 870:Firmware/Middlewares/Third_Party/FreeRTOS/Source/queue.c **** 		taskEXIT_CRITICAL();
 1601              		.loc 1 870 0
 1602 0142 FFF7FEFF 		bl	vPortExitCritical
 871:Firmware/Middlewares/Third_Party/FreeRTOS/Source/queue.c **** 
 872:Firmware/Middlewares/Third_Party/FreeRTOS/Source/queue.c **** 		/* Interrupts and other tasks can send to and receive from the queue
 873:Firmware/Middlewares/Third_Party/FreeRTOS/Source/queue.c **** 		now the critical section has been exited. */
 874:Firmware/Middlewares/Third_Party/FreeRTOS/Source/queue.c **** 
 875:Firmware/Middlewares/Third_Party/FreeRTOS/Source/queue.c **** 		vTaskSuspendAll();
 1603              		.loc 1 875 0
 1604 0146 FFF7FEFF 		bl	vTaskSuspendAll
 876:Firmware/Middlewares/Third_Party/FreeRTOS/Source/queue.c **** 		prvLockQueue( pxQueue );
 1605              		.loc 1 876 0
 1606 014a FFF7FEFF 		bl	vPortEnterCritical
 1607 014e 3B6B     		ldr	r3, [r7, #48]
 1608 0150 93F84430 		ldrb	r3, [r3, #68]
 1609 0154 5BB2     		sxtb	r3, r3
 1610 0156 B3F1FF3F 		cmp	r3, #-1
 1611 015a 03D1     		bne	.L107
 1612              		.loc 1 876 0 is_stmt 0 discriminator 1
 1613 015c 3B6B     		ldr	r3, [r7, #48]
 1614 015e 0022     		movs	r2, #0
 1615 0160 83F84420 		strb	r2, [r3, #68]
 1616              	.L107:
 1617              		.loc 1 876 0 discriminator 3
 1618 0164 3B6B     		ldr	r3, [r7, #48]
 1619 0166 93F84530 		ldrb	r3, [r3, #69]
 1620 016a 5BB2     		sxtb	r3, r3
 1621 016c B3F1FF3F 		cmp	r3, #-1
 1622 0170 03D1     		bne	.L108
 1623              		.loc 1 876 0 discriminator 4
 1624 0172 3B6B     		ldr	r3, [r7, #48]
 1625 0174 0022     		movs	r2, #0
 1626 0176 83F84520 		strb	r2, [r3, #69]
 1627              	.L108:
 1628              		.loc 1 876 0 discriminator 6
 1629 017a FFF7FEFF 		bl	vPortExitCritical
 877:Firmware/Middlewares/Third_Party/FreeRTOS/Source/queue.c **** 
 878:Firmware/Middlewares/Third_Party/FreeRTOS/Source/queue.c **** 		/* Update the timeout state to see if it has expired yet. */
 879:Firmware/Middlewares/Third_Party/FreeRTOS/Source/queue.c **** 		if( xTaskCheckForTimeOut( &xTimeOut, &xTicksToWait ) == pdFALSE )
 1630              		.loc 1 879 0 is_stmt 1 discriminator 6
 1631 017e 3A1D     		adds	r2, r7, #4
 1632 0180 07F11403 		add	r3, r7, #20
ARM GAS  /tmp/ccwOJcWw.s 			page 48


 1633 0184 1146     		mov	r1, r2
 1634 0186 1846     		mov	r0, r3
 1635 0188 FFF7FEFF 		bl	xTaskCheckForTimeOut
 1636 018c 0346     		mov	r3, r0
 1637 018e 002B     		cmp	r3, #0
 1638 0190 24D1     		bne	.L109
 880:Firmware/Middlewares/Third_Party/FreeRTOS/Source/queue.c **** 		{
 881:Firmware/Middlewares/Third_Party/FreeRTOS/Source/queue.c **** 			if( prvIsQueueFull( pxQueue ) != pdFALSE )
 1639              		.loc 1 881 0
 1640 0192 386B     		ldr	r0, [r7, #48]
 1641 0194 FFF7FEFF 		bl	prvIsQueueFull
 1642 0198 0346     		mov	r3, r0
 1643 019a 002B     		cmp	r3, #0
 1644 019c 18D0     		beq	.L110
 882:Firmware/Middlewares/Third_Party/FreeRTOS/Source/queue.c **** 			{
 883:Firmware/Middlewares/Third_Party/FreeRTOS/Source/queue.c **** 				traceBLOCKING_ON_QUEUE_SEND( pxQueue );
 884:Firmware/Middlewares/Third_Party/FreeRTOS/Source/queue.c **** 				vTaskPlaceOnEventList( &( pxQueue->xTasksWaitingToSend ), xTicksToWait );
 1645              		.loc 1 884 0
 1646 019e 3B6B     		ldr	r3, [r7, #48]
 1647 01a0 1033     		adds	r3, r3, #16
 1648 01a2 7A68     		ldr	r2, [r7, #4]
 1649 01a4 1146     		mov	r1, r2
 1650 01a6 1846     		mov	r0, r3
 1651 01a8 FFF7FEFF 		bl	vTaskPlaceOnEventList
 885:Firmware/Middlewares/Third_Party/FreeRTOS/Source/queue.c **** 
 886:Firmware/Middlewares/Third_Party/FreeRTOS/Source/queue.c **** 				/* Unlocking the queue means queue events can effect the
 887:Firmware/Middlewares/Third_Party/FreeRTOS/Source/queue.c **** 				event list.  It is possible that interrupts occurring now
 888:Firmware/Middlewares/Third_Party/FreeRTOS/Source/queue.c **** 				remove this task from the event list again - but as the
 889:Firmware/Middlewares/Third_Party/FreeRTOS/Source/queue.c **** 				scheduler is suspended the task will go onto the pending
 890:Firmware/Middlewares/Third_Party/FreeRTOS/Source/queue.c **** 				ready last instead of the actual ready list. */
 891:Firmware/Middlewares/Third_Party/FreeRTOS/Source/queue.c **** 				prvUnlockQueue( pxQueue );
 1652              		.loc 1 891 0
 1653 01ac 386B     		ldr	r0, [r7, #48]
 1654 01ae FFF7FEFF 		bl	prvUnlockQueue
 892:Firmware/Middlewares/Third_Party/FreeRTOS/Source/queue.c **** 
 893:Firmware/Middlewares/Third_Party/FreeRTOS/Source/queue.c **** 				/* Resuming the scheduler will move tasks from the pending
 894:Firmware/Middlewares/Third_Party/FreeRTOS/Source/queue.c **** 				ready list into the ready list - so it is feasible that this
 895:Firmware/Middlewares/Third_Party/FreeRTOS/Source/queue.c **** 				task is already in a ready list before it yields - in which
 896:Firmware/Middlewares/Third_Party/FreeRTOS/Source/queue.c **** 				case the yield will not cause a context switch unless there
 897:Firmware/Middlewares/Third_Party/FreeRTOS/Source/queue.c **** 				is also a higher priority task in the pending ready list. */
 898:Firmware/Middlewares/Third_Party/FreeRTOS/Source/queue.c **** 				if( xTaskResumeAll() == pdFALSE )
 1655              		.loc 1 898 0
 1656 01b2 FFF7FEFF 		bl	xTaskResumeAll
 1657 01b6 0346     		mov	r3, r0
 1658 01b8 002B     		cmp	r3, #0
 1659 01ba 7FF47CAF 		bne	.L98
 899:Firmware/Middlewares/Third_Party/FreeRTOS/Source/queue.c **** 				{
 900:Firmware/Middlewares/Third_Party/FreeRTOS/Source/queue.c **** 					portYIELD_WITHIN_API();
 1660              		.loc 1 900 0
 1661 01be 0C4B     		ldr	r3, .L115
 1662 01c0 4FF08052 		mov	r2, #268435456
 1663 01c4 1A60     		str	r2, [r3]
 1664              		.syntax unified
 1665              	@ 900 "Firmware/Middlewares/Third_Party/FreeRTOS/Source/queue.c" 1
 1666 01c6 BFF34F8F 		dsb
 1667              	@ 0 "" 2
 1668              	@ 900 "Firmware/Middlewares/Third_Party/FreeRTOS/Source/queue.c" 1
ARM GAS  /tmp/ccwOJcWw.s 			page 49


 1669 01ca BFF36F8F 		isb
 1670              	@ 0 "" 2
 1671              		.thumb
 1672              		.syntax unified
 1673 01ce 72E7     		b	.L98
 1674              	.L110:
 901:Firmware/Middlewares/Third_Party/FreeRTOS/Source/queue.c **** 				}
 902:Firmware/Middlewares/Third_Party/FreeRTOS/Source/queue.c **** 			}
 903:Firmware/Middlewares/Third_Party/FreeRTOS/Source/queue.c **** 			else
 904:Firmware/Middlewares/Third_Party/FreeRTOS/Source/queue.c **** 			{
 905:Firmware/Middlewares/Third_Party/FreeRTOS/Source/queue.c **** 				/* Try again. */
 906:Firmware/Middlewares/Third_Party/FreeRTOS/Source/queue.c **** 				prvUnlockQueue( pxQueue );
 1675              		.loc 1 906 0
 1676 01d0 386B     		ldr	r0, [r7, #48]
 1677 01d2 FFF7FEFF 		bl	prvUnlockQueue
 907:Firmware/Middlewares/Third_Party/FreeRTOS/Source/queue.c **** 				( void ) xTaskResumeAll();
 1678              		.loc 1 907 0
 1679 01d6 FFF7FEFF 		bl	xTaskResumeAll
 1680 01da 6CE7     		b	.L98
 1681              	.L109:
 908:Firmware/Middlewares/Third_Party/FreeRTOS/Source/queue.c **** 			}
 909:Firmware/Middlewares/Third_Party/FreeRTOS/Source/queue.c **** 		}
 910:Firmware/Middlewares/Third_Party/FreeRTOS/Source/queue.c **** 		else
 911:Firmware/Middlewares/Third_Party/FreeRTOS/Source/queue.c **** 		{
 912:Firmware/Middlewares/Third_Party/FreeRTOS/Source/queue.c **** 			/* The timeout has expired. */
 913:Firmware/Middlewares/Third_Party/FreeRTOS/Source/queue.c **** 			prvUnlockQueue( pxQueue );
 1682              		.loc 1 913 0
 1683 01dc 386B     		ldr	r0, [r7, #48]
 1684 01de FFF7FEFF 		bl	prvUnlockQueue
 914:Firmware/Middlewares/Third_Party/FreeRTOS/Source/queue.c **** 			( void ) xTaskResumeAll();
 1685              		.loc 1 914 0
 1686 01e2 FFF7FEFF 		bl	xTaskResumeAll
 915:Firmware/Middlewares/Third_Party/FreeRTOS/Source/queue.c **** 
 916:Firmware/Middlewares/Third_Party/FreeRTOS/Source/queue.c **** 			traceQUEUE_SEND_FAILED( pxQueue );
 917:Firmware/Middlewares/Third_Party/FreeRTOS/Source/queue.c **** 			return errQUEUE_FULL;
 1687              		.loc 1 917 0
 1688 01e6 0023     		movs	r3, #0
 1689              	.L114:
 918:Firmware/Middlewares/Third_Party/FreeRTOS/Source/queue.c **** 		}
 919:Firmware/Middlewares/Third_Party/FreeRTOS/Source/queue.c **** 	}
 920:Firmware/Middlewares/Third_Party/FreeRTOS/Source/queue.c **** }
 1690              		.loc 1 920 0 discriminator 7
 1691 01e8 1846     		mov	r0, r3
 1692 01ea 3837     		adds	r7, r7, #56
 1693              	.LCFI69:
 1694              		.cfi_def_cfa_offset 8
 1695 01ec BD46     		mov	sp, r7
 1696              	.LCFI70:
 1697              		.cfi_def_cfa_register 13
 1698              		@ sp needed
 1699 01ee 80BD     		pop	{r7, pc}
 1700              	.L116:
 1701              		.align	2
 1702              	.L115:
 1703 01f0 04ED00E0 		.word	-536810236
 1704              		.cfi_endproc
 1705              	.LFE17:
ARM GAS  /tmp/ccwOJcWw.s 			page 50


 1707              		.section	.text.xQueueGenericSendFromISR,"ax",%progbits
 1708              		.align	1
 1709              		.global	xQueueGenericSendFromISR
 1710              		.syntax unified
 1711              		.thumb
 1712              		.thumb_func
 1713              		.fpu fpv4-sp-d16
 1715              	xQueueGenericSendFromISR:
 1716              	.LFB18:
 921:Firmware/Middlewares/Third_Party/FreeRTOS/Source/queue.c **** /*-----------------------------------------------------------*/
 922:Firmware/Middlewares/Third_Party/FreeRTOS/Source/queue.c **** 
 923:Firmware/Middlewares/Third_Party/FreeRTOS/Source/queue.c **** BaseType_t xQueueGenericSendFromISR( QueueHandle_t xQueue, const void * const pvItemToQueue, BaseTy
 924:Firmware/Middlewares/Third_Party/FreeRTOS/Source/queue.c **** {
 1717              		.loc 1 924 0
 1718              		.cfi_startproc
 1719              		@ args = 0, pretend = 0, frame = 56
 1720              		@ frame_needed = 1, uses_anonymous_args = 0
 1721 0000 80B5     		push	{r7, lr}
 1722              	.LCFI71:
 1723              		.cfi_def_cfa_offset 8
 1724              		.cfi_offset 7, -8
 1725              		.cfi_offset 14, -4
 1726 0002 8EB0     		sub	sp, sp, #56
 1727              	.LCFI72:
 1728              		.cfi_def_cfa_offset 64
 1729 0004 00AF     		add	r7, sp, #0
 1730              	.LCFI73:
 1731              		.cfi_def_cfa_register 7
 1732 0006 F860     		str	r0, [r7, #12]
 1733 0008 B960     		str	r1, [r7, #8]
 1734 000a 7A60     		str	r2, [r7, #4]
 1735 000c 3B60     		str	r3, [r7]
 925:Firmware/Middlewares/Third_Party/FreeRTOS/Source/queue.c **** BaseType_t xReturn;
 926:Firmware/Middlewares/Third_Party/FreeRTOS/Source/queue.c **** UBaseType_t uxSavedInterruptStatus;
 927:Firmware/Middlewares/Third_Party/FreeRTOS/Source/queue.c **** Queue_t * const pxQueue = ( Queue_t * ) xQueue;
 1736              		.loc 1 927 0
 1737 000e FB68     		ldr	r3, [r7, #12]
 1738 0010 3B63     		str	r3, [r7, #48]
 928:Firmware/Middlewares/Third_Party/FreeRTOS/Source/queue.c **** 
 929:Firmware/Middlewares/Third_Party/FreeRTOS/Source/queue.c **** 	configASSERT( pxQueue );
 1739              		.loc 1 929 0
 1740 0012 3B6B     		ldr	r3, [r7, #48]
 1741 0014 002B     		cmp	r3, #0
 1742 0016 09D1     		bne	.L118
 1743              	.LBB155:
 1744              	.LBB156:
 1745              		.loc 2 195 0 discriminator 1
 1746              		.syntax unified
 1747              	@ 195 "Firmware/Middlewares/Third_Party/FreeRTOS/Source/portable/GCC/ARM_CM4F/portmacro.h" 1
 1748 0018 4FF05003 			mov r3, #80												
 1749 001c 83F31188 		msr basepri, r3											
 1750 0020 BFF36F8F 		isb														
 1751 0024 BFF34F8F 		dsb														
 1752              	
 1753              	@ 0 "" 2
 1754              		.thumb
 1755              		.syntax unified
ARM GAS  /tmp/ccwOJcWw.s 			page 51


 1756 0028 7B62     		str	r3, [r7, #36]
 1757              	.L119:
 1758              	.LBE156:
 1759              	.LBE155:
 1760              		.loc 1 929 0 discriminator 1
 1761 002a FEE7     		b	.L119
 1762              	.L118:
 930:Firmware/Middlewares/Third_Party/FreeRTOS/Source/queue.c **** 	configASSERT( !( ( pvItemToQueue == NULL ) && ( pxQueue->uxItemSize != ( UBaseType_t ) 0U ) ) );
 1763              		.loc 1 930 0
 1764 002c BB68     		ldr	r3, [r7, #8]
 1765 002e 002B     		cmp	r3, #0
 1766 0030 03D1     		bne	.L120
 1767              		.loc 1 930 0 is_stmt 0 discriminator 2
 1768 0032 3B6B     		ldr	r3, [r7, #48]
 1769 0034 1B6C     		ldr	r3, [r3, #64]
 1770 0036 002B     		cmp	r3, #0
 1771 0038 01D1     		bne	.L121
 1772              	.L120:
 1773              		.loc 1 930 0 discriminator 3
 1774 003a 0123     		movs	r3, #1
 1775 003c 00E0     		b	.L122
 1776              	.L121:
 1777              		.loc 1 930 0 discriminator 4
 1778 003e 0023     		movs	r3, #0
 1779              	.L122:
 1780              		.loc 1 930 0 discriminator 6
 1781 0040 002B     		cmp	r3, #0
 1782 0042 09D1     		bne	.L123
 1783              	.LBB157:
 1784              	.LBB158:
 1785              		.loc 2 195 0 is_stmt 1 discriminator 7
 1786              		.syntax unified
 1787              	@ 195 "Firmware/Middlewares/Third_Party/FreeRTOS/Source/portable/GCC/ARM_CM4F/portmacro.h" 1
 1788 0044 4FF05003 			mov r3, #80												
 1789 0048 83F31188 		msr basepri, r3											
 1790 004c BFF36F8F 		isb														
 1791 0050 BFF34F8F 		dsb														
 1792              	
 1793              	@ 0 "" 2
 1794              		.thumb
 1795              		.syntax unified
 1796 0054 3B62     		str	r3, [r7, #32]
 1797              	.L124:
 1798              	.LBE158:
 1799              	.LBE157:
 1800              		.loc 1 930 0 discriminator 2
 1801 0056 FEE7     		b	.L124
 1802              	.L123:
 931:Firmware/Middlewares/Third_Party/FreeRTOS/Source/queue.c **** 	configASSERT( !( ( xCopyPosition == queueOVERWRITE ) && ( pxQueue->uxLength != 1 ) ) );
 1803              		.loc 1 931 0
 1804 0058 3B68     		ldr	r3, [r7]
 1805 005a 022B     		cmp	r3, #2
 1806 005c 03D1     		bne	.L125
 1807              		.loc 1 931 0 is_stmt 0 discriminator 2
 1808 005e 3B6B     		ldr	r3, [r7, #48]
 1809 0060 DB6B     		ldr	r3, [r3, #60]
 1810 0062 012B     		cmp	r3, #1
ARM GAS  /tmp/ccwOJcWw.s 			page 52


 1811 0064 01D1     		bne	.L126
 1812              	.L125:
 1813              		.loc 1 931 0 discriminator 3
 1814 0066 0123     		movs	r3, #1
 1815 0068 00E0     		b	.L127
 1816              	.L126:
 1817              		.loc 1 931 0 discriminator 4
 1818 006a 0023     		movs	r3, #0
 1819              	.L127:
 1820              		.loc 1 931 0 discriminator 6
 1821 006c 002B     		cmp	r3, #0
 1822 006e 09D1     		bne	.L128
 1823              	.LBB159:
 1824              	.LBB160:
 1825              		.loc 2 195 0 is_stmt 1 discriminator 7
 1826              		.syntax unified
 1827              	@ 195 "Firmware/Middlewares/Third_Party/FreeRTOS/Source/portable/GCC/ARM_CM4F/portmacro.h" 1
 1828 0070 4FF05003 			mov r3, #80												
 1829 0074 83F31188 		msr basepri, r3											
 1830 0078 BFF36F8F 		isb														
 1831 007c BFF34F8F 		dsb														
 1832              	
 1833              	@ 0 "" 2
 1834              		.thumb
 1835              		.syntax unified
 1836 0080 FB61     		str	r3, [r7, #28]
 1837              	.L129:
 1838              	.LBE160:
 1839              	.LBE159:
 1840              		.loc 1 931 0 discriminator 3
 1841 0082 FEE7     		b	.L129
 1842              	.L128:
 932:Firmware/Middlewares/Third_Party/FreeRTOS/Source/queue.c **** 
 933:Firmware/Middlewares/Third_Party/FreeRTOS/Source/queue.c **** 	/* RTOS ports that support interrupt nesting have the concept of a maximum
 934:Firmware/Middlewares/Third_Party/FreeRTOS/Source/queue.c **** 	system call (or maximum API call) interrupt priority.  Interrupts that are
 935:Firmware/Middlewares/Third_Party/FreeRTOS/Source/queue.c **** 	above the maximum system call priority are kept permanently enabled, even
 936:Firmware/Middlewares/Third_Party/FreeRTOS/Source/queue.c **** 	when the RTOS kernel is in a critical section, but cannot make any calls to
 937:Firmware/Middlewares/Third_Party/FreeRTOS/Source/queue.c **** 	FreeRTOS API functions.  If configASSERT() is defined in FreeRTOSConfig.h
 938:Firmware/Middlewares/Third_Party/FreeRTOS/Source/queue.c **** 	then portASSERT_IF_INTERRUPT_PRIORITY_INVALID() will result in an assertion
 939:Firmware/Middlewares/Third_Party/FreeRTOS/Source/queue.c **** 	failure if a FreeRTOS API function is called from an interrupt that has been
 940:Firmware/Middlewares/Third_Party/FreeRTOS/Source/queue.c **** 	assigned a priority above the configured maximum system call priority.
 941:Firmware/Middlewares/Third_Party/FreeRTOS/Source/queue.c **** 	Only FreeRTOS functions that end in FromISR can be called from interrupts
 942:Firmware/Middlewares/Third_Party/FreeRTOS/Source/queue.c **** 	that have been assigned a priority at or (logically) below the maximum
 943:Firmware/Middlewares/Third_Party/FreeRTOS/Source/queue.c **** 	system call	interrupt priority.  FreeRTOS maintains a separate interrupt
 944:Firmware/Middlewares/Third_Party/FreeRTOS/Source/queue.c **** 	safe API to ensure interrupt entry is as fast and as simple as possible.
 945:Firmware/Middlewares/Third_Party/FreeRTOS/Source/queue.c **** 	More information (albeit Cortex-M specific) is provided on the following
 946:Firmware/Middlewares/Third_Party/FreeRTOS/Source/queue.c **** 	link: http://www.freertos.org/RTOS-Cortex-M3-M4.html */
 947:Firmware/Middlewares/Third_Party/FreeRTOS/Source/queue.c **** 	portASSERT_IF_INTERRUPT_PRIORITY_INVALID();
 1843              		.loc 1 947 0
 1844 0084 FFF7FEFF 		bl	vPortValidateInterruptPriority
 1845              	.LBB161:
 1846              	.LBB162:
 196:Firmware/Middlewares/Third_Party/FreeRTOS/Source/portable/GCC/ARM_CM4F/portmacro.h **** 	(
 197:Firmware/Middlewares/Third_Party/FreeRTOS/Source/portable/GCC/ARM_CM4F/portmacro.h **** 		"	mov %0, %1												\n"	\
 198:Firmware/Middlewares/Third_Party/FreeRTOS/Source/portable/GCC/ARM_CM4F/portmacro.h **** 		"	msr basepri, %0											\n" \
 199:Firmware/Middlewares/Third_Party/FreeRTOS/Source/portable/GCC/ARM_CM4F/portmacro.h **** 		"	isb														\n" \
 200:Firmware/Middlewares/Third_Party/FreeRTOS/Source/portable/GCC/ARM_CM4F/portmacro.h **** 		"	dsb														\n" \
ARM GAS  /tmp/ccwOJcWw.s 			page 53


 201:Firmware/Middlewares/Third_Party/FreeRTOS/Source/portable/GCC/ARM_CM4F/portmacro.h **** 		:"=r" (ulNewBASEPRI) : "i" ( configMAX_SYSCALL_INTERRUPT_PRIORITY ) : "memory"
 202:Firmware/Middlewares/Third_Party/FreeRTOS/Source/portable/GCC/ARM_CM4F/portmacro.h **** 	);
 203:Firmware/Middlewares/Third_Party/FreeRTOS/Source/portable/GCC/ARM_CM4F/portmacro.h **** }
 204:Firmware/Middlewares/Third_Party/FreeRTOS/Source/portable/GCC/ARM_CM4F/portmacro.h **** 
 205:Firmware/Middlewares/Third_Party/FreeRTOS/Source/portable/GCC/ARM_CM4F/portmacro.h **** /*-----------------------------------------------------------*/
 206:Firmware/Middlewares/Third_Party/FreeRTOS/Source/portable/GCC/ARM_CM4F/portmacro.h **** 
 207:Firmware/Middlewares/Third_Party/FreeRTOS/Source/portable/GCC/ARM_CM4F/portmacro.h **** portFORCE_INLINE static uint32_t ulPortRaiseBASEPRI( void )
 208:Firmware/Middlewares/Third_Party/FreeRTOS/Source/portable/GCC/ARM_CM4F/portmacro.h **** {
 209:Firmware/Middlewares/Third_Party/FreeRTOS/Source/portable/GCC/ARM_CM4F/portmacro.h **** uint32_t ulOriginalBASEPRI, ulNewBASEPRI;
 210:Firmware/Middlewares/Third_Party/FreeRTOS/Source/portable/GCC/ARM_CM4F/portmacro.h **** 
 211:Firmware/Middlewares/Third_Party/FreeRTOS/Source/portable/GCC/ARM_CM4F/portmacro.h **** 	__asm volatile
 1847              		.loc 2 211 0
 1848              		.syntax unified
 1849              	@ 211 "Firmware/Middlewares/Third_Party/FreeRTOS/Source/portable/GCC/ARM_CM4F/portmacro.h" 1
 1850 0088 EFF31182 			mrs r2, basepri											
 1851 008c 4FF05003 		mov r3, #80												
 1852 0090 83F31188 		msr basepri, r3											
 1853 0094 BFF36F8F 		isb														
 1854 0098 BFF34F8F 		dsb														
 1855              	
 1856              	@ 0 "" 2
 1857              		.thumb
 1858              		.syntax unified
 1859 009c BA61     		str	r2, [r7, #24]
 1860 009e 7B61     		str	r3, [r7, #20]
 212:Firmware/Middlewares/Third_Party/FreeRTOS/Source/portable/GCC/ARM_CM4F/portmacro.h **** 	(
 213:Firmware/Middlewares/Third_Party/FreeRTOS/Source/portable/GCC/ARM_CM4F/portmacro.h **** 		"	mrs %0, basepri											\n" \
 214:Firmware/Middlewares/Third_Party/FreeRTOS/Source/portable/GCC/ARM_CM4F/portmacro.h **** 		"	mov %1, %2												\n"	\
 215:Firmware/Middlewares/Third_Party/FreeRTOS/Source/portable/GCC/ARM_CM4F/portmacro.h **** 		"	msr basepri, %1											\n" \
 216:Firmware/Middlewares/Third_Party/FreeRTOS/Source/portable/GCC/ARM_CM4F/portmacro.h **** 		"	isb														\n" \
 217:Firmware/Middlewares/Third_Party/FreeRTOS/Source/portable/GCC/ARM_CM4F/portmacro.h **** 		"	dsb														\n" \
 218:Firmware/Middlewares/Third_Party/FreeRTOS/Source/portable/GCC/ARM_CM4F/portmacro.h **** 		:"=r" (ulOriginalBASEPRI), "=r" (ulNewBASEPRI) : "i" ( configMAX_SYSCALL_INTERRUPT_PRIORITY ) : "
 219:Firmware/Middlewares/Third_Party/FreeRTOS/Source/portable/GCC/ARM_CM4F/portmacro.h **** 	);
 220:Firmware/Middlewares/Third_Party/FreeRTOS/Source/portable/GCC/ARM_CM4F/portmacro.h **** 
 221:Firmware/Middlewares/Third_Party/FreeRTOS/Source/portable/GCC/ARM_CM4F/portmacro.h **** 	/* This return will not be reached but is necessary to prevent compiler
 222:Firmware/Middlewares/Third_Party/FreeRTOS/Source/portable/GCC/ARM_CM4F/portmacro.h **** 	warnings. */
 223:Firmware/Middlewares/Third_Party/FreeRTOS/Source/portable/GCC/ARM_CM4F/portmacro.h **** 	return ulOriginalBASEPRI;
 1861              		.loc 2 223 0
 1862 00a0 BB69     		ldr	r3, [r7, #24]
 1863              	.LBE162:
 1864              	.LBE161:
 948:Firmware/Middlewares/Third_Party/FreeRTOS/Source/queue.c **** 
 949:Firmware/Middlewares/Third_Party/FreeRTOS/Source/queue.c **** 	/* Similar to xQueueGenericSend, except without blocking if there is no room
 950:Firmware/Middlewares/Third_Party/FreeRTOS/Source/queue.c **** 	in the queue.  Also don't directly wake a task that was blocked on a queue
 951:Firmware/Middlewares/Third_Party/FreeRTOS/Source/queue.c **** 	read, instead return a flag to say whether a context switch is required or
 952:Firmware/Middlewares/Third_Party/FreeRTOS/Source/queue.c **** 	not (i.e. has a task with a higher priority than us been woken by this
 953:Firmware/Middlewares/Third_Party/FreeRTOS/Source/queue.c **** 	post). */
 954:Firmware/Middlewares/Third_Party/FreeRTOS/Source/queue.c **** 	uxSavedInterruptStatus = portSET_INTERRUPT_MASK_FROM_ISR();
 1865              		.loc 1 954 0
 1866 00a2 FB62     		str	r3, [r7, #44]
 955:Firmware/Middlewares/Third_Party/FreeRTOS/Source/queue.c **** 	{
 956:Firmware/Middlewares/Third_Party/FreeRTOS/Source/queue.c **** 		if( ( pxQueue->uxMessagesWaiting < pxQueue->uxLength ) || ( xCopyPosition == queueOVERWRITE ) )
 1867              		.loc 1 956 0
 1868 00a4 3B6B     		ldr	r3, [r7, #48]
 1869 00a6 9A6B     		ldr	r2, [r3, #56]
 1870 00a8 3B6B     		ldr	r3, [r7, #48]
 1871 00aa DB6B     		ldr	r3, [r3, #60]
ARM GAS  /tmp/ccwOJcWw.s 			page 54


 1872 00ac 9A42     		cmp	r2, r3
 1873 00ae 02D3     		bcc	.L131
 1874              		.loc 1 956 0 is_stmt 0 discriminator 1
 1875 00b0 3B68     		ldr	r3, [r7]
 1876 00b2 022B     		cmp	r3, #2
 1877 00b4 2CD1     		bne	.L132
 1878              	.L131:
 1879              	.LBB163:
 957:Firmware/Middlewares/Third_Party/FreeRTOS/Source/queue.c **** 		{
 958:Firmware/Middlewares/Third_Party/FreeRTOS/Source/queue.c **** 			const int8_t cTxLock = pxQueue->cTxLock;
 1880              		.loc 1 958 0 is_stmt 1
 1881 00b6 3B6B     		ldr	r3, [r7, #48]
 1882 00b8 93F84530 		ldrb	r3, [r3, #69]
 1883 00bc 87F82B30 		strb	r3, [r7, #43]
 959:Firmware/Middlewares/Third_Party/FreeRTOS/Source/queue.c **** 
 960:Firmware/Middlewares/Third_Party/FreeRTOS/Source/queue.c **** 			traceQUEUE_SEND_FROM_ISR( pxQueue );
 961:Firmware/Middlewares/Third_Party/FreeRTOS/Source/queue.c **** 
 962:Firmware/Middlewares/Third_Party/FreeRTOS/Source/queue.c **** 			/* Semaphores use xQueueGiveFromISR(), so pxQueue will not be a
 963:Firmware/Middlewares/Third_Party/FreeRTOS/Source/queue.c **** 			semaphore or mutex.  That means prvCopyDataToQueue() cannot result
 964:Firmware/Middlewares/Third_Party/FreeRTOS/Source/queue.c **** 			in a task disinheriting a priority and prvCopyDataToQueue() can be
 965:Firmware/Middlewares/Third_Party/FreeRTOS/Source/queue.c **** 			called here even though the disinherit function does not check if
 966:Firmware/Middlewares/Third_Party/FreeRTOS/Source/queue.c **** 			the scheduler is suspended before accessing the ready lists. */
 967:Firmware/Middlewares/Third_Party/FreeRTOS/Source/queue.c **** 			( void ) prvCopyDataToQueue( pxQueue, pvItemToQueue, xCopyPosition );
 1884              		.loc 1 967 0
 1885 00c0 3A68     		ldr	r2, [r7]
 1886 00c2 B968     		ldr	r1, [r7, #8]
 1887 00c4 386B     		ldr	r0, [r7, #48]
 1888 00c6 FFF7FEFF 		bl	prvCopyDataToQueue
 968:Firmware/Middlewares/Third_Party/FreeRTOS/Source/queue.c **** 
 969:Firmware/Middlewares/Third_Party/FreeRTOS/Source/queue.c **** 			/* The event list is not altered if the queue is locked.  This will
 970:Firmware/Middlewares/Third_Party/FreeRTOS/Source/queue.c **** 			be done when the queue is unlocked later. */
 971:Firmware/Middlewares/Third_Party/FreeRTOS/Source/queue.c **** 			if( cTxLock == queueUNLOCKED )
 1889              		.loc 1 971 0
 1890 00ca 97F92B30 		ldrsb	r3, [r7, #43]
 1891 00ce B3F1FF3F 		cmp	r3, #-1
 1892 00d2 12D1     		bne	.L133
 972:Firmware/Middlewares/Third_Party/FreeRTOS/Source/queue.c **** 			{
 973:Firmware/Middlewares/Third_Party/FreeRTOS/Source/queue.c **** 				#if ( configUSE_QUEUE_SETS == 1 )
 974:Firmware/Middlewares/Third_Party/FreeRTOS/Source/queue.c **** 				{
 975:Firmware/Middlewares/Third_Party/FreeRTOS/Source/queue.c **** 					if( pxQueue->pxQueueSetContainer != NULL )
 976:Firmware/Middlewares/Third_Party/FreeRTOS/Source/queue.c **** 					{
 977:Firmware/Middlewares/Third_Party/FreeRTOS/Source/queue.c **** 						if( prvNotifyQueueSetContainer( pxQueue, xCopyPosition ) != pdFALSE )
 978:Firmware/Middlewares/Third_Party/FreeRTOS/Source/queue.c **** 						{
 979:Firmware/Middlewares/Third_Party/FreeRTOS/Source/queue.c **** 							/* The queue is a member of a queue set, and posting
 980:Firmware/Middlewares/Third_Party/FreeRTOS/Source/queue.c **** 							to the queue set caused a higher priority task to
 981:Firmware/Middlewares/Third_Party/FreeRTOS/Source/queue.c **** 							unblock.  A context switch is required. */
 982:Firmware/Middlewares/Third_Party/FreeRTOS/Source/queue.c **** 							if( pxHigherPriorityTaskWoken != NULL )
 983:Firmware/Middlewares/Third_Party/FreeRTOS/Source/queue.c **** 							{
 984:Firmware/Middlewares/Third_Party/FreeRTOS/Source/queue.c **** 								*pxHigherPriorityTaskWoken = pdTRUE;
 985:Firmware/Middlewares/Third_Party/FreeRTOS/Source/queue.c **** 							}
 986:Firmware/Middlewares/Third_Party/FreeRTOS/Source/queue.c **** 							else
 987:Firmware/Middlewares/Third_Party/FreeRTOS/Source/queue.c **** 							{
 988:Firmware/Middlewares/Third_Party/FreeRTOS/Source/queue.c **** 								mtCOVERAGE_TEST_MARKER();
 989:Firmware/Middlewares/Third_Party/FreeRTOS/Source/queue.c **** 							}
 990:Firmware/Middlewares/Third_Party/FreeRTOS/Source/queue.c **** 						}
 991:Firmware/Middlewares/Third_Party/FreeRTOS/Source/queue.c **** 						else
 992:Firmware/Middlewares/Third_Party/FreeRTOS/Source/queue.c **** 						{
ARM GAS  /tmp/ccwOJcWw.s 			page 55


 993:Firmware/Middlewares/Third_Party/FreeRTOS/Source/queue.c **** 							mtCOVERAGE_TEST_MARKER();
 994:Firmware/Middlewares/Third_Party/FreeRTOS/Source/queue.c **** 						}
 995:Firmware/Middlewares/Third_Party/FreeRTOS/Source/queue.c **** 					}
 996:Firmware/Middlewares/Third_Party/FreeRTOS/Source/queue.c **** 					else
 997:Firmware/Middlewares/Third_Party/FreeRTOS/Source/queue.c **** 					{
 998:Firmware/Middlewares/Third_Party/FreeRTOS/Source/queue.c **** 						if( listLIST_IS_EMPTY( &( pxQueue->xTasksWaitingToReceive ) ) == pdFALSE )
 999:Firmware/Middlewares/Third_Party/FreeRTOS/Source/queue.c **** 						{
1000:Firmware/Middlewares/Third_Party/FreeRTOS/Source/queue.c **** 							if( xTaskRemoveFromEventList( &( pxQueue->xTasksWaitingToReceive ) ) != pdFALSE )
1001:Firmware/Middlewares/Third_Party/FreeRTOS/Source/queue.c **** 							{
1002:Firmware/Middlewares/Third_Party/FreeRTOS/Source/queue.c **** 								/* The task waiting has a higher priority so
1003:Firmware/Middlewares/Third_Party/FreeRTOS/Source/queue.c **** 								record that a context switch is required. */
1004:Firmware/Middlewares/Third_Party/FreeRTOS/Source/queue.c **** 								if( pxHigherPriorityTaskWoken != NULL )
1005:Firmware/Middlewares/Third_Party/FreeRTOS/Source/queue.c **** 								{
1006:Firmware/Middlewares/Third_Party/FreeRTOS/Source/queue.c **** 									*pxHigherPriorityTaskWoken = pdTRUE;
1007:Firmware/Middlewares/Third_Party/FreeRTOS/Source/queue.c **** 								}
1008:Firmware/Middlewares/Third_Party/FreeRTOS/Source/queue.c **** 								else
1009:Firmware/Middlewares/Third_Party/FreeRTOS/Source/queue.c **** 								{
1010:Firmware/Middlewares/Third_Party/FreeRTOS/Source/queue.c **** 									mtCOVERAGE_TEST_MARKER();
1011:Firmware/Middlewares/Third_Party/FreeRTOS/Source/queue.c **** 								}
1012:Firmware/Middlewares/Third_Party/FreeRTOS/Source/queue.c **** 							}
1013:Firmware/Middlewares/Third_Party/FreeRTOS/Source/queue.c **** 							else
1014:Firmware/Middlewares/Third_Party/FreeRTOS/Source/queue.c **** 							{
1015:Firmware/Middlewares/Third_Party/FreeRTOS/Source/queue.c **** 								mtCOVERAGE_TEST_MARKER();
1016:Firmware/Middlewares/Third_Party/FreeRTOS/Source/queue.c **** 							}
1017:Firmware/Middlewares/Third_Party/FreeRTOS/Source/queue.c **** 						}
1018:Firmware/Middlewares/Third_Party/FreeRTOS/Source/queue.c **** 						else
1019:Firmware/Middlewares/Third_Party/FreeRTOS/Source/queue.c **** 						{
1020:Firmware/Middlewares/Third_Party/FreeRTOS/Source/queue.c **** 							mtCOVERAGE_TEST_MARKER();
1021:Firmware/Middlewares/Third_Party/FreeRTOS/Source/queue.c **** 						}
1022:Firmware/Middlewares/Third_Party/FreeRTOS/Source/queue.c **** 					}
1023:Firmware/Middlewares/Third_Party/FreeRTOS/Source/queue.c **** 				}
1024:Firmware/Middlewares/Third_Party/FreeRTOS/Source/queue.c **** 				#else /* configUSE_QUEUE_SETS */
1025:Firmware/Middlewares/Third_Party/FreeRTOS/Source/queue.c **** 				{
1026:Firmware/Middlewares/Third_Party/FreeRTOS/Source/queue.c **** 					if( listLIST_IS_EMPTY( &( pxQueue->xTasksWaitingToReceive ) ) == pdFALSE )
 1893              		.loc 1 1026 0
 1894 00d4 3B6B     		ldr	r3, [r7, #48]
 1895 00d6 5B6A     		ldr	r3, [r3, #36]
 1896 00d8 002B     		cmp	r3, #0
 1897 00da 16D0     		beq	.L134
1027:Firmware/Middlewares/Third_Party/FreeRTOS/Source/queue.c **** 					{
1028:Firmware/Middlewares/Third_Party/FreeRTOS/Source/queue.c **** 						if( xTaskRemoveFromEventList( &( pxQueue->xTasksWaitingToReceive ) ) != pdFALSE )
 1898              		.loc 1 1028 0
 1899 00dc 3B6B     		ldr	r3, [r7, #48]
 1900 00de 2433     		adds	r3, r3, #36
 1901 00e0 1846     		mov	r0, r3
 1902 00e2 FFF7FEFF 		bl	xTaskRemoveFromEventList
 1903 00e6 0346     		mov	r3, r0
 1904 00e8 002B     		cmp	r3, #0
 1905 00ea 0ED0     		beq	.L134
1029:Firmware/Middlewares/Third_Party/FreeRTOS/Source/queue.c **** 						{
1030:Firmware/Middlewares/Third_Party/FreeRTOS/Source/queue.c **** 							/* The task waiting has a higher priority so record that a
1031:Firmware/Middlewares/Third_Party/FreeRTOS/Source/queue.c **** 							context	switch is required. */
1032:Firmware/Middlewares/Third_Party/FreeRTOS/Source/queue.c **** 							if( pxHigherPriorityTaskWoken != NULL )
 1906              		.loc 1 1032 0
 1907 00ec 7B68     		ldr	r3, [r7, #4]
 1908 00ee 002B     		cmp	r3, #0
 1909 00f0 0BD0     		beq	.L134
ARM GAS  /tmp/ccwOJcWw.s 			page 56


1033:Firmware/Middlewares/Third_Party/FreeRTOS/Source/queue.c **** 							{
1034:Firmware/Middlewares/Third_Party/FreeRTOS/Source/queue.c **** 								*pxHigherPriorityTaskWoken = pdTRUE;
 1910              		.loc 1 1034 0
 1911 00f2 7B68     		ldr	r3, [r7, #4]
 1912 00f4 0122     		movs	r2, #1
 1913 00f6 1A60     		str	r2, [r3]
 1914 00f8 07E0     		b	.L134
 1915              	.L133:
1035:Firmware/Middlewares/Third_Party/FreeRTOS/Source/queue.c **** 							}
1036:Firmware/Middlewares/Third_Party/FreeRTOS/Source/queue.c **** 							else
1037:Firmware/Middlewares/Third_Party/FreeRTOS/Source/queue.c **** 							{
1038:Firmware/Middlewares/Third_Party/FreeRTOS/Source/queue.c **** 								mtCOVERAGE_TEST_MARKER();
1039:Firmware/Middlewares/Third_Party/FreeRTOS/Source/queue.c **** 							}
1040:Firmware/Middlewares/Third_Party/FreeRTOS/Source/queue.c **** 						}
1041:Firmware/Middlewares/Third_Party/FreeRTOS/Source/queue.c **** 						else
1042:Firmware/Middlewares/Third_Party/FreeRTOS/Source/queue.c **** 						{
1043:Firmware/Middlewares/Third_Party/FreeRTOS/Source/queue.c **** 							mtCOVERAGE_TEST_MARKER();
1044:Firmware/Middlewares/Third_Party/FreeRTOS/Source/queue.c **** 						}
1045:Firmware/Middlewares/Third_Party/FreeRTOS/Source/queue.c **** 					}
1046:Firmware/Middlewares/Third_Party/FreeRTOS/Source/queue.c **** 					else
1047:Firmware/Middlewares/Third_Party/FreeRTOS/Source/queue.c **** 					{
1048:Firmware/Middlewares/Third_Party/FreeRTOS/Source/queue.c **** 						mtCOVERAGE_TEST_MARKER();
1049:Firmware/Middlewares/Third_Party/FreeRTOS/Source/queue.c **** 					}
1050:Firmware/Middlewares/Third_Party/FreeRTOS/Source/queue.c **** 				}
1051:Firmware/Middlewares/Third_Party/FreeRTOS/Source/queue.c **** 				#endif /* configUSE_QUEUE_SETS */
1052:Firmware/Middlewares/Third_Party/FreeRTOS/Source/queue.c **** 			}
1053:Firmware/Middlewares/Third_Party/FreeRTOS/Source/queue.c **** 			else
1054:Firmware/Middlewares/Third_Party/FreeRTOS/Source/queue.c **** 			{
1055:Firmware/Middlewares/Third_Party/FreeRTOS/Source/queue.c **** 				/* Increment the lock count so the task that unlocks the queue
1056:Firmware/Middlewares/Third_Party/FreeRTOS/Source/queue.c **** 				knows that data was posted while it was locked. */
1057:Firmware/Middlewares/Third_Party/FreeRTOS/Source/queue.c **** 				pxQueue->cTxLock = ( int8_t ) ( cTxLock + 1 );
 1916              		.loc 1 1057 0
 1917 00fa 97F82B30 		ldrb	r3, [r7, #43]	@ zero_extendqisi2
 1918 00fe 0133     		adds	r3, r3, #1
 1919 0100 DBB2     		uxtb	r3, r3
 1920 0102 5AB2     		sxtb	r2, r3
 1921 0104 3B6B     		ldr	r3, [r7, #48]
 1922 0106 83F84520 		strb	r2, [r3, #69]
 1923              	.L134:
1058:Firmware/Middlewares/Third_Party/FreeRTOS/Source/queue.c **** 			}
1059:Firmware/Middlewares/Third_Party/FreeRTOS/Source/queue.c **** 
1060:Firmware/Middlewares/Third_Party/FreeRTOS/Source/queue.c **** 			xReturn = pdPASS;
 1924              		.loc 1 1060 0
 1925 010a 0123     		movs	r3, #1
 1926 010c 7B63     		str	r3, [r7, #52]
 1927              	.LBE163:
 957:Firmware/Middlewares/Third_Party/FreeRTOS/Source/queue.c **** 			const int8_t cTxLock = pxQueue->cTxLock;
 1928              		.loc 1 957 0
 1929 010e 01E0     		b	.L135
 1930              	.L132:
1061:Firmware/Middlewares/Third_Party/FreeRTOS/Source/queue.c **** 		}
1062:Firmware/Middlewares/Third_Party/FreeRTOS/Source/queue.c **** 		else
1063:Firmware/Middlewares/Third_Party/FreeRTOS/Source/queue.c **** 		{
1064:Firmware/Middlewares/Third_Party/FreeRTOS/Source/queue.c **** 			traceQUEUE_SEND_FROM_ISR_FAILED( pxQueue );
1065:Firmware/Middlewares/Third_Party/FreeRTOS/Source/queue.c **** 			xReturn = errQUEUE_FULL;
 1931              		.loc 1 1065 0
 1932 0110 0023     		movs	r3, #0
ARM GAS  /tmp/ccwOJcWw.s 			page 57


 1933 0112 7B63     		str	r3, [r7, #52]
 1934              	.L135:
 1935 0114 FB6A     		ldr	r3, [r7, #44]
 1936 0116 3B61     		str	r3, [r7, #16]
 1937              	.LBB164:
 1938              	.LBB165:
 224:Firmware/Middlewares/Third_Party/FreeRTOS/Source/portable/GCC/ARM_CM4F/portmacro.h **** }
 225:Firmware/Middlewares/Third_Party/FreeRTOS/Source/portable/GCC/ARM_CM4F/portmacro.h **** /*-----------------------------------------------------------*/
 226:Firmware/Middlewares/Third_Party/FreeRTOS/Source/portable/GCC/ARM_CM4F/portmacro.h **** 
 227:Firmware/Middlewares/Third_Party/FreeRTOS/Source/portable/GCC/ARM_CM4F/portmacro.h **** portFORCE_INLINE static void vPortSetBASEPRI( uint32_t ulNewMaskValue )
 228:Firmware/Middlewares/Third_Party/FreeRTOS/Source/portable/GCC/ARM_CM4F/portmacro.h **** {
 229:Firmware/Middlewares/Third_Party/FreeRTOS/Source/portable/GCC/ARM_CM4F/portmacro.h **** 	__asm volatile
 1939              		.loc 2 229 0
 1940 0118 3B69     		ldr	r3, [r7, #16]
 1941              		.syntax unified
 1942              	@ 229 "Firmware/Middlewares/Third_Party/FreeRTOS/Source/portable/GCC/ARM_CM4F/portmacro.h" 1
 1943 011a 83F31188 			msr basepri, r3	
 1944              	@ 0 "" 2
 1945              		.thumb
 1946              		.syntax unified
 1947              	.LBE165:
 1948              	.LBE164:
1066:Firmware/Middlewares/Third_Party/FreeRTOS/Source/queue.c **** 		}
1067:Firmware/Middlewares/Third_Party/FreeRTOS/Source/queue.c **** 	}
1068:Firmware/Middlewares/Third_Party/FreeRTOS/Source/queue.c **** 	portCLEAR_INTERRUPT_MASK_FROM_ISR( uxSavedInterruptStatus );
1069:Firmware/Middlewares/Third_Party/FreeRTOS/Source/queue.c **** 
1070:Firmware/Middlewares/Third_Party/FreeRTOS/Source/queue.c **** 	return xReturn;
 1949              		.loc 1 1070 0
 1950 011e 7B6B     		ldr	r3, [r7, #52]
1071:Firmware/Middlewares/Third_Party/FreeRTOS/Source/queue.c **** }
 1951              		.loc 1 1071 0
 1952 0120 1846     		mov	r0, r3
 1953 0122 3837     		adds	r7, r7, #56
 1954              	.LCFI74:
 1955              		.cfi_def_cfa_offset 8
 1956 0124 BD46     		mov	sp, r7
 1957              	.LCFI75:
 1958              		.cfi_def_cfa_register 13
 1959              		@ sp needed
 1960 0126 80BD     		pop	{r7, pc}
 1961              		.cfi_endproc
 1962              	.LFE18:
 1964              		.section	.text.xQueueGiveFromISR,"ax",%progbits
 1965              		.align	1
 1966              		.global	xQueueGiveFromISR
 1967              		.syntax unified
 1968              		.thumb
 1969              		.thumb_func
 1970              		.fpu fpv4-sp-d16
 1972              	xQueueGiveFromISR:
 1973              	.LFB19:
1072:Firmware/Middlewares/Third_Party/FreeRTOS/Source/queue.c **** /*-----------------------------------------------------------*/
1073:Firmware/Middlewares/Third_Party/FreeRTOS/Source/queue.c **** 
1074:Firmware/Middlewares/Third_Party/FreeRTOS/Source/queue.c **** BaseType_t xQueueGiveFromISR( QueueHandle_t xQueue, BaseType_t * const pxHigherPriorityTaskWoken )
1075:Firmware/Middlewares/Third_Party/FreeRTOS/Source/queue.c **** {
 1974              		.loc 1 1075 0
 1975              		.cfi_startproc
ARM GAS  /tmp/ccwOJcWw.s 			page 58


 1976              		@ args = 0, pretend = 0, frame = 56
 1977              		@ frame_needed = 1, uses_anonymous_args = 0
 1978 0000 80B5     		push	{r7, lr}
 1979              	.LCFI76:
 1980              		.cfi_def_cfa_offset 8
 1981              		.cfi_offset 7, -8
 1982              		.cfi_offset 14, -4
 1983 0002 8EB0     		sub	sp, sp, #56
 1984              	.LCFI77:
 1985              		.cfi_def_cfa_offset 64
 1986 0004 00AF     		add	r7, sp, #0
 1987              	.LCFI78:
 1988              		.cfi_def_cfa_register 7
 1989 0006 7860     		str	r0, [r7, #4]
 1990 0008 3960     		str	r1, [r7]
1076:Firmware/Middlewares/Third_Party/FreeRTOS/Source/queue.c **** BaseType_t xReturn;
1077:Firmware/Middlewares/Third_Party/FreeRTOS/Source/queue.c **** UBaseType_t uxSavedInterruptStatus;
1078:Firmware/Middlewares/Third_Party/FreeRTOS/Source/queue.c **** Queue_t * const pxQueue = ( Queue_t * ) xQueue;
 1991              		.loc 1 1078 0
 1992 000a 7B68     		ldr	r3, [r7, #4]
 1993 000c 3B63     		str	r3, [r7, #48]
1079:Firmware/Middlewares/Third_Party/FreeRTOS/Source/queue.c **** 
1080:Firmware/Middlewares/Third_Party/FreeRTOS/Source/queue.c **** 	/* Similar to xQueueGenericSendFromISR() but used with semaphores where the
1081:Firmware/Middlewares/Third_Party/FreeRTOS/Source/queue.c **** 	item size is 0.  Don't directly wake a task that was blocked on a queue
1082:Firmware/Middlewares/Third_Party/FreeRTOS/Source/queue.c **** 	read, instead return a flag to say whether a context switch is required or
1083:Firmware/Middlewares/Third_Party/FreeRTOS/Source/queue.c **** 	not (i.e. has a task with a higher priority than us been woken by this
1084:Firmware/Middlewares/Third_Party/FreeRTOS/Source/queue.c **** 	post). */
1085:Firmware/Middlewares/Third_Party/FreeRTOS/Source/queue.c **** 
1086:Firmware/Middlewares/Third_Party/FreeRTOS/Source/queue.c **** 	configASSERT( pxQueue );
 1994              		.loc 1 1086 0
 1995 000e 3B6B     		ldr	r3, [r7, #48]
 1996 0010 002B     		cmp	r3, #0
 1997 0012 09D1     		bne	.L138
 1998              	.LBB166:
 1999              	.LBB167:
 195:Firmware/Middlewares/Third_Party/FreeRTOS/Source/portable/GCC/ARM_CM4F/portmacro.h **** 	(
 2000              		.loc 2 195 0 discriminator 1
 2001              		.syntax unified
 2002              	@ 195 "Firmware/Middlewares/Third_Party/FreeRTOS/Source/portable/GCC/ARM_CM4F/portmacro.h" 1
 2003 0014 4FF05003 			mov r3, #80												
 2004 0018 83F31188 		msr basepri, r3											
 2005 001c BFF36F8F 		isb														
 2006 0020 BFF34F8F 		dsb														
 2007              	
 2008              	@ 0 "" 2
 2009              		.thumb
 2010              		.syntax unified
 2011 0024 3B62     		str	r3, [r7, #32]
 2012              	.L139:
 2013              	.LBE167:
 2014              	.LBE166:
 2015              		.loc 1 1086 0 discriminator 1
 2016 0026 FEE7     		b	.L139
 2017              	.L138:
1087:Firmware/Middlewares/Third_Party/FreeRTOS/Source/queue.c **** 
1088:Firmware/Middlewares/Third_Party/FreeRTOS/Source/queue.c **** 	/* xQueueGenericSendFromISR() should be used instead of xQueueGiveFromISR()
1089:Firmware/Middlewares/Third_Party/FreeRTOS/Source/queue.c **** 	if the item size is not 0. */
ARM GAS  /tmp/ccwOJcWw.s 			page 59


1090:Firmware/Middlewares/Third_Party/FreeRTOS/Source/queue.c **** 	configASSERT( pxQueue->uxItemSize == 0 );
 2018              		.loc 1 1090 0
 2019 0028 3B6B     		ldr	r3, [r7, #48]
 2020 002a 1B6C     		ldr	r3, [r3, #64]
 2021 002c 002B     		cmp	r3, #0
 2022 002e 09D0     		beq	.L140
 2023              	.LBB168:
 2024              	.LBB169:
 195:Firmware/Middlewares/Third_Party/FreeRTOS/Source/portable/GCC/ARM_CM4F/portmacro.h **** 	(
 2025              		.loc 2 195 0 discriminator 1
 2026              		.syntax unified
 2027              	@ 195 "Firmware/Middlewares/Third_Party/FreeRTOS/Source/portable/GCC/ARM_CM4F/portmacro.h" 1
 2028 0030 4FF05003 			mov r3, #80												
 2029 0034 83F31188 		msr basepri, r3											
 2030 0038 BFF36F8F 		isb														
 2031 003c BFF34F8F 		dsb														
 2032              	
 2033              	@ 0 "" 2
 2034              		.thumb
 2035              		.syntax unified
 2036 0040 FB61     		str	r3, [r7, #28]
 2037              	.L141:
 2038              	.LBE169:
 2039              	.LBE168:
 2040              		.loc 1 1090 0 discriminator 2
 2041 0042 FEE7     		b	.L141
 2042              	.L140:
1091:Firmware/Middlewares/Third_Party/FreeRTOS/Source/queue.c **** 
1092:Firmware/Middlewares/Third_Party/FreeRTOS/Source/queue.c **** 	/* Normally a mutex would not be given from an interrupt, especially if
1093:Firmware/Middlewares/Third_Party/FreeRTOS/Source/queue.c **** 	there is a mutex holder, as priority inheritance makes no sense for an
1094:Firmware/Middlewares/Third_Party/FreeRTOS/Source/queue.c **** 	interrupts, only tasks. */
1095:Firmware/Middlewares/Third_Party/FreeRTOS/Source/queue.c **** 	configASSERT( !( ( pxQueue->uxQueueType == queueQUEUE_IS_MUTEX ) && ( pxQueue->pxMutexHolder != NU
 2043              		.loc 1 1095 0
 2044 0044 3B6B     		ldr	r3, [r7, #48]
 2045 0046 1B68     		ldr	r3, [r3]
 2046 0048 002B     		cmp	r3, #0
 2047 004a 03D1     		bne	.L142
 2048              		.loc 1 1095 0 is_stmt 0 discriminator 2
 2049 004c 3B6B     		ldr	r3, [r7, #48]
 2050 004e 5B68     		ldr	r3, [r3, #4]
 2051 0050 002B     		cmp	r3, #0
 2052 0052 01D1     		bne	.L143
 2053              	.L142:
 2054              		.loc 1 1095 0 discriminator 3
 2055 0054 0123     		movs	r3, #1
 2056 0056 00E0     		b	.L144
 2057              	.L143:
 2058              		.loc 1 1095 0 discriminator 4
 2059 0058 0023     		movs	r3, #0
 2060              	.L144:
 2061              		.loc 1 1095 0 discriminator 6
 2062 005a 002B     		cmp	r3, #0
 2063 005c 09D1     		bne	.L145
 2064              	.LBB170:
 2065              	.LBB171:
 195:Firmware/Middlewares/Third_Party/FreeRTOS/Source/portable/GCC/ARM_CM4F/portmacro.h **** 	(
 2066              		.loc 2 195 0 is_stmt 1 discriminator 7
ARM GAS  /tmp/ccwOJcWw.s 			page 60


 2067              		.syntax unified
 2068              	@ 195 "Firmware/Middlewares/Third_Party/FreeRTOS/Source/portable/GCC/ARM_CM4F/portmacro.h" 1
 2069 005e 4FF05003 			mov r3, #80												
 2070 0062 83F31188 		msr basepri, r3											
 2071 0066 BFF36F8F 		isb														
 2072 006a BFF34F8F 		dsb														
 2073              	
 2074              	@ 0 "" 2
 2075              		.thumb
 2076              		.syntax unified
 2077 006e BB61     		str	r3, [r7, #24]
 2078              	.L146:
 2079              	.LBE171:
 2080              	.LBE170:
 2081              		.loc 1 1095 0 discriminator 3
 2082 0070 FEE7     		b	.L146
 2083              	.L145:
1096:Firmware/Middlewares/Third_Party/FreeRTOS/Source/queue.c **** 
1097:Firmware/Middlewares/Third_Party/FreeRTOS/Source/queue.c **** 	/* RTOS ports that support interrupt nesting have the concept of a maximum
1098:Firmware/Middlewares/Third_Party/FreeRTOS/Source/queue.c **** 	system call (or maximum API call) interrupt priority.  Interrupts that are
1099:Firmware/Middlewares/Third_Party/FreeRTOS/Source/queue.c **** 	above the maximum system call priority are kept permanently enabled, even
1100:Firmware/Middlewares/Third_Party/FreeRTOS/Source/queue.c **** 	when the RTOS kernel is in a critical section, but cannot make any calls to
1101:Firmware/Middlewares/Third_Party/FreeRTOS/Source/queue.c **** 	FreeRTOS API functions.  If configASSERT() is defined in FreeRTOSConfig.h
1102:Firmware/Middlewares/Third_Party/FreeRTOS/Source/queue.c **** 	then portASSERT_IF_INTERRUPT_PRIORITY_INVALID() will result in an assertion
1103:Firmware/Middlewares/Third_Party/FreeRTOS/Source/queue.c **** 	failure if a FreeRTOS API function is called from an interrupt that has been
1104:Firmware/Middlewares/Third_Party/FreeRTOS/Source/queue.c **** 	assigned a priority above the configured maximum system call priority.
1105:Firmware/Middlewares/Third_Party/FreeRTOS/Source/queue.c **** 	Only FreeRTOS functions that end in FromISR can be called from interrupts
1106:Firmware/Middlewares/Third_Party/FreeRTOS/Source/queue.c **** 	that have been assigned a priority at or (logically) below the maximum
1107:Firmware/Middlewares/Third_Party/FreeRTOS/Source/queue.c **** 	system call	interrupt priority.  FreeRTOS maintains a separate interrupt
1108:Firmware/Middlewares/Third_Party/FreeRTOS/Source/queue.c **** 	safe API to ensure interrupt entry is as fast and as simple as possible.
1109:Firmware/Middlewares/Third_Party/FreeRTOS/Source/queue.c **** 	More information (albeit Cortex-M specific) is provided on the following
1110:Firmware/Middlewares/Third_Party/FreeRTOS/Source/queue.c **** 	link: http://www.freertos.org/RTOS-Cortex-M3-M4.html */
1111:Firmware/Middlewares/Third_Party/FreeRTOS/Source/queue.c **** 	portASSERT_IF_INTERRUPT_PRIORITY_INVALID();
 2084              		.loc 1 1111 0
 2085 0072 FFF7FEFF 		bl	vPortValidateInterruptPriority
 2086              	.LBB172:
 2087              	.LBB173:
 211:Firmware/Middlewares/Third_Party/FreeRTOS/Source/portable/GCC/ARM_CM4F/portmacro.h **** 	(
 2088              		.loc 2 211 0
 2089              		.syntax unified
 2090              	@ 211 "Firmware/Middlewares/Third_Party/FreeRTOS/Source/portable/GCC/ARM_CM4F/portmacro.h" 1
 2091 0076 EFF31182 			mrs r2, basepri											
 2092 007a 4FF05003 		mov r3, #80												
 2093 007e 83F31188 		msr basepri, r3											
 2094 0082 BFF36F8F 		isb														
 2095 0086 BFF34F8F 		dsb														
 2096              	
 2097              	@ 0 "" 2
 2098              		.thumb
 2099              		.syntax unified
 2100 008a 7A61     		str	r2, [r7, #20]
 2101 008c 3B61     		str	r3, [r7, #16]
 223:Firmware/Middlewares/Third_Party/FreeRTOS/Source/portable/GCC/ARM_CM4F/portmacro.h **** }
 2102              		.loc 2 223 0
 2103 008e 7B69     		ldr	r3, [r7, #20]
 2104              	.LBE173:
 2105              	.LBE172:
ARM GAS  /tmp/ccwOJcWw.s 			page 61


1112:Firmware/Middlewares/Third_Party/FreeRTOS/Source/queue.c **** 
1113:Firmware/Middlewares/Third_Party/FreeRTOS/Source/queue.c **** 	uxSavedInterruptStatus = portSET_INTERRUPT_MASK_FROM_ISR();
 2106              		.loc 1 1113 0
 2107 0090 FB62     		str	r3, [r7, #44]
 2108              	.LBB174:
1114:Firmware/Middlewares/Third_Party/FreeRTOS/Source/queue.c **** 	{
1115:Firmware/Middlewares/Third_Party/FreeRTOS/Source/queue.c **** 		const UBaseType_t uxMessagesWaiting = pxQueue->uxMessagesWaiting;
 2109              		.loc 1 1115 0
 2110 0092 3B6B     		ldr	r3, [r7, #48]
 2111 0094 9B6B     		ldr	r3, [r3, #56]
 2112 0096 BB62     		str	r3, [r7, #40]
1116:Firmware/Middlewares/Third_Party/FreeRTOS/Source/queue.c **** 
1117:Firmware/Middlewares/Third_Party/FreeRTOS/Source/queue.c **** 		/* When the queue is used to implement a semaphore no data is ever
1118:Firmware/Middlewares/Third_Party/FreeRTOS/Source/queue.c **** 		moved through the queue but it is still valid to see if the queue 'has
1119:Firmware/Middlewares/Third_Party/FreeRTOS/Source/queue.c **** 		space'. */
1120:Firmware/Middlewares/Third_Party/FreeRTOS/Source/queue.c **** 		if( uxMessagesWaiting < pxQueue->uxLength )
 2113              		.loc 1 1120 0
 2114 0098 3B6B     		ldr	r3, [r7, #48]
 2115 009a DB6B     		ldr	r3, [r3, #60]
 2116 009c BA6A     		ldr	r2, [r7, #40]
 2117 009e 9A42     		cmp	r2, r3
 2118 00a0 2BD2     		bcs	.L148
 2119              	.LBB175:
1121:Firmware/Middlewares/Third_Party/FreeRTOS/Source/queue.c **** 		{
1122:Firmware/Middlewares/Third_Party/FreeRTOS/Source/queue.c **** 			const int8_t cTxLock = pxQueue->cTxLock;
 2120              		.loc 1 1122 0
 2121 00a2 3B6B     		ldr	r3, [r7, #48]
 2122 00a4 93F84530 		ldrb	r3, [r3, #69]
 2123 00a8 87F82730 		strb	r3, [r7, #39]
1123:Firmware/Middlewares/Third_Party/FreeRTOS/Source/queue.c **** 
1124:Firmware/Middlewares/Third_Party/FreeRTOS/Source/queue.c **** 			traceQUEUE_SEND_FROM_ISR( pxQueue );
1125:Firmware/Middlewares/Third_Party/FreeRTOS/Source/queue.c **** 
1126:Firmware/Middlewares/Third_Party/FreeRTOS/Source/queue.c **** 			/* A task can only have an inherited priority if it is a mutex
1127:Firmware/Middlewares/Third_Party/FreeRTOS/Source/queue.c **** 			holder - and if there is a mutex holder then the mutex cannot be
1128:Firmware/Middlewares/Third_Party/FreeRTOS/Source/queue.c **** 			given from an ISR.  As this is the ISR version of the function it
1129:Firmware/Middlewares/Third_Party/FreeRTOS/Source/queue.c **** 			can be assumed there is no mutex holder and no need to determine if
1130:Firmware/Middlewares/Third_Party/FreeRTOS/Source/queue.c **** 			priority disinheritance is needed.  Simply increase the count of
1131:Firmware/Middlewares/Third_Party/FreeRTOS/Source/queue.c **** 			messages (semaphores) available. */
1132:Firmware/Middlewares/Third_Party/FreeRTOS/Source/queue.c **** 			pxQueue->uxMessagesWaiting = uxMessagesWaiting + ( UBaseType_t ) 1;
 2124              		.loc 1 1132 0
 2125 00ac BB6A     		ldr	r3, [r7, #40]
 2126 00ae 5A1C     		adds	r2, r3, #1
 2127 00b0 3B6B     		ldr	r3, [r7, #48]
 2128 00b2 9A63     		str	r2, [r3, #56]
1133:Firmware/Middlewares/Third_Party/FreeRTOS/Source/queue.c **** 
1134:Firmware/Middlewares/Third_Party/FreeRTOS/Source/queue.c **** 			/* The event list is not altered if the queue is locked.  This will
1135:Firmware/Middlewares/Third_Party/FreeRTOS/Source/queue.c **** 			be done when the queue is unlocked later. */
1136:Firmware/Middlewares/Third_Party/FreeRTOS/Source/queue.c **** 			if( cTxLock == queueUNLOCKED )
 2129              		.loc 1 1136 0
 2130 00b4 97F92730 		ldrsb	r3, [r7, #39]
 2131 00b8 B3F1FF3F 		cmp	r3, #-1
 2132 00bc 12D1     		bne	.L149
1137:Firmware/Middlewares/Third_Party/FreeRTOS/Source/queue.c **** 			{
1138:Firmware/Middlewares/Third_Party/FreeRTOS/Source/queue.c **** 				#if ( configUSE_QUEUE_SETS == 1 )
1139:Firmware/Middlewares/Third_Party/FreeRTOS/Source/queue.c **** 				{
1140:Firmware/Middlewares/Third_Party/FreeRTOS/Source/queue.c **** 					if( pxQueue->pxQueueSetContainer != NULL )
1141:Firmware/Middlewares/Third_Party/FreeRTOS/Source/queue.c **** 					{
ARM GAS  /tmp/ccwOJcWw.s 			page 62


1142:Firmware/Middlewares/Third_Party/FreeRTOS/Source/queue.c **** 						if( prvNotifyQueueSetContainer( pxQueue, queueSEND_TO_BACK ) != pdFALSE )
1143:Firmware/Middlewares/Third_Party/FreeRTOS/Source/queue.c **** 						{
1144:Firmware/Middlewares/Third_Party/FreeRTOS/Source/queue.c **** 							/* The semaphore is a member of a queue set, and
1145:Firmware/Middlewares/Third_Party/FreeRTOS/Source/queue.c **** 							posting	to the queue set caused a higher priority
1146:Firmware/Middlewares/Third_Party/FreeRTOS/Source/queue.c **** 							task to	unblock.  A context switch is required. */
1147:Firmware/Middlewares/Third_Party/FreeRTOS/Source/queue.c **** 							if( pxHigherPriorityTaskWoken != NULL )
1148:Firmware/Middlewares/Third_Party/FreeRTOS/Source/queue.c **** 							{
1149:Firmware/Middlewares/Third_Party/FreeRTOS/Source/queue.c **** 								*pxHigherPriorityTaskWoken = pdTRUE;
1150:Firmware/Middlewares/Third_Party/FreeRTOS/Source/queue.c **** 							}
1151:Firmware/Middlewares/Third_Party/FreeRTOS/Source/queue.c **** 							else
1152:Firmware/Middlewares/Third_Party/FreeRTOS/Source/queue.c **** 							{
1153:Firmware/Middlewares/Third_Party/FreeRTOS/Source/queue.c **** 								mtCOVERAGE_TEST_MARKER();
1154:Firmware/Middlewares/Third_Party/FreeRTOS/Source/queue.c **** 							}
1155:Firmware/Middlewares/Third_Party/FreeRTOS/Source/queue.c **** 						}
1156:Firmware/Middlewares/Third_Party/FreeRTOS/Source/queue.c **** 						else
1157:Firmware/Middlewares/Third_Party/FreeRTOS/Source/queue.c **** 						{
1158:Firmware/Middlewares/Third_Party/FreeRTOS/Source/queue.c **** 							mtCOVERAGE_TEST_MARKER();
1159:Firmware/Middlewares/Third_Party/FreeRTOS/Source/queue.c **** 						}
1160:Firmware/Middlewares/Third_Party/FreeRTOS/Source/queue.c **** 					}
1161:Firmware/Middlewares/Third_Party/FreeRTOS/Source/queue.c **** 					else
1162:Firmware/Middlewares/Third_Party/FreeRTOS/Source/queue.c **** 					{
1163:Firmware/Middlewares/Third_Party/FreeRTOS/Source/queue.c **** 						if( listLIST_IS_EMPTY( &( pxQueue->xTasksWaitingToReceive ) ) == pdFALSE )
1164:Firmware/Middlewares/Third_Party/FreeRTOS/Source/queue.c **** 						{
1165:Firmware/Middlewares/Third_Party/FreeRTOS/Source/queue.c **** 							if( xTaskRemoveFromEventList( &( pxQueue->xTasksWaitingToReceive ) ) != pdFALSE )
1166:Firmware/Middlewares/Third_Party/FreeRTOS/Source/queue.c **** 							{
1167:Firmware/Middlewares/Third_Party/FreeRTOS/Source/queue.c **** 								/* The task waiting has a higher priority so
1168:Firmware/Middlewares/Third_Party/FreeRTOS/Source/queue.c **** 								record that a context switch is required. */
1169:Firmware/Middlewares/Third_Party/FreeRTOS/Source/queue.c **** 								if( pxHigherPriorityTaskWoken != NULL )
1170:Firmware/Middlewares/Third_Party/FreeRTOS/Source/queue.c **** 								{
1171:Firmware/Middlewares/Third_Party/FreeRTOS/Source/queue.c **** 									*pxHigherPriorityTaskWoken = pdTRUE;
1172:Firmware/Middlewares/Third_Party/FreeRTOS/Source/queue.c **** 								}
1173:Firmware/Middlewares/Third_Party/FreeRTOS/Source/queue.c **** 								else
1174:Firmware/Middlewares/Third_Party/FreeRTOS/Source/queue.c **** 								{
1175:Firmware/Middlewares/Third_Party/FreeRTOS/Source/queue.c **** 									mtCOVERAGE_TEST_MARKER();
1176:Firmware/Middlewares/Third_Party/FreeRTOS/Source/queue.c **** 								}
1177:Firmware/Middlewares/Third_Party/FreeRTOS/Source/queue.c **** 							}
1178:Firmware/Middlewares/Third_Party/FreeRTOS/Source/queue.c **** 							else
1179:Firmware/Middlewares/Third_Party/FreeRTOS/Source/queue.c **** 							{
1180:Firmware/Middlewares/Third_Party/FreeRTOS/Source/queue.c **** 								mtCOVERAGE_TEST_MARKER();
1181:Firmware/Middlewares/Third_Party/FreeRTOS/Source/queue.c **** 							}
1182:Firmware/Middlewares/Third_Party/FreeRTOS/Source/queue.c **** 						}
1183:Firmware/Middlewares/Third_Party/FreeRTOS/Source/queue.c **** 						else
1184:Firmware/Middlewares/Third_Party/FreeRTOS/Source/queue.c **** 						{
1185:Firmware/Middlewares/Third_Party/FreeRTOS/Source/queue.c **** 							mtCOVERAGE_TEST_MARKER();
1186:Firmware/Middlewares/Third_Party/FreeRTOS/Source/queue.c **** 						}
1187:Firmware/Middlewares/Third_Party/FreeRTOS/Source/queue.c **** 					}
1188:Firmware/Middlewares/Third_Party/FreeRTOS/Source/queue.c **** 				}
1189:Firmware/Middlewares/Third_Party/FreeRTOS/Source/queue.c **** 				#else /* configUSE_QUEUE_SETS */
1190:Firmware/Middlewares/Third_Party/FreeRTOS/Source/queue.c **** 				{
1191:Firmware/Middlewares/Third_Party/FreeRTOS/Source/queue.c **** 					if( listLIST_IS_EMPTY( &( pxQueue->xTasksWaitingToReceive ) ) == pdFALSE )
 2133              		.loc 1 1191 0
 2134 00be 3B6B     		ldr	r3, [r7, #48]
 2135 00c0 5B6A     		ldr	r3, [r3, #36]
 2136 00c2 002B     		cmp	r3, #0
 2137 00c4 16D0     		beq	.L150
1192:Firmware/Middlewares/Third_Party/FreeRTOS/Source/queue.c **** 					{
1193:Firmware/Middlewares/Third_Party/FreeRTOS/Source/queue.c **** 						if( xTaskRemoveFromEventList( &( pxQueue->xTasksWaitingToReceive ) ) != pdFALSE )
ARM GAS  /tmp/ccwOJcWw.s 			page 63


 2138              		.loc 1 1193 0
 2139 00c6 3B6B     		ldr	r3, [r7, #48]
 2140 00c8 2433     		adds	r3, r3, #36
 2141 00ca 1846     		mov	r0, r3
 2142 00cc FFF7FEFF 		bl	xTaskRemoveFromEventList
 2143 00d0 0346     		mov	r3, r0
 2144 00d2 002B     		cmp	r3, #0
 2145 00d4 0ED0     		beq	.L150
1194:Firmware/Middlewares/Third_Party/FreeRTOS/Source/queue.c **** 						{
1195:Firmware/Middlewares/Third_Party/FreeRTOS/Source/queue.c **** 							/* The task waiting has a higher priority so record that a
1196:Firmware/Middlewares/Third_Party/FreeRTOS/Source/queue.c **** 							context	switch is required. */
1197:Firmware/Middlewares/Third_Party/FreeRTOS/Source/queue.c **** 							if( pxHigherPriorityTaskWoken != NULL )
 2146              		.loc 1 1197 0
 2147 00d6 3B68     		ldr	r3, [r7]
 2148 00d8 002B     		cmp	r3, #0
 2149 00da 0BD0     		beq	.L150
1198:Firmware/Middlewares/Third_Party/FreeRTOS/Source/queue.c **** 							{
1199:Firmware/Middlewares/Third_Party/FreeRTOS/Source/queue.c **** 								*pxHigherPriorityTaskWoken = pdTRUE;
 2150              		.loc 1 1199 0
 2151 00dc 3B68     		ldr	r3, [r7]
 2152 00de 0122     		movs	r2, #1
 2153 00e0 1A60     		str	r2, [r3]
 2154 00e2 07E0     		b	.L150
 2155              	.L149:
1200:Firmware/Middlewares/Third_Party/FreeRTOS/Source/queue.c **** 							}
1201:Firmware/Middlewares/Third_Party/FreeRTOS/Source/queue.c **** 							else
1202:Firmware/Middlewares/Third_Party/FreeRTOS/Source/queue.c **** 							{
1203:Firmware/Middlewares/Third_Party/FreeRTOS/Source/queue.c **** 								mtCOVERAGE_TEST_MARKER();
1204:Firmware/Middlewares/Third_Party/FreeRTOS/Source/queue.c **** 							}
1205:Firmware/Middlewares/Third_Party/FreeRTOS/Source/queue.c **** 						}
1206:Firmware/Middlewares/Third_Party/FreeRTOS/Source/queue.c **** 						else
1207:Firmware/Middlewares/Third_Party/FreeRTOS/Source/queue.c **** 						{
1208:Firmware/Middlewares/Third_Party/FreeRTOS/Source/queue.c **** 							mtCOVERAGE_TEST_MARKER();
1209:Firmware/Middlewares/Third_Party/FreeRTOS/Source/queue.c **** 						}
1210:Firmware/Middlewares/Third_Party/FreeRTOS/Source/queue.c **** 					}
1211:Firmware/Middlewares/Third_Party/FreeRTOS/Source/queue.c **** 					else
1212:Firmware/Middlewares/Third_Party/FreeRTOS/Source/queue.c **** 					{
1213:Firmware/Middlewares/Third_Party/FreeRTOS/Source/queue.c **** 						mtCOVERAGE_TEST_MARKER();
1214:Firmware/Middlewares/Third_Party/FreeRTOS/Source/queue.c **** 					}
1215:Firmware/Middlewares/Third_Party/FreeRTOS/Source/queue.c **** 				}
1216:Firmware/Middlewares/Third_Party/FreeRTOS/Source/queue.c **** 				#endif /* configUSE_QUEUE_SETS */
1217:Firmware/Middlewares/Third_Party/FreeRTOS/Source/queue.c **** 			}
1218:Firmware/Middlewares/Third_Party/FreeRTOS/Source/queue.c **** 			else
1219:Firmware/Middlewares/Third_Party/FreeRTOS/Source/queue.c **** 			{
1220:Firmware/Middlewares/Third_Party/FreeRTOS/Source/queue.c **** 				/* Increment the lock count so the task that unlocks the queue
1221:Firmware/Middlewares/Third_Party/FreeRTOS/Source/queue.c **** 				knows that data was posted while it was locked. */
1222:Firmware/Middlewares/Third_Party/FreeRTOS/Source/queue.c **** 				pxQueue->cTxLock = ( int8_t ) ( cTxLock + 1 );
 2156              		.loc 1 1222 0
 2157 00e4 97F82730 		ldrb	r3, [r7, #39]	@ zero_extendqisi2
 2158 00e8 0133     		adds	r3, r3, #1
 2159 00ea DBB2     		uxtb	r3, r3
 2160 00ec 5AB2     		sxtb	r2, r3
 2161 00ee 3B6B     		ldr	r3, [r7, #48]
 2162 00f0 83F84520 		strb	r2, [r3, #69]
 2163              	.L150:
1223:Firmware/Middlewares/Third_Party/FreeRTOS/Source/queue.c **** 			}
1224:Firmware/Middlewares/Third_Party/FreeRTOS/Source/queue.c **** 
ARM GAS  /tmp/ccwOJcWw.s 			page 64


1225:Firmware/Middlewares/Third_Party/FreeRTOS/Source/queue.c **** 			xReturn = pdPASS;
 2164              		.loc 1 1225 0
 2165 00f4 0123     		movs	r3, #1
 2166 00f6 7B63     		str	r3, [r7, #52]
 2167              	.LBE175:
 2168 00f8 01E0     		b	.L151
 2169              	.L148:
1226:Firmware/Middlewares/Third_Party/FreeRTOS/Source/queue.c **** 		}
1227:Firmware/Middlewares/Third_Party/FreeRTOS/Source/queue.c **** 		else
1228:Firmware/Middlewares/Third_Party/FreeRTOS/Source/queue.c **** 		{
1229:Firmware/Middlewares/Third_Party/FreeRTOS/Source/queue.c **** 			traceQUEUE_SEND_FROM_ISR_FAILED( pxQueue );
1230:Firmware/Middlewares/Third_Party/FreeRTOS/Source/queue.c **** 			xReturn = errQUEUE_FULL;
 2170              		.loc 1 1230 0
 2171 00fa 0023     		movs	r3, #0
 2172 00fc 7B63     		str	r3, [r7, #52]
 2173              	.L151:
 2174 00fe FB6A     		ldr	r3, [r7, #44]
 2175 0100 FB60     		str	r3, [r7, #12]
 2176              	.LBE174:
 2177              	.LBB176:
 2178              	.LBB177:
 2179              		.loc 2 229 0
 2180 0102 FB68     		ldr	r3, [r7, #12]
 2181              		.syntax unified
 2182              	@ 229 "Firmware/Middlewares/Third_Party/FreeRTOS/Source/portable/GCC/ARM_CM4F/portmacro.h" 1
 2183 0104 83F31188 			msr basepri, r3	
 2184              	@ 0 "" 2
 2185              		.thumb
 2186              		.syntax unified
 2187              	.LBE177:
 2188              	.LBE176:
1231:Firmware/Middlewares/Third_Party/FreeRTOS/Source/queue.c **** 		}
1232:Firmware/Middlewares/Third_Party/FreeRTOS/Source/queue.c **** 	}
1233:Firmware/Middlewares/Third_Party/FreeRTOS/Source/queue.c **** 	portCLEAR_INTERRUPT_MASK_FROM_ISR( uxSavedInterruptStatus );
1234:Firmware/Middlewares/Third_Party/FreeRTOS/Source/queue.c **** 
1235:Firmware/Middlewares/Third_Party/FreeRTOS/Source/queue.c **** 	return xReturn;
 2189              		.loc 1 1235 0
 2190 0108 7B6B     		ldr	r3, [r7, #52]
1236:Firmware/Middlewares/Third_Party/FreeRTOS/Source/queue.c **** }
 2191              		.loc 1 1236 0
 2192 010a 1846     		mov	r0, r3
 2193 010c 3837     		adds	r7, r7, #56
 2194              	.LCFI79:
 2195              		.cfi_def_cfa_offset 8
 2196 010e BD46     		mov	sp, r7
 2197              	.LCFI80:
 2198              		.cfi_def_cfa_register 13
 2199              		@ sp needed
 2200 0110 80BD     		pop	{r7, pc}
 2201              		.cfi_endproc
 2202              	.LFE19:
 2204              		.section	.text.xQueueReceive,"ax",%progbits
 2205              		.align	1
 2206              		.global	xQueueReceive
 2207              		.syntax unified
 2208              		.thumb
 2209              		.thumb_func
ARM GAS  /tmp/ccwOJcWw.s 			page 65


 2210              		.fpu fpv4-sp-d16
 2212              	xQueueReceive:
 2213              	.LFB20:
1237:Firmware/Middlewares/Third_Party/FreeRTOS/Source/queue.c **** /*-----------------------------------------------------------*/
1238:Firmware/Middlewares/Third_Party/FreeRTOS/Source/queue.c **** 
1239:Firmware/Middlewares/Third_Party/FreeRTOS/Source/queue.c **** BaseType_t xQueueReceive( QueueHandle_t xQueue, void * const pvBuffer, TickType_t xTicksToWait )
1240:Firmware/Middlewares/Third_Party/FreeRTOS/Source/queue.c **** {
 2214              		.loc 1 1240 0
 2215              		.cfi_startproc
 2216              		@ args = 0, pretend = 0, frame = 48
 2217              		@ frame_needed = 1, uses_anonymous_args = 0
 2218 0000 80B5     		push	{r7, lr}
 2219              	.LCFI81:
 2220              		.cfi_def_cfa_offset 8
 2221              		.cfi_offset 7, -8
 2222              		.cfi_offset 14, -4
 2223 0002 8CB0     		sub	sp, sp, #48
 2224              	.LCFI82:
 2225              		.cfi_def_cfa_offset 56
 2226 0004 00AF     		add	r7, sp, #0
 2227              	.LCFI83:
 2228              		.cfi_def_cfa_register 7
 2229 0006 F860     		str	r0, [r7, #12]
 2230 0008 B960     		str	r1, [r7, #8]
 2231 000a 7A60     		str	r2, [r7, #4]
1241:Firmware/Middlewares/Third_Party/FreeRTOS/Source/queue.c **** BaseType_t xEntryTimeSet = pdFALSE;
 2232              		.loc 1 1241 0
 2233 000c 0023     		movs	r3, #0
 2234 000e FB62     		str	r3, [r7, #44]
1242:Firmware/Middlewares/Third_Party/FreeRTOS/Source/queue.c **** TimeOut_t xTimeOut;
1243:Firmware/Middlewares/Third_Party/FreeRTOS/Source/queue.c **** Queue_t * const pxQueue = ( Queue_t * ) xQueue;
 2235              		.loc 1 1243 0
 2236 0010 FB68     		ldr	r3, [r7, #12]
 2237 0012 BB62     		str	r3, [r7, #40]
1244:Firmware/Middlewares/Third_Party/FreeRTOS/Source/queue.c **** 
1245:Firmware/Middlewares/Third_Party/FreeRTOS/Source/queue.c **** 	/* Check the pointer is not NULL. */
1246:Firmware/Middlewares/Third_Party/FreeRTOS/Source/queue.c **** 	configASSERT( ( pxQueue ) );
 2238              		.loc 1 1246 0
 2239 0014 BB6A     		ldr	r3, [r7, #40]
 2240 0016 002B     		cmp	r3, #0
 2241 0018 09D1     		bne	.L154
 2242              	.LBB178:
 2243              	.LBB179:
 195:Firmware/Middlewares/Third_Party/FreeRTOS/Source/portable/GCC/ARM_CM4F/portmacro.h **** 	(
 2244              		.loc 2 195 0 discriminator 1
 2245              		.syntax unified
 2246              	@ 195 "Firmware/Middlewares/Third_Party/FreeRTOS/Source/portable/GCC/ARM_CM4F/portmacro.h" 1
 2247 001a 4FF05003 			mov r3, #80												
 2248 001e 83F31188 		msr basepri, r3											
 2249 0022 BFF36F8F 		isb														
 2250 0026 BFF34F8F 		dsb														
 2251              	
 2252              	@ 0 "" 2
 2253              		.thumb
 2254              		.syntax unified
 2255 002a 3B62     		str	r3, [r7, #32]
 2256              	.L155:
ARM GAS  /tmp/ccwOJcWw.s 			page 66


 2257              	.LBE179:
 2258              	.LBE178:
 2259              		.loc 1 1246 0 discriminator 1
 2260 002c FEE7     		b	.L155
 2261              	.L154:
1247:Firmware/Middlewares/Third_Party/FreeRTOS/Source/queue.c **** 
1248:Firmware/Middlewares/Third_Party/FreeRTOS/Source/queue.c **** 	/* The buffer into which data is received can only be NULL if the data size
1249:Firmware/Middlewares/Third_Party/FreeRTOS/Source/queue.c **** 	is zero (so no data is copied into the buffer. */
1250:Firmware/Middlewares/Third_Party/FreeRTOS/Source/queue.c **** 	configASSERT( !( ( ( pvBuffer ) == NULL ) && ( ( pxQueue )->uxItemSize != ( UBaseType_t ) 0U ) ) )
 2262              		.loc 1 1250 0
 2263 002e BB68     		ldr	r3, [r7, #8]
 2264 0030 002B     		cmp	r3, #0
 2265 0032 03D1     		bne	.L156
 2266              		.loc 1 1250 0 is_stmt 0 discriminator 2
 2267 0034 BB6A     		ldr	r3, [r7, #40]
 2268 0036 1B6C     		ldr	r3, [r3, #64]
 2269 0038 002B     		cmp	r3, #0
 2270 003a 01D1     		bne	.L157
 2271              	.L156:
 2272              		.loc 1 1250 0 discriminator 3
 2273 003c 0123     		movs	r3, #1
 2274 003e 00E0     		b	.L158
 2275              	.L157:
 2276              		.loc 1 1250 0 discriminator 4
 2277 0040 0023     		movs	r3, #0
 2278              	.L158:
 2279              		.loc 1 1250 0 discriminator 6
 2280 0042 002B     		cmp	r3, #0
 2281 0044 09D1     		bne	.L159
 2282              	.LBB180:
 2283              	.LBB181:
 195:Firmware/Middlewares/Third_Party/FreeRTOS/Source/portable/GCC/ARM_CM4F/portmacro.h **** 	(
 2284              		.loc 2 195 0 is_stmt 1 discriminator 7
 2285              		.syntax unified
 2286              	@ 195 "Firmware/Middlewares/Third_Party/FreeRTOS/Source/portable/GCC/ARM_CM4F/portmacro.h" 1
 2287 0046 4FF05003 			mov r3, #80												
 2288 004a 83F31188 		msr basepri, r3											
 2289 004e BFF36F8F 		isb														
 2290 0052 BFF34F8F 		dsb														
 2291              	
 2292              	@ 0 "" 2
 2293              		.thumb
 2294              		.syntax unified
 2295 0056 FB61     		str	r3, [r7, #28]
 2296              	.L160:
 2297              	.LBE181:
 2298              	.LBE180:
 2299              		.loc 1 1250 0 discriminator 2
 2300 0058 FEE7     		b	.L160
 2301              	.L159:
1251:Firmware/Middlewares/Third_Party/FreeRTOS/Source/queue.c **** 
1252:Firmware/Middlewares/Third_Party/FreeRTOS/Source/queue.c **** 	/* Cannot block if the scheduler is suspended. */
1253:Firmware/Middlewares/Third_Party/FreeRTOS/Source/queue.c **** 	#if ( ( INCLUDE_xTaskGetSchedulerState == 1 ) || ( configUSE_TIMERS == 1 ) )
1254:Firmware/Middlewares/Third_Party/FreeRTOS/Source/queue.c **** 	{
1255:Firmware/Middlewares/Third_Party/FreeRTOS/Source/queue.c **** 		configASSERT( !( ( xTaskGetSchedulerState() == taskSCHEDULER_SUSPENDED ) && ( xTicksToWait != 0 )
 2302              		.loc 1 1255 0
 2303 005a FFF7FEFF 		bl	xTaskGetSchedulerState
ARM GAS  /tmp/ccwOJcWw.s 			page 67


 2304 005e 0346     		mov	r3, r0
 2305 0060 002B     		cmp	r3, #0
 2306 0062 02D1     		bne	.L161
 2307              		.loc 1 1255 0 is_stmt 0 discriminator 2
 2308 0064 7B68     		ldr	r3, [r7, #4]
 2309 0066 002B     		cmp	r3, #0
 2310 0068 01D1     		bne	.L162
 2311              	.L161:
 2312              		.loc 1 1255 0 discriminator 3
 2313 006a 0123     		movs	r3, #1
 2314 006c 00E0     		b	.L163
 2315              	.L162:
 2316              		.loc 1 1255 0 discriminator 4
 2317 006e 0023     		movs	r3, #0
 2318              	.L163:
 2319              		.loc 1 1255 0 discriminator 6
 2320 0070 002B     		cmp	r3, #0
 2321 0072 09D1     		bne	.L164
 2322              	.LBB182:
 2323              	.LBB183:
 195:Firmware/Middlewares/Third_Party/FreeRTOS/Source/portable/GCC/ARM_CM4F/portmacro.h **** 	(
 2324              		.loc 2 195 0 is_stmt 1 discriminator 7
 2325              		.syntax unified
 2326              	@ 195 "Firmware/Middlewares/Third_Party/FreeRTOS/Source/portable/GCC/ARM_CM4F/portmacro.h" 1
 2327 0074 4FF05003 			mov r3, #80												
 2328 0078 83F31188 		msr basepri, r3											
 2329 007c BFF36F8F 		isb														
 2330 0080 BFF34F8F 		dsb														
 2331              	
 2332              	@ 0 "" 2
 2333              		.thumb
 2334              		.syntax unified
 2335 0084 BB61     		str	r3, [r7, #24]
 2336              	.L165:
 2337              	.LBE183:
 2338              	.LBE182:
 2339              		.loc 1 1255 0 discriminator 3
 2340 0086 FEE7     		b	.L165
 2341              	.L164:
1256:Firmware/Middlewares/Third_Party/FreeRTOS/Source/queue.c **** 	}
1257:Firmware/Middlewares/Third_Party/FreeRTOS/Source/queue.c **** 	#endif
1258:Firmware/Middlewares/Third_Party/FreeRTOS/Source/queue.c **** 
1259:Firmware/Middlewares/Third_Party/FreeRTOS/Source/queue.c **** 	/* This function relaxes the coding standard somewhat to allow return
1260:Firmware/Middlewares/Third_Party/FreeRTOS/Source/queue.c **** 	statements within the function itself.  This is done in the interest
1261:Firmware/Middlewares/Third_Party/FreeRTOS/Source/queue.c **** 	of execution time efficiency. */
1262:Firmware/Middlewares/Third_Party/FreeRTOS/Source/queue.c **** 
1263:Firmware/Middlewares/Third_Party/FreeRTOS/Source/queue.c **** 	for( ;; )
1264:Firmware/Middlewares/Third_Party/FreeRTOS/Source/queue.c **** 	{
1265:Firmware/Middlewares/Third_Party/FreeRTOS/Source/queue.c **** 		taskENTER_CRITICAL();
 2342              		.loc 1 1265 0
 2343 0088 FFF7FEFF 		bl	vPortEnterCritical
 2344              	.LBB184:
1266:Firmware/Middlewares/Third_Party/FreeRTOS/Source/queue.c **** 		{
1267:Firmware/Middlewares/Third_Party/FreeRTOS/Source/queue.c **** 			const UBaseType_t uxMessagesWaiting = pxQueue->uxMessagesWaiting;
 2345              		.loc 1 1267 0
 2346 008c BB6A     		ldr	r3, [r7, #40]
 2347 008e 9B6B     		ldr	r3, [r3, #56]
ARM GAS  /tmp/ccwOJcWw.s 			page 68


 2348 0090 7B62     		str	r3, [r7, #36]
1268:Firmware/Middlewares/Third_Party/FreeRTOS/Source/queue.c **** 
1269:Firmware/Middlewares/Third_Party/FreeRTOS/Source/queue.c **** 			/* Is there data in the queue now?  To be running the calling task
1270:Firmware/Middlewares/Third_Party/FreeRTOS/Source/queue.c **** 			must be the highest priority task wanting to access the queue. */
1271:Firmware/Middlewares/Third_Party/FreeRTOS/Source/queue.c **** 			if( uxMessagesWaiting > ( UBaseType_t ) 0 )
 2349              		.loc 1 1271 0
 2350 0092 7B6A     		ldr	r3, [r7, #36]
 2351 0094 002B     		cmp	r3, #0
 2352 0096 1FD0     		beq	.L166
1272:Firmware/Middlewares/Third_Party/FreeRTOS/Source/queue.c **** 			{
1273:Firmware/Middlewares/Third_Party/FreeRTOS/Source/queue.c **** 				/* Data available, remove one item. */
1274:Firmware/Middlewares/Third_Party/FreeRTOS/Source/queue.c **** 				prvCopyDataFromQueue( pxQueue, pvBuffer );
 2353              		.loc 1 1274 0
 2354 0098 B968     		ldr	r1, [r7, #8]
 2355 009a B86A     		ldr	r0, [r7, #40]
 2356 009c FFF7FEFF 		bl	prvCopyDataFromQueue
1275:Firmware/Middlewares/Third_Party/FreeRTOS/Source/queue.c **** 				traceQUEUE_RECEIVE( pxQueue );
1276:Firmware/Middlewares/Third_Party/FreeRTOS/Source/queue.c **** 				pxQueue->uxMessagesWaiting = uxMessagesWaiting - ( UBaseType_t ) 1;
 2357              		.loc 1 1276 0
 2358 00a0 7B6A     		ldr	r3, [r7, #36]
 2359 00a2 5A1E     		subs	r2, r3, #1
 2360 00a4 BB6A     		ldr	r3, [r7, #40]
 2361 00a6 9A63     		str	r2, [r3, #56]
1277:Firmware/Middlewares/Third_Party/FreeRTOS/Source/queue.c **** 
1278:Firmware/Middlewares/Third_Party/FreeRTOS/Source/queue.c **** 				/* There is now space in the queue, were any tasks waiting to
1279:Firmware/Middlewares/Third_Party/FreeRTOS/Source/queue.c **** 				post to the queue?  If so, unblock the highest priority waiting
1280:Firmware/Middlewares/Third_Party/FreeRTOS/Source/queue.c **** 				task. */
1281:Firmware/Middlewares/Third_Party/FreeRTOS/Source/queue.c **** 				if( listLIST_IS_EMPTY( &( pxQueue->xTasksWaitingToSend ) ) == pdFALSE )
 2362              		.loc 1 1281 0
 2363 00a8 BB6A     		ldr	r3, [r7, #40]
 2364 00aa 1B69     		ldr	r3, [r3, #16]
 2365 00ac 002B     		cmp	r3, #0
 2366 00ae 0FD0     		beq	.L167
1282:Firmware/Middlewares/Third_Party/FreeRTOS/Source/queue.c **** 				{
1283:Firmware/Middlewares/Third_Party/FreeRTOS/Source/queue.c **** 					if( xTaskRemoveFromEventList( &( pxQueue->xTasksWaitingToSend ) ) != pdFALSE )
 2367              		.loc 1 1283 0
 2368 00b0 BB6A     		ldr	r3, [r7, #40]
 2369 00b2 1033     		adds	r3, r3, #16
 2370 00b4 1846     		mov	r0, r3
 2371 00b6 FFF7FEFF 		bl	xTaskRemoveFromEventList
 2372 00ba 0346     		mov	r3, r0
 2373 00bc 002B     		cmp	r3, #0
 2374 00be 07D0     		beq	.L167
1284:Firmware/Middlewares/Third_Party/FreeRTOS/Source/queue.c **** 					{
1285:Firmware/Middlewares/Third_Party/FreeRTOS/Source/queue.c **** 						queueYIELD_IF_USING_PREEMPTION();
 2375              		.loc 1 1285 0
 2376 00c0 3C4B     		ldr	r3, .L178
 2377 00c2 4FF08052 		mov	r2, #268435456
 2378 00c6 1A60     		str	r2, [r3]
 2379              		.syntax unified
 2380              	@ 1285 "Firmware/Middlewares/Third_Party/FreeRTOS/Source/queue.c" 1
 2381 00c8 BFF34F8F 		dsb
 2382              	@ 0 "" 2
 2383              	@ 1285 "Firmware/Middlewares/Third_Party/FreeRTOS/Source/queue.c" 1
 2384 00cc BFF36F8F 		isb
 2385              	@ 0 "" 2
 2386              		.thumb
ARM GAS  /tmp/ccwOJcWw.s 			page 69


 2387              		.syntax unified
 2388              	.L167:
1286:Firmware/Middlewares/Third_Party/FreeRTOS/Source/queue.c **** 					}
1287:Firmware/Middlewares/Third_Party/FreeRTOS/Source/queue.c **** 					else
1288:Firmware/Middlewares/Third_Party/FreeRTOS/Source/queue.c **** 					{
1289:Firmware/Middlewares/Third_Party/FreeRTOS/Source/queue.c **** 						mtCOVERAGE_TEST_MARKER();
1290:Firmware/Middlewares/Third_Party/FreeRTOS/Source/queue.c **** 					}
1291:Firmware/Middlewares/Third_Party/FreeRTOS/Source/queue.c **** 				}
1292:Firmware/Middlewares/Third_Party/FreeRTOS/Source/queue.c **** 				else
1293:Firmware/Middlewares/Third_Party/FreeRTOS/Source/queue.c **** 				{
1294:Firmware/Middlewares/Third_Party/FreeRTOS/Source/queue.c **** 					mtCOVERAGE_TEST_MARKER();
1295:Firmware/Middlewares/Third_Party/FreeRTOS/Source/queue.c **** 				}
1296:Firmware/Middlewares/Third_Party/FreeRTOS/Source/queue.c **** 
1297:Firmware/Middlewares/Third_Party/FreeRTOS/Source/queue.c **** 				taskEXIT_CRITICAL();
 2389              		.loc 1 1297 0
 2390 00d0 FFF7FEFF 		bl	vPortExitCritical
1298:Firmware/Middlewares/Third_Party/FreeRTOS/Source/queue.c **** 				return pdPASS;
 2391              		.loc 1 1298 0
 2392 00d4 0123     		movs	r3, #1
 2393 00d6 69E0     		b	.L177
 2394              	.L166:
1299:Firmware/Middlewares/Third_Party/FreeRTOS/Source/queue.c **** 			}
1300:Firmware/Middlewares/Third_Party/FreeRTOS/Source/queue.c **** 			else
1301:Firmware/Middlewares/Third_Party/FreeRTOS/Source/queue.c **** 			{
1302:Firmware/Middlewares/Third_Party/FreeRTOS/Source/queue.c **** 				if( xTicksToWait == ( TickType_t ) 0 )
 2395              		.loc 1 1302 0
 2396 00d8 7B68     		ldr	r3, [r7, #4]
 2397 00da 002B     		cmp	r3, #0
 2398 00dc 03D1     		bne	.L169
1303:Firmware/Middlewares/Third_Party/FreeRTOS/Source/queue.c **** 				{
1304:Firmware/Middlewares/Third_Party/FreeRTOS/Source/queue.c **** 					/* The queue was empty and no block time is specified (or
1305:Firmware/Middlewares/Third_Party/FreeRTOS/Source/queue.c **** 					the block time has expired) so leave now. */
1306:Firmware/Middlewares/Third_Party/FreeRTOS/Source/queue.c **** 					taskEXIT_CRITICAL();
 2399              		.loc 1 1306 0
 2400 00de FFF7FEFF 		bl	vPortExitCritical
1307:Firmware/Middlewares/Third_Party/FreeRTOS/Source/queue.c **** 					traceQUEUE_RECEIVE_FAILED( pxQueue );
1308:Firmware/Middlewares/Third_Party/FreeRTOS/Source/queue.c **** 					return errQUEUE_EMPTY;
 2401              		.loc 1 1308 0
 2402 00e2 0023     		movs	r3, #0
 2403 00e4 62E0     		b	.L177
 2404              	.L169:
1309:Firmware/Middlewares/Third_Party/FreeRTOS/Source/queue.c **** 				}
1310:Firmware/Middlewares/Third_Party/FreeRTOS/Source/queue.c **** 				else if( xEntryTimeSet == pdFALSE )
 2405              		.loc 1 1310 0
 2406 00e6 FB6A     		ldr	r3, [r7, #44]
 2407 00e8 002B     		cmp	r3, #0
 2408 00ea 06D1     		bne	.L170
1311:Firmware/Middlewares/Third_Party/FreeRTOS/Source/queue.c **** 				{
1312:Firmware/Middlewares/Third_Party/FreeRTOS/Source/queue.c **** 					/* The queue was empty and a block time was specified so
1313:Firmware/Middlewares/Third_Party/FreeRTOS/Source/queue.c **** 					configure the timeout structure. */
1314:Firmware/Middlewares/Third_Party/FreeRTOS/Source/queue.c **** 					vTaskInternalSetTimeOutState( &xTimeOut );
 2409              		.loc 1 1314 0
 2410 00ec 07F11003 		add	r3, r7, #16
 2411 00f0 1846     		mov	r0, r3
 2412 00f2 FFF7FEFF 		bl	vTaskInternalSetTimeOutState
1315:Firmware/Middlewares/Third_Party/FreeRTOS/Source/queue.c **** 					xEntryTimeSet = pdTRUE;
 2413              		.loc 1 1315 0
ARM GAS  /tmp/ccwOJcWw.s 			page 70


 2414 00f6 0123     		movs	r3, #1
 2415 00f8 FB62     		str	r3, [r7, #44]
 2416              	.L170:
 2417              	.LBE184:
1316:Firmware/Middlewares/Third_Party/FreeRTOS/Source/queue.c **** 				}
1317:Firmware/Middlewares/Third_Party/FreeRTOS/Source/queue.c **** 				else
1318:Firmware/Middlewares/Third_Party/FreeRTOS/Source/queue.c **** 				{
1319:Firmware/Middlewares/Third_Party/FreeRTOS/Source/queue.c **** 					/* Entry time was already set. */
1320:Firmware/Middlewares/Third_Party/FreeRTOS/Source/queue.c **** 					mtCOVERAGE_TEST_MARKER();
1321:Firmware/Middlewares/Third_Party/FreeRTOS/Source/queue.c **** 				}
1322:Firmware/Middlewares/Third_Party/FreeRTOS/Source/queue.c **** 			}
1323:Firmware/Middlewares/Third_Party/FreeRTOS/Source/queue.c **** 		}
1324:Firmware/Middlewares/Third_Party/FreeRTOS/Source/queue.c **** 		taskEXIT_CRITICAL();
 2418              		.loc 1 1324 0
 2419 00fa FFF7FEFF 		bl	vPortExitCritical
1325:Firmware/Middlewares/Third_Party/FreeRTOS/Source/queue.c **** 
1326:Firmware/Middlewares/Third_Party/FreeRTOS/Source/queue.c **** 		/* Interrupts and other tasks can send to and receive from the queue
1327:Firmware/Middlewares/Third_Party/FreeRTOS/Source/queue.c **** 		now the critical section has been exited. */
1328:Firmware/Middlewares/Third_Party/FreeRTOS/Source/queue.c **** 
1329:Firmware/Middlewares/Third_Party/FreeRTOS/Source/queue.c **** 		vTaskSuspendAll();
 2420              		.loc 1 1329 0
 2421 00fe FFF7FEFF 		bl	vTaskSuspendAll
1330:Firmware/Middlewares/Third_Party/FreeRTOS/Source/queue.c **** 		prvLockQueue( pxQueue );
 2422              		.loc 1 1330 0
 2423 0102 FFF7FEFF 		bl	vPortEnterCritical
 2424 0106 BB6A     		ldr	r3, [r7, #40]
 2425 0108 93F84430 		ldrb	r3, [r3, #68]
 2426 010c 5BB2     		sxtb	r3, r3
 2427 010e B3F1FF3F 		cmp	r3, #-1
 2428 0112 03D1     		bne	.L171
 2429              		.loc 1 1330 0 is_stmt 0 discriminator 1
 2430 0114 BB6A     		ldr	r3, [r7, #40]
 2431 0116 0022     		movs	r2, #0
 2432 0118 83F84420 		strb	r2, [r3, #68]
 2433              	.L171:
 2434              		.loc 1 1330 0 discriminator 3
 2435 011c BB6A     		ldr	r3, [r7, #40]
 2436 011e 93F84530 		ldrb	r3, [r3, #69]
 2437 0122 5BB2     		sxtb	r3, r3
 2438 0124 B3F1FF3F 		cmp	r3, #-1
 2439 0128 03D1     		bne	.L172
 2440              		.loc 1 1330 0 discriminator 4
 2441 012a BB6A     		ldr	r3, [r7, #40]
 2442 012c 0022     		movs	r2, #0
 2443 012e 83F84520 		strb	r2, [r3, #69]
 2444              	.L172:
 2445              		.loc 1 1330 0 discriminator 6
 2446 0132 FFF7FEFF 		bl	vPortExitCritical
1331:Firmware/Middlewares/Third_Party/FreeRTOS/Source/queue.c **** 
1332:Firmware/Middlewares/Third_Party/FreeRTOS/Source/queue.c **** 		/* Update the timeout state to see if it has expired yet. */
1333:Firmware/Middlewares/Third_Party/FreeRTOS/Source/queue.c **** 		if( xTaskCheckForTimeOut( &xTimeOut, &xTicksToWait ) == pdFALSE )
 2447              		.loc 1 1333 0 is_stmt 1 discriminator 6
 2448 0136 3A1D     		adds	r2, r7, #4
 2449 0138 07F11003 		add	r3, r7, #16
 2450 013c 1146     		mov	r1, r2
 2451 013e 1846     		mov	r0, r3
 2452 0140 FFF7FEFF 		bl	xTaskCheckForTimeOut
ARM GAS  /tmp/ccwOJcWw.s 			page 71


 2453 0144 0346     		mov	r3, r0
 2454 0146 002B     		cmp	r3, #0
 2455 0148 23D1     		bne	.L173
1334:Firmware/Middlewares/Third_Party/FreeRTOS/Source/queue.c **** 		{
1335:Firmware/Middlewares/Third_Party/FreeRTOS/Source/queue.c **** 			/* The timeout has not expired.  If the queue is still empty place
1336:Firmware/Middlewares/Third_Party/FreeRTOS/Source/queue.c **** 			the task on the list of tasks waiting to receive from the queue. */
1337:Firmware/Middlewares/Third_Party/FreeRTOS/Source/queue.c **** 			if( prvIsQueueEmpty( pxQueue ) != pdFALSE )
 2456              		.loc 1 1337 0
 2457 014a B86A     		ldr	r0, [r7, #40]
 2458 014c FFF7FEFF 		bl	prvIsQueueEmpty
 2459 0150 0346     		mov	r3, r0
 2460 0152 002B     		cmp	r3, #0
 2461 0154 17D0     		beq	.L174
1338:Firmware/Middlewares/Third_Party/FreeRTOS/Source/queue.c **** 			{
1339:Firmware/Middlewares/Third_Party/FreeRTOS/Source/queue.c **** 				traceBLOCKING_ON_QUEUE_RECEIVE( pxQueue );
1340:Firmware/Middlewares/Third_Party/FreeRTOS/Source/queue.c **** 				vTaskPlaceOnEventList( &( pxQueue->xTasksWaitingToReceive ), xTicksToWait );
 2462              		.loc 1 1340 0
 2463 0156 BB6A     		ldr	r3, [r7, #40]
 2464 0158 2433     		adds	r3, r3, #36
 2465 015a 7A68     		ldr	r2, [r7, #4]
 2466 015c 1146     		mov	r1, r2
 2467 015e 1846     		mov	r0, r3
 2468 0160 FFF7FEFF 		bl	vTaskPlaceOnEventList
1341:Firmware/Middlewares/Third_Party/FreeRTOS/Source/queue.c **** 				prvUnlockQueue( pxQueue );
 2469              		.loc 1 1341 0
 2470 0164 B86A     		ldr	r0, [r7, #40]
 2471 0166 FFF7FEFF 		bl	prvUnlockQueue
1342:Firmware/Middlewares/Third_Party/FreeRTOS/Source/queue.c **** 				if( xTaskResumeAll() == pdFALSE )
 2472              		.loc 1 1342 0
 2473 016a FFF7FEFF 		bl	xTaskResumeAll
 2474 016e 0346     		mov	r3, r0
 2475 0170 002B     		cmp	r3, #0
 2476 0172 89D1     		bne	.L164
1343:Firmware/Middlewares/Third_Party/FreeRTOS/Source/queue.c **** 				{
1344:Firmware/Middlewares/Third_Party/FreeRTOS/Source/queue.c **** 					portYIELD_WITHIN_API();
 2477              		.loc 1 1344 0
 2478 0174 0F4B     		ldr	r3, .L178
 2479 0176 4FF08052 		mov	r2, #268435456
 2480 017a 1A60     		str	r2, [r3]
 2481              		.syntax unified
 2482              	@ 1344 "Firmware/Middlewares/Third_Party/FreeRTOS/Source/queue.c" 1
 2483 017c BFF34F8F 		dsb
 2484              	@ 0 "" 2
 2485              	@ 1344 "Firmware/Middlewares/Third_Party/FreeRTOS/Source/queue.c" 1
 2486 0180 BFF36F8F 		isb
 2487              	@ 0 "" 2
 2488              		.thumb
 2489              		.syntax unified
 2490 0184 80E7     		b	.L164
 2491              	.L174:
1345:Firmware/Middlewares/Third_Party/FreeRTOS/Source/queue.c **** 				}
1346:Firmware/Middlewares/Third_Party/FreeRTOS/Source/queue.c **** 				else
1347:Firmware/Middlewares/Third_Party/FreeRTOS/Source/queue.c **** 				{
1348:Firmware/Middlewares/Third_Party/FreeRTOS/Source/queue.c **** 					mtCOVERAGE_TEST_MARKER();
1349:Firmware/Middlewares/Third_Party/FreeRTOS/Source/queue.c **** 				}
1350:Firmware/Middlewares/Third_Party/FreeRTOS/Source/queue.c **** 			}
1351:Firmware/Middlewares/Third_Party/FreeRTOS/Source/queue.c **** 			else
ARM GAS  /tmp/ccwOJcWw.s 			page 72


1352:Firmware/Middlewares/Third_Party/FreeRTOS/Source/queue.c **** 			{
1353:Firmware/Middlewares/Third_Party/FreeRTOS/Source/queue.c **** 				/* The queue contains data again.  Loop back to try and read the
1354:Firmware/Middlewares/Third_Party/FreeRTOS/Source/queue.c **** 				data. */
1355:Firmware/Middlewares/Third_Party/FreeRTOS/Source/queue.c **** 				prvUnlockQueue( pxQueue );
 2492              		.loc 1 1355 0
 2493 0186 B86A     		ldr	r0, [r7, #40]
 2494 0188 FFF7FEFF 		bl	prvUnlockQueue
1356:Firmware/Middlewares/Third_Party/FreeRTOS/Source/queue.c **** 				( void ) xTaskResumeAll();
 2495              		.loc 1 1356 0
 2496 018c FFF7FEFF 		bl	xTaskResumeAll
 2497 0190 7AE7     		b	.L164
 2498              	.L173:
1357:Firmware/Middlewares/Third_Party/FreeRTOS/Source/queue.c **** 			}
1358:Firmware/Middlewares/Third_Party/FreeRTOS/Source/queue.c **** 		}
1359:Firmware/Middlewares/Third_Party/FreeRTOS/Source/queue.c **** 		else
1360:Firmware/Middlewares/Third_Party/FreeRTOS/Source/queue.c **** 		{
1361:Firmware/Middlewares/Third_Party/FreeRTOS/Source/queue.c **** 			/* Timed out.  If there is no data in the queue exit, otherwise loop
1362:Firmware/Middlewares/Third_Party/FreeRTOS/Source/queue.c **** 			back and attempt to read the data. */
1363:Firmware/Middlewares/Third_Party/FreeRTOS/Source/queue.c **** 			prvUnlockQueue( pxQueue );
 2499              		.loc 1 1363 0
 2500 0192 B86A     		ldr	r0, [r7, #40]
 2501 0194 FFF7FEFF 		bl	prvUnlockQueue
1364:Firmware/Middlewares/Third_Party/FreeRTOS/Source/queue.c **** 			( void ) xTaskResumeAll();
 2502              		.loc 1 1364 0
 2503 0198 FFF7FEFF 		bl	xTaskResumeAll
1365:Firmware/Middlewares/Third_Party/FreeRTOS/Source/queue.c **** 
1366:Firmware/Middlewares/Third_Party/FreeRTOS/Source/queue.c **** 			if( prvIsQueueEmpty( pxQueue ) != pdFALSE )
 2504              		.loc 1 1366 0
 2505 019c B86A     		ldr	r0, [r7, #40]
 2506 019e FFF7FEFF 		bl	prvIsQueueEmpty
 2507 01a2 0346     		mov	r3, r0
 2508 01a4 002B     		cmp	r3, #0
 2509 01a6 3FF46FAF 		beq	.L164
1367:Firmware/Middlewares/Third_Party/FreeRTOS/Source/queue.c **** 			{
1368:Firmware/Middlewares/Third_Party/FreeRTOS/Source/queue.c **** 				traceQUEUE_RECEIVE_FAILED( pxQueue );
1369:Firmware/Middlewares/Third_Party/FreeRTOS/Source/queue.c **** 				return errQUEUE_EMPTY;
 2510              		.loc 1 1369 0
 2511 01aa 0023     		movs	r3, #0
 2512              	.L177:
1370:Firmware/Middlewares/Third_Party/FreeRTOS/Source/queue.c **** 			}
1371:Firmware/Middlewares/Third_Party/FreeRTOS/Source/queue.c **** 			else
1372:Firmware/Middlewares/Third_Party/FreeRTOS/Source/queue.c **** 			{
1373:Firmware/Middlewares/Third_Party/FreeRTOS/Source/queue.c **** 				mtCOVERAGE_TEST_MARKER();
1374:Firmware/Middlewares/Third_Party/FreeRTOS/Source/queue.c **** 			}
1375:Firmware/Middlewares/Third_Party/FreeRTOS/Source/queue.c **** 		}
1376:Firmware/Middlewares/Third_Party/FreeRTOS/Source/queue.c **** 	}
1377:Firmware/Middlewares/Third_Party/FreeRTOS/Source/queue.c **** }
 2513              		.loc 1 1377 0 discriminator 6
 2514 01ac 1846     		mov	r0, r3
 2515 01ae 3037     		adds	r7, r7, #48
 2516              	.LCFI84:
 2517              		.cfi_def_cfa_offset 8
 2518 01b0 BD46     		mov	sp, r7
 2519              	.LCFI85:
 2520              		.cfi_def_cfa_register 13
 2521              		@ sp needed
 2522 01b2 80BD     		pop	{r7, pc}
ARM GAS  /tmp/ccwOJcWw.s 			page 73


 2523              	.L179:
 2524              		.align	2
 2525              	.L178:
 2526 01b4 04ED00E0 		.word	-536810236
 2527              		.cfi_endproc
 2528              	.LFE20:
 2530              		.section	.text.xQueueSemaphoreTake,"ax",%progbits
 2531              		.align	1
 2532              		.global	xQueueSemaphoreTake
 2533              		.syntax unified
 2534              		.thumb
 2535              		.thumb_func
 2536              		.fpu fpv4-sp-d16
 2538              	xQueueSemaphoreTake:
 2539              	.LFB21:
1378:Firmware/Middlewares/Third_Party/FreeRTOS/Source/queue.c **** /*-----------------------------------------------------------*/
1379:Firmware/Middlewares/Third_Party/FreeRTOS/Source/queue.c **** 
1380:Firmware/Middlewares/Third_Party/FreeRTOS/Source/queue.c **** BaseType_t xQueueSemaphoreTake( QueueHandle_t xQueue, TickType_t xTicksToWait )
1381:Firmware/Middlewares/Third_Party/FreeRTOS/Source/queue.c **** {
 2540              		.loc 1 1381 0
 2541              		.cfi_startproc
 2542              		@ args = 0, pretend = 0, frame = 56
 2543              		@ frame_needed = 1, uses_anonymous_args = 0
 2544 0000 80B5     		push	{r7, lr}
 2545              	.LCFI86:
 2546              		.cfi_def_cfa_offset 8
 2547              		.cfi_offset 7, -8
 2548              		.cfi_offset 14, -4
 2549 0002 8EB0     		sub	sp, sp, #56
 2550              	.LCFI87:
 2551              		.cfi_def_cfa_offset 64
 2552 0004 00AF     		add	r7, sp, #0
 2553              	.LCFI88:
 2554              		.cfi_def_cfa_register 7
 2555 0006 7860     		str	r0, [r7, #4]
 2556 0008 3960     		str	r1, [r7]
1382:Firmware/Middlewares/Third_Party/FreeRTOS/Source/queue.c **** BaseType_t xEntryTimeSet = pdFALSE;
 2557              		.loc 1 1382 0
 2558 000a 0023     		movs	r3, #0
 2559 000c 7B63     		str	r3, [r7, #52]
1383:Firmware/Middlewares/Third_Party/FreeRTOS/Source/queue.c **** TimeOut_t xTimeOut;
1384:Firmware/Middlewares/Third_Party/FreeRTOS/Source/queue.c **** Queue_t * const pxQueue = ( Queue_t * ) xQueue;
 2560              		.loc 1 1384 0
 2561 000e 7B68     		ldr	r3, [r7, #4]
 2562 0010 FB62     		str	r3, [r7, #44]
1385:Firmware/Middlewares/Third_Party/FreeRTOS/Source/queue.c **** 
1386:Firmware/Middlewares/Third_Party/FreeRTOS/Source/queue.c **** #if( configUSE_MUTEXES == 1 )
1387:Firmware/Middlewares/Third_Party/FreeRTOS/Source/queue.c **** 	BaseType_t xInheritanceOccurred = pdFALSE;
 2563              		.loc 1 1387 0
 2564 0012 0023     		movs	r3, #0
 2565 0014 3B63     		str	r3, [r7, #48]
1388:Firmware/Middlewares/Third_Party/FreeRTOS/Source/queue.c **** #endif
1389:Firmware/Middlewares/Third_Party/FreeRTOS/Source/queue.c **** 
1390:Firmware/Middlewares/Third_Party/FreeRTOS/Source/queue.c **** 	/* Check the queue pointer is not NULL. */
1391:Firmware/Middlewares/Third_Party/FreeRTOS/Source/queue.c **** 	configASSERT( ( pxQueue ) );
 2566              		.loc 1 1391 0
 2567 0016 FB6A     		ldr	r3, [r7, #44]
ARM GAS  /tmp/ccwOJcWw.s 			page 74


 2568 0018 002B     		cmp	r3, #0
 2569 001a 09D1     		bne	.L181
 2570              	.LBB185:
 2571              	.LBB186:
 195:Firmware/Middlewares/Third_Party/FreeRTOS/Source/portable/GCC/ARM_CM4F/portmacro.h **** 	(
 2572              		.loc 2 195 0 discriminator 1
 2573              		.syntax unified
 2574              	@ 195 "Firmware/Middlewares/Third_Party/FreeRTOS/Source/portable/GCC/ARM_CM4F/portmacro.h" 1
 2575 001c 4FF05003 			mov r3, #80												
 2576 0020 83F31188 		msr basepri, r3											
 2577 0024 BFF36F8F 		isb														
 2578 0028 BFF34F8F 		dsb														
 2579              	
 2580              	@ 0 "" 2
 2581              		.thumb
 2582              		.syntax unified
 2583 002c 3B62     		str	r3, [r7, #32]
 2584              	.L182:
 2585              	.LBE186:
 2586              	.LBE185:
 2587              		.loc 1 1391 0 discriminator 1
 2588 002e FEE7     		b	.L182
 2589              	.L181:
1392:Firmware/Middlewares/Third_Party/FreeRTOS/Source/queue.c **** 
1393:Firmware/Middlewares/Third_Party/FreeRTOS/Source/queue.c **** 	/* Check this really is a semaphore, in which case the item size will be
1394:Firmware/Middlewares/Third_Party/FreeRTOS/Source/queue.c **** 	0. */
1395:Firmware/Middlewares/Third_Party/FreeRTOS/Source/queue.c **** 	configASSERT( pxQueue->uxItemSize == 0 );
 2590              		.loc 1 1395 0
 2591 0030 FB6A     		ldr	r3, [r7, #44]
 2592 0032 1B6C     		ldr	r3, [r3, #64]
 2593 0034 002B     		cmp	r3, #0
 2594 0036 09D0     		beq	.L183
 2595              	.LBB187:
 2596              	.LBB188:
 195:Firmware/Middlewares/Third_Party/FreeRTOS/Source/portable/GCC/ARM_CM4F/portmacro.h **** 	(
 2597              		.loc 2 195 0 discriminator 1
 2598              		.syntax unified
 2599              	@ 195 "Firmware/Middlewares/Third_Party/FreeRTOS/Source/portable/GCC/ARM_CM4F/portmacro.h" 1
 2600 0038 4FF05003 			mov r3, #80												
 2601 003c 83F31188 		msr basepri, r3											
 2602 0040 BFF36F8F 		isb														
 2603 0044 BFF34F8F 		dsb														
 2604              	
 2605              	@ 0 "" 2
 2606              		.thumb
 2607              		.syntax unified
 2608 0048 FB61     		str	r3, [r7, #28]
 2609              	.L184:
 2610              	.LBE188:
 2611              	.LBE187:
 2612              		.loc 1 1395 0 discriminator 2
 2613 004a FEE7     		b	.L184
 2614              	.L183:
1396:Firmware/Middlewares/Third_Party/FreeRTOS/Source/queue.c **** 
1397:Firmware/Middlewares/Third_Party/FreeRTOS/Source/queue.c **** 	/* Cannot block if the scheduler is suspended. */
1398:Firmware/Middlewares/Third_Party/FreeRTOS/Source/queue.c **** 	#if ( ( INCLUDE_xTaskGetSchedulerState == 1 ) || ( configUSE_TIMERS == 1 ) )
1399:Firmware/Middlewares/Third_Party/FreeRTOS/Source/queue.c **** 	{
ARM GAS  /tmp/ccwOJcWw.s 			page 75


1400:Firmware/Middlewares/Third_Party/FreeRTOS/Source/queue.c **** 		configASSERT( !( ( xTaskGetSchedulerState() == taskSCHEDULER_SUSPENDED ) && ( xTicksToWait != 0 )
 2615              		.loc 1 1400 0
 2616 004c FFF7FEFF 		bl	xTaskGetSchedulerState
 2617 0050 0346     		mov	r3, r0
 2618 0052 002B     		cmp	r3, #0
 2619 0054 02D1     		bne	.L185
 2620              		.loc 1 1400 0 is_stmt 0 discriminator 2
 2621 0056 3B68     		ldr	r3, [r7]
 2622 0058 002B     		cmp	r3, #0
 2623 005a 01D1     		bne	.L186
 2624              	.L185:
 2625              		.loc 1 1400 0 discriminator 3
 2626 005c 0123     		movs	r3, #1
 2627 005e 00E0     		b	.L187
 2628              	.L186:
 2629              		.loc 1 1400 0 discriminator 4
 2630 0060 0023     		movs	r3, #0
 2631              	.L187:
 2632              		.loc 1 1400 0 discriminator 6
 2633 0062 002B     		cmp	r3, #0
 2634 0064 09D1     		bne	.L188
 2635              	.LBB189:
 2636              	.LBB190:
 195:Firmware/Middlewares/Third_Party/FreeRTOS/Source/portable/GCC/ARM_CM4F/portmacro.h **** 	(
 2637              		.loc 2 195 0 is_stmt 1 discriminator 7
 2638              		.syntax unified
 2639              	@ 195 "Firmware/Middlewares/Third_Party/FreeRTOS/Source/portable/GCC/ARM_CM4F/portmacro.h" 1
 2640 0066 4FF05003 			mov r3, #80												
 2641 006a 83F31188 		msr basepri, r3											
 2642 006e BFF36F8F 		isb														
 2643 0072 BFF34F8F 		dsb														
 2644              	
 2645              	@ 0 "" 2
 2646              		.thumb
 2647              		.syntax unified
 2648 0076 BB61     		str	r3, [r7, #24]
 2649              	.L189:
 2650              	.LBE190:
 2651              	.LBE189:
 2652              		.loc 1 1400 0 discriminator 3
 2653 0078 FEE7     		b	.L189
 2654              	.L188:
1401:Firmware/Middlewares/Third_Party/FreeRTOS/Source/queue.c **** 	}
1402:Firmware/Middlewares/Third_Party/FreeRTOS/Source/queue.c **** 	#endif
1403:Firmware/Middlewares/Third_Party/FreeRTOS/Source/queue.c **** 
1404:Firmware/Middlewares/Third_Party/FreeRTOS/Source/queue.c **** 
1405:Firmware/Middlewares/Third_Party/FreeRTOS/Source/queue.c **** 	/* This function relaxes the coding standard somewhat to allow return
1406:Firmware/Middlewares/Third_Party/FreeRTOS/Source/queue.c **** 	statements within the function itself.  This is done in the interest
1407:Firmware/Middlewares/Third_Party/FreeRTOS/Source/queue.c **** 	of execution time efficiency. */
1408:Firmware/Middlewares/Third_Party/FreeRTOS/Source/queue.c **** 
1409:Firmware/Middlewares/Third_Party/FreeRTOS/Source/queue.c **** 	for( ;; )
1410:Firmware/Middlewares/Third_Party/FreeRTOS/Source/queue.c **** 	{
1411:Firmware/Middlewares/Third_Party/FreeRTOS/Source/queue.c **** 		taskENTER_CRITICAL();
 2655              		.loc 1 1411 0
 2656 007a FFF7FEFF 		bl	vPortEnterCritical
 2657              	.LBB191:
1412:Firmware/Middlewares/Third_Party/FreeRTOS/Source/queue.c **** 		{
ARM GAS  /tmp/ccwOJcWw.s 			page 76


1413:Firmware/Middlewares/Third_Party/FreeRTOS/Source/queue.c **** 			/* Semaphores are queues with an item size of 0, and where the
1414:Firmware/Middlewares/Third_Party/FreeRTOS/Source/queue.c **** 			number of messages in the queue is the semaphore's count value. */
1415:Firmware/Middlewares/Third_Party/FreeRTOS/Source/queue.c **** 			const UBaseType_t uxSemaphoreCount = pxQueue->uxMessagesWaiting;
 2658              		.loc 1 1415 0
 2659 007e FB6A     		ldr	r3, [r7, #44]
 2660 0080 9B6B     		ldr	r3, [r3, #56]
 2661 0082 BB62     		str	r3, [r7, #40]
1416:Firmware/Middlewares/Third_Party/FreeRTOS/Source/queue.c **** 
1417:Firmware/Middlewares/Third_Party/FreeRTOS/Source/queue.c **** 			/* Is there data in the queue now?  To be running the calling task
1418:Firmware/Middlewares/Third_Party/FreeRTOS/Source/queue.c **** 			must be the highest priority task wanting to access the queue. */
1419:Firmware/Middlewares/Third_Party/FreeRTOS/Source/queue.c **** 			if( uxSemaphoreCount > ( UBaseType_t ) 0 )
 2662              		.loc 1 1419 0
 2663 0084 BB6A     		ldr	r3, [r7, #40]
 2664 0086 002B     		cmp	r3, #0
 2665 0088 24D0     		beq	.L190
1420:Firmware/Middlewares/Third_Party/FreeRTOS/Source/queue.c **** 			{
1421:Firmware/Middlewares/Third_Party/FreeRTOS/Source/queue.c **** 				traceQUEUE_RECEIVE( pxQueue );
1422:Firmware/Middlewares/Third_Party/FreeRTOS/Source/queue.c **** 
1423:Firmware/Middlewares/Third_Party/FreeRTOS/Source/queue.c **** 				/* Semaphores are queues with a data size of zero and where the
1424:Firmware/Middlewares/Third_Party/FreeRTOS/Source/queue.c **** 				messages waiting is the semaphore's count.  Reduce the count. */
1425:Firmware/Middlewares/Third_Party/FreeRTOS/Source/queue.c **** 				pxQueue->uxMessagesWaiting = uxSemaphoreCount - ( UBaseType_t ) 1;
 2666              		.loc 1 1425 0
 2667 008a BB6A     		ldr	r3, [r7, #40]
 2668 008c 5A1E     		subs	r2, r3, #1
 2669 008e FB6A     		ldr	r3, [r7, #44]
 2670 0090 9A63     		str	r2, [r3, #56]
1426:Firmware/Middlewares/Third_Party/FreeRTOS/Source/queue.c **** 
1427:Firmware/Middlewares/Third_Party/FreeRTOS/Source/queue.c **** 				#if ( configUSE_MUTEXES == 1 )
1428:Firmware/Middlewares/Third_Party/FreeRTOS/Source/queue.c **** 				{
1429:Firmware/Middlewares/Third_Party/FreeRTOS/Source/queue.c **** 					if( pxQueue->uxQueueType == queueQUEUE_IS_MUTEX )
 2671              		.loc 1 1429 0
 2672 0092 FB6A     		ldr	r3, [r7, #44]
 2673 0094 1B68     		ldr	r3, [r3]
 2674 0096 002B     		cmp	r3, #0
 2675 0098 04D1     		bne	.L191
1430:Firmware/Middlewares/Third_Party/FreeRTOS/Source/queue.c **** 					{
1431:Firmware/Middlewares/Third_Party/FreeRTOS/Source/queue.c **** 						/* Record the information required to implement
1432:Firmware/Middlewares/Third_Party/FreeRTOS/Source/queue.c **** 						priority inheritance should it become necessary. */
1433:Firmware/Middlewares/Third_Party/FreeRTOS/Source/queue.c **** 						pxQueue->pxMutexHolder = ( int8_t * ) pvTaskIncrementMutexHeldCount(); /*lint !e961 Cast is n
 2676              		.loc 1 1433 0
 2677 009a FFF7FEFF 		bl	pvTaskIncrementMutexHeldCount
 2678 009e 0246     		mov	r2, r0
 2679 00a0 FB6A     		ldr	r3, [r7, #44]
 2680 00a2 5A60     		str	r2, [r3, #4]
 2681              	.L191:
1434:Firmware/Middlewares/Third_Party/FreeRTOS/Source/queue.c **** 					}
1435:Firmware/Middlewares/Third_Party/FreeRTOS/Source/queue.c **** 					else
1436:Firmware/Middlewares/Third_Party/FreeRTOS/Source/queue.c **** 					{
1437:Firmware/Middlewares/Third_Party/FreeRTOS/Source/queue.c **** 						mtCOVERAGE_TEST_MARKER();
1438:Firmware/Middlewares/Third_Party/FreeRTOS/Source/queue.c **** 					}
1439:Firmware/Middlewares/Third_Party/FreeRTOS/Source/queue.c **** 				}
1440:Firmware/Middlewares/Third_Party/FreeRTOS/Source/queue.c **** 				#endif /* configUSE_MUTEXES */
1441:Firmware/Middlewares/Third_Party/FreeRTOS/Source/queue.c **** 
1442:Firmware/Middlewares/Third_Party/FreeRTOS/Source/queue.c **** 				/* Check to see if other tasks are blocked waiting to give the
1443:Firmware/Middlewares/Third_Party/FreeRTOS/Source/queue.c **** 				semaphore, and if so, unblock the highest priority such task. */
1444:Firmware/Middlewares/Third_Party/FreeRTOS/Source/queue.c **** 				if( listLIST_IS_EMPTY( &( pxQueue->xTasksWaitingToSend ) ) == pdFALSE )
 2682              		.loc 1 1444 0
ARM GAS  /tmp/ccwOJcWw.s 			page 77


 2683 00a4 FB6A     		ldr	r3, [r7, #44]
 2684 00a6 1B69     		ldr	r3, [r3, #16]
 2685 00a8 002B     		cmp	r3, #0
 2686 00aa 0FD0     		beq	.L192
1445:Firmware/Middlewares/Third_Party/FreeRTOS/Source/queue.c **** 				{
1446:Firmware/Middlewares/Third_Party/FreeRTOS/Source/queue.c **** 					if( xTaskRemoveFromEventList( &( pxQueue->xTasksWaitingToSend ) ) != pdFALSE )
 2687              		.loc 1 1446 0
 2688 00ac FB6A     		ldr	r3, [r7, #44]
 2689 00ae 1033     		adds	r3, r3, #16
 2690 00b0 1846     		mov	r0, r3
 2691 00b2 FFF7FEFF 		bl	xTaskRemoveFromEventList
 2692 00b6 0346     		mov	r3, r0
 2693 00b8 002B     		cmp	r3, #0
 2694 00ba 07D0     		beq	.L192
1447:Firmware/Middlewares/Third_Party/FreeRTOS/Source/queue.c **** 					{
1448:Firmware/Middlewares/Third_Party/FreeRTOS/Source/queue.c **** 						queueYIELD_IF_USING_PREEMPTION();
 2695              		.loc 1 1448 0
 2696 00bc 534B     		ldr	r3, .L207
 2697 00be 4FF08052 		mov	r2, #268435456
 2698 00c2 1A60     		str	r2, [r3]
 2699              		.syntax unified
 2700              	@ 1448 "Firmware/Middlewares/Third_Party/FreeRTOS/Source/queue.c" 1
 2701 00c4 BFF34F8F 		dsb
 2702              	@ 0 "" 2
 2703              	@ 1448 "Firmware/Middlewares/Third_Party/FreeRTOS/Source/queue.c" 1
 2704 00c8 BFF36F8F 		isb
 2705              	@ 0 "" 2
 2706              		.thumb
 2707              		.syntax unified
 2708              	.L192:
1449:Firmware/Middlewares/Third_Party/FreeRTOS/Source/queue.c **** 					}
1450:Firmware/Middlewares/Third_Party/FreeRTOS/Source/queue.c **** 					else
1451:Firmware/Middlewares/Third_Party/FreeRTOS/Source/queue.c **** 					{
1452:Firmware/Middlewares/Third_Party/FreeRTOS/Source/queue.c **** 						mtCOVERAGE_TEST_MARKER();
1453:Firmware/Middlewares/Third_Party/FreeRTOS/Source/queue.c **** 					}
1454:Firmware/Middlewares/Third_Party/FreeRTOS/Source/queue.c **** 				}
1455:Firmware/Middlewares/Third_Party/FreeRTOS/Source/queue.c **** 				else
1456:Firmware/Middlewares/Third_Party/FreeRTOS/Source/queue.c **** 				{
1457:Firmware/Middlewares/Third_Party/FreeRTOS/Source/queue.c **** 					mtCOVERAGE_TEST_MARKER();
1458:Firmware/Middlewares/Third_Party/FreeRTOS/Source/queue.c **** 				}
1459:Firmware/Middlewares/Third_Party/FreeRTOS/Source/queue.c **** 
1460:Firmware/Middlewares/Third_Party/FreeRTOS/Source/queue.c **** 				taskEXIT_CRITICAL();
 2709              		.loc 1 1460 0
 2710 00cc FFF7FEFF 		bl	vPortExitCritical
1461:Firmware/Middlewares/Third_Party/FreeRTOS/Source/queue.c **** 				return pdPASS;
 2711              		.loc 1 1461 0
 2712 00d0 0123     		movs	r3, #1
 2713 00d2 96E0     		b	.L206
 2714              	.L190:
1462:Firmware/Middlewares/Third_Party/FreeRTOS/Source/queue.c **** 			}
1463:Firmware/Middlewares/Third_Party/FreeRTOS/Source/queue.c **** 			else
1464:Firmware/Middlewares/Third_Party/FreeRTOS/Source/queue.c **** 			{
1465:Firmware/Middlewares/Third_Party/FreeRTOS/Source/queue.c **** 				if( xTicksToWait == ( TickType_t ) 0 )
 2715              		.loc 1 1465 0
 2716 00d4 3B68     		ldr	r3, [r7]
 2717 00d6 002B     		cmp	r3, #0
 2718 00d8 10D1     		bne	.L194
ARM GAS  /tmp/ccwOJcWw.s 			page 78


1466:Firmware/Middlewares/Third_Party/FreeRTOS/Source/queue.c **** 				{
1467:Firmware/Middlewares/Third_Party/FreeRTOS/Source/queue.c **** 					/* For inheritance to have occurred there must have been an
1468:Firmware/Middlewares/Third_Party/FreeRTOS/Source/queue.c **** 					initial timeout, and an adjusted timeout cannot become 0, as
1469:Firmware/Middlewares/Third_Party/FreeRTOS/Source/queue.c **** 					if it were 0 the function would have exited. */
1470:Firmware/Middlewares/Third_Party/FreeRTOS/Source/queue.c **** 					#if( configUSE_MUTEXES == 1 )
1471:Firmware/Middlewares/Third_Party/FreeRTOS/Source/queue.c **** 					{
1472:Firmware/Middlewares/Third_Party/FreeRTOS/Source/queue.c **** 						configASSERT( xInheritanceOccurred == pdFALSE );
 2719              		.loc 1 1472 0
 2720 00da 3B6B     		ldr	r3, [r7, #48]
 2721 00dc 002B     		cmp	r3, #0
 2722 00de 09D0     		beq	.L195
 2723              	.LBB192:
 2724              	.LBB193:
 195:Firmware/Middlewares/Third_Party/FreeRTOS/Source/portable/GCC/ARM_CM4F/portmacro.h **** 	(
 2725              		.loc 2 195 0 discriminator 1
 2726              		.syntax unified
 2727              	@ 195 "Firmware/Middlewares/Third_Party/FreeRTOS/Source/portable/GCC/ARM_CM4F/portmacro.h" 1
 2728 00e0 4FF05003 			mov r3, #80												
 2729 00e4 83F31188 		msr basepri, r3											
 2730 00e8 BFF36F8F 		isb														
 2731 00ec BFF34F8F 		dsb														
 2732              	
 2733              	@ 0 "" 2
 2734              		.thumb
 2735              		.syntax unified
 2736 00f0 7B61     		str	r3, [r7, #20]
 2737              	.L196:
 2738              	.LBE193:
 2739              	.LBE192:
 2740              		.loc 1 1472 0 discriminator 4
 2741 00f2 FEE7     		b	.L196
 2742              	.L195:
1473:Firmware/Middlewares/Third_Party/FreeRTOS/Source/queue.c **** 					}
1474:Firmware/Middlewares/Third_Party/FreeRTOS/Source/queue.c **** 					#endif /* configUSE_MUTEXES */
1475:Firmware/Middlewares/Third_Party/FreeRTOS/Source/queue.c **** 
1476:Firmware/Middlewares/Third_Party/FreeRTOS/Source/queue.c **** 					/* The semaphore count was 0 and no block time is specified
1477:Firmware/Middlewares/Third_Party/FreeRTOS/Source/queue.c **** 					(or the block time has expired) so exit now. */
1478:Firmware/Middlewares/Third_Party/FreeRTOS/Source/queue.c **** 					taskEXIT_CRITICAL();
 2743              		.loc 1 1478 0
 2744 00f4 FFF7FEFF 		bl	vPortExitCritical
1479:Firmware/Middlewares/Third_Party/FreeRTOS/Source/queue.c **** 					traceQUEUE_RECEIVE_FAILED( pxQueue );
1480:Firmware/Middlewares/Third_Party/FreeRTOS/Source/queue.c **** 					return errQUEUE_EMPTY;
 2745              		.loc 1 1480 0
 2746 00f8 0023     		movs	r3, #0
 2747 00fa 82E0     		b	.L206
 2748              	.L194:
1481:Firmware/Middlewares/Third_Party/FreeRTOS/Source/queue.c **** 				}
1482:Firmware/Middlewares/Third_Party/FreeRTOS/Source/queue.c **** 				else if( xEntryTimeSet == pdFALSE )
 2749              		.loc 1 1482 0
 2750 00fc 7B6B     		ldr	r3, [r7, #52]
 2751 00fe 002B     		cmp	r3, #0
 2752 0100 06D1     		bne	.L197
1483:Firmware/Middlewares/Third_Party/FreeRTOS/Source/queue.c **** 				{
1484:Firmware/Middlewares/Third_Party/FreeRTOS/Source/queue.c **** 					/* The semaphore count was 0 and a block time was specified
1485:Firmware/Middlewares/Third_Party/FreeRTOS/Source/queue.c **** 					so configure the timeout structure ready to block. */
1486:Firmware/Middlewares/Third_Party/FreeRTOS/Source/queue.c **** 					vTaskInternalSetTimeOutState( &xTimeOut );
 2753              		.loc 1 1486 0
ARM GAS  /tmp/ccwOJcWw.s 			page 79


 2754 0102 07F10C03 		add	r3, r7, #12
 2755 0106 1846     		mov	r0, r3
 2756 0108 FFF7FEFF 		bl	vTaskInternalSetTimeOutState
1487:Firmware/Middlewares/Third_Party/FreeRTOS/Source/queue.c **** 					xEntryTimeSet = pdTRUE;
 2757              		.loc 1 1487 0
 2758 010c 0123     		movs	r3, #1
 2759 010e 7B63     		str	r3, [r7, #52]
 2760              	.L197:
 2761              	.LBE191:
1488:Firmware/Middlewares/Third_Party/FreeRTOS/Source/queue.c **** 				}
1489:Firmware/Middlewares/Third_Party/FreeRTOS/Source/queue.c **** 				else
1490:Firmware/Middlewares/Third_Party/FreeRTOS/Source/queue.c **** 				{
1491:Firmware/Middlewares/Third_Party/FreeRTOS/Source/queue.c **** 					/* Entry time was already set. */
1492:Firmware/Middlewares/Third_Party/FreeRTOS/Source/queue.c **** 					mtCOVERAGE_TEST_MARKER();
1493:Firmware/Middlewares/Third_Party/FreeRTOS/Source/queue.c **** 				}
1494:Firmware/Middlewares/Third_Party/FreeRTOS/Source/queue.c **** 			}
1495:Firmware/Middlewares/Third_Party/FreeRTOS/Source/queue.c **** 		}
1496:Firmware/Middlewares/Third_Party/FreeRTOS/Source/queue.c **** 		taskEXIT_CRITICAL();
 2762              		.loc 1 1496 0
 2763 0110 FFF7FEFF 		bl	vPortExitCritical
1497:Firmware/Middlewares/Third_Party/FreeRTOS/Source/queue.c **** 
1498:Firmware/Middlewares/Third_Party/FreeRTOS/Source/queue.c **** 		/* Interrupts and other tasks can give to and take from the semaphore
1499:Firmware/Middlewares/Third_Party/FreeRTOS/Source/queue.c **** 		now the critical section has been exited. */
1500:Firmware/Middlewares/Third_Party/FreeRTOS/Source/queue.c **** 
1501:Firmware/Middlewares/Third_Party/FreeRTOS/Source/queue.c **** 		vTaskSuspendAll();
 2764              		.loc 1 1501 0
 2765 0114 FFF7FEFF 		bl	vTaskSuspendAll
1502:Firmware/Middlewares/Third_Party/FreeRTOS/Source/queue.c **** 		prvLockQueue( pxQueue );
 2766              		.loc 1 1502 0
 2767 0118 FFF7FEFF 		bl	vPortEnterCritical
 2768 011c FB6A     		ldr	r3, [r7, #44]
 2769 011e 93F84430 		ldrb	r3, [r3, #68]
 2770 0122 5BB2     		sxtb	r3, r3
 2771 0124 B3F1FF3F 		cmp	r3, #-1
 2772 0128 03D1     		bne	.L198
 2773              		.loc 1 1502 0 is_stmt 0 discriminator 1
 2774 012a FB6A     		ldr	r3, [r7, #44]
 2775 012c 0022     		movs	r2, #0
 2776 012e 83F84420 		strb	r2, [r3, #68]
 2777              	.L198:
 2778              		.loc 1 1502 0 discriminator 3
 2779 0132 FB6A     		ldr	r3, [r7, #44]
 2780 0134 93F84530 		ldrb	r3, [r3, #69]
 2781 0138 5BB2     		sxtb	r3, r3
 2782 013a B3F1FF3F 		cmp	r3, #-1
 2783 013e 03D1     		bne	.L199
 2784              		.loc 1 1502 0 discriminator 4
 2785 0140 FB6A     		ldr	r3, [r7, #44]
 2786 0142 0022     		movs	r2, #0
 2787 0144 83F84520 		strb	r2, [r3, #69]
 2788              	.L199:
 2789              		.loc 1 1502 0 discriminator 6
 2790 0148 FFF7FEFF 		bl	vPortExitCritical
1503:Firmware/Middlewares/Third_Party/FreeRTOS/Source/queue.c **** 
1504:Firmware/Middlewares/Third_Party/FreeRTOS/Source/queue.c **** 		/* Update the timeout state to see if it has expired yet. */
1505:Firmware/Middlewares/Third_Party/FreeRTOS/Source/queue.c **** 		if( xTaskCheckForTimeOut( &xTimeOut, &xTicksToWait ) == pdFALSE )
 2791              		.loc 1 1505 0 is_stmt 1 discriminator 6
ARM GAS  /tmp/ccwOJcWw.s 			page 80


 2792 014c 3A46     		mov	r2, r7
 2793 014e 07F10C03 		add	r3, r7, #12
 2794 0152 1146     		mov	r1, r2
 2795 0154 1846     		mov	r0, r3
 2796 0156 FFF7FEFF 		bl	xTaskCheckForTimeOut
 2797 015a 0346     		mov	r3, r0
 2798 015c 002B     		cmp	r3, #0
 2799 015e 32D1     		bne	.L200
1506:Firmware/Middlewares/Third_Party/FreeRTOS/Source/queue.c **** 		{
1507:Firmware/Middlewares/Third_Party/FreeRTOS/Source/queue.c **** 			/* A block time is specified and not expired.  If the semaphore
1508:Firmware/Middlewares/Third_Party/FreeRTOS/Source/queue.c **** 			count is 0 then enter the Blocked state to wait for a semaphore to
1509:Firmware/Middlewares/Third_Party/FreeRTOS/Source/queue.c **** 			become available.  As semaphores are implemented with queues the
1510:Firmware/Middlewares/Third_Party/FreeRTOS/Source/queue.c **** 			queue being empty is equivalent to the semaphore count being 0. */
1511:Firmware/Middlewares/Third_Party/FreeRTOS/Source/queue.c **** 			if( prvIsQueueEmpty( pxQueue ) != pdFALSE )
 2800              		.loc 1 1511 0
 2801 0160 F86A     		ldr	r0, [r7, #44]
 2802 0162 FFF7FEFF 		bl	prvIsQueueEmpty
 2803 0166 0346     		mov	r3, r0
 2804 0168 002B     		cmp	r3, #0
 2805 016a 26D0     		beq	.L201
1512:Firmware/Middlewares/Third_Party/FreeRTOS/Source/queue.c **** 			{
1513:Firmware/Middlewares/Third_Party/FreeRTOS/Source/queue.c **** 				traceBLOCKING_ON_QUEUE_RECEIVE( pxQueue );
1514:Firmware/Middlewares/Third_Party/FreeRTOS/Source/queue.c **** 
1515:Firmware/Middlewares/Third_Party/FreeRTOS/Source/queue.c **** 				#if ( configUSE_MUTEXES == 1 )
1516:Firmware/Middlewares/Third_Party/FreeRTOS/Source/queue.c **** 				{
1517:Firmware/Middlewares/Third_Party/FreeRTOS/Source/queue.c **** 					if( pxQueue->uxQueueType == queueQUEUE_IS_MUTEX )
 2806              		.loc 1 1517 0
 2807 016c FB6A     		ldr	r3, [r7, #44]
 2808 016e 1B68     		ldr	r3, [r3]
 2809 0170 002B     		cmp	r3, #0
 2810 0172 09D1     		bne	.L202
1518:Firmware/Middlewares/Third_Party/FreeRTOS/Source/queue.c **** 					{
1519:Firmware/Middlewares/Third_Party/FreeRTOS/Source/queue.c **** 						taskENTER_CRITICAL();
 2811              		.loc 1 1519 0
 2812 0174 FFF7FEFF 		bl	vPortEnterCritical
1520:Firmware/Middlewares/Third_Party/FreeRTOS/Source/queue.c **** 						{
1521:Firmware/Middlewares/Third_Party/FreeRTOS/Source/queue.c **** 							xInheritanceOccurred = xTaskPriorityInherit( ( void * ) pxQueue->pxMutexHolder );
 2813              		.loc 1 1521 0
 2814 0178 FB6A     		ldr	r3, [r7, #44]
 2815 017a 5B68     		ldr	r3, [r3, #4]
 2816 017c 1846     		mov	r0, r3
 2817 017e FFF7FEFF 		bl	xTaskPriorityInherit
 2818 0182 3863     		str	r0, [r7, #48]
1522:Firmware/Middlewares/Third_Party/FreeRTOS/Source/queue.c **** 						}
1523:Firmware/Middlewares/Third_Party/FreeRTOS/Source/queue.c **** 						taskEXIT_CRITICAL();
 2819              		.loc 1 1523 0
 2820 0184 FFF7FEFF 		bl	vPortExitCritical
 2821              	.L202:
1524:Firmware/Middlewares/Third_Party/FreeRTOS/Source/queue.c **** 					}
1525:Firmware/Middlewares/Third_Party/FreeRTOS/Source/queue.c **** 					else
1526:Firmware/Middlewares/Third_Party/FreeRTOS/Source/queue.c **** 					{
1527:Firmware/Middlewares/Third_Party/FreeRTOS/Source/queue.c **** 						mtCOVERAGE_TEST_MARKER();
1528:Firmware/Middlewares/Third_Party/FreeRTOS/Source/queue.c **** 					}
1529:Firmware/Middlewares/Third_Party/FreeRTOS/Source/queue.c **** 				}
1530:Firmware/Middlewares/Third_Party/FreeRTOS/Source/queue.c **** 				#endif
1531:Firmware/Middlewares/Third_Party/FreeRTOS/Source/queue.c **** 
1532:Firmware/Middlewares/Third_Party/FreeRTOS/Source/queue.c **** 				vTaskPlaceOnEventList( &( pxQueue->xTasksWaitingToReceive ), xTicksToWait );
ARM GAS  /tmp/ccwOJcWw.s 			page 81


 2822              		.loc 1 1532 0
 2823 0188 FB6A     		ldr	r3, [r7, #44]
 2824 018a 2433     		adds	r3, r3, #36
 2825 018c 3A68     		ldr	r2, [r7]
 2826 018e 1146     		mov	r1, r2
 2827 0190 1846     		mov	r0, r3
 2828 0192 FFF7FEFF 		bl	vTaskPlaceOnEventList
1533:Firmware/Middlewares/Third_Party/FreeRTOS/Source/queue.c **** 				prvUnlockQueue( pxQueue );
 2829              		.loc 1 1533 0
 2830 0196 F86A     		ldr	r0, [r7, #44]
 2831 0198 FFF7FEFF 		bl	prvUnlockQueue
1534:Firmware/Middlewares/Third_Party/FreeRTOS/Source/queue.c **** 				if( xTaskResumeAll() == pdFALSE )
 2832              		.loc 1 1534 0
 2833 019c FFF7FEFF 		bl	xTaskResumeAll
 2834 01a0 0346     		mov	r3, r0
 2835 01a2 002B     		cmp	r3, #0
 2836 01a4 7FF469AF 		bne	.L188
1535:Firmware/Middlewares/Third_Party/FreeRTOS/Source/queue.c **** 				{
1536:Firmware/Middlewares/Third_Party/FreeRTOS/Source/queue.c **** 					portYIELD_WITHIN_API();
 2837              		.loc 1 1536 0
 2838 01a8 184B     		ldr	r3, .L207
 2839 01aa 4FF08052 		mov	r2, #268435456
 2840 01ae 1A60     		str	r2, [r3]
 2841              		.syntax unified
 2842              	@ 1536 "Firmware/Middlewares/Third_Party/FreeRTOS/Source/queue.c" 1
 2843 01b0 BFF34F8F 		dsb
 2844              	@ 0 "" 2
 2845              	@ 1536 "Firmware/Middlewares/Third_Party/FreeRTOS/Source/queue.c" 1
 2846 01b4 BFF36F8F 		isb
 2847              	@ 0 "" 2
 2848              		.thumb
 2849              		.syntax unified
 2850 01b8 5FE7     		b	.L188
 2851              	.L201:
1537:Firmware/Middlewares/Third_Party/FreeRTOS/Source/queue.c **** 				}
1538:Firmware/Middlewares/Third_Party/FreeRTOS/Source/queue.c **** 				else
1539:Firmware/Middlewares/Third_Party/FreeRTOS/Source/queue.c **** 				{
1540:Firmware/Middlewares/Third_Party/FreeRTOS/Source/queue.c **** 					mtCOVERAGE_TEST_MARKER();
1541:Firmware/Middlewares/Third_Party/FreeRTOS/Source/queue.c **** 				}
1542:Firmware/Middlewares/Third_Party/FreeRTOS/Source/queue.c **** 			}
1543:Firmware/Middlewares/Third_Party/FreeRTOS/Source/queue.c **** 			else
1544:Firmware/Middlewares/Third_Party/FreeRTOS/Source/queue.c **** 			{
1545:Firmware/Middlewares/Third_Party/FreeRTOS/Source/queue.c **** 				/* There was no timeout and the semaphore count was not 0, so
1546:Firmware/Middlewares/Third_Party/FreeRTOS/Source/queue.c **** 				attempt to take the semaphore again. */
1547:Firmware/Middlewares/Third_Party/FreeRTOS/Source/queue.c **** 				prvUnlockQueue( pxQueue );
 2852              		.loc 1 1547 0
 2853 01ba F86A     		ldr	r0, [r7, #44]
 2854 01bc FFF7FEFF 		bl	prvUnlockQueue
1548:Firmware/Middlewares/Third_Party/FreeRTOS/Source/queue.c **** 				( void ) xTaskResumeAll();
 2855              		.loc 1 1548 0
 2856 01c0 FFF7FEFF 		bl	xTaskResumeAll
 2857 01c4 59E7     		b	.L188
 2858              	.L200:
1549:Firmware/Middlewares/Third_Party/FreeRTOS/Source/queue.c **** 			}
1550:Firmware/Middlewares/Third_Party/FreeRTOS/Source/queue.c **** 		}
1551:Firmware/Middlewares/Third_Party/FreeRTOS/Source/queue.c **** 		else
1552:Firmware/Middlewares/Third_Party/FreeRTOS/Source/queue.c **** 		{
ARM GAS  /tmp/ccwOJcWw.s 			page 82


1553:Firmware/Middlewares/Third_Party/FreeRTOS/Source/queue.c **** 			/* Timed out. */
1554:Firmware/Middlewares/Third_Party/FreeRTOS/Source/queue.c **** 			prvUnlockQueue( pxQueue );
 2859              		.loc 1 1554 0
 2860 01c6 F86A     		ldr	r0, [r7, #44]
 2861 01c8 FFF7FEFF 		bl	prvUnlockQueue
1555:Firmware/Middlewares/Third_Party/FreeRTOS/Source/queue.c **** 			( void ) xTaskResumeAll();
 2862              		.loc 1 1555 0
 2863 01cc FFF7FEFF 		bl	xTaskResumeAll
1556:Firmware/Middlewares/Third_Party/FreeRTOS/Source/queue.c **** 
1557:Firmware/Middlewares/Third_Party/FreeRTOS/Source/queue.c **** 			/* If the semaphore count is 0 exit now as the timeout has
1558:Firmware/Middlewares/Third_Party/FreeRTOS/Source/queue.c **** 			expired.  Otherwise return to attempt to take the semaphore that is
1559:Firmware/Middlewares/Third_Party/FreeRTOS/Source/queue.c **** 			known to be available.  As semaphores are implemented by queues the
1560:Firmware/Middlewares/Third_Party/FreeRTOS/Source/queue.c **** 			queue being empty is equivalent to the semaphore count being 0. */
1561:Firmware/Middlewares/Third_Party/FreeRTOS/Source/queue.c **** 			if( prvIsQueueEmpty( pxQueue ) != pdFALSE )
 2864              		.loc 1 1561 0
 2865 01d0 F86A     		ldr	r0, [r7, #44]
 2866 01d2 FFF7FEFF 		bl	prvIsQueueEmpty
 2867 01d6 0346     		mov	r3, r0
 2868 01d8 002B     		cmp	r3, #0
 2869 01da 3FF44EAF 		beq	.L188
1562:Firmware/Middlewares/Third_Party/FreeRTOS/Source/queue.c **** 			{
1563:Firmware/Middlewares/Third_Party/FreeRTOS/Source/queue.c **** 				#if ( configUSE_MUTEXES == 1 )
1564:Firmware/Middlewares/Third_Party/FreeRTOS/Source/queue.c **** 				{
1565:Firmware/Middlewares/Third_Party/FreeRTOS/Source/queue.c **** 					/* xInheritanceOccurred could only have be set if
1566:Firmware/Middlewares/Third_Party/FreeRTOS/Source/queue.c **** 					pxQueue->uxQueueType == queueQUEUE_IS_MUTEX so no need to
1567:Firmware/Middlewares/Third_Party/FreeRTOS/Source/queue.c **** 					test the mutex type again to check it is actually a mutex. */
1568:Firmware/Middlewares/Third_Party/FreeRTOS/Source/queue.c **** 					if( xInheritanceOccurred != pdFALSE )
 2870              		.loc 1 1568 0
 2871 01de 3B6B     		ldr	r3, [r7, #48]
 2872 01e0 002B     		cmp	r3, #0
 2873 01e2 0DD0     		beq	.L205
1569:Firmware/Middlewares/Third_Party/FreeRTOS/Source/queue.c **** 					{
1570:Firmware/Middlewares/Third_Party/FreeRTOS/Source/queue.c **** 						taskENTER_CRITICAL();
 2874              		.loc 1 1570 0
 2875 01e4 FFF7FEFF 		bl	vPortEnterCritical
 2876              	.LBB194:
1571:Firmware/Middlewares/Third_Party/FreeRTOS/Source/queue.c **** 						{
1572:Firmware/Middlewares/Third_Party/FreeRTOS/Source/queue.c **** 							UBaseType_t uxHighestWaitingPriority;
1573:Firmware/Middlewares/Third_Party/FreeRTOS/Source/queue.c **** 
1574:Firmware/Middlewares/Third_Party/FreeRTOS/Source/queue.c **** 							/* This task blocking on the mutex caused another
1575:Firmware/Middlewares/Third_Party/FreeRTOS/Source/queue.c **** 							task to inherit this task's priority.  Now this task
1576:Firmware/Middlewares/Third_Party/FreeRTOS/Source/queue.c **** 							has timed out the priority should be disinherited
1577:Firmware/Middlewares/Third_Party/FreeRTOS/Source/queue.c **** 							again, but only as low as the next highest priority
1578:Firmware/Middlewares/Third_Party/FreeRTOS/Source/queue.c **** 							task that is waiting for the same mutex. */
1579:Firmware/Middlewares/Third_Party/FreeRTOS/Source/queue.c **** 							uxHighestWaitingPriority = prvGetDisinheritPriorityAfterTimeout( pxQueue );
 2877              		.loc 1 1579 0
 2878 01e8 F86A     		ldr	r0, [r7, #44]
 2879 01ea FFF7FEFF 		bl	prvGetDisinheritPriorityAfterTimeout
 2880 01ee 7862     		str	r0, [r7, #36]
1580:Firmware/Middlewares/Third_Party/FreeRTOS/Source/queue.c **** 							vTaskPriorityDisinheritAfterTimeout( ( void * ) pxQueue->pxMutexHolder, uxHighestWaitingPrio
 2881              		.loc 1 1580 0
 2882 01f0 FB6A     		ldr	r3, [r7, #44]
 2883 01f2 5B68     		ldr	r3, [r3, #4]
 2884 01f4 796A     		ldr	r1, [r7, #36]
 2885 01f6 1846     		mov	r0, r3
 2886 01f8 FFF7FEFF 		bl	vTaskPriorityDisinheritAfterTimeout
 2887              	.LBE194:
ARM GAS  /tmp/ccwOJcWw.s 			page 83


1581:Firmware/Middlewares/Third_Party/FreeRTOS/Source/queue.c **** 						}
1582:Firmware/Middlewares/Third_Party/FreeRTOS/Source/queue.c **** 						taskEXIT_CRITICAL();
 2888              		.loc 1 1582 0
 2889 01fc FFF7FEFF 		bl	vPortExitCritical
 2890              	.L205:
1583:Firmware/Middlewares/Third_Party/FreeRTOS/Source/queue.c **** 					}
1584:Firmware/Middlewares/Third_Party/FreeRTOS/Source/queue.c **** 				}
1585:Firmware/Middlewares/Third_Party/FreeRTOS/Source/queue.c **** 				#endif /* configUSE_MUTEXES */
1586:Firmware/Middlewares/Third_Party/FreeRTOS/Source/queue.c **** 
1587:Firmware/Middlewares/Third_Party/FreeRTOS/Source/queue.c **** 				traceQUEUE_RECEIVE_FAILED( pxQueue );
1588:Firmware/Middlewares/Third_Party/FreeRTOS/Source/queue.c **** 				return errQUEUE_EMPTY;
 2891              		.loc 1 1588 0
 2892 0200 0023     		movs	r3, #0
 2893              	.L206:
1589:Firmware/Middlewares/Third_Party/FreeRTOS/Source/queue.c **** 			}
1590:Firmware/Middlewares/Third_Party/FreeRTOS/Source/queue.c **** 			else
1591:Firmware/Middlewares/Third_Party/FreeRTOS/Source/queue.c **** 			{
1592:Firmware/Middlewares/Third_Party/FreeRTOS/Source/queue.c **** 				mtCOVERAGE_TEST_MARKER();
1593:Firmware/Middlewares/Third_Party/FreeRTOS/Source/queue.c **** 			}
1594:Firmware/Middlewares/Third_Party/FreeRTOS/Source/queue.c **** 		}
1595:Firmware/Middlewares/Third_Party/FreeRTOS/Source/queue.c **** 	}
1596:Firmware/Middlewares/Third_Party/FreeRTOS/Source/queue.c **** }
 2894              		.loc 1 1596 0 discriminator 7
 2895 0202 1846     		mov	r0, r3
 2896 0204 3837     		adds	r7, r7, #56
 2897              	.LCFI89:
 2898              		.cfi_def_cfa_offset 8
 2899 0206 BD46     		mov	sp, r7
 2900              	.LCFI90:
 2901              		.cfi_def_cfa_register 13
 2902              		@ sp needed
 2903 0208 80BD     		pop	{r7, pc}
 2904              	.L208:
 2905 020a 00BF     		.align	2
 2906              	.L207:
 2907 020c 04ED00E0 		.word	-536810236
 2908              		.cfi_endproc
 2909              	.LFE21:
 2911              		.section	.text.xQueuePeek,"ax",%progbits
 2912              		.align	1
 2913              		.global	xQueuePeek
 2914              		.syntax unified
 2915              		.thumb
 2916              		.thumb_func
 2917              		.fpu fpv4-sp-d16
 2919              	xQueuePeek:
 2920              	.LFB22:
1597:Firmware/Middlewares/Third_Party/FreeRTOS/Source/queue.c **** /*-----------------------------------------------------------*/
1598:Firmware/Middlewares/Third_Party/FreeRTOS/Source/queue.c **** 
1599:Firmware/Middlewares/Third_Party/FreeRTOS/Source/queue.c **** BaseType_t xQueuePeek( QueueHandle_t xQueue, void * const pvBuffer, TickType_t xTicksToWait )
1600:Firmware/Middlewares/Third_Party/FreeRTOS/Source/queue.c **** {
 2921              		.loc 1 1600 0
 2922              		.cfi_startproc
 2923              		@ args = 0, pretend = 0, frame = 56
 2924              		@ frame_needed = 1, uses_anonymous_args = 0
 2925 0000 80B5     		push	{r7, lr}
 2926              	.LCFI91:
ARM GAS  /tmp/ccwOJcWw.s 			page 84


 2927              		.cfi_def_cfa_offset 8
 2928              		.cfi_offset 7, -8
 2929              		.cfi_offset 14, -4
 2930 0002 8EB0     		sub	sp, sp, #56
 2931              	.LCFI92:
 2932              		.cfi_def_cfa_offset 64
 2933 0004 00AF     		add	r7, sp, #0
 2934              	.LCFI93:
 2935              		.cfi_def_cfa_register 7
 2936 0006 F860     		str	r0, [r7, #12]
 2937 0008 B960     		str	r1, [r7, #8]
 2938 000a 7A60     		str	r2, [r7, #4]
1601:Firmware/Middlewares/Third_Party/FreeRTOS/Source/queue.c **** BaseType_t xEntryTimeSet = pdFALSE;
 2939              		.loc 1 1601 0
 2940 000c 0023     		movs	r3, #0
 2941 000e 7B63     		str	r3, [r7, #52]
1602:Firmware/Middlewares/Third_Party/FreeRTOS/Source/queue.c **** TimeOut_t xTimeOut;
1603:Firmware/Middlewares/Third_Party/FreeRTOS/Source/queue.c **** int8_t *pcOriginalReadPosition;
1604:Firmware/Middlewares/Third_Party/FreeRTOS/Source/queue.c **** Queue_t * const pxQueue = ( Queue_t * ) xQueue;
 2942              		.loc 1 1604 0
 2943 0010 FB68     		ldr	r3, [r7, #12]
 2944 0012 3B63     		str	r3, [r7, #48]
1605:Firmware/Middlewares/Third_Party/FreeRTOS/Source/queue.c **** 
1606:Firmware/Middlewares/Third_Party/FreeRTOS/Source/queue.c **** 	/* Check the pointer is not NULL. */
1607:Firmware/Middlewares/Third_Party/FreeRTOS/Source/queue.c **** 	configASSERT( ( pxQueue ) );
 2945              		.loc 1 1607 0
 2946 0014 3B6B     		ldr	r3, [r7, #48]
 2947 0016 002B     		cmp	r3, #0
 2948 0018 09D1     		bne	.L210
 2949              	.LBB195:
 2950              	.LBB196:
 195:Firmware/Middlewares/Third_Party/FreeRTOS/Source/portable/GCC/ARM_CM4F/portmacro.h **** 	(
 2951              		.loc 2 195 0 discriminator 1
 2952              		.syntax unified
 2953              	@ 195 "Firmware/Middlewares/Third_Party/FreeRTOS/Source/portable/GCC/ARM_CM4F/portmacro.h" 1
 2954 001a 4FF05003 			mov r3, #80												
 2955 001e 83F31188 		msr basepri, r3											
 2956 0022 BFF36F8F 		isb														
 2957 0026 BFF34F8F 		dsb														
 2958              	
 2959              	@ 0 "" 2
 2960              		.thumb
 2961              		.syntax unified
 2962 002a 7B62     		str	r3, [r7, #36]
 2963              	.L211:
 2964              	.LBE196:
 2965              	.LBE195:
 2966              		.loc 1 1607 0 discriminator 1
 2967 002c FEE7     		b	.L211
 2968              	.L210:
1608:Firmware/Middlewares/Third_Party/FreeRTOS/Source/queue.c **** 
1609:Firmware/Middlewares/Third_Party/FreeRTOS/Source/queue.c **** 	/* The buffer into which data is received can only be NULL if the data size
1610:Firmware/Middlewares/Third_Party/FreeRTOS/Source/queue.c **** 	is zero (so no data is copied into the buffer. */
1611:Firmware/Middlewares/Third_Party/FreeRTOS/Source/queue.c **** 	configASSERT( !( ( ( pvBuffer ) == NULL ) && ( ( pxQueue )->uxItemSize != ( UBaseType_t ) 0U ) ) )
 2969              		.loc 1 1611 0
 2970 002e BB68     		ldr	r3, [r7, #8]
 2971 0030 002B     		cmp	r3, #0
ARM GAS  /tmp/ccwOJcWw.s 			page 85


 2972 0032 03D1     		bne	.L212
 2973              		.loc 1 1611 0 is_stmt 0 discriminator 2
 2974 0034 3B6B     		ldr	r3, [r7, #48]
 2975 0036 1B6C     		ldr	r3, [r3, #64]
 2976 0038 002B     		cmp	r3, #0
 2977 003a 01D1     		bne	.L213
 2978              	.L212:
 2979              		.loc 1 1611 0 discriminator 3
 2980 003c 0123     		movs	r3, #1
 2981 003e 00E0     		b	.L214
 2982              	.L213:
 2983              		.loc 1 1611 0 discriminator 4
 2984 0040 0023     		movs	r3, #0
 2985              	.L214:
 2986              		.loc 1 1611 0 discriminator 6
 2987 0042 002B     		cmp	r3, #0
 2988 0044 09D1     		bne	.L215
 2989              	.LBB197:
 2990              	.LBB198:
 195:Firmware/Middlewares/Third_Party/FreeRTOS/Source/portable/GCC/ARM_CM4F/portmacro.h **** 	(
 2991              		.loc 2 195 0 is_stmt 1 discriminator 7
 2992              		.syntax unified
 2993              	@ 195 "Firmware/Middlewares/Third_Party/FreeRTOS/Source/portable/GCC/ARM_CM4F/portmacro.h" 1
 2994 0046 4FF05003 			mov r3, #80												
 2995 004a 83F31188 		msr basepri, r3											
 2996 004e BFF36F8F 		isb														
 2997 0052 BFF34F8F 		dsb														
 2998              	
 2999              	@ 0 "" 2
 3000              		.thumb
 3001              		.syntax unified
 3002 0056 3B62     		str	r3, [r7, #32]
 3003              	.L216:
 3004              	.LBE198:
 3005              	.LBE197:
 3006              		.loc 1 1611 0 discriminator 2
 3007 0058 FEE7     		b	.L216
 3008              	.L215:
1612:Firmware/Middlewares/Third_Party/FreeRTOS/Source/queue.c **** 
1613:Firmware/Middlewares/Third_Party/FreeRTOS/Source/queue.c **** 	/* Cannot block if the scheduler is suspended. */
1614:Firmware/Middlewares/Third_Party/FreeRTOS/Source/queue.c **** 	#if ( ( INCLUDE_xTaskGetSchedulerState == 1 ) || ( configUSE_TIMERS == 1 ) )
1615:Firmware/Middlewares/Third_Party/FreeRTOS/Source/queue.c **** 	{
1616:Firmware/Middlewares/Third_Party/FreeRTOS/Source/queue.c **** 		configASSERT( !( ( xTaskGetSchedulerState() == taskSCHEDULER_SUSPENDED ) && ( xTicksToWait != 0 )
 3009              		.loc 1 1616 0
 3010 005a FFF7FEFF 		bl	xTaskGetSchedulerState
 3011 005e 0346     		mov	r3, r0
 3012 0060 002B     		cmp	r3, #0
 3013 0062 02D1     		bne	.L217
 3014              		.loc 1 1616 0 is_stmt 0 discriminator 2
 3015 0064 7B68     		ldr	r3, [r7, #4]
 3016 0066 002B     		cmp	r3, #0
 3017 0068 01D1     		bne	.L218
 3018              	.L217:
 3019              		.loc 1 1616 0 discriminator 3
 3020 006a 0123     		movs	r3, #1
 3021 006c 00E0     		b	.L219
 3022              	.L218:
ARM GAS  /tmp/ccwOJcWw.s 			page 86


 3023              		.loc 1 1616 0 discriminator 4
 3024 006e 0023     		movs	r3, #0
 3025              	.L219:
 3026              		.loc 1 1616 0 discriminator 6
 3027 0070 002B     		cmp	r3, #0
 3028 0072 09D1     		bne	.L220
 3029              	.LBB199:
 3030              	.LBB200:
 195:Firmware/Middlewares/Third_Party/FreeRTOS/Source/portable/GCC/ARM_CM4F/portmacro.h **** 	(
 3031              		.loc 2 195 0 is_stmt 1 discriminator 7
 3032              		.syntax unified
 3033              	@ 195 "Firmware/Middlewares/Third_Party/FreeRTOS/Source/portable/GCC/ARM_CM4F/portmacro.h" 1
 3034 0074 4FF05003 			mov r3, #80												
 3035 0078 83F31188 		msr basepri, r3											
 3036 007c BFF36F8F 		isb														
 3037 0080 BFF34F8F 		dsb														
 3038              	
 3039              	@ 0 "" 2
 3040              		.thumb
 3041              		.syntax unified
 3042 0084 FB61     		str	r3, [r7, #28]
 3043              	.L221:
 3044              	.LBE200:
 3045              	.LBE199:
 3046              		.loc 1 1616 0 discriminator 3
 3047 0086 FEE7     		b	.L221
 3048              	.L220:
1617:Firmware/Middlewares/Third_Party/FreeRTOS/Source/queue.c **** 	}
1618:Firmware/Middlewares/Third_Party/FreeRTOS/Source/queue.c **** 	#endif
1619:Firmware/Middlewares/Third_Party/FreeRTOS/Source/queue.c **** 
1620:Firmware/Middlewares/Third_Party/FreeRTOS/Source/queue.c **** 
1621:Firmware/Middlewares/Third_Party/FreeRTOS/Source/queue.c **** 	/* This function relaxes the coding standard somewhat to allow return
1622:Firmware/Middlewares/Third_Party/FreeRTOS/Source/queue.c **** 	statements within the function itself.  This is done in the interest
1623:Firmware/Middlewares/Third_Party/FreeRTOS/Source/queue.c **** 	of execution time efficiency. */
1624:Firmware/Middlewares/Third_Party/FreeRTOS/Source/queue.c **** 
1625:Firmware/Middlewares/Third_Party/FreeRTOS/Source/queue.c **** 	for( ;; )
1626:Firmware/Middlewares/Third_Party/FreeRTOS/Source/queue.c **** 	{
1627:Firmware/Middlewares/Third_Party/FreeRTOS/Source/queue.c **** 		taskENTER_CRITICAL();
 3049              		.loc 1 1627 0
 3050 0088 FFF7FEFF 		bl	vPortEnterCritical
 3051              	.LBB201:
1628:Firmware/Middlewares/Third_Party/FreeRTOS/Source/queue.c **** 		{
1629:Firmware/Middlewares/Third_Party/FreeRTOS/Source/queue.c **** 			const UBaseType_t uxMessagesWaiting = pxQueue->uxMessagesWaiting;
 3052              		.loc 1 1629 0
 3053 008c 3B6B     		ldr	r3, [r7, #48]
 3054 008e 9B6B     		ldr	r3, [r3, #56]
 3055 0090 FB62     		str	r3, [r7, #44]
1630:Firmware/Middlewares/Third_Party/FreeRTOS/Source/queue.c **** 
1631:Firmware/Middlewares/Third_Party/FreeRTOS/Source/queue.c **** 			/* Is there data in the queue now?  To be running the calling task
1632:Firmware/Middlewares/Third_Party/FreeRTOS/Source/queue.c **** 			must be the highest priority task wanting to access the queue. */
1633:Firmware/Middlewares/Third_Party/FreeRTOS/Source/queue.c **** 			if( uxMessagesWaiting > ( UBaseType_t ) 0 )
 3056              		.loc 1 1633 0
 3057 0092 FB6A     		ldr	r3, [r7, #44]
 3058 0094 002B     		cmp	r3, #0
 3059 0096 21D0     		beq	.L222
1634:Firmware/Middlewares/Third_Party/FreeRTOS/Source/queue.c **** 			{
1635:Firmware/Middlewares/Third_Party/FreeRTOS/Source/queue.c **** 				/* Remember the read position so it can be reset after the data
ARM GAS  /tmp/ccwOJcWw.s 			page 87


1636:Firmware/Middlewares/Third_Party/FreeRTOS/Source/queue.c **** 				is read from the queue as this function is only peeking the
1637:Firmware/Middlewares/Third_Party/FreeRTOS/Source/queue.c **** 				data, not removing it. */
1638:Firmware/Middlewares/Third_Party/FreeRTOS/Source/queue.c **** 				pcOriginalReadPosition = pxQueue->u.pcReadFrom;
 3060              		.loc 1 1638 0
 3061 0098 3B6B     		ldr	r3, [r7, #48]
 3062 009a DB68     		ldr	r3, [r3, #12]
 3063 009c BB62     		str	r3, [r7, #40]
1639:Firmware/Middlewares/Third_Party/FreeRTOS/Source/queue.c **** 
1640:Firmware/Middlewares/Third_Party/FreeRTOS/Source/queue.c **** 				prvCopyDataFromQueue( pxQueue, pvBuffer );
 3064              		.loc 1 1640 0
 3065 009e B968     		ldr	r1, [r7, #8]
 3066 00a0 386B     		ldr	r0, [r7, #48]
 3067 00a2 FFF7FEFF 		bl	prvCopyDataFromQueue
1641:Firmware/Middlewares/Third_Party/FreeRTOS/Source/queue.c **** 				traceQUEUE_PEEK( pxQueue );
1642:Firmware/Middlewares/Third_Party/FreeRTOS/Source/queue.c **** 
1643:Firmware/Middlewares/Third_Party/FreeRTOS/Source/queue.c **** 				/* The data is not being removed, so reset the read pointer. */
1644:Firmware/Middlewares/Third_Party/FreeRTOS/Source/queue.c **** 				pxQueue->u.pcReadFrom = pcOriginalReadPosition;
 3068              		.loc 1 1644 0
 3069 00a6 3B6B     		ldr	r3, [r7, #48]
 3070 00a8 BA6A     		ldr	r2, [r7, #40]
 3071 00aa DA60     		str	r2, [r3, #12]
1645:Firmware/Middlewares/Third_Party/FreeRTOS/Source/queue.c **** 
1646:Firmware/Middlewares/Third_Party/FreeRTOS/Source/queue.c **** 				/* The data is being left in the queue, so see if there are
1647:Firmware/Middlewares/Third_Party/FreeRTOS/Source/queue.c **** 				any other tasks waiting for the data. */
1648:Firmware/Middlewares/Third_Party/FreeRTOS/Source/queue.c **** 				if( listLIST_IS_EMPTY( &( pxQueue->xTasksWaitingToReceive ) ) == pdFALSE )
 3072              		.loc 1 1648 0
 3073 00ac 3B6B     		ldr	r3, [r7, #48]
 3074 00ae 5B6A     		ldr	r3, [r3, #36]
 3075 00b0 002B     		cmp	r3, #0
 3076 00b2 0FD0     		beq	.L223
1649:Firmware/Middlewares/Third_Party/FreeRTOS/Source/queue.c **** 				{
1650:Firmware/Middlewares/Third_Party/FreeRTOS/Source/queue.c **** 					if( xTaskRemoveFromEventList( &( pxQueue->xTasksWaitingToReceive ) ) != pdFALSE )
 3077              		.loc 1 1650 0
 3078 00b4 3B6B     		ldr	r3, [r7, #48]
 3079 00b6 2433     		adds	r3, r3, #36
 3080 00b8 1846     		mov	r0, r3
 3081 00ba FFF7FEFF 		bl	xTaskRemoveFromEventList
 3082 00be 0346     		mov	r3, r0
 3083 00c0 002B     		cmp	r3, #0
 3084 00c2 07D0     		beq	.L223
1651:Firmware/Middlewares/Third_Party/FreeRTOS/Source/queue.c **** 					{
1652:Firmware/Middlewares/Third_Party/FreeRTOS/Source/queue.c **** 						/* The task waiting has a higher priority than this task. */
1653:Firmware/Middlewares/Third_Party/FreeRTOS/Source/queue.c **** 						queueYIELD_IF_USING_PREEMPTION();
 3085              		.loc 1 1653 0
 3086 00c4 3C4B     		ldr	r3, .L234
 3087 00c6 4FF08052 		mov	r2, #268435456
 3088 00ca 1A60     		str	r2, [r3]
 3089              		.syntax unified
 3090              	@ 1653 "Firmware/Middlewares/Third_Party/FreeRTOS/Source/queue.c" 1
 3091 00cc BFF34F8F 		dsb
 3092              	@ 0 "" 2
 3093              	@ 1653 "Firmware/Middlewares/Third_Party/FreeRTOS/Source/queue.c" 1
 3094 00d0 BFF36F8F 		isb
 3095              	@ 0 "" 2
 3096              		.thumb
 3097              		.syntax unified
 3098              	.L223:
ARM GAS  /tmp/ccwOJcWw.s 			page 88


1654:Firmware/Middlewares/Third_Party/FreeRTOS/Source/queue.c **** 					}
1655:Firmware/Middlewares/Third_Party/FreeRTOS/Source/queue.c **** 					else
1656:Firmware/Middlewares/Third_Party/FreeRTOS/Source/queue.c **** 					{
1657:Firmware/Middlewares/Third_Party/FreeRTOS/Source/queue.c **** 						mtCOVERAGE_TEST_MARKER();
1658:Firmware/Middlewares/Third_Party/FreeRTOS/Source/queue.c **** 					}
1659:Firmware/Middlewares/Third_Party/FreeRTOS/Source/queue.c **** 				}
1660:Firmware/Middlewares/Third_Party/FreeRTOS/Source/queue.c **** 				else
1661:Firmware/Middlewares/Third_Party/FreeRTOS/Source/queue.c **** 				{
1662:Firmware/Middlewares/Third_Party/FreeRTOS/Source/queue.c **** 					mtCOVERAGE_TEST_MARKER();
1663:Firmware/Middlewares/Third_Party/FreeRTOS/Source/queue.c **** 				}
1664:Firmware/Middlewares/Third_Party/FreeRTOS/Source/queue.c **** 
1665:Firmware/Middlewares/Third_Party/FreeRTOS/Source/queue.c **** 				taskEXIT_CRITICAL();
 3099              		.loc 1 1665 0
 3100 00d4 FFF7FEFF 		bl	vPortExitCritical
1666:Firmware/Middlewares/Third_Party/FreeRTOS/Source/queue.c **** 				return pdPASS;
 3101              		.loc 1 1666 0
 3102 00d8 0123     		movs	r3, #1
 3103 00da 69E0     		b	.L233
 3104              	.L222:
1667:Firmware/Middlewares/Third_Party/FreeRTOS/Source/queue.c **** 			}
1668:Firmware/Middlewares/Third_Party/FreeRTOS/Source/queue.c **** 			else
1669:Firmware/Middlewares/Third_Party/FreeRTOS/Source/queue.c **** 			{
1670:Firmware/Middlewares/Third_Party/FreeRTOS/Source/queue.c **** 				if( xTicksToWait == ( TickType_t ) 0 )
 3105              		.loc 1 1670 0
 3106 00dc 7B68     		ldr	r3, [r7, #4]
 3107 00de 002B     		cmp	r3, #0
 3108 00e0 03D1     		bne	.L225
1671:Firmware/Middlewares/Third_Party/FreeRTOS/Source/queue.c **** 				{
1672:Firmware/Middlewares/Third_Party/FreeRTOS/Source/queue.c **** 					/* The queue was empty and no block time is specified (or
1673:Firmware/Middlewares/Third_Party/FreeRTOS/Source/queue.c **** 					the block time has expired) so leave now. */
1674:Firmware/Middlewares/Third_Party/FreeRTOS/Source/queue.c **** 					taskEXIT_CRITICAL();
 3109              		.loc 1 1674 0
 3110 00e2 FFF7FEFF 		bl	vPortExitCritical
1675:Firmware/Middlewares/Third_Party/FreeRTOS/Source/queue.c **** 					traceQUEUE_PEEK_FAILED( pxQueue );
1676:Firmware/Middlewares/Third_Party/FreeRTOS/Source/queue.c **** 					return errQUEUE_EMPTY;
 3111              		.loc 1 1676 0
 3112 00e6 0023     		movs	r3, #0
 3113 00e8 62E0     		b	.L233
 3114              	.L225:
1677:Firmware/Middlewares/Third_Party/FreeRTOS/Source/queue.c **** 				}
1678:Firmware/Middlewares/Third_Party/FreeRTOS/Source/queue.c **** 				else if( xEntryTimeSet == pdFALSE )
 3115              		.loc 1 1678 0
 3116 00ea 7B6B     		ldr	r3, [r7, #52]
 3117 00ec 002B     		cmp	r3, #0
 3118 00ee 06D1     		bne	.L226
1679:Firmware/Middlewares/Third_Party/FreeRTOS/Source/queue.c **** 				{
1680:Firmware/Middlewares/Third_Party/FreeRTOS/Source/queue.c **** 					/* The queue was empty and a block time was specified so
1681:Firmware/Middlewares/Third_Party/FreeRTOS/Source/queue.c **** 					configure the timeout structure ready to enter the blocked
1682:Firmware/Middlewares/Third_Party/FreeRTOS/Source/queue.c **** 					state. */
1683:Firmware/Middlewares/Third_Party/FreeRTOS/Source/queue.c **** 					vTaskInternalSetTimeOutState( &xTimeOut );
 3119              		.loc 1 1683 0
 3120 00f0 07F11403 		add	r3, r7, #20
 3121 00f4 1846     		mov	r0, r3
 3122 00f6 FFF7FEFF 		bl	vTaskInternalSetTimeOutState
1684:Firmware/Middlewares/Third_Party/FreeRTOS/Source/queue.c **** 					xEntryTimeSet = pdTRUE;
 3123              		.loc 1 1684 0
 3124 00fa 0123     		movs	r3, #1
ARM GAS  /tmp/ccwOJcWw.s 			page 89


 3125 00fc 7B63     		str	r3, [r7, #52]
 3126              	.L226:
 3127              	.LBE201:
1685:Firmware/Middlewares/Third_Party/FreeRTOS/Source/queue.c **** 				}
1686:Firmware/Middlewares/Third_Party/FreeRTOS/Source/queue.c **** 				else
1687:Firmware/Middlewares/Third_Party/FreeRTOS/Source/queue.c **** 				{
1688:Firmware/Middlewares/Third_Party/FreeRTOS/Source/queue.c **** 					/* Entry time was already set. */
1689:Firmware/Middlewares/Third_Party/FreeRTOS/Source/queue.c **** 					mtCOVERAGE_TEST_MARKER();
1690:Firmware/Middlewares/Third_Party/FreeRTOS/Source/queue.c **** 				}
1691:Firmware/Middlewares/Third_Party/FreeRTOS/Source/queue.c **** 			}
1692:Firmware/Middlewares/Third_Party/FreeRTOS/Source/queue.c **** 		}
1693:Firmware/Middlewares/Third_Party/FreeRTOS/Source/queue.c **** 		taskEXIT_CRITICAL();
 3128              		.loc 1 1693 0
 3129 00fe FFF7FEFF 		bl	vPortExitCritical
1694:Firmware/Middlewares/Third_Party/FreeRTOS/Source/queue.c **** 
1695:Firmware/Middlewares/Third_Party/FreeRTOS/Source/queue.c **** 		/* Interrupts and other tasks can send to and receive from the queue
1696:Firmware/Middlewares/Third_Party/FreeRTOS/Source/queue.c **** 		now the critical section has been exited. */
1697:Firmware/Middlewares/Third_Party/FreeRTOS/Source/queue.c **** 
1698:Firmware/Middlewares/Third_Party/FreeRTOS/Source/queue.c **** 		vTaskSuspendAll();
 3130              		.loc 1 1698 0
 3131 0102 FFF7FEFF 		bl	vTaskSuspendAll
1699:Firmware/Middlewares/Third_Party/FreeRTOS/Source/queue.c **** 		prvLockQueue( pxQueue );
 3132              		.loc 1 1699 0
 3133 0106 FFF7FEFF 		bl	vPortEnterCritical
 3134 010a 3B6B     		ldr	r3, [r7, #48]
 3135 010c 93F84430 		ldrb	r3, [r3, #68]
 3136 0110 5BB2     		sxtb	r3, r3
 3137 0112 B3F1FF3F 		cmp	r3, #-1
 3138 0116 03D1     		bne	.L227
 3139              		.loc 1 1699 0 is_stmt 0 discriminator 1
 3140 0118 3B6B     		ldr	r3, [r7, #48]
 3141 011a 0022     		movs	r2, #0
 3142 011c 83F84420 		strb	r2, [r3, #68]
 3143              	.L227:
 3144              		.loc 1 1699 0 discriminator 3
 3145 0120 3B6B     		ldr	r3, [r7, #48]
 3146 0122 93F84530 		ldrb	r3, [r3, #69]
 3147 0126 5BB2     		sxtb	r3, r3
 3148 0128 B3F1FF3F 		cmp	r3, #-1
 3149 012c 03D1     		bne	.L228
 3150              		.loc 1 1699 0 discriminator 4
 3151 012e 3B6B     		ldr	r3, [r7, #48]
 3152 0130 0022     		movs	r2, #0
 3153 0132 83F84520 		strb	r2, [r3, #69]
 3154              	.L228:
 3155              		.loc 1 1699 0 discriminator 6
 3156 0136 FFF7FEFF 		bl	vPortExitCritical
1700:Firmware/Middlewares/Third_Party/FreeRTOS/Source/queue.c **** 
1701:Firmware/Middlewares/Third_Party/FreeRTOS/Source/queue.c **** 		/* Update the timeout state to see if it has expired yet. */
1702:Firmware/Middlewares/Third_Party/FreeRTOS/Source/queue.c **** 		if( xTaskCheckForTimeOut( &xTimeOut, &xTicksToWait ) == pdFALSE )
 3157              		.loc 1 1702 0 is_stmt 1 discriminator 6
 3158 013a 3A1D     		adds	r2, r7, #4
 3159 013c 07F11403 		add	r3, r7, #20
 3160 0140 1146     		mov	r1, r2
 3161 0142 1846     		mov	r0, r3
 3162 0144 FFF7FEFF 		bl	xTaskCheckForTimeOut
 3163 0148 0346     		mov	r3, r0
ARM GAS  /tmp/ccwOJcWw.s 			page 90


 3164 014a 002B     		cmp	r3, #0
 3165 014c 23D1     		bne	.L229
1703:Firmware/Middlewares/Third_Party/FreeRTOS/Source/queue.c **** 		{
1704:Firmware/Middlewares/Third_Party/FreeRTOS/Source/queue.c **** 			/* Timeout has not expired yet, check to see if there is data in the
1705:Firmware/Middlewares/Third_Party/FreeRTOS/Source/queue.c **** 			queue now, and if not enter the Blocked state to wait for data. */
1706:Firmware/Middlewares/Third_Party/FreeRTOS/Source/queue.c **** 			if( prvIsQueueEmpty( pxQueue ) != pdFALSE )
 3166              		.loc 1 1706 0
 3167 014e 386B     		ldr	r0, [r7, #48]
 3168 0150 FFF7FEFF 		bl	prvIsQueueEmpty
 3169 0154 0346     		mov	r3, r0
 3170 0156 002B     		cmp	r3, #0
 3171 0158 17D0     		beq	.L230
1707:Firmware/Middlewares/Third_Party/FreeRTOS/Source/queue.c **** 			{
1708:Firmware/Middlewares/Third_Party/FreeRTOS/Source/queue.c **** 				traceBLOCKING_ON_QUEUE_PEEK( pxQueue );
1709:Firmware/Middlewares/Third_Party/FreeRTOS/Source/queue.c **** 				vTaskPlaceOnEventList( &( pxQueue->xTasksWaitingToReceive ), xTicksToWait );
 3172              		.loc 1 1709 0
 3173 015a 3B6B     		ldr	r3, [r7, #48]
 3174 015c 2433     		adds	r3, r3, #36
 3175 015e 7A68     		ldr	r2, [r7, #4]
 3176 0160 1146     		mov	r1, r2
 3177 0162 1846     		mov	r0, r3
 3178 0164 FFF7FEFF 		bl	vTaskPlaceOnEventList
1710:Firmware/Middlewares/Third_Party/FreeRTOS/Source/queue.c **** 				prvUnlockQueue( pxQueue );
 3179              		.loc 1 1710 0
 3180 0168 386B     		ldr	r0, [r7, #48]
 3181 016a FFF7FEFF 		bl	prvUnlockQueue
1711:Firmware/Middlewares/Third_Party/FreeRTOS/Source/queue.c **** 				if( xTaskResumeAll() == pdFALSE )
 3182              		.loc 1 1711 0
 3183 016e FFF7FEFF 		bl	xTaskResumeAll
 3184 0172 0346     		mov	r3, r0
 3185 0174 002B     		cmp	r3, #0
 3186 0176 87D1     		bne	.L220
1712:Firmware/Middlewares/Third_Party/FreeRTOS/Source/queue.c **** 				{
1713:Firmware/Middlewares/Third_Party/FreeRTOS/Source/queue.c **** 					portYIELD_WITHIN_API();
 3187              		.loc 1 1713 0
 3188 0178 0F4B     		ldr	r3, .L234
 3189 017a 4FF08052 		mov	r2, #268435456
 3190 017e 1A60     		str	r2, [r3]
 3191              		.syntax unified
 3192              	@ 1713 "Firmware/Middlewares/Third_Party/FreeRTOS/Source/queue.c" 1
 3193 0180 BFF34F8F 		dsb
 3194              	@ 0 "" 2
 3195              	@ 1713 "Firmware/Middlewares/Third_Party/FreeRTOS/Source/queue.c" 1
 3196 0184 BFF36F8F 		isb
 3197              	@ 0 "" 2
 3198              		.thumb
 3199              		.syntax unified
 3200 0188 7EE7     		b	.L220
 3201              	.L230:
1714:Firmware/Middlewares/Third_Party/FreeRTOS/Source/queue.c **** 				}
1715:Firmware/Middlewares/Third_Party/FreeRTOS/Source/queue.c **** 				else
1716:Firmware/Middlewares/Third_Party/FreeRTOS/Source/queue.c **** 				{
1717:Firmware/Middlewares/Third_Party/FreeRTOS/Source/queue.c **** 					mtCOVERAGE_TEST_MARKER();
1718:Firmware/Middlewares/Third_Party/FreeRTOS/Source/queue.c **** 				}
1719:Firmware/Middlewares/Third_Party/FreeRTOS/Source/queue.c **** 			}
1720:Firmware/Middlewares/Third_Party/FreeRTOS/Source/queue.c **** 			else
1721:Firmware/Middlewares/Third_Party/FreeRTOS/Source/queue.c **** 			{
ARM GAS  /tmp/ccwOJcWw.s 			page 91


1722:Firmware/Middlewares/Third_Party/FreeRTOS/Source/queue.c **** 				/* There is data in the queue now, so don't enter the blocked
1723:Firmware/Middlewares/Third_Party/FreeRTOS/Source/queue.c **** 				state, instead return to try and obtain the data. */
1724:Firmware/Middlewares/Third_Party/FreeRTOS/Source/queue.c **** 				prvUnlockQueue( pxQueue );
 3202              		.loc 1 1724 0
 3203 018a 386B     		ldr	r0, [r7, #48]
 3204 018c FFF7FEFF 		bl	prvUnlockQueue
1725:Firmware/Middlewares/Third_Party/FreeRTOS/Source/queue.c **** 				( void ) xTaskResumeAll();
 3205              		.loc 1 1725 0
 3206 0190 FFF7FEFF 		bl	xTaskResumeAll
 3207 0194 78E7     		b	.L220
 3208              	.L229:
1726:Firmware/Middlewares/Third_Party/FreeRTOS/Source/queue.c **** 			}
1727:Firmware/Middlewares/Third_Party/FreeRTOS/Source/queue.c **** 		}
1728:Firmware/Middlewares/Third_Party/FreeRTOS/Source/queue.c **** 		else
1729:Firmware/Middlewares/Third_Party/FreeRTOS/Source/queue.c **** 		{
1730:Firmware/Middlewares/Third_Party/FreeRTOS/Source/queue.c **** 			/* The timeout has expired.  If there is still no data in the queue
1731:Firmware/Middlewares/Third_Party/FreeRTOS/Source/queue.c **** 			exit, otherwise go back and try to read the data again. */
1732:Firmware/Middlewares/Third_Party/FreeRTOS/Source/queue.c **** 			prvUnlockQueue( pxQueue );
 3209              		.loc 1 1732 0
 3210 0196 386B     		ldr	r0, [r7, #48]
 3211 0198 FFF7FEFF 		bl	prvUnlockQueue
1733:Firmware/Middlewares/Third_Party/FreeRTOS/Source/queue.c **** 			( void ) xTaskResumeAll();
 3212              		.loc 1 1733 0
 3213 019c FFF7FEFF 		bl	xTaskResumeAll
1734:Firmware/Middlewares/Third_Party/FreeRTOS/Source/queue.c **** 
1735:Firmware/Middlewares/Third_Party/FreeRTOS/Source/queue.c **** 			if( prvIsQueueEmpty( pxQueue ) != pdFALSE )
 3214              		.loc 1 1735 0
 3215 01a0 386B     		ldr	r0, [r7, #48]
 3216 01a2 FFF7FEFF 		bl	prvIsQueueEmpty
 3217 01a6 0346     		mov	r3, r0
 3218 01a8 002B     		cmp	r3, #0
 3219 01aa 3FF46DAF 		beq	.L220
1736:Firmware/Middlewares/Third_Party/FreeRTOS/Source/queue.c **** 			{
1737:Firmware/Middlewares/Third_Party/FreeRTOS/Source/queue.c **** 				traceQUEUE_PEEK_FAILED( pxQueue );
1738:Firmware/Middlewares/Third_Party/FreeRTOS/Source/queue.c **** 				return errQUEUE_EMPTY;
 3220              		.loc 1 1738 0
 3221 01ae 0023     		movs	r3, #0
 3222              	.L233:
1739:Firmware/Middlewares/Third_Party/FreeRTOS/Source/queue.c **** 			}
1740:Firmware/Middlewares/Third_Party/FreeRTOS/Source/queue.c **** 			else
1741:Firmware/Middlewares/Third_Party/FreeRTOS/Source/queue.c **** 			{
1742:Firmware/Middlewares/Third_Party/FreeRTOS/Source/queue.c **** 				mtCOVERAGE_TEST_MARKER();
1743:Firmware/Middlewares/Third_Party/FreeRTOS/Source/queue.c **** 			}
1744:Firmware/Middlewares/Third_Party/FreeRTOS/Source/queue.c **** 		}
1745:Firmware/Middlewares/Third_Party/FreeRTOS/Source/queue.c **** 	}
1746:Firmware/Middlewares/Third_Party/FreeRTOS/Source/queue.c **** }
 3223              		.loc 1 1746 0 discriminator 6
 3224 01b0 1846     		mov	r0, r3
 3225 01b2 3837     		adds	r7, r7, #56
 3226              	.LCFI94:
 3227              		.cfi_def_cfa_offset 8
 3228 01b4 BD46     		mov	sp, r7
 3229              	.LCFI95:
 3230              		.cfi_def_cfa_register 13
 3231              		@ sp needed
 3232 01b6 80BD     		pop	{r7, pc}
 3233              	.L235:
ARM GAS  /tmp/ccwOJcWw.s 			page 92


 3234              		.align	2
 3235              	.L234:
 3236 01b8 04ED00E0 		.word	-536810236
 3237              		.cfi_endproc
 3238              	.LFE22:
 3240              		.section	.text.xQueueReceiveFromISR,"ax",%progbits
 3241              		.align	1
 3242              		.global	xQueueReceiveFromISR
 3243              		.syntax unified
 3244              		.thumb
 3245              		.thumb_func
 3246              		.fpu fpv4-sp-d16
 3248              	xQueueReceiveFromISR:
 3249              	.LFB23:
1747:Firmware/Middlewares/Third_Party/FreeRTOS/Source/queue.c **** /*-----------------------------------------------------------*/
1748:Firmware/Middlewares/Third_Party/FreeRTOS/Source/queue.c **** 
1749:Firmware/Middlewares/Third_Party/FreeRTOS/Source/queue.c **** BaseType_t xQueueReceiveFromISR( QueueHandle_t xQueue, void * const pvBuffer, BaseType_t * const px
1750:Firmware/Middlewares/Third_Party/FreeRTOS/Source/queue.c **** {
 3250              		.loc 1 1750 0
 3251              		.cfi_startproc
 3252              		@ args = 0, pretend = 0, frame = 56
 3253              		@ frame_needed = 1, uses_anonymous_args = 0
 3254 0000 80B5     		push	{r7, lr}
 3255              	.LCFI96:
 3256              		.cfi_def_cfa_offset 8
 3257              		.cfi_offset 7, -8
 3258              		.cfi_offset 14, -4
 3259 0002 8EB0     		sub	sp, sp, #56
 3260              	.LCFI97:
 3261              		.cfi_def_cfa_offset 64
 3262 0004 00AF     		add	r7, sp, #0
 3263              	.LCFI98:
 3264              		.cfi_def_cfa_register 7
 3265 0006 F860     		str	r0, [r7, #12]
 3266 0008 B960     		str	r1, [r7, #8]
 3267 000a 7A60     		str	r2, [r7, #4]
1751:Firmware/Middlewares/Third_Party/FreeRTOS/Source/queue.c **** BaseType_t xReturn;
1752:Firmware/Middlewares/Third_Party/FreeRTOS/Source/queue.c **** UBaseType_t uxSavedInterruptStatus;
1753:Firmware/Middlewares/Third_Party/FreeRTOS/Source/queue.c **** Queue_t * const pxQueue = ( Queue_t * ) xQueue;
 3268              		.loc 1 1753 0
 3269 000c FB68     		ldr	r3, [r7, #12]
 3270 000e 3B63     		str	r3, [r7, #48]
1754:Firmware/Middlewares/Third_Party/FreeRTOS/Source/queue.c **** 
1755:Firmware/Middlewares/Third_Party/FreeRTOS/Source/queue.c **** 	configASSERT( pxQueue );
 3271              		.loc 1 1755 0
 3272 0010 3B6B     		ldr	r3, [r7, #48]
 3273 0012 002B     		cmp	r3, #0
 3274 0014 09D1     		bne	.L237
 3275              	.LBB202:
 3276              	.LBB203:
 195:Firmware/Middlewares/Third_Party/FreeRTOS/Source/portable/GCC/ARM_CM4F/portmacro.h **** 	(
 3277              		.loc 2 195 0 discriminator 1
 3278              		.syntax unified
 3279              	@ 195 "Firmware/Middlewares/Third_Party/FreeRTOS/Source/portable/GCC/ARM_CM4F/portmacro.h" 1
 3280 0016 4FF05003 			mov r3, #80												
 3281 001a 83F31188 		msr basepri, r3											
 3282 001e BFF36F8F 		isb														
ARM GAS  /tmp/ccwOJcWw.s 			page 93


 3283 0022 BFF34F8F 		dsb														
 3284              	
 3285              	@ 0 "" 2
 3286              		.thumb
 3287              		.syntax unified
 3288 0026 3B62     		str	r3, [r7, #32]
 3289              	.L238:
 3290              	.LBE203:
 3291              	.LBE202:
 3292              		.loc 1 1755 0 discriminator 1
 3293 0028 FEE7     		b	.L238
 3294              	.L237:
1756:Firmware/Middlewares/Third_Party/FreeRTOS/Source/queue.c **** 	configASSERT( !( ( pvBuffer == NULL ) && ( pxQueue->uxItemSize != ( UBaseType_t ) 0U ) ) );
 3295              		.loc 1 1756 0
 3296 002a BB68     		ldr	r3, [r7, #8]
 3297 002c 002B     		cmp	r3, #0
 3298 002e 03D1     		bne	.L239
 3299              		.loc 1 1756 0 is_stmt 0 discriminator 2
 3300 0030 3B6B     		ldr	r3, [r7, #48]
 3301 0032 1B6C     		ldr	r3, [r3, #64]
 3302 0034 002B     		cmp	r3, #0
 3303 0036 01D1     		bne	.L240
 3304              	.L239:
 3305              		.loc 1 1756 0 discriminator 3
 3306 0038 0123     		movs	r3, #1
 3307 003a 00E0     		b	.L241
 3308              	.L240:
 3309              		.loc 1 1756 0 discriminator 4
 3310 003c 0023     		movs	r3, #0
 3311              	.L241:
 3312              		.loc 1 1756 0 discriminator 6
 3313 003e 002B     		cmp	r3, #0
 3314 0040 09D1     		bne	.L242
 3315              	.LBB204:
 3316              	.LBB205:
 195:Firmware/Middlewares/Third_Party/FreeRTOS/Source/portable/GCC/ARM_CM4F/portmacro.h **** 	(
 3317              		.loc 2 195 0 is_stmt 1 discriminator 7
 3318              		.syntax unified
 3319              	@ 195 "Firmware/Middlewares/Third_Party/FreeRTOS/Source/portable/GCC/ARM_CM4F/portmacro.h" 1
 3320 0042 4FF05003 			mov r3, #80												
 3321 0046 83F31188 		msr basepri, r3											
 3322 004a BFF36F8F 		isb														
 3323 004e BFF34F8F 		dsb														
 3324              	
 3325              	@ 0 "" 2
 3326              		.thumb
 3327              		.syntax unified
 3328 0052 FB61     		str	r3, [r7, #28]
 3329              	.L243:
 3330              	.LBE205:
 3331              	.LBE204:
 3332              		.loc 1 1756 0 discriminator 2
 3333 0054 FEE7     		b	.L243
 3334              	.L242:
1757:Firmware/Middlewares/Third_Party/FreeRTOS/Source/queue.c **** 
1758:Firmware/Middlewares/Third_Party/FreeRTOS/Source/queue.c **** 	/* RTOS ports that support interrupt nesting have the concept of a maximum
1759:Firmware/Middlewares/Third_Party/FreeRTOS/Source/queue.c **** 	system call (or maximum API call) interrupt priority.  Interrupts that are
ARM GAS  /tmp/ccwOJcWw.s 			page 94


1760:Firmware/Middlewares/Third_Party/FreeRTOS/Source/queue.c **** 	above the maximum system call priority are kept permanently enabled, even
1761:Firmware/Middlewares/Third_Party/FreeRTOS/Source/queue.c **** 	when the RTOS kernel is in a critical section, but cannot make any calls to
1762:Firmware/Middlewares/Third_Party/FreeRTOS/Source/queue.c **** 	FreeRTOS API functions.  If configASSERT() is defined in FreeRTOSConfig.h
1763:Firmware/Middlewares/Third_Party/FreeRTOS/Source/queue.c **** 	then portASSERT_IF_INTERRUPT_PRIORITY_INVALID() will result in an assertion
1764:Firmware/Middlewares/Third_Party/FreeRTOS/Source/queue.c **** 	failure if a FreeRTOS API function is called from an interrupt that has been
1765:Firmware/Middlewares/Third_Party/FreeRTOS/Source/queue.c **** 	assigned a priority above the configured maximum system call priority.
1766:Firmware/Middlewares/Third_Party/FreeRTOS/Source/queue.c **** 	Only FreeRTOS functions that end in FromISR can be called from interrupts
1767:Firmware/Middlewares/Third_Party/FreeRTOS/Source/queue.c **** 	that have been assigned a priority at or (logically) below the maximum
1768:Firmware/Middlewares/Third_Party/FreeRTOS/Source/queue.c **** 	system call	interrupt priority.  FreeRTOS maintains a separate interrupt
1769:Firmware/Middlewares/Third_Party/FreeRTOS/Source/queue.c **** 	safe API to ensure interrupt entry is as fast and as simple as possible.
1770:Firmware/Middlewares/Third_Party/FreeRTOS/Source/queue.c **** 	More information (albeit Cortex-M specific) is provided on the following
1771:Firmware/Middlewares/Third_Party/FreeRTOS/Source/queue.c **** 	link: http://www.freertos.org/RTOS-Cortex-M3-M4.html */
1772:Firmware/Middlewares/Third_Party/FreeRTOS/Source/queue.c **** 	portASSERT_IF_INTERRUPT_PRIORITY_INVALID();
 3335              		.loc 1 1772 0
 3336 0056 FFF7FEFF 		bl	vPortValidateInterruptPriority
 3337              	.LBB206:
 3338              	.LBB207:
 211:Firmware/Middlewares/Third_Party/FreeRTOS/Source/portable/GCC/ARM_CM4F/portmacro.h **** 	(
 3339              		.loc 2 211 0
 3340              		.syntax unified
 3341              	@ 211 "Firmware/Middlewares/Third_Party/FreeRTOS/Source/portable/GCC/ARM_CM4F/portmacro.h" 1
 3342 005a EFF31182 			mrs r2, basepri											
 3343 005e 4FF05003 		mov r3, #80												
 3344 0062 83F31188 		msr basepri, r3											
 3345 0066 BFF36F8F 		isb														
 3346 006a BFF34F8F 		dsb														
 3347              	
 3348              	@ 0 "" 2
 3349              		.thumb
 3350              		.syntax unified
 3351 006e BA61     		str	r2, [r7, #24]
 3352 0070 7B61     		str	r3, [r7, #20]
 223:Firmware/Middlewares/Third_Party/FreeRTOS/Source/portable/GCC/ARM_CM4F/portmacro.h **** }
 3353              		.loc 2 223 0
 3354 0072 BB69     		ldr	r3, [r7, #24]
 3355              	.LBE207:
 3356              	.LBE206:
1773:Firmware/Middlewares/Third_Party/FreeRTOS/Source/queue.c **** 
1774:Firmware/Middlewares/Third_Party/FreeRTOS/Source/queue.c **** 	uxSavedInterruptStatus = portSET_INTERRUPT_MASK_FROM_ISR();
 3357              		.loc 1 1774 0
 3358 0074 FB62     		str	r3, [r7, #44]
 3359              	.LBB208:
1775:Firmware/Middlewares/Third_Party/FreeRTOS/Source/queue.c **** 	{
1776:Firmware/Middlewares/Third_Party/FreeRTOS/Source/queue.c **** 		const UBaseType_t uxMessagesWaiting = pxQueue->uxMessagesWaiting;
 3360              		.loc 1 1776 0
 3361 0076 3B6B     		ldr	r3, [r7, #48]
 3362 0078 9B6B     		ldr	r3, [r3, #56]
 3363 007a BB62     		str	r3, [r7, #40]
1777:Firmware/Middlewares/Third_Party/FreeRTOS/Source/queue.c **** 
1778:Firmware/Middlewares/Third_Party/FreeRTOS/Source/queue.c **** 		/* Cannot block in an ISR, so check there is data available. */
1779:Firmware/Middlewares/Third_Party/FreeRTOS/Source/queue.c **** 		if( uxMessagesWaiting > ( UBaseType_t ) 0 )
 3364              		.loc 1 1779 0
 3365 007c BB6A     		ldr	r3, [r7, #40]
 3366 007e 002B     		cmp	r3, #0
 3367 0080 2FD0     		beq	.L245
 3368              	.LBB209:
1780:Firmware/Middlewares/Third_Party/FreeRTOS/Source/queue.c **** 		{
ARM GAS  /tmp/ccwOJcWw.s 			page 95


1781:Firmware/Middlewares/Third_Party/FreeRTOS/Source/queue.c **** 			const int8_t cRxLock = pxQueue->cRxLock;
 3369              		.loc 1 1781 0
 3370 0082 3B6B     		ldr	r3, [r7, #48]
 3371 0084 93F84430 		ldrb	r3, [r3, #68]
 3372 0088 87F82730 		strb	r3, [r7, #39]
1782:Firmware/Middlewares/Third_Party/FreeRTOS/Source/queue.c **** 
1783:Firmware/Middlewares/Third_Party/FreeRTOS/Source/queue.c **** 			traceQUEUE_RECEIVE_FROM_ISR( pxQueue );
1784:Firmware/Middlewares/Third_Party/FreeRTOS/Source/queue.c **** 
1785:Firmware/Middlewares/Third_Party/FreeRTOS/Source/queue.c **** 			prvCopyDataFromQueue( pxQueue, pvBuffer );
 3373              		.loc 1 1785 0
 3374 008c B968     		ldr	r1, [r7, #8]
 3375 008e 386B     		ldr	r0, [r7, #48]
 3376 0090 FFF7FEFF 		bl	prvCopyDataFromQueue
1786:Firmware/Middlewares/Third_Party/FreeRTOS/Source/queue.c **** 			pxQueue->uxMessagesWaiting = uxMessagesWaiting - ( UBaseType_t ) 1;
 3377              		.loc 1 1786 0
 3378 0094 BB6A     		ldr	r3, [r7, #40]
 3379 0096 5A1E     		subs	r2, r3, #1
 3380 0098 3B6B     		ldr	r3, [r7, #48]
 3381 009a 9A63     		str	r2, [r3, #56]
1787:Firmware/Middlewares/Third_Party/FreeRTOS/Source/queue.c **** 
1788:Firmware/Middlewares/Third_Party/FreeRTOS/Source/queue.c **** 			/* If the queue is locked the event list will not be modified.
1789:Firmware/Middlewares/Third_Party/FreeRTOS/Source/queue.c **** 			Instead update the lock count so the task that unlocks the queue
1790:Firmware/Middlewares/Third_Party/FreeRTOS/Source/queue.c **** 			will know that an ISR has removed data while the queue was
1791:Firmware/Middlewares/Third_Party/FreeRTOS/Source/queue.c **** 			locked. */
1792:Firmware/Middlewares/Third_Party/FreeRTOS/Source/queue.c **** 			if( cRxLock == queueUNLOCKED )
 3382              		.loc 1 1792 0
 3383 009c 97F92730 		ldrsb	r3, [r7, #39]
 3384 00a0 B3F1FF3F 		cmp	r3, #-1
 3385 00a4 12D1     		bne	.L246
1793:Firmware/Middlewares/Third_Party/FreeRTOS/Source/queue.c **** 			{
1794:Firmware/Middlewares/Third_Party/FreeRTOS/Source/queue.c **** 				if( listLIST_IS_EMPTY( &( pxQueue->xTasksWaitingToSend ) ) == pdFALSE )
 3386              		.loc 1 1794 0
 3387 00a6 3B6B     		ldr	r3, [r7, #48]
 3388 00a8 1B69     		ldr	r3, [r3, #16]
 3389 00aa 002B     		cmp	r3, #0
 3390 00ac 16D0     		beq	.L247
1795:Firmware/Middlewares/Third_Party/FreeRTOS/Source/queue.c **** 				{
1796:Firmware/Middlewares/Third_Party/FreeRTOS/Source/queue.c **** 					if( xTaskRemoveFromEventList( &( pxQueue->xTasksWaitingToSend ) ) != pdFALSE )
 3391              		.loc 1 1796 0
 3392 00ae 3B6B     		ldr	r3, [r7, #48]
 3393 00b0 1033     		adds	r3, r3, #16
 3394 00b2 1846     		mov	r0, r3
 3395 00b4 FFF7FEFF 		bl	xTaskRemoveFromEventList
 3396 00b8 0346     		mov	r3, r0
 3397 00ba 002B     		cmp	r3, #0
 3398 00bc 0ED0     		beq	.L247
1797:Firmware/Middlewares/Third_Party/FreeRTOS/Source/queue.c **** 					{
1798:Firmware/Middlewares/Third_Party/FreeRTOS/Source/queue.c **** 						/* The task waiting has a higher priority than us so
1799:Firmware/Middlewares/Third_Party/FreeRTOS/Source/queue.c **** 						force a context switch. */
1800:Firmware/Middlewares/Third_Party/FreeRTOS/Source/queue.c **** 						if( pxHigherPriorityTaskWoken != NULL )
 3399              		.loc 1 1800 0
 3400 00be 7B68     		ldr	r3, [r7, #4]
 3401 00c0 002B     		cmp	r3, #0
 3402 00c2 0BD0     		beq	.L247
1801:Firmware/Middlewares/Third_Party/FreeRTOS/Source/queue.c **** 						{
1802:Firmware/Middlewares/Third_Party/FreeRTOS/Source/queue.c **** 							*pxHigherPriorityTaskWoken = pdTRUE;
 3403              		.loc 1 1802 0
ARM GAS  /tmp/ccwOJcWw.s 			page 96


 3404 00c4 7B68     		ldr	r3, [r7, #4]
 3405 00c6 0122     		movs	r2, #1
 3406 00c8 1A60     		str	r2, [r3]
 3407 00ca 07E0     		b	.L247
 3408              	.L246:
1803:Firmware/Middlewares/Third_Party/FreeRTOS/Source/queue.c **** 						}
1804:Firmware/Middlewares/Third_Party/FreeRTOS/Source/queue.c **** 						else
1805:Firmware/Middlewares/Third_Party/FreeRTOS/Source/queue.c **** 						{
1806:Firmware/Middlewares/Third_Party/FreeRTOS/Source/queue.c **** 							mtCOVERAGE_TEST_MARKER();
1807:Firmware/Middlewares/Third_Party/FreeRTOS/Source/queue.c **** 						}
1808:Firmware/Middlewares/Third_Party/FreeRTOS/Source/queue.c **** 					}
1809:Firmware/Middlewares/Third_Party/FreeRTOS/Source/queue.c **** 					else
1810:Firmware/Middlewares/Third_Party/FreeRTOS/Source/queue.c **** 					{
1811:Firmware/Middlewares/Third_Party/FreeRTOS/Source/queue.c **** 						mtCOVERAGE_TEST_MARKER();
1812:Firmware/Middlewares/Third_Party/FreeRTOS/Source/queue.c **** 					}
1813:Firmware/Middlewares/Third_Party/FreeRTOS/Source/queue.c **** 				}
1814:Firmware/Middlewares/Third_Party/FreeRTOS/Source/queue.c **** 				else
1815:Firmware/Middlewares/Third_Party/FreeRTOS/Source/queue.c **** 				{
1816:Firmware/Middlewares/Third_Party/FreeRTOS/Source/queue.c **** 					mtCOVERAGE_TEST_MARKER();
1817:Firmware/Middlewares/Third_Party/FreeRTOS/Source/queue.c **** 				}
1818:Firmware/Middlewares/Third_Party/FreeRTOS/Source/queue.c **** 			}
1819:Firmware/Middlewares/Third_Party/FreeRTOS/Source/queue.c **** 			else
1820:Firmware/Middlewares/Third_Party/FreeRTOS/Source/queue.c **** 			{
1821:Firmware/Middlewares/Third_Party/FreeRTOS/Source/queue.c **** 				/* Increment the lock count so the task that unlocks the queue
1822:Firmware/Middlewares/Third_Party/FreeRTOS/Source/queue.c **** 				knows that data was removed while it was locked. */
1823:Firmware/Middlewares/Third_Party/FreeRTOS/Source/queue.c **** 				pxQueue->cRxLock = ( int8_t ) ( cRxLock + 1 );
 3409              		.loc 1 1823 0
 3410 00cc 97F82730 		ldrb	r3, [r7, #39]	@ zero_extendqisi2
 3411 00d0 0133     		adds	r3, r3, #1
 3412 00d2 DBB2     		uxtb	r3, r3
 3413 00d4 5AB2     		sxtb	r2, r3
 3414 00d6 3B6B     		ldr	r3, [r7, #48]
 3415 00d8 83F84420 		strb	r2, [r3, #68]
 3416              	.L247:
1824:Firmware/Middlewares/Third_Party/FreeRTOS/Source/queue.c **** 			}
1825:Firmware/Middlewares/Third_Party/FreeRTOS/Source/queue.c **** 
1826:Firmware/Middlewares/Third_Party/FreeRTOS/Source/queue.c **** 			xReturn = pdPASS;
 3417              		.loc 1 1826 0
 3418 00dc 0123     		movs	r3, #1
 3419 00de 7B63     		str	r3, [r7, #52]
 3420              	.LBE209:
 3421 00e0 01E0     		b	.L248
 3422              	.L245:
1827:Firmware/Middlewares/Third_Party/FreeRTOS/Source/queue.c **** 		}
1828:Firmware/Middlewares/Third_Party/FreeRTOS/Source/queue.c **** 		else
1829:Firmware/Middlewares/Third_Party/FreeRTOS/Source/queue.c **** 		{
1830:Firmware/Middlewares/Third_Party/FreeRTOS/Source/queue.c **** 			xReturn = pdFAIL;
 3423              		.loc 1 1830 0
 3424 00e2 0023     		movs	r3, #0
 3425 00e4 7B63     		str	r3, [r7, #52]
 3426              	.L248:
 3427 00e6 FB6A     		ldr	r3, [r7, #44]
 3428 00e8 3B61     		str	r3, [r7, #16]
 3429              	.LBE208:
 3430              	.LBB210:
 3431              	.LBB211:
 3432              		.loc 2 229 0
ARM GAS  /tmp/ccwOJcWw.s 			page 97


 3433 00ea 3B69     		ldr	r3, [r7, #16]
 3434              		.syntax unified
 3435              	@ 229 "Firmware/Middlewares/Third_Party/FreeRTOS/Source/portable/GCC/ARM_CM4F/portmacro.h" 1
 3436 00ec 83F31188 			msr basepri, r3	
 3437              	@ 0 "" 2
 3438              		.thumb
 3439              		.syntax unified
 3440              	.LBE211:
 3441              	.LBE210:
1831:Firmware/Middlewares/Third_Party/FreeRTOS/Source/queue.c **** 			traceQUEUE_RECEIVE_FROM_ISR_FAILED( pxQueue );
1832:Firmware/Middlewares/Third_Party/FreeRTOS/Source/queue.c **** 		}
1833:Firmware/Middlewares/Third_Party/FreeRTOS/Source/queue.c **** 	}
1834:Firmware/Middlewares/Third_Party/FreeRTOS/Source/queue.c **** 	portCLEAR_INTERRUPT_MASK_FROM_ISR( uxSavedInterruptStatus );
1835:Firmware/Middlewares/Third_Party/FreeRTOS/Source/queue.c **** 
1836:Firmware/Middlewares/Third_Party/FreeRTOS/Source/queue.c **** 	return xReturn;
 3442              		.loc 1 1836 0
 3443 00f0 7B6B     		ldr	r3, [r7, #52]
1837:Firmware/Middlewares/Third_Party/FreeRTOS/Source/queue.c **** }
 3444              		.loc 1 1837 0
 3445 00f2 1846     		mov	r0, r3
 3446 00f4 3837     		adds	r7, r7, #56
 3447              	.LCFI99:
 3448              		.cfi_def_cfa_offset 8
 3449 00f6 BD46     		mov	sp, r7
 3450              	.LCFI100:
 3451              		.cfi_def_cfa_register 13
 3452              		@ sp needed
 3453 00f8 80BD     		pop	{r7, pc}
 3454              		.cfi_endproc
 3455              	.LFE23:
 3457              		.section	.text.xQueuePeekFromISR,"ax",%progbits
 3458              		.align	1
 3459              		.global	xQueuePeekFromISR
 3460              		.syntax unified
 3461              		.thumb
 3462              		.thumb_func
 3463              		.fpu fpv4-sp-d16
 3465              	xQueuePeekFromISR:
 3466              	.LFB24:
1838:Firmware/Middlewares/Third_Party/FreeRTOS/Source/queue.c **** /*-----------------------------------------------------------*/
1839:Firmware/Middlewares/Third_Party/FreeRTOS/Source/queue.c **** 
1840:Firmware/Middlewares/Third_Party/FreeRTOS/Source/queue.c **** BaseType_t xQueuePeekFromISR( QueueHandle_t xQueue,  void * const pvBuffer )
1841:Firmware/Middlewares/Third_Party/FreeRTOS/Source/queue.c **** {
 3467              		.loc 1 1841 0
 3468              		.cfi_startproc
 3469              		@ args = 0, pretend = 0, frame = 48
 3470              		@ frame_needed = 1, uses_anonymous_args = 0
 3471 0000 80B5     		push	{r7, lr}
 3472              	.LCFI101:
 3473              		.cfi_def_cfa_offset 8
 3474              		.cfi_offset 7, -8
 3475              		.cfi_offset 14, -4
 3476 0002 8CB0     		sub	sp, sp, #48
 3477              	.LCFI102:
 3478              		.cfi_def_cfa_offset 56
 3479 0004 00AF     		add	r7, sp, #0
 3480              	.LCFI103:
ARM GAS  /tmp/ccwOJcWw.s 			page 98


 3481              		.cfi_def_cfa_register 7
 3482 0006 7860     		str	r0, [r7, #4]
 3483 0008 3960     		str	r1, [r7]
1842:Firmware/Middlewares/Third_Party/FreeRTOS/Source/queue.c **** BaseType_t xReturn;
1843:Firmware/Middlewares/Third_Party/FreeRTOS/Source/queue.c **** UBaseType_t uxSavedInterruptStatus;
1844:Firmware/Middlewares/Third_Party/FreeRTOS/Source/queue.c **** int8_t *pcOriginalReadPosition;
1845:Firmware/Middlewares/Third_Party/FreeRTOS/Source/queue.c **** Queue_t * const pxQueue = ( Queue_t * ) xQueue;
 3484              		.loc 1 1845 0
 3485 000a 7B68     		ldr	r3, [r7, #4]
 3486 000c BB62     		str	r3, [r7, #40]
1846:Firmware/Middlewares/Third_Party/FreeRTOS/Source/queue.c **** 
1847:Firmware/Middlewares/Third_Party/FreeRTOS/Source/queue.c **** 	configASSERT( pxQueue );
 3487              		.loc 1 1847 0
 3488 000e BB6A     		ldr	r3, [r7, #40]
 3489 0010 002B     		cmp	r3, #0
 3490 0012 09D1     		bne	.L251
 3491              	.LBB212:
 3492              	.LBB213:
 195:Firmware/Middlewares/Third_Party/FreeRTOS/Source/portable/GCC/ARM_CM4F/portmacro.h **** 	(
 3493              		.loc 2 195 0 discriminator 1
 3494              		.syntax unified
 3495              	@ 195 "Firmware/Middlewares/Third_Party/FreeRTOS/Source/portable/GCC/ARM_CM4F/portmacro.h" 1
 3496 0014 4FF05003 			mov r3, #80												
 3497 0018 83F31188 		msr basepri, r3											
 3498 001c BFF36F8F 		isb														
 3499 0020 BFF34F8F 		dsb														
 3500              	
 3501              	@ 0 "" 2
 3502              		.thumb
 3503              		.syntax unified
 3504 0024 FB61     		str	r3, [r7, #28]
 3505              	.L252:
 3506              	.LBE213:
 3507              	.LBE212:
 3508              		.loc 1 1847 0 discriminator 1
 3509 0026 FEE7     		b	.L252
 3510              	.L251:
1848:Firmware/Middlewares/Third_Party/FreeRTOS/Source/queue.c **** 	configASSERT( !( ( pvBuffer == NULL ) && ( pxQueue->uxItemSize != ( UBaseType_t ) 0U ) ) );
 3511              		.loc 1 1848 0
 3512 0028 3B68     		ldr	r3, [r7]
 3513 002a 002B     		cmp	r3, #0
 3514 002c 03D1     		bne	.L253
 3515              		.loc 1 1848 0 is_stmt 0 discriminator 2
 3516 002e BB6A     		ldr	r3, [r7, #40]
 3517 0030 1B6C     		ldr	r3, [r3, #64]
 3518 0032 002B     		cmp	r3, #0
 3519 0034 01D1     		bne	.L254
 3520              	.L253:
 3521              		.loc 1 1848 0 discriminator 3
 3522 0036 0123     		movs	r3, #1
 3523 0038 00E0     		b	.L255
 3524              	.L254:
 3525              		.loc 1 1848 0 discriminator 4
 3526 003a 0023     		movs	r3, #0
 3527              	.L255:
 3528              		.loc 1 1848 0 discriminator 6
 3529 003c 002B     		cmp	r3, #0
ARM GAS  /tmp/ccwOJcWw.s 			page 99


 3530 003e 09D1     		bne	.L256
 3531              	.LBB214:
 3532              	.LBB215:
 195:Firmware/Middlewares/Third_Party/FreeRTOS/Source/portable/GCC/ARM_CM4F/portmacro.h **** 	(
 3533              		.loc 2 195 0 is_stmt 1 discriminator 7
 3534              		.syntax unified
 3535              	@ 195 "Firmware/Middlewares/Third_Party/FreeRTOS/Source/portable/GCC/ARM_CM4F/portmacro.h" 1
 3536 0040 4FF05003 			mov r3, #80												
 3537 0044 83F31188 		msr basepri, r3											
 3538 0048 BFF36F8F 		isb														
 3539 004c BFF34F8F 		dsb														
 3540              	
 3541              	@ 0 "" 2
 3542              		.thumb
 3543              		.syntax unified
 3544 0050 BB61     		str	r3, [r7, #24]
 3545              	.L257:
 3546              	.LBE215:
 3547              	.LBE214:
 3548              		.loc 1 1848 0 discriminator 2
 3549 0052 FEE7     		b	.L257
 3550              	.L256:
1849:Firmware/Middlewares/Third_Party/FreeRTOS/Source/queue.c **** 	configASSERT( pxQueue->uxItemSize != 0 ); /* Can't peek a semaphore. */
 3551              		.loc 1 1849 0
 3552 0054 BB6A     		ldr	r3, [r7, #40]
 3553 0056 1B6C     		ldr	r3, [r3, #64]
 3554 0058 002B     		cmp	r3, #0
 3555 005a 09D1     		bne	.L258
 3556              	.LBB216:
 3557              	.LBB217:
 195:Firmware/Middlewares/Third_Party/FreeRTOS/Source/portable/GCC/ARM_CM4F/portmacro.h **** 	(
 3558              		.loc 2 195 0 discriminator 1
 3559              		.syntax unified
 3560              	@ 195 "Firmware/Middlewares/Third_Party/FreeRTOS/Source/portable/GCC/ARM_CM4F/portmacro.h" 1
 3561 005c 4FF05003 			mov r3, #80												
 3562 0060 83F31188 		msr basepri, r3											
 3563 0064 BFF36F8F 		isb														
 3564 0068 BFF34F8F 		dsb														
 3565              	
 3566              	@ 0 "" 2
 3567              		.thumb
 3568              		.syntax unified
 3569 006c 7B61     		str	r3, [r7, #20]
 3570              	.L259:
 3571              	.LBE217:
 3572              	.LBE216:
 3573              		.loc 1 1849 0 discriminator 3
 3574 006e FEE7     		b	.L259
 3575              	.L258:
1850:Firmware/Middlewares/Third_Party/FreeRTOS/Source/queue.c **** 
1851:Firmware/Middlewares/Third_Party/FreeRTOS/Source/queue.c **** 	/* RTOS ports that support interrupt nesting have the concept of a maximum
1852:Firmware/Middlewares/Third_Party/FreeRTOS/Source/queue.c **** 	system call (or maximum API call) interrupt priority.  Interrupts that are
1853:Firmware/Middlewares/Third_Party/FreeRTOS/Source/queue.c **** 	above the maximum system call priority are kept permanently enabled, even
1854:Firmware/Middlewares/Third_Party/FreeRTOS/Source/queue.c **** 	when the RTOS kernel is in a critical section, but cannot make any calls to
1855:Firmware/Middlewares/Third_Party/FreeRTOS/Source/queue.c **** 	FreeRTOS API functions.  If configASSERT() is defined in FreeRTOSConfig.h
1856:Firmware/Middlewares/Third_Party/FreeRTOS/Source/queue.c **** 	then portASSERT_IF_INTERRUPT_PRIORITY_INVALID() will result in an assertion
1857:Firmware/Middlewares/Third_Party/FreeRTOS/Source/queue.c **** 	failure if a FreeRTOS API function is called from an interrupt that has been
ARM GAS  /tmp/ccwOJcWw.s 			page 100


1858:Firmware/Middlewares/Third_Party/FreeRTOS/Source/queue.c **** 	assigned a priority above the configured maximum system call priority.
1859:Firmware/Middlewares/Third_Party/FreeRTOS/Source/queue.c **** 	Only FreeRTOS functions that end in FromISR can be called from interrupts
1860:Firmware/Middlewares/Third_Party/FreeRTOS/Source/queue.c **** 	that have been assigned a priority at or (logically) below the maximum
1861:Firmware/Middlewares/Third_Party/FreeRTOS/Source/queue.c **** 	system call	interrupt priority.  FreeRTOS maintains a separate interrupt
1862:Firmware/Middlewares/Third_Party/FreeRTOS/Source/queue.c **** 	safe API to ensure interrupt entry is as fast and as simple as possible.
1863:Firmware/Middlewares/Third_Party/FreeRTOS/Source/queue.c **** 	More information (albeit Cortex-M specific) is provided on the following
1864:Firmware/Middlewares/Third_Party/FreeRTOS/Source/queue.c **** 	link: http://www.freertos.org/RTOS-Cortex-M3-M4.html */
1865:Firmware/Middlewares/Third_Party/FreeRTOS/Source/queue.c **** 	portASSERT_IF_INTERRUPT_PRIORITY_INVALID();
 3576              		.loc 1 1865 0
 3577 0070 FFF7FEFF 		bl	vPortValidateInterruptPriority
 3578              	.LBB218:
 3579              	.LBB219:
 211:Firmware/Middlewares/Third_Party/FreeRTOS/Source/portable/GCC/ARM_CM4F/portmacro.h **** 	(
 3580              		.loc 2 211 0
 3581              		.syntax unified
 3582              	@ 211 "Firmware/Middlewares/Third_Party/FreeRTOS/Source/portable/GCC/ARM_CM4F/portmacro.h" 1
 3583 0074 EFF31182 			mrs r2, basepri											
 3584 0078 4FF05003 		mov r3, #80												
 3585 007c 83F31188 		msr basepri, r3											
 3586 0080 BFF36F8F 		isb														
 3587 0084 BFF34F8F 		dsb														
 3588              	
 3589              	@ 0 "" 2
 3590              		.thumb
 3591              		.syntax unified
 3592 0088 3A61     		str	r2, [r7, #16]
 3593 008a FB60     		str	r3, [r7, #12]
 223:Firmware/Middlewares/Third_Party/FreeRTOS/Source/portable/GCC/ARM_CM4F/portmacro.h **** }
 3594              		.loc 2 223 0
 3595 008c 3B69     		ldr	r3, [r7, #16]
 3596              	.LBE219:
 3597              	.LBE218:
1866:Firmware/Middlewares/Third_Party/FreeRTOS/Source/queue.c **** 
1867:Firmware/Middlewares/Third_Party/FreeRTOS/Source/queue.c **** 	uxSavedInterruptStatus = portSET_INTERRUPT_MASK_FROM_ISR();
 3598              		.loc 1 1867 0
 3599 008e 7B62     		str	r3, [r7, #36]
1868:Firmware/Middlewares/Third_Party/FreeRTOS/Source/queue.c **** 	{
1869:Firmware/Middlewares/Third_Party/FreeRTOS/Source/queue.c **** 		/* Cannot block in an ISR, so check there is data available. */
1870:Firmware/Middlewares/Third_Party/FreeRTOS/Source/queue.c **** 		if( pxQueue->uxMessagesWaiting > ( UBaseType_t ) 0 )
 3600              		.loc 1 1870 0
 3601 0090 BB6A     		ldr	r3, [r7, #40]
 3602 0092 9B6B     		ldr	r3, [r3, #56]
 3603 0094 002B     		cmp	r3, #0
 3604 0096 0CD0     		beq	.L261
1871:Firmware/Middlewares/Third_Party/FreeRTOS/Source/queue.c **** 		{
1872:Firmware/Middlewares/Third_Party/FreeRTOS/Source/queue.c **** 			traceQUEUE_PEEK_FROM_ISR( pxQueue );
1873:Firmware/Middlewares/Third_Party/FreeRTOS/Source/queue.c **** 
1874:Firmware/Middlewares/Third_Party/FreeRTOS/Source/queue.c **** 			/* Remember the read position so it can be reset as nothing is
1875:Firmware/Middlewares/Third_Party/FreeRTOS/Source/queue.c **** 			actually being removed from the queue. */
1876:Firmware/Middlewares/Third_Party/FreeRTOS/Source/queue.c **** 			pcOriginalReadPosition = pxQueue->u.pcReadFrom;
 3605              		.loc 1 1876 0
 3606 0098 BB6A     		ldr	r3, [r7, #40]
 3607 009a DB68     		ldr	r3, [r3, #12]
 3608 009c 3B62     		str	r3, [r7, #32]
1877:Firmware/Middlewares/Third_Party/FreeRTOS/Source/queue.c **** 			prvCopyDataFromQueue( pxQueue, pvBuffer );
 3609              		.loc 1 1877 0
 3610 009e 3968     		ldr	r1, [r7]
ARM GAS  /tmp/ccwOJcWw.s 			page 101


 3611 00a0 B86A     		ldr	r0, [r7, #40]
 3612 00a2 FFF7FEFF 		bl	prvCopyDataFromQueue
1878:Firmware/Middlewares/Third_Party/FreeRTOS/Source/queue.c **** 			pxQueue->u.pcReadFrom = pcOriginalReadPosition;
 3613              		.loc 1 1878 0
 3614 00a6 BB6A     		ldr	r3, [r7, #40]
 3615 00a8 3A6A     		ldr	r2, [r7, #32]
 3616 00aa DA60     		str	r2, [r3, #12]
1879:Firmware/Middlewares/Third_Party/FreeRTOS/Source/queue.c **** 
1880:Firmware/Middlewares/Third_Party/FreeRTOS/Source/queue.c **** 			xReturn = pdPASS;
 3617              		.loc 1 1880 0
 3618 00ac 0123     		movs	r3, #1
 3619 00ae FB62     		str	r3, [r7, #44]
 3620 00b0 01E0     		b	.L262
 3621              	.L261:
1881:Firmware/Middlewares/Third_Party/FreeRTOS/Source/queue.c **** 		}
1882:Firmware/Middlewares/Third_Party/FreeRTOS/Source/queue.c **** 		else
1883:Firmware/Middlewares/Third_Party/FreeRTOS/Source/queue.c **** 		{
1884:Firmware/Middlewares/Third_Party/FreeRTOS/Source/queue.c **** 			xReturn = pdFAIL;
 3622              		.loc 1 1884 0
 3623 00b2 0023     		movs	r3, #0
 3624 00b4 FB62     		str	r3, [r7, #44]
 3625              	.L262:
 3626 00b6 7B6A     		ldr	r3, [r7, #36]
 3627 00b8 BB60     		str	r3, [r7, #8]
 3628              	.LBB220:
 3629              	.LBB221:
 3630              		.loc 2 229 0
 3631 00ba BB68     		ldr	r3, [r7, #8]
 3632              		.syntax unified
 3633              	@ 229 "Firmware/Middlewares/Third_Party/FreeRTOS/Source/portable/GCC/ARM_CM4F/portmacro.h" 1
 3634 00bc 83F31188 			msr basepri, r3	
 3635              	@ 0 "" 2
 3636              		.thumb
 3637              		.syntax unified
 3638              	.LBE221:
 3639              	.LBE220:
1885:Firmware/Middlewares/Third_Party/FreeRTOS/Source/queue.c **** 			traceQUEUE_PEEK_FROM_ISR_FAILED( pxQueue );
1886:Firmware/Middlewares/Third_Party/FreeRTOS/Source/queue.c **** 		}
1887:Firmware/Middlewares/Third_Party/FreeRTOS/Source/queue.c **** 	}
1888:Firmware/Middlewares/Third_Party/FreeRTOS/Source/queue.c **** 	portCLEAR_INTERRUPT_MASK_FROM_ISR( uxSavedInterruptStatus );
1889:Firmware/Middlewares/Third_Party/FreeRTOS/Source/queue.c **** 
1890:Firmware/Middlewares/Third_Party/FreeRTOS/Source/queue.c **** 	return xReturn;
 3640              		.loc 1 1890 0
 3641 00c0 FB6A     		ldr	r3, [r7, #44]
1891:Firmware/Middlewares/Third_Party/FreeRTOS/Source/queue.c **** }
 3642              		.loc 1 1891 0
 3643 00c2 1846     		mov	r0, r3
 3644 00c4 3037     		adds	r7, r7, #48
 3645              	.LCFI104:
 3646              		.cfi_def_cfa_offset 8
 3647 00c6 BD46     		mov	sp, r7
 3648              	.LCFI105:
 3649              		.cfi_def_cfa_register 13
 3650              		@ sp needed
 3651 00c8 80BD     		pop	{r7, pc}
 3652              		.cfi_endproc
 3653              	.LFE24:
ARM GAS  /tmp/ccwOJcWw.s 			page 102


 3655              		.section	.text.uxQueueMessagesWaiting,"ax",%progbits
 3656              		.align	1
 3657              		.global	uxQueueMessagesWaiting
 3658              		.syntax unified
 3659              		.thumb
 3660              		.thumb_func
 3661              		.fpu fpv4-sp-d16
 3663              	uxQueueMessagesWaiting:
 3664              	.LFB25:
1892:Firmware/Middlewares/Third_Party/FreeRTOS/Source/queue.c **** /*-----------------------------------------------------------*/
1893:Firmware/Middlewares/Third_Party/FreeRTOS/Source/queue.c **** 
1894:Firmware/Middlewares/Third_Party/FreeRTOS/Source/queue.c **** UBaseType_t uxQueueMessagesWaiting( const QueueHandle_t xQueue )
1895:Firmware/Middlewares/Third_Party/FreeRTOS/Source/queue.c **** {
 3665              		.loc 1 1895 0
 3666              		.cfi_startproc
 3667              		@ args = 0, pretend = 0, frame = 16
 3668              		@ frame_needed = 1, uses_anonymous_args = 0
 3669 0000 80B5     		push	{r7, lr}
 3670              	.LCFI106:
 3671              		.cfi_def_cfa_offset 8
 3672              		.cfi_offset 7, -8
 3673              		.cfi_offset 14, -4
 3674 0002 84B0     		sub	sp, sp, #16
 3675              	.LCFI107:
 3676              		.cfi_def_cfa_offset 24
 3677 0004 00AF     		add	r7, sp, #0
 3678              	.LCFI108:
 3679              		.cfi_def_cfa_register 7
 3680 0006 7860     		str	r0, [r7, #4]
1896:Firmware/Middlewares/Third_Party/FreeRTOS/Source/queue.c **** UBaseType_t uxReturn;
1897:Firmware/Middlewares/Third_Party/FreeRTOS/Source/queue.c **** 
1898:Firmware/Middlewares/Third_Party/FreeRTOS/Source/queue.c **** 	configASSERT( xQueue );
 3681              		.loc 1 1898 0
 3682 0008 7B68     		ldr	r3, [r7, #4]
 3683 000a 002B     		cmp	r3, #0
 3684 000c 09D1     		bne	.L265
 3685              	.LBB222:
 3686              	.LBB223:
 195:Firmware/Middlewares/Third_Party/FreeRTOS/Source/portable/GCC/ARM_CM4F/portmacro.h **** 	(
 3687              		.loc 2 195 0 discriminator 1
 3688              		.syntax unified
 3689              	@ 195 "Firmware/Middlewares/Third_Party/FreeRTOS/Source/portable/GCC/ARM_CM4F/portmacro.h" 1
 3690 000e 4FF05003 			mov r3, #80												
 3691 0012 83F31188 		msr basepri, r3											
 3692 0016 BFF36F8F 		isb														
 3693 001a BFF34F8F 		dsb														
 3694              	
 3695              	@ 0 "" 2
 3696              		.thumb
 3697              		.syntax unified
 3698 001e BB60     		str	r3, [r7, #8]
 3699              	.L266:
 3700              	.LBE223:
 3701              	.LBE222:
 3702              		.loc 1 1898 0 discriminator 1
 3703 0020 FEE7     		b	.L266
 3704              	.L265:
ARM GAS  /tmp/ccwOJcWw.s 			page 103


1899:Firmware/Middlewares/Third_Party/FreeRTOS/Source/queue.c **** 
1900:Firmware/Middlewares/Third_Party/FreeRTOS/Source/queue.c **** 	taskENTER_CRITICAL();
 3705              		.loc 1 1900 0
 3706 0022 FFF7FEFF 		bl	vPortEnterCritical
1901:Firmware/Middlewares/Third_Party/FreeRTOS/Source/queue.c **** 	{
1902:Firmware/Middlewares/Third_Party/FreeRTOS/Source/queue.c **** 		uxReturn = ( ( Queue_t * ) xQueue )->uxMessagesWaiting;
 3707              		.loc 1 1902 0
 3708 0026 7B68     		ldr	r3, [r7, #4]
 3709 0028 9B6B     		ldr	r3, [r3, #56]
 3710 002a FB60     		str	r3, [r7, #12]
1903:Firmware/Middlewares/Third_Party/FreeRTOS/Source/queue.c **** 	}
1904:Firmware/Middlewares/Third_Party/FreeRTOS/Source/queue.c **** 	taskEXIT_CRITICAL();
 3711              		.loc 1 1904 0
 3712 002c FFF7FEFF 		bl	vPortExitCritical
1905:Firmware/Middlewares/Third_Party/FreeRTOS/Source/queue.c **** 
1906:Firmware/Middlewares/Third_Party/FreeRTOS/Source/queue.c **** 	return uxReturn;
 3713              		.loc 1 1906 0
 3714 0030 FB68     		ldr	r3, [r7, #12]
1907:Firmware/Middlewares/Third_Party/FreeRTOS/Source/queue.c **** } /*lint !e818 Pointer cannot be declared const as xQueue is a typedef not pointer. */
 3715              		.loc 1 1907 0
 3716 0032 1846     		mov	r0, r3
 3717 0034 1037     		adds	r7, r7, #16
 3718              	.LCFI109:
 3719              		.cfi_def_cfa_offset 8
 3720 0036 BD46     		mov	sp, r7
 3721              	.LCFI110:
 3722              		.cfi_def_cfa_register 13
 3723              		@ sp needed
 3724 0038 80BD     		pop	{r7, pc}
 3725              		.cfi_endproc
 3726              	.LFE25:
 3728              		.section	.text.uxQueueSpacesAvailable,"ax",%progbits
 3729              		.align	1
 3730              		.global	uxQueueSpacesAvailable
 3731              		.syntax unified
 3732              		.thumb
 3733              		.thumb_func
 3734              		.fpu fpv4-sp-d16
 3736              	uxQueueSpacesAvailable:
 3737              	.LFB26:
1908:Firmware/Middlewares/Third_Party/FreeRTOS/Source/queue.c **** /*-----------------------------------------------------------*/
1909:Firmware/Middlewares/Third_Party/FreeRTOS/Source/queue.c **** 
1910:Firmware/Middlewares/Third_Party/FreeRTOS/Source/queue.c **** UBaseType_t uxQueueSpacesAvailable( const QueueHandle_t xQueue )
1911:Firmware/Middlewares/Third_Party/FreeRTOS/Source/queue.c **** {
 3738              		.loc 1 1911 0
 3739              		.cfi_startproc
 3740              		@ args = 0, pretend = 0, frame = 24
 3741              		@ frame_needed = 1, uses_anonymous_args = 0
 3742 0000 80B5     		push	{r7, lr}
 3743              	.LCFI111:
 3744              		.cfi_def_cfa_offset 8
 3745              		.cfi_offset 7, -8
 3746              		.cfi_offset 14, -4
 3747 0002 86B0     		sub	sp, sp, #24
 3748              	.LCFI112:
 3749              		.cfi_def_cfa_offset 32
 3750 0004 00AF     		add	r7, sp, #0
ARM GAS  /tmp/ccwOJcWw.s 			page 104


 3751              	.LCFI113:
 3752              		.cfi_def_cfa_register 7
 3753 0006 7860     		str	r0, [r7, #4]
1912:Firmware/Middlewares/Third_Party/FreeRTOS/Source/queue.c **** UBaseType_t uxReturn;
1913:Firmware/Middlewares/Third_Party/FreeRTOS/Source/queue.c **** Queue_t *pxQueue;
1914:Firmware/Middlewares/Third_Party/FreeRTOS/Source/queue.c **** 
1915:Firmware/Middlewares/Third_Party/FreeRTOS/Source/queue.c **** 	pxQueue = ( Queue_t * ) xQueue;
 3754              		.loc 1 1915 0
 3755 0008 7B68     		ldr	r3, [r7, #4]
 3756 000a 7B61     		str	r3, [r7, #20]
1916:Firmware/Middlewares/Third_Party/FreeRTOS/Source/queue.c **** 	configASSERT( pxQueue );
 3757              		.loc 1 1916 0
 3758 000c 7B69     		ldr	r3, [r7, #20]
 3759 000e 002B     		cmp	r3, #0
 3760 0010 09D1     		bne	.L269
 3761              	.LBB224:
 3762              	.LBB225:
 195:Firmware/Middlewares/Third_Party/FreeRTOS/Source/portable/GCC/ARM_CM4F/portmacro.h **** 	(
 3763              		.loc 2 195 0 discriminator 1
 3764              		.syntax unified
 3765              	@ 195 "Firmware/Middlewares/Third_Party/FreeRTOS/Source/portable/GCC/ARM_CM4F/portmacro.h" 1
 3766 0012 4FF05003 			mov r3, #80												
 3767 0016 83F31188 		msr basepri, r3											
 3768 001a BFF36F8F 		isb														
 3769 001e BFF34F8F 		dsb														
 3770              	
 3771              	@ 0 "" 2
 3772              		.thumb
 3773              		.syntax unified
 3774 0022 FB60     		str	r3, [r7, #12]
 3775              	.L270:
 3776              	.LBE225:
 3777              	.LBE224:
 3778              		.loc 1 1916 0 discriminator 1
 3779 0024 FEE7     		b	.L270
 3780              	.L269:
1917:Firmware/Middlewares/Third_Party/FreeRTOS/Source/queue.c **** 
1918:Firmware/Middlewares/Third_Party/FreeRTOS/Source/queue.c **** 	taskENTER_CRITICAL();
 3781              		.loc 1 1918 0
 3782 0026 FFF7FEFF 		bl	vPortEnterCritical
1919:Firmware/Middlewares/Third_Party/FreeRTOS/Source/queue.c **** 	{
1920:Firmware/Middlewares/Third_Party/FreeRTOS/Source/queue.c **** 		uxReturn = pxQueue->uxLength - pxQueue->uxMessagesWaiting;
 3783              		.loc 1 1920 0
 3784 002a 7B69     		ldr	r3, [r7, #20]
 3785 002c DA6B     		ldr	r2, [r3, #60]
 3786 002e 7B69     		ldr	r3, [r7, #20]
 3787 0030 9B6B     		ldr	r3, [r3, #56]
 3788 0032 D31A     		subs	r3, r2, r3
 3789 0034 3B61     		str	r3, [r7, #16]
1921:Firmware/Middlewares/Third_Party/FreeRTOS/Source/queue.c **** 	}
1922:Firmware/Middlewares/Third_Party/FreeRTOS/Source/queue.c **** 	taskEXIT_CRITICAL();
 3790              		.loc 1 1922 0
 3791 0036 FFF7FEFF 		bl	vPortExitCritical
1923:Firmware/Middlewares/Third_Party/FreeRTOS/Source/queue.c **** 
1924:Firmware/Middlewares/Third_Party/FreeRTOS/Source/queue.c **** 	return uxReturn;
 3792              		.loc 1 1924 0
 3793 003a 3B69     		ldr	r3, [r7, #16]
ARM GAS  /tmp/ccwOJcWw.s 			page 105


1925:Firmware/Middlewares/Third_Party/FreeRTOS/Source/queue.c **** } /*lint !e818 Pointer cannot be declared const as xQueue is a typedef not pointer. */
 3794              		.loc 1 1925 0
 3795 003c 1846     		mov	r0, r3
 3796 003e 1837     		adds	r7, r7, #24
 3797              	.LCFI114:
 3798              		.cfi_def_cfa_offset 8
 3799 0040 BD46     		mov	sp, r7
 3800              	.LCFI115:
 3801              		.cfi_def_cfa_register 13
 3802              		@ sp needed
 3803 0042 80BD     		pop	{r7, pc}
 3804              		.cfi_endproc
 3805              	.LFE26:
 3807              		.section	.text.uxQueueMessagesWaitingFromISR,"ax",%progbits
 3808              		.align	1
 3809              		.global	uxQueueMessagesWaitingFromISR
 3810              		.syntax unified
 3811              		.thumb
 3812              		.thumb_func
 3813              		.fpu fpv4-sp-d16
 3815              	uxQueueMessagesWaitingFromISR:
 3816              	.LFB27:
1926:Firmware/Middlewares/Third_Party/FreeRTOS/Source/queue.c **** /*-----------------------------------------------------------*/
1927:Firmware/Middlewares/Third_Party/FreeRTOS/Source/queue.c **** 
1928:Firmware/Middlewares/Third_Party/FreeRTOS/Source/queue.c **** UBaseType_t uxQueueMessagesWaitingFromISR( const QueueHandle_t xQueue )
1929:Firmware/Middlewares/Third_Party/FreeRTOS/Source/queue.c **** {
 3817              		.loc 1 1929 0
 3818              		.cfi_startproc
 3819              		@ args = 0, pretend = 0, frame = 16
 3820              		@ frame_needed = 1, uses_anonymous_args = 0
 3821              		@ link register save eliminated.
 3822 0000 80B4     		push	{r7}
 3823              	.LCFI116:
 3824              		.cfi_def_cfa_offset 4
 3825              		.cfi_offset 7, -4
 3826 0002 85B0     		sub	sp, sp, #20
 3827              	.LCFI117:
 3828              		.cfi_def_cfa_offset 24
 3829 0004 00AF     		add	r7, sp, #0
 3830              	.LCFI118:
 3831              		.cfi_def_cfa_register 7
 3832 0006 7860     		str	r0, [r7, #4]
1930:Firmware/Middlewares/Third_Party/FreeRTOS/Source/queue.c **** UBaseType_t uxReturn;
1931:Firmware/Middlewares/Third_Party/FreeRTOS/Source/queue.c **** 
1932:Firmware/Middlewares/Third_Party/FreeRTOS/Source/queue.c **** 	configASSERT( xQueue );
 3833              		.loc 1 1932 0
 3834 0008 7B68     		ldr	r3, [r7, #4]
 3835 000a 002B     		cmp	r3, #0
 3836 000c 09D1     		bne	.L273
 3837              	.LBB226:
 3838              	.LBB227:
 195:Firmware/Middlewares/Third_Party/FreeRTOS/Source/portable/GCC/ARM_CM4F/portmacro.h **** 	(
 3839              		.loc 2 195 0 discriminator 1
 3840              		.syntax unified
 3841              	@ 195 "Firmware/Middlewares/Third_Party/FreeRTOS/Source/portable/GCC/ARM_CM4F/portmacro.h" 1
 3842 000e 4FF05003 			mov r3, #80												
 3843 0012 83F31188 		msr basepri, r3											
ARM GAS  /tmp/ccwOJcWw.s 			page 106


 3844 0016 BFF36F8F 		isb														
 3845 001a BFF34F8F 		dsb														
 3846              	
 3847              	@ 0 "" 2
 3848              		.thumb
 3849              		.syntax unified
 3850 001e BB60     		str	r3, [r7, #8]
 3851              	.L274:
 3852              	.LBE227:
 3853              	.LBE226:
 3854              		.loc 1 1932 0 discriminator 1
 3855 0020 FEE7     		b	.L274
 3856              	.L273:
1933:Firmware/Middlewares/Third_Party/FreeRTOS/Source/queue.c **** 
1934:Firmware/Middlewares/Third_Party/FreeRTOS/Source/queue.c **** 	uxReturn = ( ( Queue_t * ) xQueue )->uxMessagesWaiting;
 3857              		.loc 1 1934 0
 3858 0022 7B68     		ldr	r3, [r7, #4]
 3859 0024 9B6B     		ldr	r3, [r3, #56]
 3860 0026 FB60     		str	r3, [r7, #12]
1935:Firmware/Middlewares/Third_Party/FreeRTOS/Source/queue.c **** 
1936:Firmware/Middlewares/Third_Party/FreeRTOS/Source/queue.c **** 	return uxReturn;
 3861              		.loc 1 1936 0
 3862 0028 FB68     		ldr	r3, [r7, #12]
1937:Firmware/Middlewares/Third_Party/FreeRTOS/Source/queue.c **** } /*lint !e818 Pointer cannot be declared const as xQueue is a typedef not pointer. */
 3863              		.loc 1 1937 0
 3864 002a 1846     		mov	r0, r3
 3865 002c 1437     		adds	r7, r7, #20
 3866              	.LCFI119:
 3867              		.cfi_def_cfa_offset 4
 3868 002e BD46     		mov	sp, r7
 3869              	.LCFI120:
 3870              		.cfi_def_cfa_register 13
 3871              		@ sp needed
 3872 0030 5DF8047B 		ldr	r7, [sp], #4
 3873              	.LCFI121:
 3874              		.cfi_restore 7
 3875              		.cfi_def_cfa_offset 0
 3876 0034 7047     		bx	lr
 3877              		.cfi_endproc
 3878              	.LFE27:
 3880              		.section	.text.vQueueDelete,"ax",%progbits
 3881              		.align	1
 3882              		.global	vQueueDelete
 3883              		.syntax unified
 3884              		.thumb
 3885              		.thumb_func
 3886              		.fpu fpv4-sp-d16
 3888              	vQueueDelete:
 3889              	.LFB28:
1938:Firmware/Middlewares/Third_Party/FreeRTOS/Source/queue.c **** /*-----------------------------------------------------------*/
1939:Firmware/Middlewares/Third_Party/FreeRTOS/Source/queue.c **** 
1940:Firmware/Middlewares/Third_Party/FreeRTOS/Source/queue.c **** void vQueueDelete( QueueHandle_t xQueue )
1941:Firmware/Middlewares/Third_Party/FreeRTOS/Source/queue.c **** {
 3890              		.loc 1 1941 0
 3891              		.cfi_startproc
 3892              		@ args = 0, pretend = 0, frame = 16
 3893              		@ frame_needed = 1, uses_anonymous_args = 0
ARM GAS  /tmp/ccwOJcWw.s 			page 107


 3894 0000 80B5     		push	{r7, lr}
 3895              	.LCFI122:
 3896              		.cfi_def_cfa_offset 8
 3897              		.cfi_offset 7, -8
 3898              		.cfi_offset 14, -4
 3899 0002 84B0     		sub	sp, sp, #16
 3900              	.LCFI123:
 3901              		.cfi_def_cfa_offset 24
 3902 0004 00AF     		add	r7, sp, #0
 3903              	.LCFI124:
 3904              		.cfi_def_cfa_register 7
 3905 0006 7860     		str	r0, [r7, #4]
1942:Firmware/Middlewares/Third_Party/FreeRTOS/Source/queue.c **** Queue_t * const pxQueue = ( Queue_t * ) xQueue;
 3906              		.loc 1 1942 0
 3907 0008 7B68     		ldr	r3, [r7, #4]
 3908 000a FB60     		str	r3, [r7, #12]
1943:Firmware/Middlewares/Third_Party/FreeRTOS/Source/queue.c **** 
1944:Firmware/Middlewares/Third_Party/FreeRTOS/Source/queue.c **** 	configASSERT( pxQueue );
 3909              		.loc 1 1944 0
 3910 000c FB68     		ldr	r3, [r7, #12]
 3911 000e 002B     		cmp	r3, #0
 3912 0010 09D1     		bne	.L277
 3913              	.LBB228:
 3914              	.LBB229:
 195:Firmware/Middlewares/Third_Party/FreeRTOS/Source/portable/GCC/ARM_CM4F/portmacro.h **** 	(
 3915              		.loc 2 195 0 discriminator 1
 3916              		.syntax unified
 3917              	@ 195 "Firmware/Middlewares/Third_Party/FreeRTOS/Source/portable/GCC/ARM_CM4F/portmacro.h" 1
 3918 0012 4FF05003 			mov r3, #80												
 3919 0016 83F31188 		msr basepri, r3											
 3920 001a BFF36F8F 		isb														
 3921 001e BFF34F8F 		dsb														
 3922              	
 3923              	@ 0 "" 2
 3924              		.thumb
 3925              		.syntax unified
 3926 0022 BB60     		str	r3, [r7, #8]
 3927              	.L278:
 3928              	.LBE229:
 3929              	.LBE228:
 3930              		.loc 1 1944 0 discriminator 1
 3931 0024 FEE7     		b	.L278
 3932              	.L277:
1945:Firmware/Middlewares/Third_Party/FreeRTOS/Source/queue.c **** 	traceQUEUE_DELETE( pxQueue );
1946:Firmware/Middlewares/Third_Party/FreeRTOS/Source/queue.c **** 
1947:Firmware/Middlewares/Third_Party/FreeRTOS/Source/queue.c **** 	#if ( configQUEUE_REGISTRY_SIZE > 0 )
1948:Firmware/Middlewares/Third_Party/FreeRTOS/Source/queue.c **** 	{
1949:Firmware/Middlewares/Third_Party/FreeRTOS/Source/queue.c **** 		vQueueUnregisterQueue( pxQueue );
 3933              		.loc 1 1949 0
 3934 0026 F868     		ldr	r0, [r7, #12]
 3935 0028 FFF7FEFF 		bl	vQueueUnregisterQueue
1950:Firmware/Middlewares/Third_Party/FreeRTOS/Source/queue.c **** 	}
1951:Firmware/Middlewares/Third_Party/FreeRTOS/Source/queue.c **** 	#endif
1952:Firmware/Middlewares/Third_Party/FreeRTOS/Source/queue.c **** 
1953:Firmware/Middlewares/Third_Party/FreeRTOS/Source/queue.c **** 	#if( ( configSUPPORT_DYNAMIC_ALLOCATION == 1 ) && ( configSUPPORT_STATIC_ALLOCATION == 0 ) )
1954:Firmware/Middlewares/Third_Party/FreeRTOS/Source/queue.c **** 	{
1955:Firmware/Middlewares/Third_Party/FreeRTOS/Source/queue.c **** 		/* The queue can only have been allocated dynamically - free it
ARM GAS  /tmp/ccwOJcWw.s 			page 108


1956:Firmware/Middlewares/Third_Party/FreeRTOS/Source/queue.c **** 		again. */
1957:Firmware/Middlewares/Third_Party/FreeRTOS/Source/queue.c **** 		vPortFree( pxQueue );
1958:Firmware/Middlewares/Third_Party/FreeRTOS/Source/queue.c **** 	}
1959:Firmware/Middlewares/Third_Party/FreeRTOS/Source/queue.c **** 	#elif( ( configSUPPORT_DYNAMIC_ALLOCATION == 1 ) && ( configSUPPORT_STATIC_ALLOCATION == 1 ) )
1960:Firmware/Middlewares/Third_Party/FreeRTOS/Source/queue.c **** 	{
1961:Firmware/Middlewares/Third_Party/FreeRTOS/Source/queue.c **** 		/* The queue could have been allocated statically or dynamically, so
1962:Firmware/Middlewares/Third_Party/FreeRTOS/Source/queue.c **** 		check before attempting to free the memory. */
1963:Firmware/Middlewares/Third_Party/FreeRTOS/Source/queue.c **** 		if( pxQueue->ucStaticallyAllocated == ( uint8_t ) pdFALSE )
 3936              		.loc 1 1963 0
 3937 002c FB68     		ldr	r3, [r7, #12]
 3938 002e 93F84630 		ldrb	r3, [r3, #70]	@ zero_extendqisi2
 3939 0032 002B     		cmp	r3, #0
 3940 0034 02D1     		bne	.L280
1964:Firmware/Middlewares/Third_Party/FreeRTOS/Source/queue.c **** 		{
1965:Firmware/Middlewares/Third_Party/FreeRTOS/Source/queue.c **** 			vPortFree( pxQueue );
 3941              		.loc 1 1965 0
 3942 0036 F868     		ldr	r0, [r7, #12]
 3943 0038 FFF7FEFF 		bl	vPortFree
 3944              	.L280:
1966:Firmware/Middlewares/Third_Party/FreeRTOS/Source/queue.c **** 		}
1967:Firmware/Middlewares/Third_Party/FreeRTOS/Source/queue.c **** 		else
1968:Firmware/Middlewares/Third_Party/FreeRTOS/Source/queue.c **** 		{
1969:Firmware/Middlewares/Third_Party/FreeRTOS/Source/queue.c **** 			mtCOVERAGE_TEST_MARKER();
1970:Firmware/Middlewares/Third_Party/FreeRTOS/Source/queue.c **** 		}
1971:Firmware/Middlewares/Third_Party/FreeRTOS/Source/queue.c **** 	}
1972:Firmware/Middlewares/Third_Party/FreeRTOS/Source/queue.c **** 	#else
1973:Firmware/Middlewares/Third_Party/FreeRTOS/Source/queue.c **** 	{
1974:Firmware/Middlewares/Third_Party/FreeRTOS/Source/queue.c **** 		/* The queue must have been statically allocated, so is not going to be
1975:Firmware/Middlewares/Third_Party/FreeRTOS/Source/queue.c **** 		deleted.  Avoid compiler warnings about the unused parameter. */
1976:Firmware/Middlewares/Third_Party/FreeRTOS/Source/queue.c **** 		( void ) pxQueue;
1977:Firmware/Middlewares/Third_Party/FreeRTOS/Source/queue.c **** 	}
1978:Firmware/Middlewares/Third_Party/FreeRTOS/Source/queue.c **** 	#endif /* configSUPPORT_DYNAMIC_ALLOCATION */
1979:Firmware/Middlewares/Third_Party/FreeRTOS/Source/queue.c **** }
 3945              		.loc 1 1979 0
 3946 003c 00BF     		nop
 3947 003e 1037     		adds	r7, r7, #16
 3948              	.LCFI125:
 3949              		.cfi_def_cfa_offset 8
 3950 0040 BD46     		mov	sp, r7
 3951              	.LCFI126:
 3952              		.cfi_def_cfa_register 13
 3953              		@ sp needed
 3954 0042 80BD     		pop	{r7, pc}
 3955              		.cfi_endproc
 3956              	.LFE28:
 3958              		.section	.text.uxQueueGetQueueNumber,"ax",%progbits
 3959              		.align	1
 3960              		.global	uxQueueGetQueueNumber
 3961              		.syntax unified
 3962              		.thumb
 3963              		.thumb_func
 3964              		.fpu fpv4-sp-d16
 3966              	uxQueueGetQueueNumber:
 3967              	.LFB29:
1980:Firmware/Middlewares/Third_Party/FreeRTOS/Source/queue.c **** /*-----------------------------------------------------------*/
1981:Firmware/Middlewares/Third_Party/FreeRTOS/Source/queue.c **** 
1982:Firmware/Middlewares/Third_Party/FreeRTOS/Source/queue.c **** #if ( configUSE_TRACE_FACILITY == 1 )
ARM GAS  /tmp/ccwOJcWw.s 			page 109


1983:Firmware/Middlewares/Third_Party/FreeRTOS/Source/queue.c **** 
1984:Firmware/Middlewares/Third_Party/FreeRTOS/Source/queue.c **** 	UBaseType_t uxQueueGetQueueNumber( QueueHandle_t xQueue )
1985:Firmware/Middlewares/Third_Party/FreeRTOS/Source/queue.c **** 	{
 3968              		.loc 1 1985 0
 3969              		.cfi_startproc
 3970              		@ args = 0, pretend = 0, frame = 8
 3971              		@ frame_needed = 1, uses_anonymous_args = 0
 3972              		@ link register save eliminated.
 3973 0000 80B4     		push	{r7}
 3974              	.LCFI127:
 3975              		.cfi_def_cfa_offset 4
 3976              		.cfi_offset 7, -4
 3977 0002 83B0     		sub	sp, sp, #12
 3978              	.LCFI128:
 3979              		.cfi_def_cfa_offset 16
 3980 0004 00AF     		add	r7, sp, #0
 3981              	.LCFI129:
 3982              		.cfi_def_cfa_register 7
 3983 0006 7860     		str	r0, [r7, #4]
1986:Firmware/Middlewares/Third_Party/FreeRTOS/Source/queue.c **** 		return ( ( Queue_t * ) xQueue )->uxQueueNumber;
 3984              		.loc 1 1986 0
 3985 0008 7B68     		ldr	r3, [r7, #4]
 3986 000a 9B6C     		ldr	r3, [r3, #72]
1987:Firmware/Middlewares/Third_Party/FreeRTOS/Source/queue.c **** 	}
 3987              		.loc 1 1987 0
 3988 000c 1846     		mov	r0, r3
 3989 000e 0C37     		adds	r7, r7, #12
 3990              	.LCFI130:
 3991              		.cfi_def_cfa_offset 4
 3992 0010 BD46     		mov	sp, r7
 3993              	.LCFI131:
 3994              		.cfi_def_cfa_register 13
 3995              		@ sp needed
 3996 0012 5DF8047B 		ldr	r7, [sp], #4
 3997              	.LCFI132:
 3998              		.cfi_restore 7
 3999              		.cfi_def_cfa_offset 0
 4000 0016 7047     		bx	lr
 4001              		.cfi_endproc
 4002              	.LFE29:
 4004              		.section	.text.vQueueSetQueueNumber,"ax",%progbits
 4005              		.align	1
 4006              		.global	vQueueSetQueueNumber
 4007              		.syntax unified
 4008              		.thumb
 4009              		.thumb_func
 4010              		.fpu fpv4-sp-d16
 4012              	vQueueSetQueueNumber:
 4013              	.LFB30:
1988:Firmware/Middlewares/Third_Party/FreeRTOS/Source/queue.c **** 
1989:Firmware/Middlewares/Third_Party/FreeRTOS/Source/queue.c **** #endif /* configUSE_TRACE_FACILITY */
1990:Firmware/Middlewares/Third_Party/FreeRTOS/Source/queue.c **** /*-----------------------------------------------------------*/
1991:Firmware/Middlewares/Third_Party/FreeRTOS/Source/queue.c **** 
1992:Firmware/Middlewares/Third_Party/FreeRTOS/Source/queue.c **** #if ( configUSE_TRACE_FACILITY == 1 )
1993:Firmware/Middlewares/Third_Party/FreeRTOS/Source/queue.c **** 
1994:Firmware/Middlewares/Third_Party/FreeRTOS/Source/queue.c **** 	void vQueueSetQueueNumber( QueueHandle_t xQueue, UBaseType_t uxQueueNumber )
1995:Firmware/Middlewares/Third_Party/FreeRTOS/Source/queue.c **** 	{
ARM GAS  /tmp/ccwOJcWw.s 			page 110


 4014              		.loc 1 1995 0
 4015              		.cfi_startproc
 4016              		@ args = 0, pretend = 0, frame = 8
 4017              		@ frame_needed = 1, uses_anonymous_args = 0
 4018              		@ link register save eliminated.
 4019 0000 80B4     		push	{r7}
 4020              	.LCFI133:
 4021              		.cfi_def_cfa_offset 4
 4022              		.cfi_offset 7, -4
 4023 0002 83B0     		sub	sp, sp, #12
 4024              	.LCFI134:
 4025              		.cfi_def_cfa_offset 16
 4026 0004 00AF     		add	r7, sp, #0
 4027              	.LCFI135:
 4028              		.cfi_def_cfa_register 7
 4029 0006 7860     		str	r0, [r7, #4]
 4030 0008 3960     		str	r1, [r7]
1996:Firmware/Middlewares/Third_Party/FreeRTOS/Source/queue.c **** 		( ( Queue_t * ) xQueue )->uxQueueNumber = uxQueueNumber;
 4031              		.loc 1 1996 0
 4032 000a 7B68     		ldr	r3, [r7, #4]
 4033 000c 3A68     		ldr	r2, [r7]
 4034 000e 9A64     		str	r2, [r3, #72]
1997:Firmware/Middlewares/Third_Party/FreeRTOS/Source/queue.c **** 	}
 4035              		.loc 1 1997 0
 4036 0010 00BF     		nop
 4037 0012 0C37     		adds	r7, r7, #12
 4038              	.LCFI136:
 4039              		.cfi_def_cfa_offset 4
 4040 0014 BD46     		mov	sp, r7
 4041              	.LCFI137:
 4042              		.cfi_def_cfa_register 13
 4043              		@ sp needed
 4044 0016 5DF8047B 		ldr	r7, [sp], #4
 4045              	.LCFI138:
 4046              		.cfi_restore 7
 4047              		.cfi_def_cfa_offset 0
 4048 001a 7047     		bx	lr
 4049              		.cfi_endproc
 4050              	.LFE30:
 4052              		.section	.text.ucQueueGetQueueType,"ax",%progbits
 4053              		.align	1
 4054              		.global	ucQueueGetQueueType
 4055              		.syntax unified
 4056              		.thumb
 4057              		.thumb_func
 4058              		.fpu fpv4-sp-d16
 4060              	ucQueueGetQueueType:
 4061              	.LFB31:
1998:Firmware/Middlewares/Third_Party/FreeRTOS/Source/queue.c **** 
1999:Firmware/Middlewares/Third_Party/FreeRTOS/Source/queue.c **** #endif /* configUSE_TRACE_FACILITY */
2000:Firmware/Middlewares/Third_Party/FreeRTOS/Source/queue.c **** /*-----------------------------------------------------------*/
2001:Firmware/Middlewares/Third_Party/FreeRTOS/Source/queue.c **** 
2002:Firmware/Middlewares/Third_Party/FreeRTOS/Source/queue.c **** #if ( configUSE_TRACE_FACILITY == 1 )
2003:Firmware/Middlewares/Third_Party/FreeRTOS/Source/queue.c **** 
2004:Firmware/Middlewares/Third_Party/FreeRTOS/Source/queue.c **** 	uint8_t ucQueueGetQueueType( QueueHandle_t xQueue )
2005:Firmware/Middlewares/Third_Party/FreeRTOS/Source/queue.c **** 	{
 4062              		.loc 1 2005 0
ARM GAS  /tmp/ccwOJcWw.s 			page 111


 4063              		.cfi_startproc
 4064              		@ args = 0, pretend = 0, frame = 8
 4065              		@ frame_needed = 1, uses_anonymous_args = 0
 4066              		@ link register save eliminated.
 4067 0000 80B4     		push	{r7}
 4068              	.LCFI139:
 4069              		.cfi_def_cfa_offset 4
 4070              		.cfi_offset 7, -4
 4071 0002 83B0     		sub	sp, sp, #12
 4072              	.LCFI140:
 4073              		.cfi_def_cfa_offset 16
 4074 0004 00AF     		add	r7, sp, #0
 4075              	.LCFI141:
 4076              		.cfi_def_cfa_register 7
 4077 0006 7860     		str	r0, [r7, #4]
2006:Firmware/Middlewares/Third_Party/FreeRTOS/Source/queue.c **** 		return ( ( Queue_t * ) xQueue )->ucQueueType;
 4078              		.loc 1 2006 0
 4079 0008 7B68     		ldr	r3, [r7, #4]
 4080 000a 93F84C30 		ldrb	r3, [r3, #76]	@ zero_extendqisi2
2007:Firmware/Middlewares/Third_Party/FreeRTOS/Source/queue.c **** 	}
 4081              		.loc 1 2007 0
 4082 000e 1846     		mov	r0, r3
 4083 0010 0C37     		adds	r7, r7, #12
 4084              	.LCFI142:
 4085              		.cfi_def_cfa_offset 4
 4086 0012 BD46     		mov	sp, r7
 4087              	.LCFI143:
 4088              		.cfi_def_cfa_register 13
 4089              		@ sp needed
 4090 0014 5DF8047B 		ldr	r7, [sp], #4
 4091              	.LCFI144:
 4092              		.cfi_restore 7
 4093              		.cfi_def_cfa_offset 0
 4094 0018 7047     		bx	lr
 4095              		.cfi_endproc
 4096              	.LFE31:
 4098              		.section	.text.prvGetDisinheritPriorityAfterTimeout,"ax",%progbits
 4099              		.align	1
 4100              		.syntax unified
 4101              		.thumb
 4102              		.thumb_func
 4103              		.fpu fpv4-sp-d16
 4105              	prvGetDisinheritPriorityAfterTimeout:
 4106              	.LFB32:
2008:Firmware/Middlewares/Third_Party/FreeRTOS/Source/queue.c **** 
2009:Firmware/Middlewares/Third_Party/FreeRTOS/Source/queue.c **** #endif /* configUSE_TRACE_FACILITY */
2010:Firmware/Middlewares/Third_Party/FreeRTOS/Source/queue.c **** /*-----------------------------------------------------------*/
2011:Firmware/Middlewares/Third_Party/FreeRTOS/Source/queue.c **** 
2012:Firmware/Middlewares/Third_Party/FreeRTOS/Source/queue.c **** #if( configUSE_MUTEXES == 1 )
2013:Firmware/Middlewares/Third_Party/FreeRTOS/Source/queue.c **** 
2014:Firmware/Middlewares/Third_Party/FreeRTOS/Source/queue.c **** 	static UBaseType_t prvGetDisinheritPriorityAfterTimeout( const Queue_t * const pxQueue )
2015:Firmware/Middlewares/Third_Party/FreeRTOS/Source/queue.c **** 	{
 4107              		.loc 1 2015 0
 4108              		.cfi_startproc
 4109              		@ args = 0, pretend = 0, frame = 16
 4110              		@ frame_needed = 1, uses_anonymous_args = 0
 4111              		@ link register save eliminated.
ARM GAS  /tmp/ccwOJcWw.s 			page 112


 4112 0000 80B4     		push	{r7}
 4113              	.LCFI145:
 4114              		.cfi_def_cfa_offset 4
 4115              		.cfi_offset 7, -4
 4116 0002 85B0     		sub	sp, sp, #20
 4117              	.LCFI146:
 4118              		.cfi_def_cfa_offset 24
 4119 0004 00AF     		add	r7, sp, #0
 4120              	.LCFI147:
 4121              		.cfi_def_cfa_register 7
 4122 0006 7860     		str	r0, [r7, #4]
2016:Firmware/Middlewares/Third_Party/FreeRTOS/Source/queue.c **** 	UBaseType_t uxHighestPriorityOfWaitingTasks;
2017:Firmware/Middlewares/Third_Party/FreeRTOS/Source/queue.c **** 
2018:Firmware/Middlewares/Third_Party/FreeRTOS/Source/queue.c **** 		/* If a task waiting for a mutex causes the mutex holder to inherit a
2019:Firmware/Middlewares/Third_Party/FreeRTOS/Source/queue.c **** 		priority, but the waiting task times out, then the holder should
2020:Firmware/Middlewares/Third_Party/FreeRTOS/Source/queue.c **** 		disinherit the priority - but only down to the highest priority of any
2021:Firmware/Middlewares/Third_Party/FreeRTOS/Source/queue.c **** 		other tasks that are waiting for the same mutex.  For this purpose,
2022:Firmware/Middlewares/Third_Party/FreeRTOS/Source/queue.c **** 		return the priority of the highest priority task that is waiting for the
2023:Firmware/Middlewares/Third_Party/FreeRTOS/Source/queue.c **** 		mutex. */
2024:Firmware/Middlewares/Third_Party/FreeRTOS/Source/queue.c **** 		if( listCURRENT_LIST_LENGTH( &( pxQueue->xTasksWaitingToReceive ) ) > 0 )
 4123              		.loc 1 2024 0
 4124 0008 7B68     		ldr	r3, [r7, #4]
 4125 000a 5B6A     		ldr	r3, [r3, #36]
 4126 000c 002B     		cmp	r3, #0
 4127 000e 06D0     		beq	.L287
2025:Firmware/Middlewares/Third_Party/FreeRTOS/Source/queue.c **** 		{
2026:Firmware/Middlewares/Third_Party/FreeRTOS/Source/queue.c **** 			uxHighestPriorityOfWaitingTasks = configMAX_PRIORITIES - listGET_ITEM_VALUE_OF_HEAD_ENTRY( &( px
 4128              		.loc 1 2026 0
 4129 0010 7B68     		ldr	r3, [r7, #4]
 4130 0012 1B6B     		ldr	r3, [r3, #48]
 4131 0014 1B68     		ldr	r3, [r3]
 4132 0016 C3F13803 		rsb	r3, r3, #56
 4133 001a FB60     		str	r3, [r7, #12]
 4134 001c 01E0     		b	.L288
 4135              	.L287:
2027:Firmware/Middlewares/Third_Party/FreeRTOS/Source/queue.c **** 		}
2028:Firmware/Middlewares/Third_Party/FreeRTOS/Source/queue.c **** 		else
2029:Firmware/Middlewares/Third_Party/FreeRTOS/Source/queue.c **** 		{
2030:Firmware/Middlewares/Third_Party/FreeRTOS/Source/queue.c **** 			uxHighestPriorityOfWaitingTasks = tskIDLE_PRIORITY;
 4136              		.loc 1 2030 0
 4137 001e 0023     		movs	r3, #0
 4138 0020 FB60     		str	r3, [r7, #12]
 4139              	.L288:
2031:Firmware/Middlewares/Third_Party/FreeRTOS/Source/queue.c **** 		}
2032:Firmware/Middlewares/Third_Party/FreeRTOS/Source/queue.c **** 
2033:Firmware/Middlewares/Third_Party/FreeRTOS/Source/queue.c **** 		return uxHighestPriorityOfWaitingTasks;
 4140              		.loc 1 2033 0
 4141 0022 FB68     		ldr	r3, [r7, #12]
2034:Firmware/Middlewares/Third_Party/FreeRTOS/Source/queue.c **** 	}
 4142              		.loc 1 2034 0
 4143 0024 1846     		mov	r0, r3
 4144 0026 1437     		adds	r7, r7, #20
 4145              	.LCFI148:
 4146              		.cfi_def_cfa_offset 4
 4147 0028 BD46     		mov	sp, r7
 4148              	.LCFI149:
 4149              		.cfi_def_cfa_register 13
ARM GAS  /tmp/ccwOJcWw.s 			page 113


 4150              		@ sp needed
 4151 002a 5DF8047B 		ldr	r7, [sp], #4
 4152              	.LCFI150:
 4153              		.cfi_restore 7
 4154              		.cfi_def_cfa_offset 0
 4155 002e 7047     		bx	lr
 4156              		.cfi_endproc
 4157              	.LFE32:
 4159              		.section	.text.prvCopyDataToQueue,"ax",%progbits
 4160              		.align	1
 4161              		.syntax unified
 4162              		.thumb
 4163              		.thumb_func
 4164              		.fpu fpv4-sp-d16
 4166              	prvCopyDataToQueue:
 4167              	.LFB33:
2035:Firmware/Middlewares/Third_Party/FreeRTOS/Source/queue.c **** 
2036:Firmware/Middlewares/Third_Party/FreeRTOS/Source/queue.c **** #endif /* configUSE_MUTEXES */
2037:Firmware/Middlewares/Third_Party/FreeRTOS/Source/queue.c **** /*-----------------------------------------------------------*/
2038:Firmware/Middlewares/Third_Party/FreeRTOS/Source/queue.c **** 
2039:Firmware/Middlewares/Third_Party/FreeRTOS/Source/queue.c **** static BaseType_t prvCopyDataToQueue( Queue_t * const pxQueue, const void *pvItemToQueue, const Bas
2040:Firmware/Middlewares/Third_Party/FreeRTOS/Source/queue.c **** {
 4168              		.loc 1 2040 0
 4169              		.cfi_startproc
 4170              		@ args = 0, pretend = 0, frame = 24
 4171              		@ frame_needed = 1, uses_anonymous_args = 0
 4172 0000 80B5     		push	{r7, lr}
 4173              	.LCFI151:
 4174              		.cfi_def_cfa_offset 8
 4175              		.cfi_offset 7, -8
 4176              		.cfi_offset 14, -4
 4177 0002 86B0     		sub	sp, sp, #24
 4178              	.LCFI152:
 4179              		.cfi_def_cfa_offset 32
 4180 0004 00AF     		add	r7, sp, #0
 4181              	.LCFI153:
 4182              		.cfi_def_cfa_register 7
 4183 0006 F860     		str	r0, [r7, #12]
 4184 0008 B960     		str	r1, [r7, #8]
 4185 000a 7A60     		str	r2, [r7, #4]
2041:Firmware/Middlewares/Third_Party/FreeRTOS/Source/queue.c **** BaseType_t xReturn = pdFALSE;
 4186              		.loc 1 2041 0
 4187 000c 0023     		movs	r3, #0
 4188 000e 7B61     		str	r3, [r7, #20]
2042:Firmware/Middlewares/Third_Party/FreeRTOS/Source/queue.c **** UBaseType_t uxMessagesWaiting;
2043:Firmware/Middlewares/Third_Party/FreeRTOS/Source/queue.c **** 
2044:Firmware/Middlewares/Third_Party/FreeRTOS/Source/queue.c **** 	/* This function is called from a critical section. */
2045:Firmware/Middlewares/Third_Party/FreeRTOS/Source/queue.c **** 
2046:Firmware/Middlewares/Third_Party/FreeRTOS/Source/queue.c **** 	uxMessagesWaiting = pxQueue->uxMessagesWaiting;
 4189              		.loc 1 2046 0
 4190 0010 FB68     		ldr	r3, [r7, #12]
 4191 0012 9B6B     		ldr	r3, [r3, #56]
 4192 0014 3B61     		str	r3, [r7, #16]
2047:Firmware/Middlewares/Third_Party/FreeRTOS/Source/queue.c **** 
2048:Firmware/Middlewares/Third_Party/FreeRTOS/Source/queue.c **** 	if( pxQueue->uxItemSize == ( UBaseType_t ) 0 )
 4193              		.loc 1 2048 0
 4194 0016 FB68     		ldr	r3, [r7, #12]
ARM GAS  /tmp/ccwOJcWw.s 			page 114


 4195 0018 1B6C     		ldr	r3, [r3, #64]
 4196 001a 002B     		cmp	r3, #0
 4197 001c 0DD1     		bne	.L291
2049:Firmware/Middlewares/Third_Party/FreeRTOS/Source/queue.c **** 	{
2050:Firmware/Middlewares/Third_Party/FreeRTOS/Source/queue.c **** 		#if ( configUSE_MUTEXES == 1 )
2051:Firmware/Middlewares/Third_Party/FreeRTOS/Source/queue.c **** 		{
2052:Firmware/Middlewares/Third_Party/FreeRTOS/Source/queue.c **** 			if( pxQueue->uxQueueType == queueQUEUE_IS_MUTEX )
 4198              		.loc 1 2052 0
 4199 001e FB68     		ldr	r3, [r7, #12]
 4200 0020 1B68     		ldr	r3, [r3]
 4201 0022 002B     		cmp	r3, #0
 4202 0024 4DD1     		bne	.L292
2053:Firmware/Middlewares/Third_Party/FreeRTOS/Source/queue.c **** 			{
2054:Firmware/Middlewares/Third_Party/FreeRTOS/Source/queue.c **** 				/* The mutex is no longer being held. */
2055:Firmware/Middlewares/Third_Party/FreeRTOS/Source/queue.c **** 				xReturn = xTaskPriorityDisinherit( ( void * ) pxQueue->pxMutexHolder );
 4203              		.loc 1 2055 0
 4204 0026 FB68     		ldr	r3, [r7, #12]
 4205 0028 5B68     		ldr	r3, [r3, #4]
 4206 002a 1846     		mov	r0, r3
 4207 002c FFF7FEFF 		bl	xTaskPriorityDisinherit
 4208 0030 7861     		str	r0, [r7, #20]
2056:Firmware/Middlewares/Third_Party/FreeRTOS/Source/queue.c **** 				pxQueue->pxMutexHolder = NULL;
 4209              		.loc 1 2056 0
 4210 0032 FB68     		ldr	r3, [r7, #12]
 4211 0034 0022     		movs	r2, #0
 4212 0036 5A60     		str	r2, [r3, #4]
 4213 0038 43E0     		b	.L292
 4214              	.L291:
2057:Firmware/Middlewares/Third_Party/FreeRTOS/Source/queue.c **** 			}
2058:Firmware/Middlewares/Third_Party/FreeRTOS/Source/queue.c **** 			else
2059:Firmware/Middlewares/Third_Party/FreeRTOS/Source/queue.c **** 			{
2060:Firmware/Middlewares/Third_Party/FreeRTOS/Source/queue.c **** 				mtCOVERAGE_TEST_MARKER();
2061:Firmware/Middlewares/Third_Party/FreeRTOS/Source/queue.c **** 			}
2062:Firmware/Middlewares/Third_Party/FreeRTOS/Source/queue.c **** 		}
2063:Firmware/Middlewares/Third_Party/FreeRTOS/Source/queue.c **** 		#endif /* configUSE_MUTEXES */
2064:Firmware/Middlewares/Third_Party/FreeRTOS/Source/queue.c **** 	}
2065:Firmware/Middlewares/Third_Party/FreeRTOS/Source/queue.c **** 	else if( xPosition == queueSEND_TO_BACK )
 4215              		.loc 1 2065 0
 4216 003a 7B68     		ldr	r3, [r7, #4]
 4217 003c 002B     		cmp	r3, #0
 4218 003e 19D1     		bne	.L293
2066:Firmware/Middlewares/Third_Party/FreeRTOS/Source/queue.c **** 	{
2067:Firmware/Middlewares/Third_Party/FreeRTOS/Source/queue.c **** 		( void ) memcpy( ( void * ) pxQueue->pcWriteTo, pvItemToQueue, ( size_t ) pxQueue->uxItemSize ); 
 4219              		.loc 1 2067 0
 4220 0040 FB68     		ldr	r3, [r7, #12]
 4221 0042 9868     		ldr	r0, [r3, #8]
 4222 0044 FB68     		ldr	r3, [r7, #12]
 4223 0046 1B6C     		ldr	r3, [r3, #64]
 4224 0048 1A46     		mov	r2, r3
 4225 004a B968     		ldr	r1, [r7, #8]
 4226 004c FFF7FEFF 		bl	memcpy
2068:Firmware/Middlewares/Third_Party/FreeRTOS/Source/queue.c **** 		pxQueue->pcWriteTo += pxQueue->uxItemSize;
 4227              		.loc 1 2068 0
 4228 0050 FB68     		ldr	r3, [r7, #12]
 4229 0052 9A68     		ldr	r2, [r3, #8]
 4230 0054 FB68     		ldr	r3, [r7, #12]
 4231 0056 1B6C     		ldr	r3, [r3, #64]
ARM GAS  /tmp/ccwOJcWw.s 			page 115


 4232 0058 1A44     		add	r2, r2, r3
 4233 005a FB68     		ldr	r3, [r7, #12]
 4234 005c 9A60     		str	r2, [r3, #8]
2069:Firmware/Middlewares/Third_Party/FreeRTOS/Source/queue.c **** 		if( pxQueue->pcWriteTo >= pxQueue->pcTail ) /*lint !e946 MISRA exception justified as comparison 
 4235              		.loc 1 2069 0
 4236 005e FB68     		ldr	r3, [r7, #12]
 4237 0060 9A68     		ldr	r2, [r3, #8]
 4238 0062 FB68     		ldr	r3, [r7, #12]
 4239 0064 5B68     		ldr	r3, [r3, #4]
 4240 0066 9A42     		cmp	r2, r3
 4241 0068 2BD3     		bcc	.L292
2070:Firmware/Middlewares/Third_Party/FreeRTOS/Source/queue.c **** 		{
2071:Firmware/Middlewares/Third_Party/FreeRTOS/Source/queue.c **** 			pxQueue->pcWriteTo = pxQueue->pcHead;
 4242              		.loc 1 2071 0
 4243 006a FB68     		ldr	r3, [r7, #12]
 4244 006c 1A68     		ldr	r2, [r3]
 4245 006e FB68     		ldr	r3, [r7, #12]
 4246 0070 9A60     		str	r2, [r3, #8]
 4247 0072 26E0     		b	.L292
 4248              	.L293:
2072:Firmware/Middlewares/Third_Party/FreeRTOS/Source/queue.c **** 		}
2073:Firmware/Middlewares/Third_Party/FreeRTOS/Source/queue.c **** 		else
2074:Firmware/Middlewares/Third_Party/FreeRTOS/Source/queue.c **** 		{
2075:Firmware/Middlewares/Third_Party/FreeRTOS/Source/queue.c **** 			mtCOVERAGE_TEST_MARKER();
2076:Firmware/Middlewares/Third_Party/FreeRTOS/Source/queue.c **** 		}
2077:Firmware/Middlewares/Third_Party/FreeRTOS/Source/queue.c **** 	}
2078:Firmware/Middlewares/Third_Party/FreeRTOS/Source/queue.c **** 	else
2079:Firmware/Middlewares/Third_Party/FreeRTOS/Source/queue.c **** 	{
2080:Firmware/Middlewares/Third_Party/FreeRTOS/Source/queue.c **** 		( void ) memcpy( ( void * ) pxQueue->u.pcReadFrom, pvItemToQueue, ( size_t ) pxQueue->uxItemSize 
 4249              		.loc 1 2080 0
 4250 0074 FB68     		ldr	r3, [r7, #12]
 4251 0076 D868     		ldr	r0, [r3, #12]
 4252 0078 FB68     		ldr	r3, [r7, #12]
 4253 007a 1B6C     		ldr	r3, [r3, #64]
 4254 007c 1A46     		mov	r2, r3
 4255 007e B968     		ldr	r1, [r7, #8]
 4256 0080 FFF7FEFF 		bl	memcpy
2081:Firmware/Middlewares/Third_Party/FreeRTOS/Source/queue.c **** 		pxQueue->u.pcReadFrom -= pxQueue->uxItemSize;
 4257              		.loc 1 2081 0
 4258 0084 FB68     		ldr	r3, [r7, #12]
 4259 0086 DA68     		ldr	r2, [r3, #12]
 4260 0088 FB68     		ldr	r3, [r7, #12]
 4261 008a 1B6C     		ldr	r3, [r3, #64]
 4262 008c 5B42     		negs	r3, r3
 4263 008e 1A44     		add	r2, r2, r3
 4264 0090 FB68     		ldr	r3, [r7, #12]
 4265 0092 DA60     		str	r2, [r3, #12]
2082:Firmware/Middlewares/Third_Party/FreeRTOS/Source/queue.c **** 		if( pxQueue->u.pcReadFrom < pxQueue->pcHead ) /*lint !e946 MISRA exception justified as compariso
 4266              		.loc 1 2082 0
 4267 0094 FB68     		ldr	r3, [r7, #12]
 4268 0096 DA68     		ldr	r2, [r3, #12]
 4269 0098 FB68     		ldr	r3, [r7, #12]
 4270 009a 1B68     		ldr	r3, [r3]
 4271 009c 9A42     		cmp	r2, r3
 4272 009e 07D2     		bcs	.L294
2083:Firmware/Middlewares/Third_Party/FreeRTOS/Source/queue.c **** 		{
2084:Firmware/Middlewares/Third_Party/FreeRTOS/Source/queue.c **** 			pxQueue->u.pcReadFrom = ( pxQueue->pcTail - pxQueue->uxItemSize );
ARM GAS  /tmp/ccwOJcWw.s 			page 116


 4273              		.loc 1 2084 0
 4274 00a0 FB68     		ldr	r3, [r7, #12]
 4275 00a2 5A68     		ldr	r2, [r3, #4]
 4276 00a4 FB68     		ldr	r3, [r7, #12]
 4277 00a6 1B6C     		ldr	r3, [r3, #64]
 4278 00a8 5B42     		negs	r3, r3
 4279 00aa 1A44     		add	r2, r2, r3
 4280 00ac FB68     		ldr	r3, [r7, #12]
 4281 00ae DA60     		str	r2, [r3, #12]
 4282              	.L294:
2085:Firmware/Middlewares/Third_Party/FreeRTOS/Source/queue.c **** 		}
2086:Firmware/Middlewares/Third_Party/FreeRTOS/Source/queue.c **** 		else
2087:Firmware/Middlewares/Third_Party/FreeRTOS/Source/queue.c **** 		{
2088:Firmware/Middlewares/Third_Party/FreeRTOS/Source/queue.c **** 			mtCOVERAGE_TEST_MARKER();
2089:Firmware/Middlewares/Third_Party/FreeRTOS/Source/queue.c **** 		}
2090:Firmware/Middlewares/Third_Party/FreeRTOS/Source/queue.c **** 
2091:Firmware/Middlewares/Third_Party/FreeRTOS/Source/queue.c **** 		if( xPosition == queueOVERWRITE )
 4283              		.loc 1 2091 0
 4284 00b0 7B68     		ldr	r3, [r7, #4]
 4285 00b2 022B     		cmp	r3, #2
 4286 00b4 05D1     		bne	.L292
2092:Firmware/Middlewares/Third_Party/FreeRTOS/Source/queue.c **** 		{
2093:Firmware/Middlewares/Third_Party/FreeRTOS/Source/queue.c **** 			if( uxMessagesWaiting > ( UBaseType_t ) 0 )
 4287              		.loc 1 2093 0
 4288 00b6 3B69     		ldr	r3, [r7, #16]
 4289 00b8 002B     		cmp	r3, #0
 4290 00ba 02D0     		beq	.L292
2094:Firmware/Middlewares/Third_Party/FreeRTOS/Source/queue.c **** 			{
2095:Firmware/Middlewares/Third_Party/FreeRTOS/Source/queue.c **** 				/* An item is not being added but overwritten, so subtract
2096:Firmware/Middlewares/Third_Party/FreeRTOS/Source/queue.c **** 				one from the recorded number of items in the queue so when
2097:Firmware/Middlewares/Third_Party/FreeRTOS/Source/queue.c **** 				one is added again below the number of recorded items remains
2098:Firmware/Middlewares/Third_Party/FreeRTOS/Source/queue.c **** 				correct. */
2099:Firmware/Middlewares/Third_Party/FreeRTOS/Source/queue.c **** 				--uxMessagesWaiting;
 4291              		.loc 1 2099 0
 4292 00bc 3B69     		ldr	r3, [r7, #16]
 4293 00be 013B     		subs	r3, r3, #1
 4294 00c0 3B61     		str	r3, [r7, #16]
 4295              	.L292:
2100:Firmware/Middlewares/Third_Party/FreeRTOS/Source/queue.c **** 			}
2101:Firmware/Middlewares/Third_Party/FreeRTOS/Source/queue.c **** 			else
2102:Firmware/Middlewares/Third_Party/FreeRTOS/Source/queue.c **** 			{
2103:Firmware/Middlewares/Third_Party/FreeRTOS/Source/queue.c **** 				mtCOVERAGE_TEST_MARKER();
2104:Firmware/Middlewares/Third_Party/FreeRTOS/Source/queue.c **** 			}
2105:Firmware/Middlewares/Third_Party/FreeRTOS/Source/queue.c **** 		}
2106:Firmware/Middlewares/Third_Party/FreeRTOS/Source/queue.c **** 		else
2107:Firmware/Middlewares/Third_Party/FreeRTOS/Source/queue.c **** 		{
2108:Firmware/Middlewares/Third_Party/FreeRTOS/Source/queue.c **** 			mtCOVERAGE_TEST_MARKER();
2109:Firmware/Middlewares/Third_Party/FreeRTOS/Source/queue.c **** 		}
2110:Firmware/Middlewares/Third_Party/FreeRTOS/Source/queue.c **** 	}
2111:Firmware/Middlewares/Third_Party/FreeRTOS/Source/queue.c **** 
2112:Firmware/Middlewares/Third_Party/FreeRTOS/Source/queue.c **** 	pxQueue->uxMessagesWaiting = uxMessagesWaiting + ( UBaseType_t ) 1;
 4296              		.loc 1 2112 0
 4297 00c2 3B69     		ldr	r3, [r7, #16]
 4298 00c4 5A1C     		adds	r2, r3, #1
 4299 00c6 FB68     		ldr	r3, [r7, #12]
 4300 00c8 9A63     		str	r2, [r3, #56]
2113:Firmware/Middlewares/Third_Party/FreeRTOS/Source/queue.c **** 
ARM GAS  /tmp/ccwOJcWw.s 			page 117


2114:Firmware/Middlewares/Third_Party/FreeRTOS/Source/queue.c **** 	return xReturn;
 4301              		.loc 1 2114 0
 4302 00ca 7B69     		ldr	r3, [r7, #20]
2115:Firmware/Middlewares/Third_Party/FreeRTOS/Source/queue.c **** }
 4303              		.loc 1 2115 0
 4304 00cc 1846     		mov	r0, r3
 4305 00ce 1837     		adds	r7, r7, #24
 4306              	.LCFI154:
 4307              		.cfi_def_cfa_offset 8
 4308 00d0 BD46     		mov	sp, r7
 4309              	.LCFI155:
 4310              		.cfi_def_cfa_register 13
 4311              		@ sp needed
 4312 00d2 80BD     		pop	{r7, pc}
 4313              		.cfi_endproc
 4314              	.LFE33:
 4316              		.section	.text.prvCopyDataFromQueue,"ax",%progbits
 4317              		.align	1
 4318              		.syntax unified
 4319              		.thumb
 4320              		.thumb_func
 4321              		.fpu fpv4-sp-d16
 4323              	prvCopyDataFromQueue:
 4324              	.LFB34:
2116:Firmware/Middlewares/Third_Party/FreeRTOS/Source/queue.c **** /*-----------------------------------------------------------*/
2117:Firmware/Middlewares/Third_Party/FreeRTOS/Source/queue.c **** 
2118:Firmware/Middlewares/Third_Party/FreeRTOS/Source/queue.c **** static void prvCopyDataFromQueue( Queue_t * const pxQueue, void * const pvBuffer )
2119:Firmware/Middlewares/Third_Party/FreeRTOS/Source/queue.c **** {
 4325              		.loc 1 2119 0
 4326              		.cfi_startproc
 4327              		@ args = 0, pretend = 0, frame = 8
 4328              		@ frame_needed = 1, uses_anonymous_args = 0
 4329 0000 80B5     		push	{r7, lr}
 4330              	.LCFI156:
 4331              		.cfi_def_cfa_offset 8
 4332              		.cfi_offset 7, -8
 4333              		.cfi_offset 14, -4
 4334 0002 82B0     		sub	sp, sp, #8
 4335              	.LCFI157:
 4336              		.cfi_def_cfa_offset 16
 4337 0004 00AF     		add	r7, sp, #0
 4338              	.LCFI158:
 4339              		.cfi_def_cfa_register 7
 4340 0006 7860     		str	r0, [r7, #4]
 4341 0008 3960     		str	r1, [r7]
2120:Firmware/Middlewares/Third_Party/FreeRTOS/Source/queue.c **** 	if( pxQueue->uxItemSize != ( UBaseType_t ) 0 )
 4342              		.loc 1 2120 0
 4343 000a 7B68     		ldr	r3, [r7, #4]
 4344 000c 1B6C     		ldr	r3, [r3, #64]
 4345 000e 002B     		cmp	r3, #0
 4346 0010 18D0     		beq	.L299
2121:Firmware/Middlewares/Third_Party/FreeRTOS/Source/queue.c **** 	{
2122:Firmware/Middlewares/Third_Party/FreeRTOS/Source/queue.c **** 		pxQueue->u.pcReadFrom += pxQueue->uxItemSize;
 4347              		.loc 1 2122 0
 4348 0012 7B68     		ldr	r3, [r7, #4]
 4349 0014 DA68     		ldr	r2, [r3, #12]
 4350 0016 7B68     		ldr	r3, [r7, #4]
ARM GAS  /tmp/ccwOJcWw.s 			page 118


 4351 0018 1B6C     		ldr	r3, [r3, #64]
 4352 001a 1A44     		add	r2, r2, r3
 4353 001c 7B68     		ldr	r3, [r7, #4]
 4354 001e DA60     		str	r2, [r3, #12]
2123:Firmware/Middlewares/Third_Party/FreeRTOS/Source/queue.c **** 		if( pxQueue->u.pcReadFrom >= pxQueue->pcTail ) /*lint !e946 MISRA exception justified as use of t
 4355              		.loc 1 2123 0
 4356 0020 7B68     		ldr	r3, [r7, #4]
 4357 0022 DA68     		ldr	r2, [r3, #12]
 4358 0024 7B68     		ldr	r3, [r7, #4]
 4359 0026 5B68     		ldr	r3, [r3, #4]
 4360 0028 9A42     		cmp	r2, r3
 4361 002a 03D3     		bcc	.L298
2124:Firmware/Middlewares/Third_Party/FreeRTOS/Source/queue.c **** 		{
2125:Firmware/Middlewares/Third_Party/FreeRTOS/Source/queue.c **** 			pxQueue->u.pcReadFrom = pxQueue->pcHead;
 4362              		.loc 1 2125 0
 4363 002c 7B68     		ldr	r3, [r7, #4]
 4364 002e 1A68     		ldr	r2, [r3]
 4365 0030 7B68     		ldr	r3, [r7, #4]
 4366 0032 DA60     		str	r2, [r3, #12]
 4367              	.L298:
2126:Firmware/Middlewares/Third_Party/FreeRTOS/Source/queue.c **** 		}
2127:Firmware/Middlewares/Third_Party/FreeRTOS/Source/queue.c **** 		else
2128:Firmware/Middlewares/Third_Party/FreeRTOS/Source/queue.c **** 		{
2129:Firmware/Middlewares/Third_Party/FreeRTOS/Source/queue.c **** 			mtCOVERAGE_TEST_MARKER();
2130:Firmware/Middlewares/Third_Party/FreeRTOS/Source/queue.c **** 		}
2131:Firmware/Middlewares/Third_Party/FreeRTOS/Source/queue.c **** 		( void ) memcpy( ( void * ) pvBuffer, ( void * ) pxQueue->u.pcReadFrom, ( size_t ) pxQueue->uxIte
 4368              		.loc 1 2131 0
 4369 0034 7B68     		ldr	r3, [r7, #4]
 4370 0036 D968     		ldr	r1, [r3, #12]
 4371 0038 7B68     		ldr	r3, [r7, #4]
 4372 003a 1B6C     		ldr	r3, [r3, #64]
 4373 003c 1A46     		mov	r2, r3
 4374 003e 3868     		ldr	r0, [r7]
 4375 0040 FFF7FEFF 		bl	memcpy
 4376              	.L299:
2132:Firmware/Middlewares/Third_Party/FreeRTOS/Source/queue.c **** 	}
2133:Firmware/Middlewares/Third_Party/FreeRTOS/Source/queue.c **** }
 4377              		.loc 1 2133 0
 4378 0044 00BF     		nop
 4379 0046 0837     		adds	r7, r7, #8
 4380              	.LCFI159:
 4381              		.cfi_def_cfa_offset 8
 4382 0048 BD46     		mov	sp, r7
 4383              	.LCFI160:
 4384              		.cfi_def_cfa_register 13
 4385              		@ sp needed
 4386 004a 80BD     		pop	{r7, pc}
 4387              		.cfi_endproc
 4388              	.LFE34:
 4390              		.section	.text.prvUnlockQueue,"ax",%progbits
 4391              		.align	1
 4392              		.syntax unified
 4393              		.thumb
 4394              		.thumb_func
 4395              		.fpu fpv4-sp-d16
 4397              	prvUnlockQueue:
 4398              	.LFB35:
ARM GAS  /tmp/ccwOJcWw.s 			page 119


2134:Firmware/Middlewares/Third_Party/FreeRTOS/Source/queue.c **** /*-----------------------------------------------------------*/
2135:Firmware/Middlewares/Third_Party/FreeRTOS/Source/queue.c **** 
2136:Firmware/Middlewares/Third_Party/FreeRTOS/Source/queue.c **** static void prvUnlockQueue( Queue_t * const pxQueue )
2137:Firmware/Middlewares/Third_Party/FreeRTOS/Source/queue.c **** {
 4399              		.loc 1 2137 0
 4400              		.cfi_startproc
 4401              		@ args = 0, pretend = 0, frame = 16
 4402              		@ frame_needed = 1, uses_anonymous_args = 0
 4403 0000 80B5     		push	{r7, lr}
 4404              	.LCFI161:
 4405              		.cfi_def_cfa_offset 8
 4406              		.cfi_offset 7, -8
 4407              		.cfi_offset 14, -4
 4408 0002 84B0     		sub	sp, sp, #16
 4409              	.LCFI162:
 4410              		.cfi_def_cfa_offset 24
 4411 0004 00AF     		add	r7, sp, #0
 4412              	.LCFI163:
 4413              		.cfi_def_cfa_register 7
 4414 0006 7860     		str	r0, [r7, #4]
2138:Firmware/Middlewares/Third_Party/FreeRTOS/Source/queue.c **** 	/* THIS FUNCTION MUST BE CALLED WITH THE SCHEDULER SUSPENDED. */
2139:Firmware/Middlewares/Third_Party/FreeRTOS/Source/queue.c **** 
2140:Firmware/Middlewares/Third_Party/FreeRTOS/Source/queue.c **** 	/* The lock counts contains the number of extra data items placed or
2141:Firmware/Middlewares/Third_Party/FreeRTOS/Source/queue.c **** 	removed from the queue while the queue was locked.  When a queue is
2142:Firmware/Middlewares/Third_Party/FreeRTOS/Source/queue.c **** 	locked items can be added or removed, but the event lists cannot be
2143:Firmware/Middlewares/Third_Party/FreeRTOS/Source/queue.c **** 	updated. */
2144:Firmware/Middlewares/Third_Party/FreeRTOS/Source/queue.c **** 	taskENTER_CRITICAL();
 4415              		.loc 1 2144 0
 4416 0008 FFF7FEFF 		bl	vPortEnterCritical
 4417              	.LBB230:
2145:Firmware/Middlewares/Third_Party/FreeRTOS/Source/queue.c **** 	{
2146:Firmware/Middlewares/Third_Party/FreeRTOS/Source/queue.c **** 		int8_t cTxLock = pxQueue->cTxLock;
 4418              		.loc 1 2146 0
 4419 000c 7B68     		ldr	r3, [r7, #4]
 4420 000e 93F84530 		ldrb	r3, [r3, #69]
 4421 0012 FB73     		strb	r3, [r7, #15]
2147:Firmware/Middlewares/Third_Party/FreeRTOS/Source/queue.c **** 
2148:Firmware/Middlewares/Third_Party/FreeRTOS/Source/queue.c **** 		/* See if data was added to the queue while it was locked. */
2149:Firmware/Middlewares/Third_Party/FreeRTOS/Source/queue.c **** 		while( cTxLock > queueLOCKED_UNMODIFIED )
 4422              		.loc 1 2149 0
 4423 0014 11E0     		b	.L301
 4424              	.L305:
2150:Firmware/Middlewares/Third_Party/FreeRTOS/Source/queue.c **** 		{
2151:Firmware/Middlewares/Third_Party/FreeRTOS/Source/queue.c **** 			/* Data was posted while the queue was locked.  Are any tasks
2152:Firmware/Middlewares/Third_Party/FreeRTOS/Source/queue.c **** 			blocked waiting for data to become available? */
2153:Firmware/Middlewares/Third_Party/FreeRTOS/Source/queue.c **** 			#if ( configUSE_QUEUE_SETS == 1 )
2154:Firmware/Middlewares/Third_Party/FreeRTOS/Source/queue.c **** 			{
2155:Firmware/Middlewares/Third_Party/FreeRTOS/Source/queue.c **** 				if( pxQueue->pxQueueSetContainer != NULL )
2156:Firmware/Middlewares/Third_Party/FreeRTOS/Source/queue.c **** 				{
2157:Firmware/Middlewares/Third_Party/FreeRTOS/Source/queue.c **** 					if( prvNotifyQueueSetContainer( pxQueue, queueSEND_TO_BACK ) != pdFALSE )
2158:Firmware/Middlewares/Third_Party/FreeRTOS/Source/queue.c **** 					{
2159:Firmware/Middlewares/Third_Party/FreeRTOS/Source/queue.c **** 						/* The queue is a member of a queue set, and posting to
2160:Firmware/Middlewares/Third_Party/FreeRTOS/Source/queue.c **** 						the queue set caused a higher priority task to unblock.
2161:Firmware/Middlewares/Third_Party/FreeRTOS/Source/queue.c **** 						A context switch is required. */
2162:Firmware/Middlewares/Third_Party/FreeRTOS/Source/queue.c **** 						vTaskMissedYield();
2163:Firmware/Middlewares/Third_Party/FreeRTOS/Source/queue.c **** 					}
2164:Firmware/Middlewares/Third_Party/FreeRTOS/Source/queue.c **** 					else
ARM GAS  /tmp/ccwOJcWw.s 			page 120


2165:Firmware/Middlewares/Third_Party/FreeRTOS/Source/queue.c **** 					{
2166:Firmware/Middlewares/Third_Party/FreeRTOS/Source/queue.c **** 						mtCOVERAGE_TEST_MARKER();
2167:Firmware/Middlewares/Third_Party/FreeRTOS/Source/queue.c **** 					}
2168:Firmware/Middlewares/Third_Party/FreeRTOS/Source/queue.c **** 				}
2169:Firmware/Middlewares/Third_Party/FreeRTOS/Source/queue.c **** 				else
2170:Firmware/Middlewares/Third_Party/FreeRTOS/Source/queue.c **** 				{
2171:Firmware/Middlewares/Third_Party/FreeRTOS/Source/queue.c **** 					/* Tasks that are removed from the event list will get
2172:Firmware/Middlewares/Third_Party/FreeRTOS/Source/queue.c **** 					added to the pending ready list as the scheduler is still
2173:Firmware/Middlewares/Third_Party/FreeRTOS/Source/queue.c **** 					suspended. */
2174:Firmware/Middlewares/Third_Party/FreeRTOS/Source/queue.c **** 					if( listLIST_IS_EMPTY( &( pxQueue->xTasksWaitingToReceive ) ) == pdFALSE )
2175:Firmware/Middlewares/Third_Party/FreeRTOS/Source/queue.c **** 					{
2176:Firmware/Middlewares/Third_Party/FreeRTOS/Source/queue.c **** 						if( xTaskRemoveFromEventList( &( pxQueue->xTasksWaitingToReceive ) ) != pdFALSE )
2177:Firmware/Middlewares/Third_Party/FreeRTOS/Source/queue.c **** 						{
2178:Firmware/Middlewares/Third_Party/FreeRTOS/Source/queue.c **** 							/* The task waiting has a higher priority so record that a
2179:Firmware/Middlewares/Third_Party/FreeRTOS/Source/queue.c **** 							context	switch is required. */
2180:Firmware/Middlewares/Third_Party/FreeRTOS/Source/queue.c **** 							vTaskMissedYield();
2181:Firmware/Middlewares/Third_Party/FreeRTOS/Source/queue.c **** 						}
2182:Firmware/Middlewares/Third_Party/FreeRTOS/Source/queue.c **** 						else
2183:Firmware/Middlewares/Third_Party/FreeRTOS/Source/queue.c **** 						{
2184:Firmware/Middlewares/Third_Party/FreeRTOS/Source/queue.c **** 							mtCOVERAGE_TEST_MARKER();
2185:Firmware/Middlewares/Third_Party/FreeRTOS/Source/queue.c **** 						}
2186:Firmware/Middlewares/Third_Party/FreeRTOS/Source/queue.c **** 					}
2187:Firmware/Middlewares/Third_Party/FreeRTOS/Source/queue.c **** 					else
2188:Firmware/Middlewares/Third_Party/FreeRTOS/Source/queue.c **** 					{
2189:Firmware/Middlewares/Third_Party/FreeRTOS/Source/queue.c **** 						break;
2190:Firmware/Middlewares/Third_Party/FreeRTOS/Source/queue.c **** 					}
2191:Firmware/Middlewares/Third_Party/FreeRTOS/Source/queue.c **** 				}
2192:Firmware/Middlewares/Third_Party/FreeRTOS/Source/queue.c **** 			}
2193:Firmware/Middlewares/Third_Party/FreeRTOS/Source/queue.c **** 			#else /* configUSE_QUEUE_SETS */
2194:Firmware/Middlewares/Third_Party/FreeRTOS/Source/queue.c **** 			{
2195:Firmware/Middlewares/Third_Party/FreeRTOS/Source/queue.c **** 				/* Tasks that are removed from the event list will get added to
2196:Firmware/Middlewares/Third_Party/FreeRTOS/Source/queue.c **** 				the pending ready list as the scheduler is still suspended. */
2197:Firmware/Middlewares/Third_Party/FreeRTOS/Source/queue.c **** 				if( listLIST_IS_EMPTY( &( pxQueue->xTasksWaitingToReceive ) ) == pdFALSE )
 4425              		.loc 1 2197 0
 4426 0016 7B68     		ldr	r3, [r7, #4]
 4427 0018 5B6A     		ldr	r3, [r3, #36]
 4428 001a 002B     		cmp	r3, #0
 4429 001c 12D0     		beq	.L311
2198:Firmware/Middlewares/Third_Party/FreeRTOS/Source/queue.c **** 				{
2199:Firmware/Middlewares/Third_Party/FreeRTOS/Source/queue.c **** 					if( xTaskRemoveFromEventList( &( pxQueue->xTasksWaitingToReceive ) ) != pdFALSE )
 4430              		.loc 1 2199 0
 4431 001e 7B68     		ldr	r3, [r7, #4]
 4432 0020 2433     		adds	r3, r3, #36
 4433 0022 1846     		mov	r0, r3
 4434 0024 FFF7FEFF 		bl	xTaskRemoveFromEventList
 4435 0028 0346     		mov	r3, r0
 4436 002a 002B     		cmp	r3, #0
 4437 002c 01D0     		beq	.L303
2200:Firmware/Middlewares/Third_Party/FreeRTOS/Source/queue.c **** 					{
2201:Firmware/Middlewares/Third_Party/FreeRTOS/Source/queue.c **** 						/* The task waiting has a higher priority so record that
2202:Firmware/Middlewares/Third_Party/FreeRTOS/Source/queue.c **** 						a context switch is required. */
2203:Firmware/Middlewares/Third_Party/FreeRTOS/Source/queue.c **** 						vTaskMissedYield();
 4438              		.loc 1 2203 0
 4439 002e FFF7FEFF 		bl	vTaskMissedYield
 4440              	.L303:
2204:Firmware/Middlewares/Third_Party/FreeRTOS/Source/queue.c **** 					}
2205:Firmware/Middlewares/Third_Party/FreeRTOS/Source/queue.c **** 					else
ARM GAS  /tmp/ccwOJcWw.s 			page 121


2206:Firmware/Middlewares/Third_Party/FreeRTOS/Source/queue.c **** 					{
2207:Firmware/Middlewares/Third_Party/FreeRTOS/Source/queue.c **** 						mtCOVERAGE_TEST_MARKER();
2208:Firmware/Middlewares/Third_Party/FreeRTOS/Source/queue.c **** 					}
2209:Firmware/Middlewares/Third_Party/FreeRTOS/Source/queue.c **** 				}
2210:Firmware/Middlewares/Third_Party/FreeRTOS/Source/queue.c **** 				else
2211:Firmware/Middlewares/Third_Party/FreeRTOS/Source/queue.c **** 				{
2212:Firmware/Middlewares/Third_Party/FreeRTOS/Source/queue.c **** 					break;
2213:Firmware/Middlewares/Third_Party/FreeRTOS/Source/queue.c **** 				}
2214:Firmware/Middlewares/Third_Party/FreeRTOS/Source/queue.c **** 			}
2215:Firmware/Middlewares/Third_Party/FreeRTOS/Source/queue.c **** 			#endif /* configUSE_QUEUE_SETS */
2216:Firmware/Middlewares/Third_Party/FreeRTOS/Source/queue.c **** 
2217:Firmware/Middlewares/Third_Party/FreeRTOS/Source/queue.c **** 			--cTxLock;
 4441              		.loc 1 2217 0
 4442 0032 FB7B     		ldrb	r3, [r7, #15]	@ zero_extendqisi2
 4443 0034 013B     		subs	r3, r3, #1
 4444 0036 DBB2     		uxtb	r3, r3
 4445 0038 FB73     		strb	r3, [r7, #15]
 4446              	.L301:
2149:Firmware/Middlewares/Third_Party/FreeRTOS/Source/queue.c **** 		{
 4447              		.loc 1 2149 0
 4448 003a 97F90F30 		ldrsb	r3, [r7, #15]
 4449 003e 002B     		cmp	r3, #0
 4450 0040 E9DC     		bgt	.L305
 4451 0042 00E0     		b	.L304
 4452              	.L311:
2212:Firmware/Middlewares/Third_Party/FreeRTOS/Source/queue.c **** 				}
 4453              		.loc 1 2212 0
 4454 0044 00BF     		nop
 4455              	.L304:
2218:Firmware/Middlewares/Third_Party/FreeRTOS/Source/queue.c **** 		}
2219:Firmware/Middlewares/Third_Party/FreeRTOS/Source/queue.c **** 
2220:Firmware/Middlewares/Third_Party/FreeRTOS/Source/queue.c **** 		pxQueue->cTxLock = queueUNLOCKED;
 4456              		.loc 1 2220 0
 4457 0046 7B68     		ldr	r3, [r7, #4]
 4458 0048 FF22     		movs	r2, #255
 4459 004a 83F84520 		strb	r2, [r3, #69]
 4460              	.LBE230:
2221:Firmware/Middlewares/Third_Party/FreeRTOS/Source/queue.c **** 	}
2222:Firmware/Middlewares/Third_Party/FreeRTOS/Source/queue.c **** 	taskEXIT_CRITICAL();
 4461              		.loc 1 2222 0
 4462 004e FFF7FEFF 		bl	vPortExitCritical
2223:Firmware/Middlewares/Third_Party/FreeRTOS/Source/queue.c **** 
2224:Firmware/Middlewares/Third_Party/FreeRTOS/Source/queue.c **** 	/* Do the same for the Rx lock. */
2225:Firmware/Middlewares/Third_Party/FreeRTOS/Source/queue.c **** 	taskENTER_CRITICAL();
 4463              		.loc 1 2225 0
 4464 0052 FFF7FEFF 		bl	vPortEnterCritical
 4465              	.LBB231:
2226:Firmware/Middlewares/Third_Party/FreeRTOS/Source/queue.c **** 	{
2227:Firmware/Middlewares/Third_Party/FreeRTOS/Source/queue.c **** 		int8_t cRxLock = pxQueue->cRxLock;
 4466              		.loc 1 2227 0
 4467 0056 7B68     		ldr	r3, [r7, #4]
 4468 0058 93F84430 		ldrb	r3, [r3, #68]
 4469 005c BB73     		strb	r3, [r7, #14]
2228:Firmware/Middlewares/Third_Party/FreeRTOS/Source/queue.c **** 
2229:Firmware/Middlewares/Third_Party/FreeRTOS/Source/queue.c **** 		while( cRxLock > queueLOCKED_UNMODIFIED )
 4470              		.loc 1 2229 0
 4471 005e 11E0     		b	.L306
ARM GAS  /tmp/ccwOJcWw.s 			page 122


 4472              	.L310:
2230:Firmware/Middlewares/Third_Party/FreeRTOS/Source/queue.c **** 		{
2231:Firmware/Middlewares/Third_Party/FreeRTOS/Source/queue.c **** 			if( listLIST_IS_EMPTY( &( pxQueue->xTasksWaitingToSend ) ) == pdFALSE )
 4473              		.loc 1 2231 0
 4474 0060 7B68     		ldr	r3, [r7, #4]
 4475 0062 1B69     		ldr	r3, [r3, #16]
 4476 0064 002B     		cmp	r3, #0
 4477 0066 12D0     		beq	.L312
2232:Firmware/Middlewares/Third_Party/FreeRTOS/Source/queue.c **** 			{
2233:Firmware/Middlewares/Third_Party/FreeRTOS/Source/queue.c **** 				if( xTaskRemoveFromEventList( &( pxQueue->xTasksWaitingToSend ) ) != pdFALSE )
 4478              		.loc 1 2233 0
 4479 0068 7B68     		ldr	r3, [r7, #4]
 4480 006a 1033     		adds	r3, r3, #16
 4481 006c 1846     		mov	r0, r3
 4482 006e FFF7FEFF 		bl	xTaskRemoveFromEventList
 4483 0072 0346     		mov	r3, r0
 4484 0074 002B     		cmp	r3, #0
 4485 0076 01D0     		beq	.L308
2234:Firmware/Middlewares/Third_Party/FreeRTOS/Source/queue.c **** 				{
2235:Firmware/Middlewares/Third_Party/FreeRTOS/Source/queue.c **** 					vTaskMissedYield();
 4486              		.loc 1 2235 0
 4487 0078 FFF7FEFF 		bl	vTaskMissedYield
 4488              	.L308:
2236:Firmware/Middlewares/Third_Party/FreeRTOS/Source/queue.c **** 				}
2237:Firmware/Middlewares/Third_Party/FreeRTOS/Source/queue.c **** 				else
2238:Firmware/Middlewares/Third_Party/FreeRTOS/Source/queue.c **** 				{
2239:Firmware/Middlewares/Third_Party/FreeRTOS/Source/queue.c **** 					mtCOVERAGE_TEST_MARKER();
2240:Firmware/Middlewares/Third_Party/FreeRTOS/Source/queue.c **** 				}
2241:Firmware/Middlewares/Third_Party/FreeRTOS/Source/queue.c **** 
2242:Firmware/Middlewares/Third_Party/FreeRTOS/Source/queue.c **** 				--cRxLock;
 4489              		.loc 1 2242 0
 4490 007c BB7B     		ldrb	r3, [r7, #14]	@ zero_extendqisi2
 4491 007e 013B     		subs	r3, r3, #1
 4492 0080 DBB2     		uxtb	r3, r3
 4493 0082 BB73     		strb	r3, [r7, #14]
 4494              	.L306:
2229:Firmware/Middlewares/Third_Party/FreeRTOS/Source/queue.c **** 		{
 4495              		.loc 1 2229 0
 4496 0084 97F90E30 		ldrsb	r3, [r7, #14]
 4497 0088 002B     		cmp	r3, #0
 4498 008a E9DC     		bgt	.L310
 4499 008c 00E0     		b	.L309
 4500              	.L312:
2243:Firmware/Middlewares/Third_Party/FreeRTOS/Source/queue.c **** 			}
2244:Firmware/Middlewares/Third_Party/FreeRTOS/Source/queue.c **** 			else
2245:Firmware/Middlewares/Third_Party/FreeRTOS/Source/queue.c **** 			{
2246:Firmware/Middlewares/Third_Party/FreeRTOS/Source/queue.c **** 				break;
 4501              		.loc 1 2246 0
 4502 008e 00BF     		nop
 4503              	.L309:
2247:Firmware/Middlewares/Third_Party/FreeRTOS/Source/queue.c **** 			}
2248:Firmware/Middlewares/Third_Party/FreeRTOS/Source/queue.c **** 		}
2249:Firmware/Middlewares/Third_Party/FreeRTOS/Source/queue.c **** 
2250:Firmware/Middlewares/Third_Party/FreeRTOS/Source/queue.c **** 		pxQueue->cRxLock = queueUNLOCKED;
 4504              		.loc 1 2250 0
 4505 0090 7B68     		ldr	r3, [r7, #4]
 4506 0092 FF22     		movs	r2, #255
ARM GAS  /tmp/ccwOJcWw.s 			page 123


 4507 0094 83F84420 		strb	r2, [r3, #68]
 4508              	.LBE231:
2251:Firmware/Middlewares/Third_Party/FreeRTOS/Source/queue.c **** 	}
2252:Firmware/Middlewares/Third_Party/FreeRTOS/Source/queue.c **** 	taskEXIT_CRITICAL();
 4509              		.loc 1 2252 0
 4510 0098 FFF7FEFF 		bl	vPortExitCritical
2253:Firmware/Middlewares/Third_Party/FreeRTOS/Source/queue.c **** }
 4511              		.loc 1 2253 0
 4512 009c 00BF     		nop
 4513 009e 1037     		adds	r7, r7, #16
 4514              	.LCFI164:
 4515              		.cfi_def_cfa_offset 8
 4516 00a0 BD46     		mov	sp, r7
 4517              	.LCFI165:
 4518              		.cfi_def_cfa_register 13
 4519              		@ sp needed
 4520 00a2 80BD     		pop	{r7, pc}
 4521              		.cfi_endproc
 4522              	.LFE35:
 4524              		.section	.text.prvIsQueueEmpty,"ax",%progbits
 4525              		.align	1
 4526              		.syntax unified
 4527              		.thumb
 4528              		.thumb_func
 4529              		.fpu fpv4-sp-d16
 4531              	prvIsQueueEmpty:
 4532              	.LFB36:
2254:Firmware/Middlewares/Third_Party/FreeRTOS/Source/queue.c **** /*-----------------------------------------------------------*/
2255:Firmware/Middlewares/Third_Party/FreeRTOS/Source/queue.c **** 
2256:Firmware/Middlewares/Third_Party/FreeRTOS/Source/queue.c **** static BaseType_t prvIsQueueEmpty( const Queue_t *pxQueue )
2257:Firmware/Middlewares/Third_Party/FreeRTOS/Source/queue.c **** {
 4533              		.loc 1 2257 0
 4534              		.cfi_startproc
 4535              		@ args = 0, pretend = 0, frame = 16
 4536              		@ frame_needed = 1, uses_anonymous_args = 0
 4537 0000 80B5     		push	{r7, lr}
 4538              	.LCFI166:
 4539              		.cfi_def_cfa_offset 8
 4540              		.cfi_offset 7, -8
 4541              		.cfi_offset 14, -4
 4542 0002 84B0     		sub	sp, sp, #16
 4543              	.LCFI167:
 4544              		.cfi_def_cfa_offset 24
 4545 0004 00AF     		add	r7, sp, #0
 4546              	.LCFI168:
 4547              		.cfi_def_cfa_register 7
 4548 0006 7860     		str	r0, [r7, #4]
2258:Firmware/Middlewares/Third_Party/FreeRTOS/Source/queue.c **** BaseType_t xReturn;
2259:Firmware/Middlewares/Third_Party/FreeRTOS/Source/queue.c **** 
2260:Firmware/Middlewares/Third_Party/FreeRTOS/Source/queue.c **** 	taskENTER_CRITICAL();
 4549              		.loc 1 2260 0
 4550 0008 FFF7FEFF 		bl	vPortEnterCritical
2261:Firmware/Middlewares/Third_Party/FreeRTOS/Source/queue.c **** 	{
2262:Firmware/Middlewares/Third_Party/FreeRTOS/Source/queue.c **** 		if( pxQueue->uxMessagesWaiting == ( UBaseType_t )  0 )
 4551              		.loc 1 2262 0
 4552 000c 7B68     		ldr	r3, [r7, #4]
 4553 000e 9B6B     		ldr	r3, [r3, #56]
ARM GAS  /tmp/ccwOJcWw.s 			page 124


 4554 0010 002B     		cmp	r3, #0
 4555 0012 02D1     		bne	.L314
2263:Firmware/Middlewares/Third_Party/FreeRTOS/Source/queue.c **** 		{
2264:Firmware/Middlewares/Third_Party/FreeRTOS/Source/queue.c **** 			xReturn = pdTRUE;
 4556              		.loc 1 2264 0
 4557 0014 0123     		movs	r3, #1
 4558 0016 FB60     		str	r3, [r7, #12]
 4559 0018 01E0     		b	.L315
 4560              	.L314:
2265:Firmware/Middlewares/Third_Party/FreeRTOS/Source/queue.c **** 		}
2266:Firmware/Middlewares/Third_Party/FreeRTOS/Source/queue.c **** 		else
2267:Firmware/Middlewares/Third_Party/FreeRTOS/Source/queue.c **** 		{
2268:Firmware/Middlewares/Third_Party/FreeRTOS/Source/queue.c **** 			xReturn = pdFALSE;
 4561              		.loc 1 2268 0
 4562 001a 0023     		movs	r3, #0
 4563 001c FB60     		str	r3, [r7, #12]
 4564              	.L315:
2269:Firmware/Middlewares/Third_Party/FreeRTOS/Source/queue.c **** 		}
2270:Firmware/Middlewares/Third_Party/FreeRTOS/Source/queue.c **** 	}
2271:Firmware/Middlewares/Third_Party/FreeRTOS/Source/queue.c **** 	taskEXIT_CRITICAL();
 4565              		.loc 1 2271 0
 4566 001e FFF7FEFF 		bl	vPortExitCritical
2272:Firmware/Middlewares/Third_Party/FreeRTOS/Source/queue.c **** 
2273:Firmware/Middlewares/Third_Party/FreeRTOS/Source/queue.c **** 	return xReturn;
 4567              		.loc 1 2273 0
 4568 0022 FB68     		ldr	r3, [r7, #12]
2274:Firmware/Middlewares/Third_Party/FreeRTOS/Source/queue.c **** }
 4569              		.loc 1 2274 0
 4570 0024 1846     		mov	r0, r3
 4571 0026 1037     		adds	r7, r7, #16
 4572              	.LCFI169:
 4573              		.cfi_def_cfa_offset 8
 4574 0028 BD46     		mov	sp, r7
 4575              	.LCFI170:
 4576              		.cfi_def_cfa_register 13
 4577              		@ sp needed
 4578 002a 80BD     		pop	{r7, pc}
 4579              		.cfi_endproc
 4580              	.LFE36:
 4582              		.section	.text.xQueueIsQueueEmptyFromISR,"ax",%progbits
 4583              		.align	1
 4584              		.global	xQueueIsQueueEmptyFromISR
 4585              		.syntax unified
 4586              		.thumb
 4587              		.thumb_func
 4588              		.fpu fpv4-sp-d16
 4590              	xQueueIsQueueEmptyFromISR:
 4591              	.LFB37:
2275:Firmware/Middlewares/Third_Party/FreeRTOS/Source/queue.c **** /*-----------------------------------------------------------*/
2276:Firmware/Middlewares/Third_Party/FreeRTOS/Source/queue.c **** 
2277:Firmware/Middlewares/Third_Party/FreeRTOS/Source/queue.c **** BaseType_t xQueueIsQueueEmptyFromISR( const QueueHandle_t xQueue )
2278:Firmware/Middlewares/Third_Party/FreeRTOS/Source/queue.c **** {
 4592              		.loc 1 2278 0
 4593              		.cfi_startproc
 4594              		@ args = 0, pretend = 0, frame = 16
 4595              		@ frame_needed = 1, uses_anonymous_args = 0
 4596              		@ link register save eliminated.
ARM GAS  /tmp/ccwOJcWw.s 			page 125


 4597 0000 80B4     		push	{r7}
 4598              	.LCFI171:
 4599              		.cfi_def_cfa_offset 4
 4600              		.cfi_offset 7, -4
 4601 0002 85B0     		sub	sp, sp, #20
 4602              	.LCFI172:
 4603              		.cfi_def_cfa_offset 24
 4604 0004 00AF     		add	r7, sp, #0
 4605              	.LCFI173:
 4606              		.cfi_def_cfa_register 7
 4607 0006 7860     		str	r0, [r7, #4]
2279:Firmware/Middlewares/Third_Party/FreeRTOS/Source/queue.c **** BaseType_t xReturn;
2280:Firmware/Middlewares/Third_Party/FreeRTOS/Source/queue.c **** 
2281:Firmware/Middlewares/Third_Party/FreeRTOS/Source/queue.c **** 	configASSERT( xQueue );
 4608              		.loc 1 2281 0
 4609 0008 7B68     		ldr	r3, [r7, #4]
 4610 000a 002B     		cmp	r3, #0
 4611 000c 09D1     		bne	.L318
 4612              	.LBB232:
 4613              	.LBB233:
 195:Firmware/Middlewares/Third_Party/FreeRTOS/Source/portable/GCC/ARM_CM4F/portmacro.h **** 	(
 4614              		.loc 2 195 0 discriminator 1
 4615              		.syntax unified
 4616              	@ 195 "Firmware/Middlewares/Third_Party/FreeRTOS/Source/portable/GCC/ARM_CM4F/portmacro.h" 1
 4617 000e 4FF05003 			mov r3, #80												
 4618 0012 83F31188 		msr basepri, r3											
 4619 0016 BFF36F8F 		isb														
 4620 001a BFF34F8F 		dsb														
 4621              	
 4622              	@ 0 "" 2
 4623              		.thumb
 4624              		.syntax unified
 4625 001e BB60     		str	r3, [r7, #8]
 4626              	.L319:
 4627              	.LBE233:
 4628              	.LBE232:
 4629              		.loc 1 2281 0 discriminator 1
 4630 0020 FEE7     		b	.L319
 4631              	.L318:
2282:Firmware/Middlewares/Third_Party/FreeRTOS/Source/queue.c **** 	if( ( ( Queue_t * ) xQueue )->uxMessagesWaiting == ( UBaseType_t ) 0 )
 4632              		.loc 1 2282 0
 4633 0022 7B68     		ldr	r3, [r7, #4]
 4634 0024 9B6B     		ldr	r3, [r3, #56]
 4635 0026 002B     		cmp	r3, #0
 4636 0028 02D1     		bne	.L320
2283:Firmware/Middlewares/Third_Party/FreeRTOS/Source/queue.c **** 	{
2284:Firmware/Middlewares/Third_Party/FreeRTOS/Source/queue.c **** 		xReturn = pdTRUE;
 4637              		.loc 1 2284 0
 4638 002a 0123     		movs	r3, #1
 4639 002c FB60     		str	r3, [r7, #12]
 4640 002e 01E0     		b	.L321
 4641              	.L320:
2285:Firmware/Middlewares/Third_Party/FreeRTOS/Source/queue.c **** 	}
2286:Firmware/Middlewares/Third_Party/FreeRTOS/Source/queue.c **** 	else
2287:Firmware/Middlewares/Third_Party/FreeRTOS/Source/queue.c **** 	{
2288:Firmware/Middlewares/Third_Party/FreeRTOS/Source/queue.c **** 		xReturn = pdFALSE;
 4642              		.loc 1 2288 0
ARM GAS  /tmp/ccwOJcWw.s 			page 126


 4643 0030 0023     		movs	r3, #0
 4644 0032 FB60     		str	r3, [r7, #12]
 4645              	.L321:
2289:Firmware/Middlewares/Third_Party/FreeRTOS/Source/queue.c **** 	}
2290:Firmware/Middlewares/Third_Party/FreeRTOS/Source/queue.c **** 
2291:Firmware/Middlewares/Third_Party/FreeRTOS/Source/queue.c **** 	return xReturn;
 4646              		.loc 1 2291 0
 4647 0034 FB68     		ldr	r3, [r7, #12]
2292:Firmware/Middlewares/Third_Party/FreeRTOS/Source/queue.c **** } /*lint !e818 xQueue could not be pointer to const because it is a typedef. */
 4648              		.loc 1 2292 0
 4649 0036 1846     		mov	r0, r3
 4650 0038 1437     		adds	r7, r7, #20
 4651              	.LCFI174:
 4652              		.cfi_def_cfa_offset 4
 4653 003a BD46     		mov	sp, r7
 4654              	.LCFI175:
 4655              		.cfi_def_cfa_register 13
 4656              		@ sp needed
 4657 003c 5DF8047B 		ldr	r7, [sp], #4
 4658              	.LCFI176:
 4659              		.cfi_restore 7
 4660              		.cfi_def_cfa_offset 0
 4661 0040 7047     		bx	lr
 4662              		.cfi_endproc
 4663              	.LFE37:
 4665              		.section	.text.prvIsQueueFull,"ax",%progbits
 4666              		.align	1
 4667              		.syntax unified
 4668              		.thumb
 4669              		.thumb_func
 4670              		.fpu fpv4-sp-d16
 4672              	prvIsQueueFull:
 4673              	.LFB38:
2293:Firmware/Middlewares/Third_Party/FreeRTOS/Source/queue.c **** /*-----------------------------------------------------------*/
2294:Firmware/Middlewares/Third_Party/FreeRTOS/Source/queue.c **** 
2295:Firmware/Middlewares/Third_Party/FreeRTOS/Source/queue.c **** static BaseType_t prvIsQueueFull( const Queue_t *pxQueue )
2296:Firmware/Middlewares/Third_Party/FreeRTOS/Source/queue.c **** {
 4674              		.loc 1 2296 0
 4675              		.cfi_startproc
 4676              		@ args = 0, pretend = 0, frame = 16
 4677              		@ frame_needed = 1, uses_anonymous_args = 0
 4678 0000 80B5     		push	{r7, lr}
 4679              	.LCFI177:
 4680              		.cfi_def_cfa_offset 8
 4681              		.cfi_offset 7, -8
 4682              		.cfi_offset 14, -4
 4683 0002 84B0     		sub	sp, sp, #16
 4684              	.LCFI178:
 4685              		.cfi_def_cfa_offset 24
 4686 0004 00AF     		add	r7, sp, #0
 4687              	.LCFI179:
 4688              		.cfi_def_cfa_register 7
 4689 0006 7860     		str	r0, [r7, #4]
2297:Firmware/Middlewares/Third_Party/FreeRTOS/Source/queue.c **** BaseType_t xReturn;
2298:Firmware/Middlewares/Third_Party/FreeRTOS/Source/queue.c **** 
2299:Firmware/Middlewares/Third_Party/FreeRTOS/Source/queue.c **** 	taskENTER_CRITICAL();
 4690              		.loc 1 2299 0
ARM GAS  /tmp/ccwOJcWw.s 			page 127


 4691 0008 FFF7FEFF 		bl	vPortEnterCritical
2300:Firmware/Middlewares/Third_Party/FreeRTOS/Source/queue.c **** 	{
2301:Firmware/Middlewares/Third_Party/FreeRTOS/Source/queue.c **** 		if( pxQueue->uxMessagesWaiting == pxQueue->uxLength )
 4692              		.loc 1 2301 0
 4693 000c 7B68     		ldr	r3, [r7, #4]
 4694 000e 9A6B     		ldr	r2, [r3, #56]
 4695 0010 7B68     		ldr	r3, [r7, #4]
 4696 0012 DB6B     		ldr	r3, [r3, #60]
 4697 0014 9A42     		cmp	r2, r3
 4698 0016 02D1     		bne	.L324
2302:Firmware/Middlewares/Third_Party/FreeRTOS/Source/queue.c **** 		{
2303:Firmware/Middlewares/Third_Party/FreeRTOS/Source/queue.c **** 			xReturn = pdTRUE;
 4699              		.loc 1 2303 0
 4700 0018 0123     		movs	r3, #1
 4701 001a FB60     		str	r3, [r7, #12]
 4702 001c 01E0     		b	.L325
 4703              	.L324:
2304:Firmware/Middlewares/Third_Party/FreeRTOS/Source/queue.c **** 		}
2305:Firmware/Middlewares/Third_Party/FreeRTOS/Source/queue.c **** 		else
2306:Firmware/Middlewares/Third_Party/FreeRTOS/Source/queue.c **** 		{
2307:Firmware/Middlewares/Third_Party/FreeRTOS/Source/queue.c **** 			xReturn = pdFALSE;
 4704              		.loc 1 2307 0
 4705 001e 0023     		movs	r3, #0
 4706 0020 FB60     		str	r3, [r7, #12]
 4707              	.L325:
2308:Firmware/Middlewares/Third_Party/FreeRTOS/Source/queue.c **** 		}
2309:Firmware/Middlewares/Third_Party/FreeRTOS/Source/queue.c **** 	}
2310:Firmware/Middlewares/Third_Party/FreeRTOS/Source/queue.c **** 	taskEXIT_CRITICAL();
 4708              		.loc 1 2310 0
 4709 0022 FFF7FEFF 		bl	vPortExitCritical
2311:Firmware/Middlewares/Third_Party/FreeRTOS/Source/queue.c **** 
2312:Firmware/Middlewares/Third_Party/FreeRTOS/Source/queue.c **** 	return xReturn;
 4710              		.loc 1 2312 0
 4711 0026 FB68     		ldr	r3, [r7, #12]
2313:Firmware/Middlewares/Third_Party/FreeRTOS/Source/queue.c **** }
 4712              		.loc 1 2313 0
 4713 0028 1846     		mov	r0, r3
 4714 002a 1037     		adds	r7, r7, #16
 4715              	.LCFI180:
 4716              		.cfi_def_cfa_offset 8
 4717 002c BD46     		mov	sp, r7
 4718              	.LCFI181:
 4719              		.cfi_def_cfa_register 13
 4720              		@ sp needed
 4721 002e 80BD     		pop	{r7, pc}
 4722              		.cfi_endproc
 4723              	.LFE38:
 4725              		.section	.text.xQueueIsQueueFullFromISR,"ax",%progbits
 4726              		.align	1
 4727              		.global	xQueueIsQueueFullFromISR
 4728              		.syntax unified
 4729              		.thumb
 4730              		.thumb_func
 4731              		.fpu fpv4-sp-d16
 4733              	xQueueIsQueueFullFromISR:
 4734              	.LFB39:
2314:Firmware/Middlewares/Third_Party/FreeRTOS/Source/queue.c **** /*-----------------------------------------------------------*/
ARM GAS  /tmp/ccwOJcWw.s 			page 128


2315:Firmware/Middlewares/Third_Party/FreeRTOS/Source/queue.c **** 
2316:Firmware/Middlewares/Third_Party/FreeRTOS/Source/queue.c **** BaseType_t xQueueIsQueueFullFromISR( const QueueHandle_t xQueue )
2317:Firmware/Middlewares/Third_Party/FreeRTOS/Source/queue.c **** {
 4735              		.loc 1 2317 0
 4736              		.cfi_startproc
 4737              		@ args = 0, pretend = 0, frame = 16
 4738              		@ frame_needed = 1, uses_anonymous_args = 0
 4739              		@ link register save eliminated.
 4740 0000 80B4     		push	{r7}
 4741              	.LCFI182:
 4742              		.cfi_def_cfa_offset 4
 4743              		.cfi_offset 7, -4
 4744 0002 85B0     		sub	sp, sp, #20
 4745              	.LCFI183:
 4746              		.cfi_def_cfa_offset 24
 4747 0004 00AF     		add	r7, sp, #0
 4748              	.LCFI184:
 4749              		.cfi_def_cfa_register 7
 4750 0006 7860     		str	r0, [r7, #4]
2318:Firmware/Middlewares/Third_Party/FreeRTOS/Source/queue.c **** BaseType_t xReturn;
2319:Firmware/Middlewares/Third_Party/FreeRTOS/Source/queue.c **** 
2320:Firmware/Middlewares/Third_Party/FreeRTOS/Source/queue.c **** 	configASSERT( xQueue );
 4751              		.loc 1 2320 0
 4752 0008 7B68     		ldr	r3, [r7, #4]
 4753 000a 002B     		cmp	r3, #0
 4754 000c 09D1     		bne	.L328
 4755              	.LBB234:
 4756              	.LBB235:
 195:Firmware/Middlewares/Third_Party/FreeRTOS/Source/portable/GCC/ARM_CM4F/portmacro.h **** 	(
 4757              		.loc 2 195 0 discriminator 1
 4758              		.syntax unified
 4759              	@ 195 "Firmware/Middlewares/Third_Party/FreeRTOS/Source/portable/GCC/ARM_CM4F/portmacro.h" 1
 4760 000e 4FF05003 			mov r3, #80												
 4761 0012 83F31188 		msr basepri, r3											
 4762 0016 BFF36F8F 		isb														
 4763 001a BFF34F8F 		dsb														
 4764              	
 4765              	@ 0 "" 2
 4766              		.thumb
 4767              		.syntax unified
 4768 001e BB60     		str	r3, [r7, #8]
 4769              	.L329:
 4770              	.LBE235:
 4771              	.LBE234:
 4772              		.loc 1 2320 0 discriminator 1
 4773 0020 FEE7     		b	.L329
 4774              	.L328:
2321:Firmware/Middlewares/Third_Party/FreeRTOS/Source/queue.c **** 	if( ( ( Queue_t * ) xQueue )->uxMessagesWaiting == ( ( Queue_t * ) xQueue )->uxLength )
 4775              		.loc 1 2321 0
 4776 0022 7B68     		ldr	r3, [r7, #4]
 4777 0024 9A6B     		ldr	r2, [r3, #56]
 4778 0026 7B68     		ldr	r3, [r7, #4]
 4779 0028 DB6B     		ldr	r3, [r3, #60]
 4780 002a 9A42     		cmp	r2, r3
 4781 002c 02D1     		bne	.L330
2322:Firmware/Middlewares/Third_Party/FreeRTOS/Source/queue.c **** 	{
2323:Firmware/Middlewares/Third_Party/FreeRTOS/Source/queue.c **** 		xReturn = pdTRUE;
ARM GAS  /tmp/ccwOJcWw.s 			page 129


 4782              		.loc 1 2323 0
 4783 002e 0123     		movs	r3, #1
 4784 0030 FB60     		str	r3, [r7, #12]
 4785 0032 01E0     		b	.L331
 4786              	.L330:
2324:Firmware/Middlewares/Third_Party/FreeRTOS/Source/queue.c **** 	}
2325:Firmware/Middlewares/Third_Party/FreeRTOS/Source/queue.c **** 	else
2326:Firmware/Middlewares/Third_Party/FreeRTOS/Source/queue.c **** 	{
2327:Firmware/Middlewares/Third_Party/FreeRTOS/Source/queue.c **** 		xReturn = pdFALSE;
 4787              		.loc 1 2327 0
 4788 0034 0023     		movs	r3, #0
 4789 0036 FB60     		str	r3, [r7, #12]
 4790              	.L331:
2328:Firmware/Middlewares/Third_Party/FreeRTOS/Source/queue.c **** 	}
2329:Firmware/Middlewares/Third_Party/FreeRTOS/Source/queue.c **** 
2330:Firmware/Middlewares/Third_Party/FreeRTOS/Source/queue.c **** 	return xReturn;
 4791              		.loc 1 2330 0
 4792 0038 FB68     		ldr	r3, [r7, #12]
2331:Firmware/Middlewares/Third_Party/FreeRTOS/Source/queue.c **** } /*lint !e818 xQueue could not be pointer to const because it is a typedef. */
 4793              		.loc 1 2331 0
 4794 003a 1846     		mov	r0, r3
 4795 003c 1437     		adds	r7, r7, #20
 4796              	.LCFI185:
 4797              		.cfi_def_cfa_offset 4
 4798 003e BD46     		mov	sp, r7
 4799              	.LCFI186:
 4800              		.cfi_def_cfa_register 13
 4801              		@ sp needed
 4802 0040 5DF8047B 		ldr	r7, [sp], #4
 4803              	.LCFI187:
 4804              		.cfi_restore 7
 4805              		.cfi_def_cfa_offset 0
 4806 0044 7047     		bx	lr
 4807              		.cfi_endproc
 4808              	.LFE39:
 4810              		.section	.text.vQueueAddToRegistry,"ax",%progbits
 4811              		.align	1
 4812              		.global	vQueueAddToRegistry
 4813              		.syntax unified
 4814              		.thumb
 4815              		.thumb_func
 4816              		.fpu fpv4-sp-d16
 4818              	vQueueAddToRegistry:
 4819              	.LFB40:
2332:Firmware/Middlewares/Third_Party/FreeRTOS/Source/queue.c **** /*-----------------------------------------------------------*/
2333:Firmware/Middlewares/Third_Party/FreeRTOS/Source/queue.c **** 
2334:Firmware/Middlewares/Third_Party/FreeRTOS/Source/queue.c **** #if ( configUSE_CO_ROUTINES == 1 )
2335:Firmware/Middlewares/Third_Party/FreeRTOS/Source/queue.c **** 
2336:Firmware/Middlewares/Third_Party/FreeRTOS/Source/queue.c **** 	BaseType_t xQueueCRSend( QueueHandle_t xQueue, const void *pvItemToQueue, TickType_t xTicksToWait 
2337:Firmware/Middlewares/Third_Party/FreeRTOS/Source/queue.c **** 	{
2338:Firmware/Middlewares/Third_Party/FreeRTOS/Source/queue.c **** 	BaseType_t xReturn;
2339:Firmware/Middlewares/Third_Party/FreeRTOS/Source/queue.c **** 	Queue_t * const pxQueue = ( Queue_t * ) xQueue;
2340:Firmware/Middlewares/Third_Party/FreeRTOS/Source/queue.c **** 
2341:Firmware/Middlewares/Third_Party/FreeRTOS/Source/queue.c **** 		/* If the queue is already full we may have to block.  A critical section
2342:Firmware/Middlewares/Third_Party/FreeRTOS/Source/queue.c **** 		is required to prevent an interrupt removing something from the queue
2343:Firmware/Middlewares/Third_Party/FreeRTOS/Source/queue.c **** 		between the check to see if the queue is full and blocking on the queue. */
2344:Firmware/Middlewares/Third_Party/FreeRTOS/Source/queue.c **** 		portDISABLE_INTERRUPTS();
ARM GAS  /tmp/ccwOJcWw.s 			page 130


2345:Firmware/Middlewares/Third_Party/FreeRTOS/Source/queue.c **** 		{
2346:Firmware/Middlewares/Third_Party/FreeRTOS/Source/queue.c **** 			if( prvIsQueueFull( pxQueue ) != pdFALSE )
2347:Firmware/Middlewares/Third_Party/FreeRTOS/Source/queue.c **** 			{
2348:Firmware/Middlewares/Third_Party/FreeRTOS/Source/queue.c **** 				/* The queue is full - do we want to block or just leave without
2349:Firmware/Middlewares/Third_Party/FreeRTOS/Source/queue.c **** 				posting? */
2350:Firmware/Middlewares/Third_Party/FreeRTOS/Source/queue.c **** 				if( xTicksToWait > ( TickType_t ) 0 )
2351:Firmware/Middlewares/Third_Party/FreeRTOS/Source/queue.c **** 				{
2352:Firmware/Middlewares/Third_Party/FreeRTOS/Source/queue.c **** 					/* As this is called from a coroutine we cannot block directly, but
2353:Firmware/Middlewares/Third_Party/FreeRTOS/Source/queue.c **** 					return indicating that we need to block. */
2354:Firmware/Middlewares/Third_Party/FreeRTOS/Source/queue.c **** 					vCoRoutineAddToDelayedList( xTicksToWait, &( pxQueue->xTasksWaitingToSend ) );
2355:Firmware/Middlewares/Third_Party/FreeRTOS/Source/queue.c **** 					portENABLE_INTERRUPTS();
2356:Firmware/Middlewares/Third_Party/FreeRTOS/Source/queue.c **** 					return errQUEUE_BLOCKED;
2357:Firmware/Middlewares/Third_Party/FreeRTOS/Source/queue.c **** 				}
2358:Firmware/Middlewares/Third_Party/FreeRTOS/Source/queue.c **** 				else
2359:Firmware/Middlewares/Third_Party/FreeRTOS/Source/queue.c **** 				{
2360:Firmware/Middlewares/Third_Party/FreeRTOS/Source/queue.c **** 					portENABLE_INTERRUPTS();
2361:Firmware/Middlewares/Third_Party/FreeRTOS/Source/queue.c **** 					return errQUEUE_FULL;
2362:Firmware/Middlewares/Third_Party/FreeRTOS/Source/queue.c **** 				}
2363:Firmware/Middlewares/Third_Party/FreeRTOS/Source/queue.c **** 			}
2364:Firmware/Middlewares/Third_Party/FreeRTOS/Source/queue.c **** 		}
2365:Firmware/Middlewares/Third_Party/FreeRTOS/Source/queue.c **** 		portENABLE_INTERRUPTS();
2366:Firmware/Middlewares/Third_Party/FreeRTOS/Source/queue.c **** 
2367:Firmware/Middlewares/Third_Party/FreeRTOS/Source/queue.c **** 		portDISABLE_INTERRUPTS();
2368:Firmware/Middlewares/Third_Party/FreeRTOS/Source/queue.c **** 		{
2369:Firmware/Middlewares/Third_Party/FreeRTOS/Source/queue.c **** 			if( pxQueue->uxMessagesWaiting < pxQueue->uxLength )
2370:Firmware/Middlewares/Third_Party/FreeRTOS/Source/queue.c **** 			{
2371:Firmware/Middlewares/Third_Party/FreeRTOS/Source/queue.c **** 				/* There is room in the queue, copy the data into the queue. */
2372:Firmware/Middlewares/Third_Party/FreeRTOS/Source/queue.c **** 				prvCopyDataToQueue( pxQueue, pvItemToQueue, queueSEND_TO_BACK );
2373:Firmware/Middlewares/Third_Party/FreeRTOS/Source/queue.c **** 				xReturn = pdPASS;
2374:Firmware/Middlewares/Third_Party/FreeRTOS/Source/queue.c **** 
2375:Firmware/Middlewares/Third_Party/FreeRTOS/Source/queue.c **** 				/* Were any co-routines waiting for data to become available? */
2376:Firmware/Middlewares/Third_Party/FreeRTOS/Source/queue.c **** 				if( listLIST_IS_EMPTY( &( pxQueue->xTasksWaitingToReceive ) ) == pdFALSE )
2377:Firmware/Middlewares/Third_Party/FreeRTOS/Source/queue.c **** 				{
2378:Firmware/Middlewares/Third_Party/FreeRTOS/Source/queue.c **** 					/* In this instance the co-routine could be placed directly
2379:Firmware/Middlewares/Third_Party/FreeRTOS/Source/queue.c **** 					into the ready list as we are within a critical section.
2380:Firmware/Middlewares/Third_Party/FreeRTOS/Source/queue.c **** 					Instead the same pending ready list mechanism is used as if
2381:Firmware/Middlewares/Third_Party/FreeRTOS/Source/queue.c **** 					the event were caused from within an interrupt. */
2382:Firmware/Middlewares/Third_Party/FreeRTOS/Source/queue.c **** 					if( xCoRoutineRemoveFromEventList( &( pxQueue->xTasksWaitingToReceive ) ) != pdFALSE )
2383:Firmware/Middlewares/Third_Party/FreeRTOS/Source/queue.c **** 					{
2384:Firmware/Middlewares/Third_Party/FreeRTOS/Source/queue.c **** 						/* The co-routine waiting has a higher priority so record
2385:Firmware/Middlewares/Third_Party/FreeRTOS/Source/queue.c **** 						that a yield might be appropriate. */
2386:Firmware/Middlewares/Third_Party/FreeRTOS/Source/queue.c **** 						xReturn = errQUEUE_YIELD;
2387:Firmware/Middlewares/Third_Party/FreeRTOS/Source/queue.c **** 					}
2388:Firmware/Middlewares/Third_Party/FreeRTOS/Source/queue.c **** 					else
2389:Firmware/Middlewares/Third_Party/FreeRTOS/Source/queue.c **** 					{
2390:Firmware/Middlewares/Third_Party/FreeRTOS/Source/queue.c **** 						mtCOVERAGE_TEST_MARKER();
2391:Firmware/Middlewares/Third_Party/FreeRTOS/Source/queue.c **** 					}
2392:Firmware/Middlewares/Third_Party/FreeRTOS/Source/queue.c **** 				}
2393:Firmware/Middlewares/Third_Party/FreeRTOS/Source/queue.c **** 				else
2394:Firmware/Middlewares/Third_Party/FreeRTOS/Source/queue.c **** 				{
2395:Firmware/Middlewares/Third_Party/FreeRTOS/Source/queue.c **** 					mtCOVERAGE_TEST_MARKER();
2396:Firmware/Middlewares/Third_Party/FreeRTOS/Source/queue.c **** 				}
2397:Firmware/Middlewares/Third_Party/FreeRTOS/Source/queue.c **** 			}
2398:Firmware/Middlewares/Third_Party/FreeRTOS/Source/queue.c **** 			else
2399:Firmware/Middlewares/Third_Party/FreeRTOS/Source/queue.c **** 			{
2400:Firmware/Middlewares/Third_Party/FreeRTOS/Source/queue.c **** 				xReturn = errQUEUE_FULL;
2401:Firmware/Middlewares/Third_Party/FreeRTOS/Source/queue.c **** 			}
ARM GAS  /tmp/ccwOJcWw.s 			page 131


2402:Firmware/Middlewares/Third_Party/FreeRTOS/Source/queue.c **** 		}
2403:Firmware/Middlewares/Third_Party/FreeRTOS/Source/queue.c **** 		portENABLE_INTERRUPTS();
2404:Firmware/Middlewares/Third_Party/FreeRTOS/Source/queue.c **** 
2405:Firmware/Middlewares/Third_Party/FreeRTOS/Source/queue.c **** 		return xReturn;
2406:Firmware/Middlewares/Third_Party/FreeRTOS/Source/queue.c **** 	}
2407:Firmware/Middlewares/Third_Party/FreeRTOS/Source/queue.c **** 
2408:Firmware/Middlewares/Third_Party/FreeRTOS/Source/queue.c **** #endif /* configUSE_CO_ROUTINES */
2409:Firmware/Middlewares/Third_Party/FreeRTOS/Source/queue.c **** /*-----------------------------------------------------------*/
2410:Firmware/Middlewares/Third_Party/FreeRTOS/Source/queue.c **** 
2411:Firmware/Middlewares/Third_Party/FreeRTOS/Source/queue.c **** #if ( configUSE_CO_ROUTINES == 1 )
2412:Firmware/Middlewares/Third_Party/FreeRTOS/Source/queue.c **** 
2413:Firmware/Middlewares/Third_Party/FreeRTOS/Source/queue.c **** 	BaseType_t xQueueCRReceive( QueueHandle_t xQueue, void *pvBuffer, TickType_t xTicksToWait )
2414:Firmware/Middlewares/Third_Party/FreeRTOS/Source/queue.c **** 	{
2415:Firmware/Middlewares/Third_Party/FreeRTOS/Source/queue.c **** 	BaseType_t xReturn;
2416:Firmware/Middlewares/Third_Party/FreeRTOS/Source/queue.c **** 	Queue_t * const pxQueue = ( Queue_t * ) xQueue;
2417:Firmware/Middlewares/Third_Party/FreeRTOS/Source/queue.c **** 
2418:Firmware/Middlewares/Third_Party/FreeRTOS/Source/queue.c **** 		/* If the queue is already empty we may have to block.  A critical section
2419:Firmware/Middlewares/Third_Party/FreeRTOS/Source/queue.c **** 		is required to prevent an interrupt adding something to the queue
2420:Firmware/Middlewares/Third_Party/FreeRTOS/Source/queue.c **** 		between the check to see if the queue is empty and blocking on the queue. */
2421:Firmware/Middlewares/Third_Party/FreeRTOS/Source/queue.c **** 		portDISABLE_INTERRUPTS();
2422:Firmware/Middlewares/Third_Party/FreeRTOS/Source/queue.c **** 		{
2423:Firmware/Middlewares/Third_Party/FreeRTOS/Source/queue.c **** 			if( pxQueue->uxMessagesWaiting == ( UBaseType_t ) 0 )
2424:Firmware/Middlewares/Third_Party/FreeRTOS/Source/queue.c **** 			{
2425:Firmware/Middlewares/Third_Party/FreeRTOS/Source/queue.c **** 				/* There are no messages in the queue, do we want to block or just
2426:Firmware/Middlewares/Third_Party/FreeRTOS/Source/queue.c **** 				leave with nothing? */
2427:Firmware/Middlewares/Third_Party/FreeRTOS/Source/queue.c **** 				if( xTicksToWait > ( TickType_t ) 0 )
2428:Firmware/Middlewares/Third_Party/FreeRTOS/Source/queue.c **** 				{
2429:Firmware/Middlewares/Third_Party/FreeRTOS/Source/queue.c **** 					/* As this is a co-routine we cannot block directly, but return
2430:Firmware/Middlewares/Third_Party/FreeRTOS/Source/queue.c **** 					indicating that we need to block. */
2431:Firmware/Middlewares/Third_Party/FreeRTOS/Source/queue.c **** 					vCoRoutineAddToDelayedList( xTicksToWait, &( pxQueue->xTasksWaitingToReceive ) );
2432:Firmware/Middlewares/Third_Party/FreeRTOS/Source/queue.c **** 					portENABLE_INTERRUPTS();
2433:Firmware/Middlewares/Third_Party/FreeRTOS/Source/queue.c **** 					return errQUEUE_BLOCKED;
2434:Firmware/Middlewares/Third_Party/FreeRTOS/Source/queue.c **** 				}
2435:Firmware/Middlewares/Third_Party/FreeRTOS/Source/queue.c **** 				else
2436:Firmware/Middlewares/Third_Party/FreeRTOS/Source/queue.c **** 				{
2437:Firmware/Middlewares/Third_Party/FreeRTOS/Source/queue.c **** 					portENABLE_INTERRUPTS();
2438:Firmware/Middlewares/Third_Party/FreeRTOS/Source/queue.c **** 					return errQUEUE_FULL;
2439:Firmware/Middlewares/Third_Party/FreeRTOS/Source/queue.c **** 				}
2440:Firmware/Middlewares/Third_Party/FreeRTOS/Source/queue.c **** 			}
2441:Firmware/Middlewares/Third_Party/FreeRTOS/Source/queue.c **** 			else
2442:Firmware/Middlewares/Third_Party/FreeRTOS/Source/queue.c **** 			{
2443:Firmware/Middlewares/Third_Party/FreeRTOS/Source/queue.c **** 				mtCOVERAGE_TEST_MARKER();
2444:Firmware/Middlewares/Third_Party/FreeRTOS/Source/queue.c **** 			}
2445:Firmware/Middlewares/Third_Party/FreeRTOS/Source/queue.c **** 		}
2446:Firmware/Middlewares/Third_Party/FreeRTOS/Source/queue.c **** 		portENABLE_INTERRUPTS();
2447:Firmware/Middlewares/Third_Party/FreeRTOS/Source/queue.c **** 
2448:Firmware/Middlewares/Third_Party/FreeRTOS/Source/queue.c **** 		portDISABLE_INTERRUPTS();
2449:Firmware/Middlewares/Third_Party/FreeRTOS/Source/queue.c **** 		{
2450:Firmware/Middlewares/Third_Party/FreeRTOS/Source/queue.c **** 			if( pxQueue->uxMessagesWaiting > ( UBaseType_t ) 0 )
2451:Firmware/Middlewares/Third_Party/FreeRTOS/Source/queue.c **** 			{
2452:Firmware/Middlewares/Third_Party/FreeRTOS/Source/queue.c **** 				/* Data is available from the queue. */
2453:Firmware/Middlewares/Third_Party/FreeRTOS/Source/queue.c **** 				pxQueue->u.pcReadFrom += pxQueue->uxItemSize;
2454:Firmware/Middlewares/Third_Party/FreeRTOS/Source/queue.c **** 				if( pxQueue->u.pcReadFrom >= pxQueue->pcTail )
2455:Firmware/Middlewares/Third_Party/FreeRTOS/Source/queue.c **** 				{
2456:Firmware/Middlewares/Third_Party/FreeRTOS/Source/queue.c **** 					pxQueue->u.pcReadFrom = pxQueue->pcHead;
2457:Firmware/Middlewares/Third_Party/FreeRTOS/Source/queue.c **** 				}
2458:Firmware/Middlewares/Third_Party/FreeRTOS/Source/queue.c **** 				else
ARM GAS  /tmp/ccwOJcWw.s 			page 132


2459:Firmware/Middlewares/Third_Party/FreeRTOS/Source/queue.c **** 				{
2460:Firmware/Middlewares/Third_Party/FreeRTOS/Source/queue.c **** 					mtCOVERAGE_TEST_MARKER();
2461:Firmware/Middlewares/Third_Party/FreeRTOS/Source/queue.c **** 				}
2462:Firmware/Middlewares/Third_Party/FreeRTOS/Source/queue.c **** 				--( pxQueue->uxMessagesWaiting );
2463:Firmware/Middlewares/Third_Party/FreeRTOS/Source/queue.c **** 				( void ) memcpy( ( void * ) pvBuffer, ( void * ) pxQueue->u.pcReadFrom, ( unsigned ) pxQueue->u
2464:Firmware/Middlewares/Third_Party/FreeRTOS/Source/queue.c **** 
2465:Firmware/Middlewares/Third_Party/FreeRTOS/Source/queue.c **** 				xReturn = pdPASS;
2466:Firmware/Middlewares/Third_Party/FreeRTOS/Source/queue.c **** 
2467:Firmware/Middlewares/Third_Party/FreeRTOS/Source/queue.c **** 				/* Were any co-routines waiting for space to become available? */
2468:Firmware/Middlewares/Third_Party/FreeRTOS/Source/queue.c **** 				if( listLIST_IS_EMPTY( &( pxQueue->xTasksWaitingToSend ) ) == pdFALSE )
2469:Firmware/Middlewares/Third_Party/FreeRTOS/Source/queue.c **** 				{
2470:Firmware/Middlewares/Third_Party/FreeRTOS/Source/queue.c **** 					/* In this instance the co-routine could be placed directly
2471:Firmware/Middlewares/Third_Party/FreeRTOS/Source/queue.c **** 					into the ready list as we are within a critical section.
2472:Firmware/Middlewares/Third_Party/FreeRTOS/Source/queue.c **** 					Instead the same pending ready list mechanism is used as if
2473:Firmware/Middlewares/Third_Party/FreeRTOS/Source/queue.c **** 					the event were caused from within an interrupt. */
2474:Firmware/Middlewares/Third_Party/FreeRTOS/Source/queue.c **** 					if( xCoRoutineRemoveFromEventList( &( pxQueue->xTasksWaitingToSend ) ) != pdFALSE )
2475:Firmware/Middlewares/Third_Party/FreeRTOS/Source/queue.c **** 					{
2476:Firmware/Middlewares/Third_Party/FreeRTOS/Source/queue.c **** 						xReturn = errQUEUE_YIELD;
2477:Firmware/Middlewares/Third_Party/FreeRTOS/Source/queue.c **** 					}
2478:Firmware/Middlewares/Third_Party/FreeRTOS/Source/queue.c **** 					else
2479:Firmware/Middlewares/Third_Party/FreeRTOS/Source/queue.c **** 					{
2480:Firmware/Middlewares/Third_Party/FreeRTOS/Source/queue.c **** 						mtCOVERAGE_TEST_MARKER();
2481:Firmware/Middlewares/Third_Party/FreeRTOS/Source/queue.c **** 					}
2482:Firmware/Middlewares/Third_Party/FreeRTOS/Source/queue.c **** 				}
2483:Firmware/Middlewares/Third_Party/FreeRTOS/Source/queue.c **** 				else
2484:Firmware/Middlewares/Third_Party/FreeRTOS/Source/queue.c **** 				{
2485:Firmware/Middlewares/Third_Party/FreeRTOS/Source/queue.c **** 					mtCOVERAGE_TEST_MARKER();
2486:Firmware/Middlewares/Third_Party/FreeRTOS/Source/queue.c **** 				}
2487:Firmware/Middlewares/Third_Party/FreeRTOS/Source/queue.c **** 			}
2488:Firmware/Middlewares/Third_Party/FreeRTOS/Source/queue.c **** 			else
2489:Firmware/Middlewares/Third_Party/FreeRTOS/Source/queue.c **** 			{
2490:Firmware/Middlewares/Third_Party/FreeRTOS/Source/queue.c **** 				xReturn = pdFAIL;
2491:Firmware/Middlewares/Third_Party/FreeRTOS/Source/queue.c **** 			}
2492:Firmware/Middlewares/Third_Party/FreeRTOS/Source/queue.c **** 		}
2493:Firmware/Middlewares/Third_Party/FreeRTOS/Source/queue.c **** 		portENABLE_INTERRUPTS();
2494:Firmware/Middlewares/Third_Party/FreeRTOS/Source/queue.c **** 
2495:Firmware/Middlewares/Third_Party/FreeRTOS/Source/queue.c **** 		return xReturn;
2496:Firmware/Middlewares/Third_Party/FreeRTOS/Source/queue.c **** 	}
2497:Firmware/Middlewares/Third_Party/FreeRTOS/Source/queue.c **** 
2498:Firmware/Middlewares/Third_Party/FreeRTOS/Source/queue.c **** #endif /* configUSE_CO_ROUTINES */
2499:Firmware/Middlewares/Third_Party/FreeRTOS/Source/queue.c **** /*-----------------------------------------------------------*/
2500:Firmware/Middlewares/Third_Party/FreeRTOS/Source/queue.c **** 
2501:Firmware/Middlewares/Third_Party/FreeRTOS/Source/queue.c **** #if ( configUSE_CO_ROUTINES == 1 )
2502:Firmware/Middlewares/Third_Party/FreeRTOS/Source/queue.c **** 
2503:Firmware/Middlewares/Third_Party/FreeRTOS/Source/queue.c **** 	BaseType_t xQueueCRSendFromISR( QueueHandle_t xQueue, const void *pvItemToQueue, BaseType_t xCoRou
2504:Firmware/Middlewares/Third_Party/FreeRTOS/Source/queue.c **** 	{
2505:Firmware/Middlewares/Third_Party/FreeRTOS/Source/queue.c **** 	Queue_t * const pxQueue = ( Queue_t * ) xQueue;
2506:Firmware/Middlewares/Third_Party/FreeRTOS/Source/queue.c **** 
2507:Firmware/Middlewares/Third_Party/FreeRTOS/Source/queue.c **** 		/* Cannot block within an ISR so if there is no space on the queue then
2508:Firmware/Middlewares/Third_Party/FreeRTOS/Source/queue.c **** 		exit without doing anything. */
2509:Firmware/Middlewares/Third_Party/FreeRTOS/Source/queue.c **** 		if( pxQueue->uxMessagesWaiting < pxQueue->uxLength )
2510:Firmware/Middlewares/Third_Party/FreeRTOS/Source/queue.c **** 		{
2511:Firmware/Middlewares/Third_Party/FreeRTOS/Source/queue.c **** 			prvCopyDataToQueue( pxQueue, pvItemToQueue, queueSEND_TO_BACK );
2512:Firmware/Middlewares/Third_Party/FreeRTOS/Source/queue.c **** 
2513:Firmware/Middlewares/Third_Party/FreeRTOS/Source/queue.c **** 			/* We only want to wake one co-routine per ISR, so check that a
2514:Firmware/Middlewares/Third_Party/FreeRTOS/Source/queue.c **** 			co-routine has not already been woken. */
2515:Firmware/Middlewares/Third_Party/FreeRTOS/Source/queue.c **** 			if( xCoRoutinePreviouslyWoken == pdFALSE )
ARM GAS  /tmp/ccwOJcWw.s 			page 133


2516:Firmware/Middlewares/Third_Party/FreeRTOS/Source/queue.c **** 			{
2517:Firmware/Middlewares/Third_Party/FreeRTOS/Source/queue.c **** 				if( listLIST_IS_EMPTY( &( pxQueue->xTasksWaitingToReceive ) ) == pdFALSE )
2518:Firmware/Middlewares/Third_Party/FreeRTOS/Source/queue.c **** 				{
2519:Firmware/Middlewares/Third_Party/FreeRTOS/Source/queue.c **** 					if( xCoRoutineRemoveFromEventList( &( pxQueue->xTasksWaitingToReceive ) ) != pdFALSE )
2520:Firmware/Middlewares/Third_Party/FreeRTOS/Source/queue.c **** 					{
2521:Firmware/Middlewares/Third_Party/FreeRTOS/Source/queue.c **** 						return pdTRUE;
2522:Firmware/Middlewares/Third_Party/FreeRTOS/Source/queue.c **** 					}
2523:Firmware/Middlewares/Third_Party/FreeRTOS/Source/queue.c **** 					else
2524:Firmware/Middlewares/Third_Party/FreeRTOS/Source/queue.c **** 					{
2525:Firmware/Middlewares/Third_Party/FreeRTOS/Source/queue.c **** 						mtCOVERAGE_TEST_MARKER();
2526:Firmware/Middlewares/Third_Party/FreeRTOS/Source/queue.c **** 					}
2527:Firmware/Middlewares/Third_Party/FreeRTOS/Source/queue.c **** 				}
2528:Firmware/Middlewares/Third_Party/FreeRTOS/Source/queue.c **** 				else
2529:Firmware/Middlewares/Third_Party/FreeRTOS/Source/queue.c **** 				{
2530:Firmware/Middlewares/Third_Party/FreeRTOS/Source/queue.c **** 					mtCOVERAGE_TEST_MARKER();
2531:Firmware/Middlewares/Third_Party/FreeRTOS/Source/queue.c **** 				}
2532:Firmware/Middlewares/Third_Party/FreeRTOS/Source/queue.c **** 			}
2533:Firmware/Middlewares/Third_Party/FreeRTOS/Source/queue.c **** 			else
2534:Firmware/Middlewares/Third_Party/FreeRTOS/Source/queue.c **** 			{
2535:Firmware/Middlewares/Third_Party/FreeRTOS/Source/queue.c **** 				mtCOVERAGE_TEST_MARKER();
2536:Firmware/Middlewares/Third_Party/FreeRTOS/Source/queue.c **** 			}
2537:Firmware/Middlewares/Third_Party/FreeRTOS/Source/queue.c **** 		}
2538:Firmware/Middlewares/Third_Party/FreeRTOS/Source/queue.c **** 		else
2539:Firmware/Middlewares/Third_Party/FreeRTOS/Source/queue.c **** 		{
2540:Firmware/Middlewares/Third_Party/FreeRTOS/Source/queue.c **** 			mtCOVERAGE_TEST_MARKER();
2541:Firmware/Middlewares/Third_Party/FreeRTOS/Source/queue.c **** 		}
2542:Firmware/Middlewares/Third_Party/FreeRTOS/Source/queue.c **** 
2543:Firmware/Middlewares/Third_Party/FreeRTOS/Source/queue.c **** 		return xCoRoutinePreviouslyWoken;
2544:Firmware/Middlewares/Third_Party/FreeRTOS/Source/queue.c **** 	}
2545:Firmware/Middlewares/Third_Party/FreeRTOS/Source/queue.c **** 
2546:Firmware/Middlewares/Third_Party/FreeRTOS/Source/queue.c **** #endif /* configUSE_CO_ROUTINES */
2547:Firmware/Middlewares/Third_Party/FreeRTOS/Source/queue.c **** /*-----------------------------------------------------------*/
2548:Firmware/Middlewares/Third_Party/FreeRTOS/Source/queue.c **** 
2549:Firmware/Middlewares/Third_Party/FreeRTOS/Source/queue.c **** #if ( configUSE_CO_ROUTINES == 1 )
2550:Firmware/Middlewares/Third_Party/FreeRTOS/Source/queue.c **** 
2551:Firmware/Middlewares/Third_Party/FreeRTOS/Source/queue.c **** 	BaseType_t xQueueCRReceiveFromISR( QueueHandle_t xQueue, void *pvBuffer, BaseType_t *pxCoRoutineWo
2552:Firmware/Middlewares/Third_Party/FreeRTOS/Source/queue.c **** 	{
2553:Firmware/Middlewares/Third_Party/FreeRTOS/Source/queue.c **** 	BaseType_t xReturn;
2554:Firmware/Middlewares/Third_Party/FreeRTOS/Source/queue.c **** 	Queue_t * const pxQueue = ( Queue_t * ) xQueue;
2555:Firmware/Middlewares/Third_Party/FreeRTOS/Source/queue.c **** 
2556:Firmware/Middlewares/Third_Party/FreeRTOS/Source/queue.c **** 		/* We cannot block from an ISR, so check there is data available. If
2557:Firmware/Middlewares/Third_Party/FreeRTOS/Source/queue.c **** 		not then just leave without doing anything. */
2558:Firmware/Middlewares/Third_Party/FreeRTOS/Source/queue.c **** 		if( pxQueue->uxMessagesWaiting > ( UBaseType_t ) 0 )
2559:Firmware/Middlewares/Third_Party/FreeRTOS/Source/queue.c **** 		{
2560:Firmware/Middlewares/Third_Party/FreeRTOS/Source/queue.c **** 			/* Copy the data from the queue. */
2561:Firmware/Middlewares/Third_Party/FreeRTOS/Source/queue.c **** 			pxQueue->u.pcReadFrom += pxQueue->uxItemSize;
2562:Firmware/Middlewares/Third_Party/FreeRTOS/Source/queue.c **** 			if( pxQueue->u.pcReadFrom >= pxQueue->pcTail )
2563:Firmware/Middlewares/Third_Party/FreeRTOS/Source/queue.c **** 			{
2564:Firmware/Middlewares/Third_Party/FreeRTOS/Source/queue.c **** 				pxQueue->u.pcReadFrom = pxQueue->pcHead;
2565:Firmware/Middlewares/Third_Party/FreeRTOS/Source/queue.c **** 			}
2566:Firmware/Middlewares/Third_Party/FreeRTOS/Source/queue.c **** 			else
2567:Firmware/Middlewares/Third_Party/FreeRTOS/Source/queue.c **** 			{
2568:Firmware/Middlewares/Third_Party/FreeRTOS/Source/queue.c **** 				mtCOVERAGE_TEST_MARKER();
2569:Firmware/Middlewares/Third_Party/FreeRTOS/Source/queue.c **** 			}
2570:Firmware/Middlewares/Third_Party/FreeRTOS/Source/queue.c **** 			--( pxQueue->uxMessagesWaiting );
2571:Firmware/Middlewares/Third_Party/FreeRTOS/Source/queue.c **** 			( void ) memcpy( ( void * ) pvBuffer, ( void * ) pxQueue->u.pcReadFrom, ( unsigned ) pxQueue->ux
2572:Firmware/Middlewares/Third_Party/FreeRTOS/Source/queue.c **** 
ARM GAS  /tmp/ccwOJcWw.s 			page 134


2573:Firmware/Middlewares/Third_Party/FreeRTOS/Source/queue.c **** 			if( ( *pxCoRoutineWoken ) == pdFALSE )
2574:Firmware/Middlewares/Third_Party/FreeRTOS/Source/queue.c **** 			{
2575:Firmware/Middlewares/Third_Party/FreeRTOS/Source/queue.c **** 				if( listLIST_IS_EMPTY( &( pxQueue->xTasksWaitingToSend ) ) == pdFALSE )
2576:Firmware/Middlewares/Third_Party/FreeRTOS/Source/queue.c **** 				{
2577:Firmware/Middlewares/Third_Party/FreeRTOS/Source/queue.c **** 					if( xCoRoutineRemoveFromEventList( &( pxQueue->xTasksWaitingToSend ) ) != pdFALSE )
2578:Firmware/Middlewares/Third_Party/FreeRTOS/Source/queue.c **** 					{
2579:Firmware/Middlewares/Third_Party/FreeRTOS/Source/queue.c **** 						*pxCoRoutineWoken = pdTRUE;
2580:Firmware/Middlewares/Third_Party/FreeRTOS/Source/queue.c **** 					}
2581:Firmware/Middlewares/Third_Party/FreeRTOS/Source/queue.c **** 					else
2582:Firmware/Middlewares/Third_Party/FreeRTOS/Source/queue.c **** 					{
2583:Firmware/Middlewares/Third_Party/FreeRTOS/Source/queue.c **** 						mtCOVERAGE_TEST_MARKER();
2584:Firmware/Middlewares/Third_Party/FreeRTOS/Source/queue.c **** 					}
2585:Firmware/Middlewares/Third_Party/FreeRTOS/Source/queue.c **** 				}
2586:Firmware/Middlewares/Third_Party/FreeRTOS/Source/queue.c **** 				else
2587:Firmware/Middlewares/Third_Party/FreeRTOS/Source/queue.c **** 				{
2588:Firmware/Middlewares/Third_Party/FreeRTOS/Source/queue.c **** 					mtCOVERAGE_TEST_MARKER();
2589:Firmware/Middlewares/Third_Party/FreeRTOS/Source/queue.c **** 				}
2590:Firmware/Middlewares/Third_Party/FreeRTOS/Source/queue.c **** 			}
2591:Firmware/Middlewares/Third_Party/FreeRTOS/Source/queue.c **** 			else
2592:Firmware/Middlewares/Third_Party/FreeRTOS/Source/queue.c **** 			{
2593:Firmware/Middlewares/Third_Party/FreeRTOS/Source/queue.c **** 				mtCOVERAGE_TEST_MARKER();
2594:Firmware/Middlewares/Third_Party/FreeRTOS/Source/queue.c **** 			}
2595:Firmware/Middlewares/Third_Party/FreeRTOS/Source/queue.c **** 
2596:Firmware/Middlewares/Third_Party/FreeRTOS/Source/queue.c **** 			xReturn = pdPASS;
2597:Firmware/Middlewares/Third_Party/FreeRTOS/Source/queue.c **** 		}
2598:Firmware/Middlewares/Third_Party/FreeRTOS/Source/queue.c **** 		else
2599:Firmware/Middlewares/Third_Party/FreeRTOS/Source/queue.c **** 		{
2600:Firmware/Middlewares/Third_Party/FreeRTOS/Source/queue.c **** 			xReturn = pdFAIL;
2601:Firmware/Middlewares/Third_Party/FreeRTOS/Source/queue.c **** 		}
2602:Firmware/Middlewares/Third_Party/FreeRTOS/Source/queue.c **** 
2603:Firmware/Middlewares/Third_Party/FreeRTOS/Source/queue.c **** 		return xReturn;
2604:Firmware/Middlewares/Third_Party/FreeRTOS/Source/queue.c **** 	}
2605:Firmware/Middlewares/Third_Party/FreeRTOS/Source/queue.c **** 
2606:Firmware/Middlewares/Third_Party/FreeRTOS/Source/queue.c **** #endif /* configUSE_CO_ROUTINES */
2607:Firmware/Middlewares/Third_Party/FreeRTOS/Source/queue.c **** /*-----------------------------------------------------------*/
2608:Firmware/Middlewares/Third_Party/FreeRTOS/Source/queue.c **** 
2609:Firmware/Middlewares/Third_Party/FreeRTOS/Source/queue.c **** #if ( configQUEUE_REGISTRY_SIZE > 0 )
2610:Firmware/Middlewares/Third_Party/FreeRTOS/Source/queue.c **** 
2611:Firmware/Middlewares/Third_Party/FreeRTOS/Source/queue.c **** 	void vQueueAddToRegistry( QueueHandle_t xQueue, const char *pcQueueName ) /*lint !e971 Unqualified
2612:Firmware/Middlewares/Third_Party/FreeRTOS/Source/queue.c **** 	{
 4820              		.loc 1 2612 0
 4821              		.cfi_startproc
 4822              		@ args = 0, pretend = 0, frame = 16
 4823              		@ frame_needed = 1, uses_anonymous_args = 0
 4824              		@ link register save eliminated.
 4825 0000 80B4     		push	{r7}
 4826              	.LCFI188:
 4827              		.cfi_def_cfa_offset 4
 4828              		.cfi_offset 7, -4
 4829 0002 85B0     		sub	sp, sp, #20
 4830              	.LCFI189:
 4831              		.cfi_def_cfa_offset 24
 4832 0004 00AF     		add	r7, sp, #0
 4833              	.LCFI190:
 4834              		.cfi_def_cfa_register 7
 4835 0006 7860     		str	r0, [r7, #4]
 4836 0008 3960     		str	r1, [r7]
ARM GAS  /tmp/ccwOJcWw.s 			page 135


2613:Firmware/Middlewares/Third_Party/FreeRTOS/Source/queue.c **** 	UBaseType_t ux;
2614:Firmware/Middlewares/Third_Party/FreeRTOS/Source/queue.c **** 
2615:Firmware/Middlewares/Third_Party/FreeRTOS/Source/queue.c **** 		/* See if there is an empty space in the registry.  A NULL name denotes
2616:Firmware/Middlewares/Third_Party/FreeRTOS/Source/queue.c **** 		a free slot. */
2617:Firmware/Middlewares/Third_Party/FreeRTOS/Source/queue.c **** 		for( ux = ( UBaseType_t ) 0U; ux < ( UBaseType_t ) configQUEUE_REGISTRY_SIZE; ux++ )
 4837              		.loc 1 2617 0
 4838 000a 0023     		movs	r3, #0
 4839 000c FB60     		str	r3, [r7, #12]
 4840 000e 14E0     		b	.L334
 4841              	.L337:
2618:Firmware/Middlewares/Third_Party/FreeRTOS/Source/queue.c **** 		{
2619:Firmware/Middlewares/Third_Party/FreeRTOS/Source/queue.c **** 			if( xQueueRegistry[ ux ].pcQueueName == NULL )
 4842              		.loc 1 2619 0
 4843 0010 0E4A     		ldr	r2, .L338
 4844 0012 FB68     		ldr	r3, [r7, #12]
 4845 0014 52F83330 		ldr	r3, [r2, r3, lsl #3]
 4846 0018 002B     		cmp	r3, #0
 4847 001a 0BD1     		bne	.L335
2620:Firmware/Middlewares/Third_Party/FreeRTOS/Source/queue.c **** 			{
2621:Firmware/Middlewares/Third_Party/FreeRTOS/Source/queue.c **** 				/* Store the information on this queue. */
2622:Firmware/Middlewares/Third_Party/FreeRTOS/Source/queue.c **** 				xQueueRegistry[ ux ].pcQueueName = pcQueueName;
 4848              		.loc 1 2622 0
 4849 001c 0B49     		ldr	r1, .L338
 4850 001e FB68     		ldr	r3, [r7, #12]
 4851 0020 3A68     		ldr	r2, [r7]
 4852 0022 41F83320 		str	r2, [r1, r3, lsl #3]
2623:Firmware/Middlewares/Third_Party/FreeRTOS/Source/queue.c **** 				xQueueRegistry[ ux ].xHandle = xQueue;
 4853              		.loc 1 2623 0
 4854 0026 094A     		ldr	r2, .L338
 4855 0028 FB68     		ldr	r3, [r7, #12]
 4856 002a DB00     		lsls	r3, r3, #3
 4857 002c 1344     		add	r3, r3, r2
 4858 002e 7A68     		ldr	r2, [r7, #4]
 4859 0030 5A60     		str	r2, [r3, #4]
2624:Firmware/Middlewares/Third_Party/FreeRTOS/Source/queue.c **** 
2625:Firmware/Middlewares/Third_Party/FreeRTOS/Source/queue.c **** 				traceQUEUE_REGISTRY_ADD( xQueue, pcQueueName );
2626:Firmware/Middlewares/Third_Party/FreeRTOS/Source/queue.c **** 				break;
 4860              		.loc 1 2626 0
 4861 0032 05E0     		b	.L336
 4862              	.L335:
2617:Firmware/Middlewares/Third_Party/FreeRTOS/Source/queue.c **** 		{
 4863              		.loc 1 2617 0 discriminator 2
 4864 0034 FB68     		ldr	r3, [r7, #12]
 4865 0036 0133     		adds	r3, r3, #1
 4866 0038 FB60     		str	r3, [r7, #12]
 4867              	.L334:
2617:Firmware/Middlewares/Third_Party/FreeRTOS/Source/queue.c **** 		{
 4868              		.loc 1 2617 0 is_stmt 0 discriminator 1
 4869 003a FB68     		ldr	r3, [r7, #12]
 4870 003c 072B     		cmp	r3, #7
 4871 003e E7D9     		bls	.L337
 4872              	.L336:
2627:Firmware/Middlewares/Third_Party/FreeRTOS/Source/queue.c **** 			}
2628:Firmware/Middlewares/Third_Party/FreeRTOS/Source/queue.c **** 			else
2629:Firmware/Middlewares/Third_Party/FreeRTOS/Source/queue.c **** 			{
2630:Firmware/Middlewares/Third_Party/FreeRTOS/Source/queue.c **** 				mtCOVERAGE_TEST_MARKER();
2631:Firmware/Middlewares/Third_Party/FreeRTOS/Source/queue.c **** 			}
ARM GAS  /tmp/ccwOJcWw.s 			page 136


2632:Firmware/Middlewares/Third_Party/FreeRTOS/Source/queue.c **** 		}
2633:Firmware/Middlewares/Third_Party/FreeRTOS/Source/queue.c **** 	}
 4873              		.loc 1 2633 0 is_stmt 1
 4874 0040 00BF     		nop
 4875 0042 1437     		adds	r7, r7, #20
 4876              	.LCFI191:
 4877              		.cfi_def_cfa_offset 4
 4878 0044 BD46     		mov	sp, r7
 4879              	.LCFI192:
 4880              		.cfi_def_cfa_register 13
 4881              		@ sp needed
 4882 0046 5DF8047B 		ldr	r7, [sp], #4
 4883              	.LCFI193:
 4884              		.cfi_restore 7
 4885              		.cfi_def_cfa_offset 0
 4886 004a 7047     		bx	lr
 4887              	.L339:
 4888              		.align	2
 4889              	.L338:
 4890 004c 00000000 		.word	xQueueRegistry
 4891              		.cfi_endproc
 4892              	.LFE40:
 4894              		.section	.text.pcQueueGetName,"ax",%progbits
 4895              		.align	1
 4896              		.global	pcQueueGetName
 4897              		.syntax unified
 4898              		.thumb
 4899              		.thumb_func
 4900              		.fpu fpv4-sp-d16
 4902              	pcQueueGetName:
 4903              	.LFB41:
2634:Firmware/Middlewares/Third_Party/FreeRTOS/Source/queue.c **** 
2635:Firmware/Middlewares/Third_Party/FreeRTOS/Source/queue.c **** #endif /* configQUEUE_REGISTRY_SIZE */
2636:Firmware/Middlewares/Third_Party/FreeRTOS/Source/queue.c **** /*-----------------------------------------------------------*/
2637:Firmware/Middlewares/Third_Party/FreeRTOS/Source/queue.c **** 
2638:Firmware/Middlewares/Third_Party/FreeRTOS/Source/queue.c **** #if ( configQUEUE_REGISTRY_SIZE > 0 )
2639:Firmware/Middlewares/Third_Party/FreeRTOS/Source/queue.c **** 
2640:Firmware/Middlewares/Third_Party/FreeRTOS/Source/queue.c **** 	const char *pcQueueGetName( QueueHandle_t xQueue ) /*lint !e971 Unqualified char types are allowed
2641:Firmware/Middlewares/Third_Party/FreeRTOS/Source/queue.c **** 	{
 4904              		.loc 1 2641 0
 4905              		.cfi_startproc
 4906              		@ args = 0, pretend = 0, frame = 16
 4907              		@ frame_needed = 1, uses_anonymous_args = 0
 4908              		@ link register save eliminated.
 4909 0000 80B4     		push	{r7}
 4910              	.LCFI194:
 4911              		.cfi_def_cfa_offset 4
 4912              		.cfi_offset 7, -4
 4913 0002 85B0     		sub	sp, sp, #20
 4914              	.LCFI195:
 4915              		.cfi_def_cfa_offset 24
 4916 0004 00AF     		add	r7, sp, #0
 4917              	.LCFI196:
 4918              		.cfi_def_cfa_register 7
 4919 0006 7860     		str	r0, [r7, #4]
2642:Firmware/Middlewares/Third_Party/FreeRTOS/Source/queue.c **** 	UBaseType_t ux;
2643:Firmware/Middlewares/Third_Party/FreeRTOS/Source/queue.c **** 	const char *pcReturn = NULL; /*lint !e971 Unqualified char types are allowed for strings and singl
ARM GAS  /tmp/ccwOJcWw.s 			page 137


 4920              		.loc 1 2643 0
 4921 0008 0023     		movs	r3, #0
 4922 000a BB60     		str	r3, [r7, #8]
2644:Firmware/Middlewares/Third_Party/FreeRTOS/Source/queue.c **** 
2645:Firmware/Middlewares/Third_Party/FreeRTOS/Source/queue.c **** 		/* Note there is nothing here to protect against another task adding or
2646:Firmware/Middlewares/Third_Party/FreeRTOS/Source/queue.c **** 		removing entries from the registry while it is being searched. */
2647:Firmware/Middlewares/Third_Party/FreeRTOS/Source/queue.c **** 		for( ux = ( UBaseType_t ) 0U; ux < ( UBaseType_t ) configQUEUE_REGISTRY_SIZE; ux++ )
 4923              		.loc 1 2647 0
 4924 000c 0023     		movs	r3, #0
 4925 000e FB60     		str	r3, [r7, #12]
 4926 0010 10E0     		b	.L341
 4927              	.L344:
2648:Firmware/Middlewares/Third_Party/FreeRTOS/Source/queue.c **** 		{
2649:Firmware/Middlewares/Third_Party/FreeRTOS/Source/queue.c **** 			if( xQueueRegistry[ ux ].xHandle == xQueue )
 4928              		.loc 1 2649 0
 4929 0012 0D4A     		ldr	r2, .L346
 4930 0014 FB68     		ldr	r3, [r7, #12]
 4931 0016 DB00     		lsls	r3, r3, #3
 4932 0018 1344     		add	r3, r3, r2
 4933 001a 5B68     		ldr	r3, [r3, #4]
 4934 001c 7A68     		ldr	r2, [r7, #4]
 4935 001e 9A42     		cmp	r2, r3
 4936 0020 05D1     		bne	.L342
2650:Firmware/Middlewares/Third_Party/FreeRTOS/Source/queue.c **** 			{
2651:Firmware/Middlewares/Third_Party/FreeRTOS/Source/queue.c **** 				pcReturn = xQueueRegistry[ ux ].pcQueueName;
 4937              		.loc 1 2651 0
 4938 0022 094A     		ldr	r2, .L346
 4939 0024 FB68     		ldr	r3, [r7, #12]
 4940 0026 52F83330 		ldr	r3, [r2, r3, lsl #3]
 4941 002a BB60     		str	r3, [r7, #8]
2652:Firmware/Middlewares/Third_Party/FreeRTOS/Source/queue.c **** 				break;
 4942              		.loc 1 2652 0
 4943 002c 05E0     		b	.L343
 4944              	.L342:
2647:Firmware/Middlewares/Third_Party/FreeRTOS/Source/queue.c **** 		{
 4945              		.loc 1 2647 0 discriminator 2
 4946 002e FB68     		ldr	r3, [r7, #12]
 4947 0030 0133     		adds	r3, r3, #1
 4948 0032 FB60     		str	r3, [r7, #12]
 4949              	.L341:
2647:Firmware/Middlewares/Third_Party/FreeRTOS/Source/queue.c **** 		{
 4950              		.loc 1 2647 0 is_stmt 0 discriminator 1
 4951 0034 FB68     		ldr	r3, [r7, #12]
 4952 0036 072B     		cmp	r3, #7
 4953 0038 EBD9     		bls	.L344
 4954              	.L343:
2653:Firmware/Middlewares/Third_Party/FreeRTOS/Source/queue.c **** 			}
2654:Firmware/Middlewares/Third_Party/FreeRTOS/Source/queue.c **** 			else
2655:Firmware/Middlewares/Third_Party/FreeRTOS/Source/queue.c **** 			{
2656:Firmware/Middlewares/Third_Party/FreeRTOS/Source/queue.c **** 				mtCOVERAGE_TEST_MARKER();
2657:Firmware/Middlewares/Third_Party/FreeRTOS/Source/queue.c **** 			}
2658:Firmware/Middlewares/Third_Party/FreeRTOS/Source/queue.c **** 		}
2659:Firmware/Middlewares/Third_Party/FreeRTOS/Source/queue.c **** 
2660:Firmware/Middlewares/Third_Party/FreeRTOS/Source/queue.c **** 		return pcReturn;
 4955              		.loc 1 2660 0 is_stmt 1
 4956 003a BB68     		ldr	r3, [r7, #8]
2661:Firmware/Middlewares/Third_Party/FreeRTOS/Source/queue.c **** 	} /*lint !e818 xQueue cannot be a pointer to const because it is a typedef. */
ARM GAS  /tmp/ccwOJcWw.s 			page 138


 4957              		.loc 1 2661 0
 4958 003c 1846     		mov	r0, r3
 4959 003e 1437     		adds	r7, r7, #20
 4960              	.LCFI197:
 4961              		.cfi_def_cfa_offset 4
 4962 0040 BD46     		mov	sp, r7
 4963              	.LCFI198:
 4964              		.cfi_def_cfa_register 13
 4965              		@ sp needed
 4966 0042 5DF8047B 		ldr	r7, [sp], #4
 4967              	.LCFI199:
 4968              		.cfi_restore 7
 4969              		.cfi_def_cfa_offset 0
 4970 0046 7047     		bx	lr
 4971              	.L347:
 4972              		.align	2
 4973              	.L346:
 4974 0048 00000000 		.word	xQueueRegistry
 4975              		.cfi_endproc
 4976              	.LFE41:
 4978              		.section	.text.vQueueUnregisterQueue,"ax",%progbits
 4979              		.align	1
 4980              		.global	vQueueUnregisterQueue
 4981              		.syntax unified
 4982              		.thumb
 4983              		.thumb_func
 4984              		.fpu fpv4-sp-d16
 4986              	vQueueUnregisterQueue:
 4987              	.LFB42:
2662:Firmware/Middlewares/Third_Party/FreeRTOS/Source/queue.c **** 
2663:Firmware/Middlewares/Third_Party/FreeRTOS/Source/queue.c **** #endif /* configQUEUE_REGISTRY_SIZE */
2664:Firmware/Middlewares/Third_Party/FreeRTOS/Source/queue.c **** /*-----------------------------------------------------------*/
2665:Firmware/Middlewares/Third_Party/FreeRTOS/Source/queue.c **** 
2666:Firmware/Middlewares/Third_Party/FreeRTOS/Source/queue.c **** #if ( configQUEUE_REGISTRY_SIZE > 0 )
2667:Firmware/Middlewares/Third_Party/FreeRTOS/Source/queue.c **** 
2668:Firmware/Middlewares/Third_Party/FreeRTOS/Source/queue.c **** 	void vQueueUnregisterQueue( QueueHandle_t xQueue )
2669:Firmware/Middlewares/Third_Party/FreeRTOS/Source/queue.c **** 	{
 4988              		.loc 1 2669 0
 4989              		.cfi_startproc
 4990              		@ args = 0, pretend = 0, frame = 16
 4991              		@ frame_needed = 1, uses_anonymous_args = 0
 4992              		@ link register save eliminated.
 4993 0000 80B4     		push	{r7}
 4994              	.LCFI200:
 4995              		.cfi_def_cfa_offset 4
 4996              		.cfi_offset 7, -4
 4997 0002 85B0     		sub	sp, sp, #20
 4998              	.LCFI201:
 4999              		.cfi_def_cfa_offset 24
 5000 0004 00AF     		add	r7, sp, #0
 5001              	.LCFI202:
 5002              		.cfi_def_cfa_register 7
 5003 0006 7860     		str	r0, [r7, #4]
2670:Firmware/Middlewares/Third_Party/FreeRTOS/Source/queue.c **** 	UBaseType_t ux;
2671:Firmware/Middlewares/Third_Party/FreeRTOS/Source/queue.c **** 
2672:Firmware/Middlewares/Third_Party/FreeRTOS/Source/queue.c **** 		/* See if the handle of the queue being unregistered in actually in the
2673:Firmware/Middlewares/Third_Party/FreeRTOS/Source/queue.c **** 		registry. */
ARM GAS  /tmp/ccwOJcWw.s 			page 139


2674:Firmware/Middlewares/Third_Party/FreeRTOS/Source/queue.c **** 		for( ux = ( UBaseType_t ) 0U; ux < ( UBaseType_t ) configQUEUE_REGISTRY_SIZE; ux++ )
 5004              		.loc 1 2674 0
 5005 0008 0023     		movs	r3, #0
 5006 000a FB60     		str	r3, [r7, #12]
 5007 000c 16E0     		b	.L349
 5008              	.L352:
2675:Firmware/Middlewares/Third_Party/FreeRTOS/Source/queue.c **** 		{
2676:Firmware/Middlewares/Third_Party/FreeRTOS/Source/queue.c **** 			if( xQueueRegistry[ ux ].xHandle == xQueue )
 5009              		.loc 1 2676 0
 5010 000e 104A     		ldr	r2, .L353
 5011 0010 FB68     		ldr	r3, [r7, #12]
 5012 0012 DB00     		lsls	r3, r3, #3
 5013 0014 1344     		add	r3, r3, r2
 5014 0016 5B68     		ldr	r3, [r3, #4]
 5015 0018 7A68     		ldr	r2, [r7, #4]
 5016 001a 9A42     		cmp	r2, r3
 5017 001c 0BD1     		bne	.L350
2677:Firmware/Middlewares/Third_Party/FreeRTOS/Source/queue.c **** 			{
2678:Firmware/Middlewares/Third_Party/FreeRTOS/Source/queue.c **** 				/* Set the name to NULL to show that this slot if free again. */
2679:Firmware/Middlewares/Third_Party/FreeRTOS/Source/queue.c **** 				xQueueRegistry[ ux ].pcQueueName = NULL;
 5018              		.loc 1 2679 0
 5019 001e 0C4A     		ldr	r2, .L353
 5020 0020 FB68     		ldr	r3, [r7, #12]
 5021 0022 0021     		movs	r1, #0
 5022 0024 42F83310 		str	r1, [r2, r3, lsl #3]
2680:Firmware/Middlewares/Third_Party/FreeRTOS/Source/queue.c **** 
2681:Firmware/Middlewares/Third_Party/FreeRTOS/Source/queue.c **** 				/* Set the handle to NULL to ensure the same queue handle cannot
2682:Firmware/Middlewares/Third_Party/FreeRTOS/Source/queue.c **** 				appear in the registry twice if it is added, removed, then
2683:Firmware/Middlewares/Third_Party/FreeRTOS/Source/queue.c **** 				added again. */
2684:Firmware/Middlewares/Third_Party/FreeRTOS/Source/queue.c **** 				xQueueRegistry[ ux ].xHandle = ( QueueHandle_t ) 0;
 5023              		.loc 1 2684 0
 5024 0028 094A     		ldr	r2, .L353
 5025 002a FB68     		ldr	r3, [r7, #12]
 5026 002c DB00     		lsls	r3, r3, #3
 5027 002e 1344     		add	r3, r3, r2
 5028 0030 0022     		movs	r2, #0
 5029 0032 5A60     		str	r2, [r3, #4]
2685:Firmware/Middlewares/Third_Party/FreeRTOS/Source/queue.c **** 				break;
 5030              		.loc 1 2685 0
 5031 0034 05E0     		b	.L351
 5032              	.L350:
2674:Firmware/Middlewares/Third_Party/FreeRTOS/Source/queue.c **** 		{
 5033              		.loc 1 2674 0 discriminator 2
 5034 0036 FB68     		ldr	r3, [r7, #12]
 5035 0038 0133     		adds	r3, r3, #1
 5036 003a FB60     		str	r3, [r7, #12]
 5037              	.L349:
2674:Firmware/Middlewares/Third_Party/FreeRTOS/Source/queue.c **** 		{
 5038              		.loc 1 2674 0 is_stmt 0 discriminator 1
 5039 003c FB68     		ldr	r3, [r7, #12]
 5040 003e 072B     		cmp	r3, #7
 5041 0040 E5D9     		bls	.L352
 5042              	.L351:
2686:Firmware/Middlewares/Third_Party/FreeRTOS/Source/queue.c **** 			}
2687:Firmware/Middlewares/Third_Party/FreeRTOS/Source/queue.c **** 			else
2688:Firmware/Middlewares/Third_Party/FreeRTOS/Source/queue.c **** 			{
2689:Firmware/Middlewares/Third_Party/FreeRTOS/Source/queue.c **** 				mtCOVERAGE_TEST_MARKER();
ARM GAS  /tmp/ccwOJcWw.s 			page 140


2690:Firmware/Middlewares/Third_Party/FreeRTOS/Source/queue.c **** 			}
2691:Firmware/Middlewares/Third_Party/FreeRTOS/Source/queue.c **** 		}
2692:Firmware/Middlewares/Third_Party/FreeRTOS/Source/queue.c **** 
2693:Firmware/Middlewares/Third_Party/FreeRTOS/Source/queue.c **** 	} /*lint !e818 xQueue could not be pointer to const because it is a typedef. */
 5043              		.loc 1 2693 0 is_stmt 1
 5044 0042 00BF     		nop
 5045 0044 1437     		adds	r7, r7, #20
 5046              	.LCFI203:
 5047              		.cfi_def_cfa_offset 4
 5048 0046 BD46     		mov	sp, r7
 5049              	.LCFI204:
 5050              		.cfi_def_cfa_register 13
 5051              		@ sp needed
 5052 0048 5DF8047B 		ldr	r7, [sp], #4
 5053              	.LCFI205:
 5054              		.cfi_restore 7
 5055              		.cfi_def_cfa_offset 0
 5056 004c 7047     		bx	lr
 5057              	.L354:
 5058 004e 00BF     		.align	2
 5059              	.L353:
 5060 0050 00000000 		.word	xQueueRegistry
 5061              		.cfi_endproc
 5062              	.LFE42:
 5064              		.section	.text.vQueueWaitForMessageRestricted,"ax",%progbits
 5065              		.align	1
 5066              		.global	vQueueWaitForMessageRestricted
 5067              		.syntax unified
 5068              		.thumb
 5069              		.thumb_func
 5070              		.fpu fpv4-sp-d16
 5072              	vQueueWaitForMessageRestricted:
 5073              	.LFB43:
2694:Firmware/Middlewares/Third_Party/FreeRTOS/Source/queue.c **** 
2695:Firmware/Middlewares/Third_Party/FreeRTOS/Source/queue.c **** #endif /* configQUEUE_REGISTRY_SIZE */
2696:Firmware/Middlewares/Third_Party/FreeRTOS/Source/queue.c **** /*-----------------------------------------------------------*/
2697:Firmware/Middlewares/Third_Party/FreeRTOS/Source/queue.c **** 
2698:Firmware/Middlewares/Third_Party/FreeRTOS/Source/queue.c **** #if ( configUSE_TIMERS == 1 )
2699:Firmware/Middlewares/Third_Party/FreeRTOS/Source/queue.c **** 
2700:Firmware/Middlewares/Third_Party/FreeRTOS/Source/queue.c **** 	void vQueueWaitForMessageRestricted( QueueHandle_t xQueue, TickType_t xTicksToWait, const BaseType
2701:Firmware/Middlewares/Third_Party/FreeRTOS/Source/queue.c **** 	{
 5074              		.loc 1 2701 0
 5075              		.cfi_startproc
 5076              		@ args = 0, pretend = 0, frame = 24
 5077              		@ frame_needed = 1, uses_anonymous_args = 0
 5078 0000 80B5     		push	{r7, lr}
 5079              	.LCFI206:
 5080              		.cfi_def_cfa_offset 8
 5081              		.cfi_offset 7, -8
 5082              		.cfi_offset 14, -4
 5083 0002 86B0     		sub	sp, sp, #24
 5084              	.LCFI207:
 5085              		.cfi_def_cfa_offset 32
 5086 0004 00AF     		add	r7, sp, #0
 5087              	.LCFI208:
 5088              		.cfi_def_cfa_register 7
 5089 0006 F860     		str	r0, [r7, #12]
ARM GAS  /tmp/ccwOJcWw.s 			page 141


 5090 0008 B960     		str	r1, [r7, #8]
 5091 000a 7A60     		str	r2, [r7, #4]
2702:Firmware/Middlewares/Third_Party/FreeRTOS/Source/queue.c **** 	Queue_t * const pxQueue = ( Queue_t * ) xQueue;
 5092              		.loc 1 2702 0
 5093 000c FB68     		ldr	r3, [r7, #12]
 5094 000e 7B61     		str	r3, [r7, #20]
2703:Firmware/Middlewares/Third_Party/FreeRTOS/Source/queue.c **** 
2704:Firmware/Middlewares/Third_Party/FreeRTOS/Source/queue.c **** 		/* This function should not be called by application code hence the
2705:Firmware/Middlewares/Third_Party/FreeRTOS/Source/queue.c **** 		'Restricted' in its name.  It is not part of the public API.  It is
2706:Firmware/Middlewares/Third_Party/FreeRTOS/Source/queue.c **** 		designed for use by kernel code, and has special calling requirements.
2707:Firmware/Middlewares/Third_Party/FreeRTOS/Source/queue.c **** 		It can result in vListInsert() being called on a list that can only
2708:Firmware/Middlewares/Third_Party/FreeRTOS/Source/queue.c **** 		possibly ever have one item in it, so the list will be fast, but even
2709:Firmware/Middlewares/Third_Party/FreeRTOS/Source/queue.c **** 		so it should be called with the scheduler locked and not from a critical
2710:Firmware/Middlewares/Third_Party/FreeRTOS/Source/queue.c **** 		section. */
2711:Firmware/Middlewares/Third_Party/FreeRTOS/Source/queue.c **** 
2712:Firmware/Middlewares/Third_Party/FreeRTOS/Source/queue.c **** 		/* Only do anything if there are no messages in the queue.  This function
2713:Firmware/Middlewares/Third_Party/FreeRTOS/Source/queue.c **** 		will not actually cause the task to block, just place it on a blocked
2714:Firmware/Middlewares/Third_Party/FreeRTOS/Source/queue.c **** 		list.  It will not block until the scheduler is unlocked - at which
2715:Firmware/Middlewares/Third_Party/FreeRTOS/Source/queue.c **** 		time a yield will be performed.  If an item is added to the queue while
2716:Firmware/Middlewares/Third_Party/FreeRTOS/Source/queue.c **** 		the queue is locked, and the calling task blocks on the queue, then the
2717:Firmware/Middlewares/Third_Party/FreeRTOS/Source/queue.c **** 		calling task will be immediately unblocked when the queue is unlocked. */
2718:Firmware/Middlewares/Third_Party/FreeRTOS/Source/queue.c **** 		prvLockQueue( pxQueue );
 5095              		.loc 1 2718 0
 5096 0010 FFF7FEFF 		bl	vPortEnterCritical
 5097 0014 7B69     		ldr	r3, [r7, #20]
 5098 0016 93F84430 		ldrb	r3, [r3, #68]
 5099 001a 5BB2     		sxtb	r3, r3
 5100 001c B3F1FF3F 		cmp	r3, #-1
 5101 0020 03D1     		bne	.L356
 5102              		.loc 1 2718 0 is_stmt 0 discriminator 1
 5103 0022 7B69     		ldr	r3, [r7, #20]
 5104 0024 0022     		movs	r2, #0
 5105 0026 83F84420 		strb	r2, [r3, #68]
 5106              	.L356:
 5107              		.loc 1 2718 0 discriminator 3
 5108 002a 7B69     		ldr	r3, [r7, #20]
 5109 002c 93F84530 		ldrb	r3, [r3, #69]
 5110 0030 5BB2     		sxtb	r3, r3
 5111 0032 B3F1FF3F 		cmp	r3, #-1
 5112 0036 03D1     		bne	.L357
 5113              		.loc 1 2718 0 discriminator 4
 5114 0038 7B69     		ldr	r3, [r7, #20]
 5115 003a 0022     		movs	r2, #0
 5116 003c 83F84520 		strb	r2, [r3, #69]
 5117              	.L357:
 5118              		.loc 1 2718 0 discriminator 6
 5119 0040 FFF7FEFF 		bl	vPortExitCritical
2719:Firmware/Middlewares/Third_Party/FreeRTOS/Source/queue.c **** 		if( pxQueue->uxMessagesWaiting == ( UBaseType_t ) 0U )
 5120              		.loc 1 2719 0 is_stmt 1 discriminator 6
 5121 0044 7B69     		ldr	r3, [r7, #20]
 5122 0046 9B6B     		ldr	r3, [r3, #56]
 5123 0048 002B     		cmp	r3, #0
 5124 004a 06D1     		bne	.L358
2720:Firmware/Middlewares/Third_Party/FreeRTOS/Source/queue.c **** 		{
2721:Firmware/Middlewares/Third_Party/FreeRTOS/Source/queue.c **** 			/* There is nothing in the queue, block for the specified period. */
2722:Firmware/Middlewares/Third_Party/FreeRTOS/Source/queue.c **** 			vTaskPlaceOnEventListRestricted( &( pxQueue->xTasksWaitingToReceive ), xTicksToWait, xWaitIndefi
 5125              		.loc 1 2722 0
ARM GAS  /tmp/ccwOJcWw.s 			page 142


 5126 004c 7B69     		ldr	r3, [r7, #20]
 5127 004e 2433     		adds	r3, r3, #36
 5128 0050 7A68     		ldr	r2, [r7, #4]
 5129 0052 B968     		ldr	r1, [r7, #8]
 5130 0054 1846     		mov	r0, r3
 5131 0056 FFF7FEFF 		bl	vTaskPlaceOnEventListRestricted
 5132              	.L358:
2723:Firmware/Middlewares/Third_Party/FreeRTOS/Source/queue.c **** 		}
2724:Firmware/Middlewares/Third_Party/FreeRTOS/Source/queue.c **** 		else
2725:Firmware/Middlewares/Third_Party/FreeRTOS/Source/queue.c **** 		{
2726:Firmware/Middlewares/Third_Party/FreeRTOS/Source/queue.c **** 			mtCOVERAGE_TEST_MARKER();
2727:Firmware/Middlewares/Third_Party/FreeRTOS/Source/queue.c **** 		}
2728:Firmware/Middlewares/Third_Party/FreeRTOS/Source/queue.c **** 		prvUnlockQueue( pxQueue );
 5133              		.loc 1 2728 0
 5134 005a 7869     		ldr	r0, [r7, #20]
 5135 005c FFF7FEFF 		bl	prvUnlockQueue
2729:Firmware/Middlewares/Third_Party/FreeRTOS/Source/queue.c **** 	}
 5136              		.loc 1 2729 0
 5137 0060 00BF     		nop
 5138 0062 1837     		adds	r7, r7, #24
 5139              	.LCFI209:
 5140              		.cfi_def_cfa_offset 8
 5141 0064 BD46     		mov	sp, r7
 5142              	.LCFI210:
 5143              		.cfi_def_cfa_register 13
 5144              		@ sp needed
 5145 0066 80BD     		pop	{r7, pc}
 5146              		.cfi_endproc
 5147              	.LFE43:
 5149              		.text
 5150              	.Letext0:
 5151              		.file 3 "/home/zht/stm32tools/arm-gcc/lib/gcc/arm-none-eabi/7.3.1/include/stddef.h"
 5152              		.file 4 "/home/zht/stm32tools/arm-gcc/arm-none-eabi/include/machine/_default_types.h"
 5153              		.file 5 "/home/zht/stm32tools/arm-gcc/arm-none-eabi/include/sys/lock.h"
 5154              		.file 6 "/home/zht/stm32tools/arm-gcc/arm-none-eabi/include/sys/_types.h"
 5155              		.file 7 "/home/zht/stm32tools/arm-gcc/arm-none-eabi/include/sys/reent.h"
 5156              		.file 8 "/home/zht/stm32tools/arm-gcc/arm-none-eabi/include/stdlib.h"
 5157              		.file 9 "/home/zht/stm32tools/arm-gcc/arm-none-eabi/include/sys/_stdint.h"
 5158              		.file 10 "Firmware/Core/Inc/FreeRTOSConfig.h"
 5159              		.file 11 "Firmware/Middlewares/Third_Party/FreeRTOS/Source/include/FreeRTOS.h"
 5160              		.file 12 "Firmware/Middlewares/Third_Party/FreeRTOS/Source/include/list.h"
 5161              		.file 13 "Firmware/Middlewares/Third_Party/FreeRTOS/Source/include/task.h"
 5162              		.file 14 "Firmware/Middlewares/Third_Party/FreeRTOS/Source/include/queue.h"
ARM GAS  /tmp/ccwOJcWw.s 			page 143


DEFINED SYMBOLS
                            *ABS*:0000000000000000 queue.c
                            *COM*:0000000000000040 xQueueRegistry
     /tmp/ccwOJcWw.s:19     .text.xQueueGenericReset:0000000000000000 $t
     /tmp/ccwOJcWw.s:26     .text.xQueueGenericReset:0000000000000000 xQueueGenericReset
     /tmp/ccwOJcWw.s:176    .text.xQueueGenericReset:00000000000000cc $d
     /tmp/ccwOJcWw.s:181    .text.xQueueGenericCreateStatic:0000000000000000 $t
     /tmp/ccwOJcWw.s:188    .text.xQueueGenericCreateStatic:0000000000000000 xQueueGenericCreateStatic
     /tmp/ccwOJcWw.s:518    .text.prvInitialiseNewQueue:0000000000000000 prvInitialiseNewQueue
     /tmp/ccwOJcWw.s:401    .text.xQueueGenericCreate:0000000000000000 $t
     /tmp/ccwOJcWw.s:408    .text.xQueueGenericCreate:0000000000000000 xQueueGenericCreate
     /tmp/ccwOJcWw.s:512    .text.prvInitialiseNewQueue:0000000000000000 $t
     /tmp/ccwOJcWw.s:584    .text.prvInitialiseMutex:0000000000000000 $t
     /tmp/ccwOJcWw.s:590    .text.prvInitialiseMutex:0000000000000000 prvInitialiseMutex
     /tmp/ccwOJcWw.s:1336   .text.xQueueGenericSend:0000000000000000 xQueueGenericSend
     /tmp/ccwOJcWw.s:645    .text.xQueueCreateMutex:0000000000000000 $t
     /tmp/ccwOJcWw.s:652    .text.xQueueCreateMutex:0000000000000000 xQueueCreateMutex
     /tmp/ccwOJcWw.s:702    .text.xQueueCreateMutexStatic:0000000000000000 $t
     /tmp/ccwOJcWw.s:709    .text.xQueueCreateMutexStatic:0000000000000000 xQueueCreateMutexStatic
     /tmp/ccwOJcWw.s:762    .text.xQueueGetMutexHolder:0000000000000000 $t
     /tmp/ccwOJcWw.s:769    .text.xQueueGetMutexHolder:0000000000000000 xQueueGetMutexHolder
     /tmp/ccwOJcWw.s:822    .text.xQueueGetMutexHolderFromISR:0000000000000000 $t
     /tmp/ccwOJcWw.s:829    .text.xQueueGetMutexHolderFromISR:0000000000000000 xQueueGetMutexHolderFromISR
     /tmp/ccwOJcWw.s:906    .text.xQueueGiveMutexRecursive:0000000000000000 $t
     /tmp/ccwOJcWw.s:913    .text.xQueueGiveMutexRecursive:0000000000000000 xQueueGiveMutexRecursive
     /tmp/ccwOJcWw.s:1009   .text.xQueueTakeMutexRecursive:0000000000000000 $t
     /tmp/ccwOJcWw.s:1016   .text.xQueueTakeMutexRecursive:0000000000000000 xQueueTakeMutexRecursive
     /tmp/ccwOJcWw.s:2538   .text.xQueueSemaphoreTake:0000000000000000 xQueueSemaphoreTake
     /tmp/ccwOJcWw.s:1113   .text.xQueueCreateCountingSemaphoreStatic:0000000000000000 $t
     /tmp/ccwOJcWw.s:1120   .text.xQueueCreateCountingSemaphoreStatic:0000000000000000 xQueueCreateCountingSemaphoreStatic
     /tmp/ccwOJcWw.s:1223   .text.xQueueCreateCountingSemaphore:0000000000000000 $t
     /tmp/ccwOJcWw.s:1230   .text.xQueueCreateCountingSemaphore:0000000000000000 xQueueCreateCountingSemaphore
     /tmp/ccwOJcWw.s:1329   .text.xQueueGenericSend:0000000000000000 $t
     /tmp/ccwOJcWw.s:4166   .text.prvCopyDataToQueue:0000000000000000 prvCopyDataToQueue
     /tmp/ccwOJcWw.s:4672   .text.prvIsQueueFull:0000000000000000 prvIsQueueFull
     /tmp/ccwOJcWw.s:4397   .text.prvUnlockQueue:0000000000000000 prvUnlockQueue
     /tmp/ccwOJcWw.s:1703   .text.xQueueGenericSend:00000000000001f0 $d
     /tmp/ccwOJcWw.s:1708   .text.xQueueGenericSendFromISR:0000000000000000 $t
     /tmp/ccwOJcWw.s:1715   .text.xQueueGenericSendFromISR:0000000000000000 xQueueGenericSendFromISR
     /tmp/ccwOJcWw.s:1965   .text.xQueueGiveFromISR:0000000000000000 $t
     /tmp/ccwOJcWw.s:1972   .text.xQueueGiveFromISR:0000000000000000 xQueueGiveFromISR
     /tmp/ccwOJcWw.s:2205   .text.xQueueReceive:0000000000000000 $t
     /tmp/ccwOJcWw.s:2212   .text.xQueueReceive:0000000000000000 xQueueReceive
     /tmp/ccwOJcWw.s:4323   .text.prvCopyDataFromQueue:0000000000000000 prvCopyDataFromQueue
     /tmp/ccwOJcWw.s:4531   .text.prvIsQueueEmpty:0000000000000000 prvIsQueueEmpty
     /tmp/ccwOJcWw.s:2526   .text.xQueueReceive:00000000000001b4 $d
     /tmp/ccwOJcWw.s:2531   .text.xQueueSemaphoreTake:0000000000000000 $t
     /tmp/ccwOJcWw.s:4105   .text.prvGetDisinheritPriorityAfterTimeout:0000000000000000 prvGetDisinheritPriorityAfterTimeout
     /tmp/ccwOJcWw.s:2907   .text.xQueueSemaphoreTake:000000000000020c $d
     /tmp/ccwOJcWw.s:2912   .text.xQueuePeek:0000000000000000 $t
     /tmp/ccwOJcWw.s:2919   .text.xQueuePeek:0000000000000000 xQueuePeek
     /tmp/ccwOJcWw.s:3236   .text.xQueuePeek:00000000000001b8 $d
     /tmp/ccwOJcWw.s:3241   .text.xQueueReceiveFromISR:0000000000000000 $t
     /tmp/ccwOJcWw.s:3248   .text.xQueueReceiveFromISR:0000000000000000 xQueueReceiveFromISR
     /tmp/ccwOJcWw.s:3458   .text.xQueuePeekFromISR:0000000000000000 $t
     /tmp/ccwOJcWw.s:3465   .text.xQueuePeekFromISR:0000000000000000 xQueuePeekFromISR
     /tmp/ccwOJcWw.s:3656   .text.uxQueueMessagesWaiting:0000000000000000 $t
ARM GAS  /tmp/ccwOJcWw.s 			page 144


     /tmp/ccwOJcWw.s:3663   .text.uxQueueMessagesWaiting:0000000000000000 uxQueueMessagesWaiting
     /tmp/ccwOJcWw.s:3729   .text.uxQueueSpacesAvailable:0000000000000000 $t
     /tmp/ccwOJcWw.s:3736   .text.uxQueueSpacesAvailable:0000000000000000 uxQueueSpacesAvailable
     /tmp/ccwOJcWw.s:3808   .text.uxQueueMessagesWaitingFromISR:0000000000000000 $t
     /tmp/ccwOJcWw.s:3815   .text.uxQueueMessagesWaitingFromISR:0000000000000000 uxQueueMessagesWaitingFromISR
     /tmp/ccwOJcWw.s:3881   .text.vQueueDelete:0000000000000000 $t
     /tmp/ccwOJcWw.s:3888   .text.vQueueDelete:0000000000000000 vQueueDelete
     /tmp/ccwOJcWw.s:4986   .text.vQueueUnregisterQueue:0000000000000000 vQueueUnregisterQueue
     /tmp/ccwOJcWw.s:3959   .text.uxQueueGetQueueNumber:0000000000000000 $t
     /tmp/ccwOJcWw.s:3966   .text.uxQueueGetQueueNumber:0000000000000000 uxQueueGetQueueNumber
     /tmp/ccwOJcWw.s:4005   .text.vQueueSetQueueNumber:0000000000000000 $t
     /tmp/ccwOJcWw.s:4012   .text.vQueueSetQueueNumber:0000000000000000 vQueueSetQueueNumber
     /tmp/ccwOJcWw.s:4053   .text.ucQueueGetQueueType:0000000000000000 $t
     /tmp/ccwOJcWw.s:4060   .text.ucQueueGetQueueType:0000000000000000 ucQueueGetQueueType
     /tmp/ccwOJcWw.s:4099   .text.prvGetDisinheritPriorityAfterTimeout:0000000000000000 $t
     /tmp/ccwOJcWw.s:4160   .text.prvCopyDataToQueue:0000000000000000 $t
     /tmp/ccwOJcWw.s:4317   .text.prvCopyDataFromQueue:0000000000000000 $t
     /tmp/ccwOJcWw.s:4391   .text.prvUnlockQueue:0000000000000000 $t
     /tmp/ccwOJcWw.s:4525   .text.prvIsQueueEmpty:0000000000000000 $t
     /tmp/ccwOJcWw.s:4583   .text.xQueueIsQueueEmptyFromISR:0000000000000000 $t
     /tmp/ccwOJcWw.s:4590   .text.xQueueIsQueueEmptyFromISR:0000000000000000 xQueueIsQueueEmptyFromISR
     /tmp/ccwOJcWw.s:4666   .text.prvIsQueueFull:0000000000000000 $t
     /tmp/ccwOJcWw.s:4726   .text.xQueueIsQueueFullFromISR:0000000000000000 $t
     /tmp/ccwOJcWw.s:4733   .text.xQueueIsQueueFullFromISR:0000000000000000 xQueueIsQueueFullFromISR
     /tmp/ccwOJcWw.s:4811   .text.vQueueAddToRegistry:0000000000000000 $t
     /tmp/ccwOJcWw.s:4818   .text.vQueueAddToRegistry:0000000000000000 vQueueAddToRegistry
     /tmp/ccwOJcWw.s:4890   .text.vQueueAddToRegistry:000000000000004c $d
     /tmp/ccwOJcWw.s:4895   .text.pcQueueGetName:0000000000000000 $t
     /tmp/ccwOJcWw.s:4902   .text.pcQueueGetName:0000000000000000 pcQueueGetName
     /tmp/ccwOJcWw.s:4974   .text.pcQueueGetName:0000000000000048 $d
     /tmp/ccwOJcWw.s:4979   .text.vQueueUnregisterQueue:0000000000000000 $t
     /tmp/ccwOJcWw.s:5060   .text.vQueueUnregisterQueue:0000000000000050 $d
     /tmp/ccwOJcWw.s:5065   .text.vQueueWaitForMessageRestricted:0000000000000000 $t
     /tmp/ccwOJcWw.s:5072   .text.vQueueWaitForMessageRestricted:0000000000000000 vQueueWaitForMessageRestricted
                           .group:0000000000000000 wm4.0.66eb26e6ef234a179f62cd8806fe3c00
                           .group:0000000000000000 wm4.ieeefp.h.77.220d9cccac42cd58761758bee2df4ce6
                           .group:0000000000000000 wm4._newlib_version.h.4.875b979a44719054cd750d0952ad3fd6
                           .group:0000000000000000 wm4.newlib.h.18.5e5ca3429233af402d406a202f1fc1ac
                           .group:0000000000000000 wm4.features.h.22.fad1cec3bc7ff06488171438dbdcfd02
                           .group:0000000000000000 wm4.config.h.220.6cac6a9685cfce5e83c17784171638d9
                           .group:0000000000000000 wm4._ansi.h.31.de524f58584151836e90d8620a16f8e8
                           .group:0000000000000000 wm4.stdlib.h.13.4ed386f5c1a80d71e72172885d946ef2
                           .group:0000000000000000 wm4.stddef.h.187.e1c83cba2098ce92b68f6311de19e6b1
                           .group:0000000000000000 wm4.stddef.h.39.57db33e786ccd422e31be63a26e19309
                           .group:0000000000000000 wm4._default_types.h.6.959254cf5f09734ea7516c89e8bb21bd
                           .group:0000000000000000 wm4.lock.h.2.1461d1fff82dffe8bfddc23307f6484f
                           .group:0000000000000000 wm4._types.h.125.5cf8a495f1f7ef36777ad868a1e32068
                           .group:0000000000000000 wm4.stddef.h.161.5349cb105733e8777bfb0cf53c4e3f34
                           .group:0000000000000000 wm4._types.h.184.03611d4f6b5bec9997bcf4279eceba07
                           .group:0000000000000000 wm4.reent.h.17.90c2574d4acdcfce933db5cb09ff35fe
                           .group:0000000000000000 wm4.cdefs.h.47.0bcdf94cb40e176393dd1404056825b4
                           .group:0000000000000000 wm4.alloca.h.8.dfc0c703c47ec3e69746825b17d9e66d
                           .group:0000000000000000 wm4.stdlib.h.56.d4493cd3736e51e9d56335045f26df45
                           .group:0000000000000000 wm4.string.h.8.c4b8571ce60dff2817f43fec8b86aecd
                           .group:0000000000000000 wm4.stddef.h.161.19e15733342b50ead2919490b095303e
                           .group:0000000000000000 wm4._intsup.h.10.cce27fed8484c08a33f522034c30d2b5
                           .group:0000000000000000 wm4._stdint.h.10.c24fa3af3bc1706662bb5593a907e841
ARM GAS  /tmp/ccwOJcWw.s 			page 145


                           .group:0000000000000000 wm4.stdint.h.23.d53047a68f4a85177f80b422d52785ed
                           .group:0000000000000000 wm4.FreeRTOSConfig.h.31.b62728e58c3d6bdf0600b01b58224977
                           .group:0000000000000000 wm4.projdefs.h.29.3472c8470d131a5f474bc7437ea94609
                           .group:0000000000000000 wm4.portmacro.h.30.110a3580e768a63cdd084aa29b33cb01
                           .group:0000000000000000 wm4.portable.h.64.00b423ba030e23bed354b037664af7a6
                           .group:0000000000000000 wm4.mpu_wrappers.h.29.89d425470b0b1ff39fbd61026b3dc073
                           .group:0000000000000000 wm4.FreeRTOS.h.66.a6a3890d948540b7d907430686cf5981
                           .group:0000000000000000 wm4.list.h.61.bafeaa82806d71ae8917c6d7827fc3d2
                           .group:0000000000000000 wm4.task.h.46.0d11769cee96bf77a599bac125eeecf9
                           .group:0000000000000000 wm4.queue.h.30.869c955d5419eb4d2a6105525f841f78

UNDEFINED SYMBOLS
vPortEnterCritical
xTaskRemoveFromEventList
vListInitialise
vPortExitCritical
pvPortMalloc
xTaskGetCurrentTaskHandle
xTaskGetSchedulerState
vTaskInternalSetTimeOutState
vTaskSuspendAll
xTaskCheckForTimeOut
vTaskPlaceOnEventList
xTaskResumeAll
vPortValidateInterruptPriority
pvTaskIncrementMutexHeldCount
xTaskPriorityInherit
vTaskPriorityDisinheritAfterTimeout
vPortFree
xTaskPriorityDisinherit
memcpy
vTaskMissedYield
vTaskPlaceOnEventListRestricted
