ARM GAS  /tmp/ccwOJcWw.s 			page 1


   1              		.cpu cortex-m4
   2              		.eabi_attribute 27, 1
   3              		.eabi_attribute 28, 1
   4              		.eabi_attribute 20, 1
   5              		.eabi_attribute 21, 1
   6              		.eabi_attribute 23, 3
   7              		.eabi_attribute 24, 1
   8              		.eabi_attribute 25, 1
   9              		.eabi_attribute 26, 1
  10              		.eabi_attribute 30, 6
  11              		.eabi_attribute 34, 1
  12              		.eabi_attribute 18, 4
  13              		.file	"queue.c"
  14              		.text
  15              	.Ltext0:
  16              		.cfi_sections	.debug_frame
  17              		.comm	xQueueRegistry,64,4
  18              		.section	.text.xQueueGenericReset,"ax",%progbits
  19              		.align	1
  20              		.global	xQueueGenericReset
  21              		.syntax unified
  22              		.thumb
  23              		.thumb_func
  24              		.fpu fpv4-sp-d16
  26              	xQueueGenericReset:
  27              	.LFB4:
  28              		.file 1 "Firmware/Middlewares/Third_Party/FreeRTOS/Source/queue.c"
   1:Firmware/Middlewares/Third_Party/FreeRTOS/Source/queue.c **** /*
   2:Firmware/Middlewares/Third_Party/FreeRTOS/Source/queue.c ****  * FreeRTOS Kernel V10.0.1
   3:Firmware/Middlewares/Third_Party/FreeRTOS/Source/queue.c ****  * Copyright (C) 2017 Amazon.com, Inc. or its affiliates.  All Rights Reserved.
   4:Firmware/Middlewares/Third_Party/FreeRTOS/Source/queue.c ****  *
   5:Firmware/Middlewares/Third_Party/FreeRTOS/Source/queue.c ****  * Permission is hereby granted, free of charge, to any person obtaining a copy of
   6:Firmware/Middlewares/Third_Party/FreeRTOS/Source/queue.c ****  * this software and associated documentation files (the "Software"), to deal in
   7:Firmware/Middlewares/Third_Party/FreeRTOS/Source/queue.c ****  * the Software without restriction, including without limitation the rights to
   8:Firmware/Middlewares/Third_Party/FreeRTOS/Source/queue.c ****  * use, copy, modify, merge, publish, distribute, sublicense, and/or sell copies of
   9:Firmware/Middlewares/Third_Party/FreeRTOS/Source/queue.c ****  * the Software, and to permit persons to whom the Software is furnished to do so,
  10:Firmware/Middlewares/Third_Party/FreeRTOS/Source/queue.c ****  * subject to the following conditions:
  11:Firmware/Middlewares/Third_Party/FreeRTOS/Source/queue.c ****  *
  12:Firmware/Middlewares/Third_Party/FreeRTOS/Source/queue.c ****  * The above copyright notice and this permission notice shall be included in all
  13:Firmware/Middlewares/Third_Party/FreeRTOS/Source/queue.c ****  * copies or substantial portions of the Software.
  14:Firmware/Middlewares/Third_Party/FreeRTOS/Source/queue.c ****  *
  15:Firmware/Middlewares/Third_Party/FreeRTOS/Source/queue.c ****  * THE SOFTWARE IS PROVIDED "AS IS", WITHOUT WARRANTY OF ANY KIND, EXPRESS OR
  16:Firmware/Middlewares/Third_Party/FreeRTOS/Source/queue.c ****  * IMPLIED, INCLUDING BUT NOT LIMITED TO THE WARRANTIES OF MERCHANTABILITY, FITNESS
  17:Firmware/Middlewares/Third_Party/FreeRTOS/Source/queue.c ****  * FOR A PARTICULAR PURPOSE AND NONINFRINGEMENT. IN NO EVENT SHALL THE AUTHORS OR
  18:Firmware/Middlewares/Third_Party/FreeRTOS/Source/queue.c ****  * COPYRIGHT HOLDERS BE LIABLE FOR ANY CLAIM, DAMAGES OR OTHER LIABILITY, WHETHER
  19:Firmware/Middlewares/Third_Party/FreeRTOS/Source/queue.c ****  * IN AN ACTION OF CONTRACT, TORT OR OTHERWISE, ARISING FROM, OUT OF OR IN
  20:Firmware/Middlewares/Third_Party/FreeRTOS/Source/queue.c ****  * CONNECTION WITH THE SOFTWARE OR THE USE OR OTHER DEALINGS IN THE SOFTWARE.
  21:Firmware/Middlewares/Third_Party/FreeRTOS/Source/queue.c ****  *
  22:Firmware/Middlewares/Third_Party/FreeRTOS/Source/queue.c ****  * http://www.FreeRTOS.org
  23:Firmware/Middlewares/Third_Party/FreeRTOS/Source/queue.c ****  * http://aws.amazon.com/freertos
  24:Firmware/Middlewares/Third_Party/FreeRTOS/Source/queue.c ****  *
  25:Firmware/Middlewares/Third_Party/FreeRTOS/Source/queue.c ****  * 1 tab == 4 spaces!
  26:Firmware/Middlewares/Third_Party/FreeRTOS/Source/queue.c ****  */
  27:Firmware/Middlewares/Third_Party/FreeRTOS/Source/queue.c **** 
  28:Firmware/Middlewares/Third_Party/FreeRTOS/Source/queue.c **** #include <stdlib.h>
  29:Firmware/Middlewares/Third_Party/FreeRTOS/Source/queue.c **** #include <string.h>
  30:Firmware/Middlewares/Third_Party/FreeRTOS/Source/queue.c **** 
ARM GAS  /tmp/ccwOJcWw.s 			page 2


  31:Firmware/Middlewares/Third_Party/FreeRTOS/Source/queue.c **** /* Defining MPU_WRAPPERS_INCLUDED_FROM_API_FILE prevents task.h from redefining
  32:Firmware/Middlewares/Third_Party/FreeRTOS/Source/queue.c **** all the API functions to use the MPU wrappers.  That should only be done when
  33:Firmware/Middlewares/Third_Party/FreeRTOS/Source/queue.c **** task.h is included from an application file. */
  34:Firmware/Middlewares/Third_Party/FreeRTOS/Source/queue.c **** #define MPU_WRAPPERS_INCLUDED_FROM_API_FILE
  35:Firmware/Middlewares/Third_Party/FreeRTOS/Source/queue.c **** 
  36:Firmware/Middlewares/Third_Party/FreeRTOS/Source/queue.c **** #include "FreeRTOS.h"
  37:Firmware/Middlewares/Third_Party/FreeRTOS/Source/queue.c **** #include "task.h"
  38:Firmware/Middlewares/Third_Party/FreeRTOS/Source/queue.c **** #include "queue.h"
  39:Firmware/Middlewares/Third_Party/FreeRTOS/Source/queue.c **** 
  40:Firmware/Middlewares/Third_Party/FreeRTOS/Source/queue.c **** #if ( configUSE_CO_ROUTINES == 1 )
  41:Firmware/Middlewares/Third_Party/FreeRTOS/Source/queue.c **** 	#include "croutine.h"
  42:Firmware/Middlewares/Third_Party/FreeRTOS/Source/queue.c **** #endif
  43:Firmware/Middlewares/Third_Party/FreeRTOS/Source/queue.c **** 
  44:Firmware/Middlewares/Third_Party/FreeRTOS/Source/queue.c **** /* Lint e961 and e750 are suppressed as a MISRA exception justified because the
  45:Firmware/Middlewares/Third_Party/FreeRTOS/Source/queue.c **** MPU ports require MPU_WRAPPERS_INCLUDED_FROM_API_FILE to be defined for the
  46:Firmware/Middlewares/Third_Party/FreeRTOS/Source/queue.c **** header files above, but not in this file, in order to generate the correct
  47:Firmware/Middlewares/Third_Party/FreeRTOS/Source/queue.c **** privileged Vs unprivileged linkage and placement. */
  48:Firmware/Middlewares/Third_Party/FreeRTOS/Source/queue.c **** #undef MPU_WRAPPERS_INCLUDED_FROM_API_FILE /*lint !e961 !e750. */
  49:Firmware/Middlewares/Third_Party/FreeRTOS/Source/queue.c **** 
  50:Firmware/Middlewares/Third_Party/FreeRTOS/Source/queue.c **** 
  51:Firmware/Middlewares/Third_Party/FreeRTOS/Source/queue.c **** /* Constants used with the cRxLock and cTxLock structure members. */
  52:Firmware/Middlewares/Third_Party/FreeRTOS/Source/queue.c **** #define queueUNLOCKED					( ( int8_t ) -1 )
  53:Firmware/Middlewares/Third_Party/FreeRTOS/Source/queue.c **** #define queueLOCKED_UNMODIFIED			( ( int8_t ) 0 )
  54:Firmware/Middlewares/Third_Party/FreeRTOS/Source/queue.c **** 
  55:Firmware/Middlewares/Third_Party/FreeRTOS/Source/queue.c **** /* When the Queue_t structure is used to represent a base queue its pcHead and
  56:Firmware/Middlewares/Third_Party/FreeRTOS/Source/queue.c **** pcTail members are used as pointers into the queue storage area.  When the
  57:Firmware/Middlewares/Third_Party/FreeRTOS/Source/queue.c **** Queue_t structure is used to represent a mutex pcHead and pcTail pointers are
  58:Firmware/Middlewares/Third_Party/FreeRTOS/Source/queue.c **** not necessary, and the pcHead pointer is set to NULL to indicate that the
  59:Firmware/Middlewares/Third_Party/FreeRTOS/Source/queue.c **** pcTail pointer actually points to the mutex holder (if any).  Map alternative
  60:Firmware/Middlewares/Third_Party/FreeRTOS/Source/queue.c **** names to the pcHead and pcTail structure members to ensure the readability of
  61:Firmware/Middlewares/Third_Party/FreeRTOS/Source/queue.c **** the code is maintained despite this dual use of two structure members.  An
  62:Firmware/Middlewares/Third_Party/FreeRTOS/Source/queue.c **** alternative implementation would be to use a union, but use of a union is
  63:Firmware/Middlewares/Third_Party/FreeRTOS/Source/queue.c **** against the coding standard (although an exception to the standard has been
  64:Firmware/Middlewares/Third_Party/FreeRTOS/Source/queue.c **** permitted where the dual use also significantly changes the type of the
  65:Firmware/Middlewares/Third_Party/FreeRTOS/Source/queue.c **** structure member). */
  66:Firmware/Middlewares/Third_Party/FreeRTOS/Source/queue.c **** #define pxMutexHolder					pcTail
  67:Firmware/Middlewares/Third_Party/FreeRTOS/Source/queue.c **** #define uxQueueType						pcHead
  68:Firmware/Middlewares/Third_Party/FreeRTOS/Source/queue.c **** #define queueQUEUE_IS_MUTEX				NULL
  69:Firmware/Middlewares/Third_Party/FreeRTOS/Source/queue.c **** 
  70:Firmware/Middlewares/Third_Party/FreeRTOS/Source/queue.c **** /* Semaphores do not actually store or copy data, so have an item size of
  71:Firmware/Middlewares/Third_Party/FreeRTOS/Source/queue.c **** zero. */
  72:Firmware/Middlewares/Third_Party/FreeRTOS/Source/queue.c **** #define queueSEMAPHORE_QUEUE_ITEM_LENGTH ( ( UBaseType_t ) 0 )
  73:Firmware/Middlewares/Third_Party/FreeRTOS/Source/queue.c **** #define queueMUTEX_GIVE_BLOCK_TIME		 ( ( TickType_t ) 0U )
  74:Firmware/Middlewares/Third_Party/FreeRTOS/Source/queue.c **** 
  75:Firmware/Middlewares/Third_Party/FreeRTOS/Source/queue.c **** #if( configUSE_PREEMPTION == 0 )
  76:Firmware/Middlewares/Third_Party/FreeRTOS/Source/queue.c **** 	/* If the cooperative scheduler is being used then a yield should not be
  77:Firmware/Middlewares/Third_Party/FreeRTOS/Source/queue.c **** 	performed just because a higher priority task has been woken. */
  78:Firmware/Middlewares/Third_Party/FreeRTOS/Source/queue.c **** 	#define queueYIELD_IF_USING_PREEMPTION()
  79:Firmware/Middlewares/Third_Party/FreeRTOS/Source/queue.c **** #else
  80:Firmware/Middlewares/Third_Party/FreeRTOS/Source/queue.c **** 	#define queueYIELD_IF_USING_PREEMPTION() portYIELD_WITHIN_API()
  81:Firmware/Middlewares/Third_Party/FreeRTOS/Source/queue.c **** #endif
  82:Firmware/Middlewares/Third_Party/FreeRTOS/Source/queue.c **** 
  83:Firmware/Middlewares/Third_Party/FreeRTOS/Source/queue.c **** /*
  84:Firmware/Middlewares/Third_Party/FreeRTOS/Source/queue.c ****  * Definition of the queue used by the scheduler.
  85:Firmware/Middlewares/Third_Party/FreeRTOS/Source/queue.c ****  * Items are queued by copy, not reference.  See the following link for the
  86:Firmware/Middlewares/Third_Party/FreeRTOS/Source/queue.c ****  * rationale: http://www.freertos.org/Embedded-RTOS-Queues.html
  87:Firmware/Middlewares/Third_Party/FreeRTOS/Source/queue.c ****  */
ARM GAS  /tmp/ccwOJcWw.s 			page 3


  88:Firmware/Middlewares/Third_Party/FreeRTOS/Source/queue.c **** typedef struct QueueDefinition
  89:Firmware/Middlewares/Third_Party/FreeRTOS/Source/queue.c **** {
  90:Firmware/Middlewares/Third_Party/FreeRTOS/Source/queue.c **** 	int8_t *pcHead;					/*< Points to the beginning of the queue storage area. */
  91:Firmware/Middlewares/Third_Party/FreeRTOS/Source/queue.c **** 	int8_t *pcTail;					/*< Points to the byte at the end of the queue storage area.  Once more byte i
  92:Firmware/Middlewares/Third_Party/FreeRTOS/Source/queue.c **** 	int8_t *pcWriteTo;				/*< Points to the free next place in the storage area. */
  93:Firmware/Middlewares/Third_Party/FreeRTOS/Source/queue.c **** 
  94:Firmware/Middlewares/Third_Party/FreeRTOS/Source/queue.c **** 	union							/* Use of a union is an exception to the coding standard to ensure two mutually exclus
  95:Firmware/Middlewares/Third_Party/FreeRTOS/Source/queue.c **** 	{
  96:Firmware/Middlewares/Third_Party/FreeRTOS/Source/queue.c **** 		int8_t *pcReadFrom;			/*< Points to the last place that a queued item was read from when the stru
  97:Firmware/Middlewares/Third_Party/FreeRTOS/Source/queue.c **** 		UBaseType_t uxRecursiveCallCount;/*< Maintains a count of the number of times a recursive mutex h
  98:Firmware/Middlewares/Third_Party/FreeRTOS/Source/queue.c **** 	} u;
  99:Firmware/Middlewares/Third_Party/FreeRTOS/Source/queue.c **** 
 100:Firmware/Middlewares/Third_Party/FreeRTOS/Source/queue.c **** 	List_t xTasksWaitingToSend;		/*< List of tasks that are blocked waiting to post onto this queue.  
 101:Firmware/Middlewares/Third_Party/FreeRTOS/Source/queue.c **** 	List_t xTasksWaitingToReceive;	/*< List of tasks that are blocked waiting to read from this queue.
 102:Firmware/Middlewares/Third_Party/FreeRTOS/Source/queue.c **** 
 103:Firmware/Middlewares/Third_Party/FreeRTOS/Source/queue.c **** 	volatile UBaseType_t uxMessagesWaiting;/*< The number of items currently in the queue. */
 104:Firmware/Middlewares/Third_Party/FreeRTOS/Source/queue.c **** 	UBaseType_t uxLength;			/*< The length of the queue defined as the number of items it will hold, n
 105:Firmware/Middlewares/Third_Party/FreeRTOS/Source/queue.c **** 	UBaseType_t uxItemSize;			/*< The size of each items that the queue will hold. */
 106:Firmware/Middlewares/Third_Party/FreeRTOS/Source/queue.c **** 
 107:Firmware/Middlewares/Third_Party/FreeRTOS/Source/queue.c **** 	volatile int8_t cRxLock;		/*< Stores the number of items received from the queue (removed from the
 108:Firmware/Middlewares/Third_Party/FreeRTOS/Source/queue.c **** 	volatile int8_t cTxLock;		/*< Stores the number of items transmitted to the queue (added to the qu
 109:Firmware/Middlewares/Third_Party/FreeRTOS/Source/queue.c **** 
 110:Firmware/Middlewares/Third_Party/FreeRTOS/Source/queue.c **** 	#if( ( configSUPPORT_STATIC_ALLOCATION == 1 ) && ( configSUPPORT_DYNAMIC_ALLOCATION == 1 ) )
 111:Firmware/Middlewares/Third_Party/FreeRTOS/Source/queue.c **** 		uint8_t ucStaticallyAllocated;	/*< Set to pdTRUE if the memory used by the queue was statically a
 112:Firmware/Middlewares/Third_Party/FreeRTOS/Source/queue.c **** 	#endif
 113:Firmware/Middlewares/Third_Party/FreeRTOS/Source/queue.c **** 
 114:Firmware/Middlewares/Third_Party/FreeRTOS/Source/queue.c **** 	#if ( configUSE_QUEUE_SETS == 1 )
 115:Firmware/Middlewares/Third_Party/FreeRTOS/Source/queue.c **** 		struct QueueDefinition *pxQueueSetContainer;
 116:Firmware/Middlewares/Third_Party/FreeRTOS/Source/queue.c **** 	#endif
 117:Firmware/Middlewares/Third_Party/FreeRTOS/Source/queue.c **** 
 118:Firmware/Middlewares/Third_Party/FreeRTOS/Source/queue.c **** 	#if ( configUSE_TRACE_FACILITY == 1 )
 119:Firmware/Middlewares/Third_Party/FreeRTOS/Source/queue.c **** 		UBaseType_t uxQueueNumber;
 120:Firmware/Middlewares/Third_Party/FreeRTOS/Source/queue.c **** 		uint8_t ucQueueType;
 121:Firmware/Middlewares/Third_Party/FreeRTOS/Source/queue.c **** 	#endif
 122:Firmware/Middlewares/Third_Party/FreeRTOS/Source/queue.c **** 
 123:Firmware/Middlewares/Third_Party/FreeRTOS/Source/queue.c **** } xQUEUE;
 124:Firmware/Middlewares/Third_Party/FreeRTOS/Source/queue.c **** 
 125:Firmware/Middlewares/Third_Party/FreeRTOS/Source/queue.c **** /* The old xQUEUE name is maintained above then typedefed to the new Queue_t
 126:Firmware/Middlewares/Third_Party/FreeRTOS/Source/queue.c **** name below to enable the use of older kernel aware debuggers. */
 127:Firmware/Middlewares/Third_Party/FreeRTOS/Source/queue.c **** typedef xQUEUE Queue_t;
 128:Firmware/Middlewares/Third_Party/FreeRTOS/Source/queue.c **** 
 129:Firmware/Middlewares/Third_Party/FreeRTOS/Source/queue.c **** /*-----------------------------------------------------------*/
 130:Firmware/Middlewares/Third_Party/FreeRTOS/Source/queue.c **** 
 131:Firmware/Middlewares/Third_Party/FreeRTOS/Source/queue.c **** /*
 132:Firmware/Middlewares/Third_Party/FreeRTOS/Source/queue.c ****  * The queue registry is just a means for kernel aware debuggers to locate
 133:Firmware/Middlewares/Third_Party/FreeRTOS/Source/queue.c ****  * queue structures.  It has no other purpose so is an optional component.
 134:Firmware/Middlewares/Third_Party/FreeRTOS/Source/queue.c ****  */
 135:Firmware/Middlewares/Third_Party/FreeRTOS/Source/queue.c **** #if ( configQUEUE_REGISTRY_SIZE > 0 )
 136:Firmware/Middlewares/Third_Party/FreeRTOS/Source/queue.c **** 
 137:Firmware/Middlewares/Third_Party/FreeRTOS/Source/queue.c **** 	/* The type stored within the queue registry array.  This allows a name
 138:Firmware/Middlewares/Third_Party/FreeRTOS/Source/queue.c **** 	to be assigned to each queue making kernel aware debugging a little
 139:Firmware/Middlewares/Third_Party/FreeRTOS/Source/queue.c **** 	more user friendly. */
 140:Firmware/Middlewares/Third_Party/FreeRTOS/Source/queue.c **** 	typedef struct QUEUE_REGISTRY_ITEM
 141:Firmware/Middlewares/Third_Party/FreeRTOS/Source/queue.c **** 	{
 142:Firmware/Middlewares/Third_Party/FreeRTOS/Source/queue.c **** 		const char *pcQueueName; /*lint !e971 Unqualified char types are allowed for strings and single c
 143:Firmware/Middlewares/Third_Party/FreeRTOS/Source/queue.c **** 		QueueHandle_t xHandle;
 144:Firmware/Middlewares/Third_Party/FreeRTOS/Source/queue.c **** 	} xQueueRegistryItem;
ARM GAS  /tmp/ccwOJcWw.s 			page 4


 145:Firmware/Middlewares/Third_Party/FreeRTOS/Source/queue.c **** 
 146:Firmware/Middlewares/Third_Party/FreeRTOS/Source/queue.c **** 	/* The old xQueueRegistryItem name is maintained above then typedefed to the
 147:Firmware/Middlewares/Third_Party/FreeRTOS/Source/queue.c **** 	new xQueueRegistryItem name below to enable the use of older kernel aware
 148:Firmware/Middlewares/Third_Party/FreeRTOS/Source/queue.c **** 	debuggers. */
 149:Firmware/Middlewares/Third_Party/FreeRTOS/Source/queue.c **** 	typedef xQueueRegistryItem QueueRegistryItem_t;
 150:Firmware/Middlewares/Third_Party/FreeRTOS/Source/queue.c **** 
 151:Firmware/Middlewares/Third_Party/FreeRTOS/Source/queue.c **** 	/* The queue registry is simply an array of QueueRegistryItem_t structures.
 152:Firmware/Middlewares/Third_Party/FreeRTOS/Source/queue.c **** 	The pcQueueName member of a structure being NULL is indicative of the
 153:Firmware/Middlewares/Third_Party/FreeRTOS/Source/queue.c **** 	array position being vacant. */
 154:Firmware/Middlewares/Third_Party/FreeRTOS/Source/queue.c **** 	PRIVILEGED_DATA QueueRegistryItem_t xQueueRegistry[ configQUEUE_REGISTRY_SIZE ];
 155:Firmware/Middlewares/Third_Party/FreeRTOS/Source/queue.c **** 
 156:Firmware/Middlewares/Third_Party/FreeRTOS/Source/queue.c **** #endif /* configQUEUE_REGISTRY_SIZE */
 157:Firmware/Middlewares/Third_Party/FreeRTOS/Source/queue.c **** 
 158:Firmware/Middlewares/Third_Party/FreeRTOS/Source/queue.c **** /*
 159:Firmware/Middlewares/Third_Party/FreeRTOS/Source/queue.c ****  * Unlocks a queue locked by a call to prvLockQueue.  Locking a queue does not
 160:Firmware/Middlewares/Third_Party/FreeRTOS/Source/queue.c ****  * prevent an ISR from adding or removing items to the queue, but does prevent
 161:Firmware/Middlewares/Third_Party/FreeRTOS/Source/queue.c ****  * an ISR from removing tasks from the queue event lists.  If an ISR finds a
 162:Firmware/Middlewares/Third_Party/FreeRTOS/Source/queue.c ****  * queue is locked it will instead increment the appropriate queue lock count
 163:Firmware/Middlewares/Third_Party/FreeRTOS/Source/queue.c ****  * to indicate that a task may require unblocking.  When the queue in unlocked
 164:Firmware/Middlewares/Third_Party/FreeRTOS/Source/queue.c ****  * these lock counts are inspected, and the appropriate action taken.
 165:Firmware/Middlewares/Third_Party/FreeRTOS/Source/queue.c ****  */
 166:Firmware/Middlewares/Third_Party/FreeRTOS/Source/queue.c **** static void prvUnlockQueue( Queue_t * const pxQueue ) PRIVILEGED_FUNCTION;
 167:Firmware/Middlewares/Third_Party/FreeRTOS/Source/queue.c **** 
 168:Firmware/Middlewares/Third_Party/FreeRTOS/Source/queue.c **** /*
 169:Firmware/Middlewares/Third_Party/FreeRTOS/Source/queue.c ****  * Uses a critical section to determine if there is any data in a queue.
 170:Firmware/Middlewares/Third_Party/FreeRTOS/Source/queue.c ****  *
 171:Firmware/Middlewares/Third_Party/FreeRTOS/Source/queue.c ****  * @return pdTRUE if the queue contains no items, otherwise pdFALSE.
 172:Firmware/Middlewares/Third_Party/FreeRTOS/Source/queue.c ****  */
 173:Firmware/Middlewares/Third_Party/FreeRTOS/Source/queue.c **** static BaseType_t prvIsQueueEmpty( const Queue_t *pxQueue ) PRIVILEGED_FUNCTION;
 174:Firmware/Middlewares/Third_Party/FreeRTOS/Source/queue.c **** 
 175:Firmware/Middlewares/Third_Party/FreeRTOS/Source/queue.c **** /*
 176:Firmware/Middlewares/Third_Party/FreeRTOS/Source/queue.c ****  * Uses a critical section to determine if there is any space in a queue.
 177:Firmware/Middlewares/Third_Party/FreeRTOS/Source/queue.c ****  *
 178:Firmware/Middlewares/Third_Party/FreeRTOS/Source/queue.c ****  * @return pdTRUE if there is no space, otherwise pdFALSE;
 179:Firmware/Middlewares/Third_Party/FreeRTOS/Source/queue.c ****  */
 180:Firmware/Middlewares/Third_Party/FreeRTOS/Source/queue.c **** static BaseType_t prvIsQueueFull( const Queue_t *pxQueue ) PRIVILEGED_FUNCTION;
 181:Firmware/Middlewares/Third_Party/FreeRTOS/Source/queue.c **** 
 182:Firmware/Middlewares/Third_Party/FreeRTOS/Source/queue.c **** /*
 183:Firmware/Middlewares/Third_Party/FreeRTOS/Source/queue.c ****  * Copies an item into the queue, either at the front of the queue or the
 184:Firmware/Middlewares/Third_Party/FreeRTOS/Source/queue.c ****  * back of the queue.
 185:Firmware/Middlewares/Third_Party/FreeRTOS/Source/queue.c ****  */
 186:Firmware/Middlewares/Third_Party/FreeRTOS/Source/queue.c **** static BaseType_t prvCopyDataToQueue( Queue_t * const pxQueue, const void *pvItemToQueue, const Bas
 187:Firmware/Middlewares/Third_Party/FreeRTOS/Source/queue.c **** 
 188:Firmware/Middlewares/Third_Party/FreeRTOS/Source/queue.c **** /*
 189:Firmware/Middlewares/Third_Party/FreeRTOS/Source/queue.c ****  * Copies an item out of a queue.
 190:Firmware/Middlewares/Third_Party/FreeRTOS/Source/queue.c ****  */
 191:Firmware/Middlewares/Third_Party/FreeRTOS/Source/queue.c **** static void prvCopyDataFromQueue( Queue_t * const pxQueue, void * const pvBuffer ) PRIVILEGED_FUNCT
 192:Firmware/Middlewares/Third_Party/FreeRTOS/Source/queue.c **** 
 193:Firmware/Middlewares/Third_Party/FreeRTOS/Source/queue.c **** #if ( configUSE_QUEUE_SETS == 1 )
 194:Firmware/Middlewares/Third_Party/FreeRTOS/Source/queue.c **** 	/*
 195:Firmware/Middlewares/Third_Party/FreeRTOS/Source/queue.c **** 	 * Checks to see if a queue is a member of a queue set, and if so, notifies
 196:Firmware/Middlewares/Third_Party/FreeRTOS/Source/queue.c **** 	 * the queue set that the queue contains data.
 197:Firmware/Middlewares/Third_Party/FreeRTOS/Source/queue.c **** 	 */
 198:Firmware/Middlewares/Third_Party/FreeRTOS/Source/queue.c **** 	static BaseType_t prvNotifyQueueSetContainer( const Queue_t * const pxQueue, const BaseType_t xCop
 199:Firmware/Middlewares/Third_Party/FreeRTOS/Source/queue.c **** #endif
 200:Firmware/Middlewares/Third_Party/FreeRTOS/Source/queue.c **** 
 201:Firmware/Middlewares/Third_Party/FreeRTOS/Source/queue.c **** /*
ARM GAS  /tmp/ccwOJcWw.s 			page 5


 202:Firmware/Middlewares/Third_Party/FreeRTOS/Source/queue.c ****  * Called after a Queue_t structure has been allocated either statically or
 203:Firmware/Middlewares/Third_Party/FreeRTOS/Source/queue.c ****  * dynamically to fill in the structure's members.
 204:Firmware/Middlewares/Third_Party/FreeRTOS/Source/queue.c ****  */
 205:Firmware/Middlewares/Third_Party/FreeRTOS/Source/queue.c **** static void prvInitialiseNewQueue( const UBaseType_t uxQueueLength, const UBaseType_t uxItemSize, u
 206:Firmware/Middlewares/Third_Party/FreeRTOS/Source/queue.c **** 
 207:Firmware/Middlewares/Third_Party/FreeRTOS/Source/queue.c **** /*
 208:Firmware/Middlewares/Third_Party/FreeRTOS/Source/queue.c ****  * Mutexes are a special type of queue.  When a mutex is created, first the
 209:Firmware/Middlewares/Third_Party/FreeRTOS/Source/queue.c ****  * queue is created, then prvInitialiseMutex() is called to configure the queue
 210:Firmware/Middlewares/Third_Party/FreeRTOS/Source/queue.c ****  * as a mutex.
 211:Firmware/Middlewares/Third_Party/FreeRTOS/Source/queue.c ****  */
 212:Firmware/Middlewares/Third_Party/FreeRTOS/Source/queue.c **** #if( configUSE_MUTEXES == 1 )
 213:Firmware/Middlewares/Third_Party/FreeRTOS/Source/queue.c **** 	static void prvInitialiseMutex( Queue_t *pxNewQueue ) PRIVILEGED_FUNCTION;
 214:Firmware/Middlewares/Third_Party/FreeRTOS/Source/queue.c **** #endif
 215:Firmware/Middlewares/Third_Party/FreeRTOS/Source/queue.c **** 
 216:Firmware/Middlewares/Third_Party/FreeRTOS/Source/queue.c **** #if( configUSE_MUTEXES == 1 )
 217:Firmware/Middlewares/Third_Party/FreeRTOS/Source/queue.c **** 	/*
 218:Firmware/Middlewares/Third_Party/FreeRTOS/Source/queue.c **** 	 * If a task waiting for a mutex causes the mutex holder to inherit a
 219:Firmware/Middlewares/Third_Party/FreeRTOS/Source/queue.c **** 	 * priority, but the waiting task times out, then the holder should
 220:Firmware/Middlewares/Third_Party/FreeRTOS/Source/queue.c **** 	 * disinherit the priority - but only down to the highest priority of any
 221:Firmware/Middlewares/Third_Party/FreeRTOS/Source/queue.c **** 	 * other tasks that are waiting for the same mutex.  This function returns
 222:Firmware/Middlewares/Third_Party/FreeRTOS/Source/queue.c **** 	 * that priority.
 223:Firmware/Middlewares/Third_Party/FreeRTOS/Source/queue.c **** 	 */
 224:Firmware/Middlewares/Third_Party/FreeRTOS/Source/queue.c **** 	static UBaseType_t prvGetDisinheritPriorityAfterTimeout( const Queue_t * const pxQueue ) PRIVILEGE
 225:Firmware/Middlewares/Third_Party/FreeRTOS/Source/queue.c **** #endif
 226:Firmware/Middlewares/Third_Party/FreeRTOS/Source/queue.c **** /*-----------------------------------------------------------*/
 227:Firmware/Middlewares/Third_Party/FreeRTOS/Source/queue.c **** 
 228:Firmware/Middlewares/Third_Party/FreeRTOS/Source/queue.c **** /*
 229:Firmware/Middlewares/Third_Party/FreeRTOS/Source/queue.c ****  * Macro to mark a queue as locked.  Locking a queue prevents an ISR from
 230:Firmware/Middlewares/Third_Party/FreeRTOS/Source/queue.c ****  * accessing the queue event lists.
 231:Firmware/Middlewares/Third_Party/FreeRTOS/Source/queue.c ****  */
 232:Firmware/Middlewares/Third_Party/FreeRTOS/Source/queue.c **** #define prvLockQueue( pxQueue )								\
 233:Firmware/Middlewares/Third_Party/FreeRTOS/Source/queue.c **** 	taskENTER_CRITICAL();									\
 234:Firmware/Middlewares/Third_Party/FreeRTOS/Source/queue.c **** 	{														\
 235:Firmware/Middlewares/Third_Party/FreeRTOS/Source/queue.c **** 		if( ( pxQueue )->cRxLock == queueUNLOCKED )			\
 236:Firmware/Middlewares/Third_Party/FreeRTOS/Source/queue.c **** 		{													\
 237:Firmware/Middlewares/Third_Party/FreeRTOS/Source/queue.c **** 			( pxQueue )->cRxLock = queueLOCKED_UNMODIFIED;	\
 238:Firmware/Middlewares/Third_Party/FreeRTOS/Source/queue.c **** 		}													\
 239:Firmware/Middlewares/Third_Party/FreeRTOS/Source/queue.c **** 		if( ( pxQueue )->cTxLock == queueUNLOCKED )			\
 240:Firmware/Middlewares/Third_Party/FreeRTOS/Source/queue.c **** 		{													\
 241:Firmware/Middlewares/Third_Party/FreeRTOS/Source/queue.c **** 			( pxQueue )->cTxLock = queueLOCKED_UNMODIFIED;	\
 242:Firmware/Middlewares/Third_Party/FreeRTOS/Source/queue.c **** 		}													\
 243:Firmware/Middlewares/Third_Party/FreeRTOS/Source/queue.c **** 	}														\
 244:Firmware/Middlewares/Third_Party/FreeRTOS/Source/queue.c **** 	taskEXIT_CRITICAL()
 245:Firmware/Middlewares/Third_Party/FreeRTOS/Source/queue.c **** /*-----------------------------------------------------------*/
 246:Firmware/Middlewares/Third_Party/FreeRTOS/Source/queue.c **** 
 247:Firmware/Middlewares/Third_Party/FreeRTOS/Source/queue.c **** BaseType_t xQueueGenericReset( QueueHandle_t xQueue, BaseType_t xNewQueue )
 248:Firmware/Middlewares/Third_Party/FreeRTOS/Source/queue.c **** {
  29              		.loc 1 248 0
  30              		.cfi_startproc
  31              		@ args = 0, pretend = 0, frame = 16
  32              		@ frame_needed = 1, uses_anonymous_args = 0
  33 0000 80B5     		push	{r7, lr}
  34              	.LCFI0:
  35              		.cfi_def_cfa_offset 8
  36              		.cfi_offset 7, -8
  37              		.cfi_offset 14, -4
  38 0002 84B0     		sub	sp, sp, #16
ARM GAS  /tmp/ccwOJcWw.s 			page 6


  39              	.LCFI1:
  40              		.cfi_def_cfa_offset 24
  41 0004 00AF     		add	r7, sp, #0
  42              	.LCFI2:
  43              		.cfi_def_cfa_register 7
  44 0006 7860     		str	r0, [r7, #4]
  45 0008 3960     		str	r1, [r7]
 249:Firmware/Middlewares/Third_Party/FreeRTOS/Source/queue.c **** Queue_t * const pxQueue = ( Queue_t * ) xQueue;
  46              		.loc 1 249 0
  47 000a 7B68     		ldr	r3, [r7, #4]
  48 000c FB60     		str	r3, [r7, #12]
 250:Firmware/Middlewares/Third_Party/FreeRTOS/Source/queue.c **** 
 251:Firmware/Middlewares/Third_Party/FreeRTOS/Source/queue.c **** 	configASSERT( pxQueue );
  49              		.loc 1 251 0
  50 000e FB68     		ldr	r3, [r7, #12]
  51 0010 002B     		cmp	r3, #0
  52 0012 09D1     		bne	.L2
  53              	.LBB118:
  54              	.LBB119:
  55              		.file 2 "Firmware/Middlewares/Third_Party/FreeRTOS/Source/portable/GCC/ARM_CM4F/portmacro.h"
   1:Firmware/Middlewares/Third_Party/FreeRTOS/Source/portable/GCC/ARM_CM4F/portmacro.h **** /*
   2:Firmware/Middlewares/Third_Party/FreeRTOS/Source/portable/GCC/ARM_CM4F/portmacro.h ****  * FreeRTOS Kernel V10.0.1
   3:Firmware/Middlewares/Third_Party/FreeRTOS/Source/portable/GCC/ARM_CM4F/portmacro.h ****  * Copyright (C) 2017 Amazon.com, Inc. or its affiliates.  All Rights Reserved.
   4:Firmware/Middlewares/Third_Party/FreeRTOS/Source/portable/GCC/ARM_CM4F/portmacro.h ****  *
   5:Firmware/Middlewares/Third_Party/FreeRTOS/Source/portable/GCC/ARM_CM4F/portmacro.h ****  * Permission is hereby granted, free of charge, to any person obtaining a copy of
   6:Firmware/Middlewares/Third_Party/FreeRTOS/Source/portable/GCC/ARM_CM4F/portmacro.h ****  * this software and associated documentation files (the "Software"), to deal in
   7:Firmware/Middlewares/Third_Party/FreeRTOS/Source/portable/GCC/ARM_CM4F/portmacro.h ****  * the Software without restriction, including without limitation the rights to
   8:Firmware/Middlewares/Third_Party/FreeRTOS/Source/portable/GCC/ARM_CM4F/portmacro.h ****  * use, copy, modify, merge, publish, distribute, sublicense, and/or sell copies of
   9:Firmware/Middlewares/Third_Party/FreeRTOS/Source/portable/GCC/ARM_CM4F/portmacro.h ****  * the Software, and to permit persons to whom the Software is furnished to do so,
  10:Firmware/Middlewares/Third_Party/FreeRTOS/Source/portable/GCC/ARM_CM4F/portmacro.h ****  * subject to the following conditions:
  11:Firmware/Middlewares/Third_Party/FreeRTOS/Source/portable/GCC/ARM_CM4F/portmacro.h ****  *
  12:Firmware/Middlewares/Third_Party/FreeRTOS/Source/portable/GCC/ARM_CM4F/portmacro.h ****  * The above copyright notice and this permission notice shall be included in all
  13:Firmware/Middlewares/Third_Party/FreeRTOS/Source/portable/GCC/ARM_CM4F/portmacro.h ****  * copies or substantial portions of the Software.
  14:Firmware/Middlewares/Third_Party/FreeRTOS/Source/portable/GCC/ARM_CM4F/portmacro.h ****  *
  15:Firmware/Middlewares/Third_Party/FreeRTOS/Source/portable/GCC/ARM_CM4F/portmacro.h ****  * THE SOFTWARE IS PROVIDED "AS IS", WITHOUT WARRANTY OF ANY KIND, EXPRESS OR
  16:Firmware/Middlewares/Third_Party/FreeRTOS/Source/portable/GCC/ARM_CM4F/portmacro.h ****  * IMPLIED, INCLUDING BUT NOT LIMITED TO THE WARRANTIES OF MERCHANTABILITY, FITNESS
  17:Firmware/Middlewares/Third_Party/FreeRTOS/Source/portable/GCC/ARM_CM4F/portmacro.h ****  * FOR A PARTICULAR PURPOSE AND NONINFRINGEMENT. IN NO EVENT SHALL THE AUTHORS OR
  18:Firmware/Middlewares/Third_Party/FreeRTOS/Source/portable/GCC/ARM_CM4F/portmacro.h ****  * COPYRIGHT HOLDERS BE LIABLE FOR ANY CLAIM, DAMAGES OR OTHER LIABILITY, WHETHER
  19:Firmware/Middlewares/Third_Party/FreeRTOS/Source/portable/GCC/ARM_CM4F/portmacro.h ****  * IN AN ACTION OF CONTRACT, TORT OR OTHERWISE, ARISING FROM, OUT OF OR IN
  20:Firmware/Middlewares/Third_Party/FreeRTOS/Source/portable/GCC/ARM_CM4F/portmacro.h ****  * CONNECTION WITH THE SOFTWARE OR THE USE OR OTHER DEALINGS IN THE SOFTWARE.
  21:Firmware/Middlewares/Third_Party/FreeRTOS/Source/portable/GCC/ARM_CM4F/portmacro.h ****  *
  22:Firmware/Middlewares/Third_Party/FreeRTOS/Source/portable/GCC/ARM_CM4F/portmacro.h ****  * http://www.FreeRTOS.org
  23:Firmware/Middlewares/Third_Party/FreeRTOS/Source/portable/GCC/ARM_CM4F/portmacro.h ****  * http://aws.amazon.com/freertos
  24:Firmware/Middlewares/Third_Party/FreeRTOS/Source/portable/GCC/ARM_CM4F/portmacro.h ****  *
  25:Firmware/Middlewares/Third_Party/FreeRTOS/Source/portable/GCC/ARM_CM4F/portmacro.h ****  * 1 tab == 4 spaces!
  26:Firmware/Middlewares/Third_Party/FreeRTOS/Source/portable/GCC/ARM_CM4F/portmacro.h ****  */
  27:Firmware/Middlewares/Third_Party/FreeRTOS/Source/portable/GCC/ARM_CM4F/portmacro.h **** 
  28:Firmware/Middlewares/Third_Party/FreeRTOS/Source/portable/GCC/ARM_CM4F/portmacro.h **** 
  29:Firmware/Middlewares/Third_Party/FreeRTOS/Source/portable/GCC/ARM_CM4F/portmacro.h **** #ifndef PORTMACRO_H
  30:Firmware/Middlewares/Third_Party/FreeRTOS/Source/portable/GCC/ARM_CM4F/portmacro.h **** #define PORTMACRO_H
  31:Firmware/Middlewares/Third_Party/FreeRTOS/Source/portable/GCC/ARM_CM4F/portmacro.h **** 
  32:Firmware/Middlewares/Third_Party/FreeRTOS/Source/portable/GCC/ARM_CM4F/portmacro.h **** #ifdef __cplusplus
  33:Firmware/Middlewares/Third_Party/FreeRTOS/Source/portable/GCC/ARM_CM4F/portmacro.h **** extern "C" {
  34:Firmware/Middlewares/Third_Party/FreeRTOS/Source/portable/GCC/ARM_CM4F/portmacro.h **** #endif
  35:Firmware/Middlewares/Third_Party/FreeRTOS/Source/portable/GCC/ARM_CM4F/portmacro.h **** 
  36:Firmware/Middlewares/Third_Party/FreeRTOS/Source/portable/GCC/ARM_CM4F/portmacro.h **** /*-----------------------------------------------------------
  37:Firmware/Middlewares/Third_Party/FreeRTOS/Source/portable/GCC/ARM_CM4F/portmacro.h ****  * Port specific definitions.
ARM GAS  /tmp/ccwOJcWw.s 			page 7


  38:Firmware/Middlewares/Third_Party/FreeRTOS/Source/portable/GCC/ARM_CM4F/portmacro.h ****  *
  39:Firmware/Middlewares/Third_Party/FreeRTOS/Source/portable/GCC/ARM_CM4F/portmacro.h ****  * The settings in this file configure FreeRTOS correctly for the
  40:Firmware/Middlewares/Third_Party/FreeRTOS/Source/portable/GCC/ARM_CM4F/portmacro.h ****  * given hardware and compiler.
  41:Firmware/Middlewares/Third_Party/FreeRTOS/Source/portable/GCC/ARM_CM4F/portmacro.h ****  *
  42:Firmware/Middlewares/Third_Party/FreeRTOS/Source/portable/GCC/ARM_CM4F/portmacro.h ****  * These settings should not be altered.
  43:Firmware/Middlewares/Third_Party/FreeRTOS/Source/portable/GCC/ARM_CM4F/portmacro.h ****  *-----------------------------------------------------------
  44:Firmware/Middlewares/Third_Party/FreeRTOS/Source/portable/GCC/ARM_CM4F/portmacro.h ****  */
  45:Firmware/Middlewares/Third_Party/FreeRTOS/Source/portable/GCC/ARM_CM4F/portmacro.h **** 
  46:Firmware/Middlewares/Third_Party/FreeRTOS/Source/portable/GCC/ARM_CM4F/portmacro.h **** /* Type definitions. */
  47:Firmware/Middlewares/Third_Party/FreeRTOS/Source/portable/GCC/ARM_CM4F/portmacro.h **** #define portCHAR		char
  48:Firmware/Middlewares/Third_Party/FreeRTOS/Source/portable/GCC/ARM_CM4F/portmacro.h **** #define portFLOAT		float
  49:Firmware/Middlewares/Third_Party/FreeRTOS/Source/portable/GCC/ARM_CM4F/portmacro.h **** #define portDOUBLE		double
  50:Firmware/Middlewares/Third_Party/FreeRTOS/Source/portable/GCC/ARM_CM4F/portmacro.h **** #define portLONG		long
  51:Firmware/Middlewares/Third_Party/FreeRTOS/Source/portable/GCC/ARM_CM4F/portmacro.h **** #define portSHORT		short
  52:Firmware/Middlewares/Third_Party/FreeRTOS/Source/portable/GCC/ARM_CM4F/portmacro.h **** #define portSTACK_TYPE	uint32_t
  53:Firmware/Middlewares/Third_Party/FreeRTOS/Source/portable/GCC/ARM_CM4F/portmacro.h **** #define portBASE_TYPE	long
  54:Firmware/Middlewares/Third_Party/FreeRTOS/Source/portable/GCC/ARM_CM4F/portmacro.h **** 
  55:Firmware/Middlewares/Third_Party/FreeRTOS/Source/portable/GCC/ARM_CM4F/portmacro.h **** typedef portSTACK_TYPE StackType_t;
  56:Firmware/Middlewares/Third_Party/FreeRTOS/Source/portable/GCC/ARM_CM4F/portmacro.h **** typedef long BaseType_t;
  57:Firmware/Middlewares/Third_Party/FreeRTOS/Source/portable/GCC/ARM_CM4F/portmacro.h **** typedef unsigned long UBaseType_t;
  58:Firmware/Middlewares/Third_Party/FreeRTOS/Source/portable/GCC/ARM_CM4F/portmacro.h **** 
  59:Firmware/Middlewares/Third_Party/FreeRTOS/Source/portable/GCC/ARM_CM4F/portmacro.h **** #if( configUSE_16_BIT_TICKS == 1 )
  60:Firmware/Middlewares/Third_Party/FreeRTOS/Source/portable/GCC/ARM_CM4F/portmacro.h **** 	typedef uint16_t TickType_t;
  61:Firmware/Middlewares/Third_Party/FreeRTOS/Source/portable/GCC/ARM_CM4F/portmacro.h **** 	#define portMAX_DELAY ( TickType_t ) 0xffff
  62:Firmware/Middlewares/Third_Party/FreeRTOS/Source/portable/GCC/ARM_CM4F/portmacro.h **** #else
  63:Firmware/Middlewares/Third_Party/FreeRTOS/Source/portable/GCC/ARM_CM4F/portmacro.h **** 	typedef uint32_t TickType_t;
  64:Firmware/Middlewares/Third_Party/FreeRTOS/Source/portable/GCC/ARM_CM4F/portmacro.h **** 	#define portMAX_DELAY ( TickType_t ) 0xffffffffUL
  65:Firmware/Middlewares/Third_Party/FreeRTOS/Source/portable/GCC/ARM_CM4F/portmacro.h **** 
  66:Firmware/Middlewares/Third_Party/FreeRTOS/Source/portable/GCC/ARM_CM4F/portmacro.h **** 	/* 32-bit tick type on a 32-bit architecture, so reads of the tick count do
  67:Firmware/Middlewares/Third_Party/FreeRTOS/Source/portable/GCC/ARM_CM4F/portmacro.h **** 	not need to be guarded with a critical section. */
  68:Firmware/Middlewares/Third_Party/FreeRTOS/Source/portable/GCC/ARM_CM4F/portmacro.h **** 	#define portTICK_TYPE_IS_ATOMIC 1
  69:Firmware/Middlewares/Third_Party/FreeRTOS/Source/portable/GCC/ARM_CM4F/portmacro.h **** #endif
  70:Firmware/Middlewares/Third_Party/FreeRTOS/Source/portable/GCC/ARM_CM4F/portmacro.h **** /*-----------------------------------------------------------*/
  71:Firmware/Middlewares/Third_Party/FreeRTOS/Source/portable/GCC/ARM_CM4F/portmacro.h **** 
  72:Firmware/Middlewares/Third_Party/FreeRTOS/Source/portable/GCC/ARM_CM4F/portmacro.h **** /* Architecture specifics. */
  73:Firmware/Middlewares/Third_Party/FreeRTOS/Source/portable/GCC/ARM_CM4F/portmacro.h **** #define portSTACK_GROWTH			( -1 )
  74:Firmware/Middlewares/Third_Party/FreeRTOS/Source/portable/GCC/ARM_CM4F/portmacro.h **** #define portTICK_PERIOD_MS			( ( TickType_t ) 1000 / configTICK_RATE_HZ )
  75:Firmware/Middlewares/Third_Party/FreeRTOS/Source/portable/GCC/ARM_CM4F/portmacro.h **** #define portBYTE_ALIGNMENT			8
  76:Firmware/Middlewares/Third_Party/FreeRTOS/Source/portable/GCC/ARM_CM4F/portmacro.h **** /*-----------------------------------------------------------*/
  77:Firmware/Middlewares/Third_Party/FreeRTOS/Source/portable/GCC/ARM_CM4F/portmacro.h **** 
  78:Firmware/Middlewares/Third_Party/FreeRTOS/Source/portable/GCC/ARM_CM4F/portmacro.h **** /* Scheduler utilities. */
  79:Firmware/Middlewares/Third_Party/FreeRTOS/Source/portable/GCC/ARM_CM4F/portmacro.h **** #define portYIELD() 															\
  80:Firmware/Middlewares/Third_Party/FreeRTOS/Source/portable/GCC/ARM_CM4F/portmacro.h **** {																				\
  81:Firmware/Middlewares/Third_Party/FreeRTOS/Source/portable/GCC/ARM_CM4F/portmacro.h **** 	/* Set a PendSV to request a context switch. */								\
  82:Firmware/Middlewares/Third_Party/FreeRTOS/Source/portable/GCC/ARM_CM4F/portmacro.h **** 	portNVIC_INT_CTRL_REG = portNVIC_PENDSVSET_BIT;								\
  83:Firmware/Middlewares/Third_Party/FreeRTOS/Source/portable/GCC/ARM_CM4F/portmacro.h **** 																				\
  84:Firmware/Middlewares/Third_Party/FreeRTOS/Source/portable/GCC/ARM_CM4F/portmacro.h **** 	/* Barriers are normally not required but do ensure the code is completely	\
  85:Firmware/Middlewares/Third_Party/FreeRTOS/Source/portable/GCC/ARM_CM4F/portmacro.h **** 	within the specified behaviour for the architecture. */						\
  86:Firmware/Middlewares/Third_Party/FreeRTOS/Source/portable/GCC/ARM_CM4F/portmacro.h **** 	__asm volatile( "dsb" ::: "memory" );										\
  87:Firmware/Middlewares/Third_Party/FreeRTOS/Source/portable/GCC/ARM_CM4F/portmacro.h **** 	__asm volatile( "isb" );													\
  88:Firmware/Middlewares/Third_Party/FreeRTOS/Source/portable/GCC/ARM_CM4F/portmacro.h **** }
  89:Firmware/Middlewares/Third_Party/FreeRTOS/Source/portable/GCC/ARM_CM4F/portmacro.h **** 
  90:Firmware/Middlewares/Third_Party/FreeRTOS/Source/portable/GCC/ARM_CM4F/portmacro.h **** #define portNVIC_INT_CTRL_REG		( * ( ( volatile uint32_t * ) 0xe000ed04 ) )
  91:Firmware/Middlewares/Third_Party/FreeRTOS/Source/portable/GCC/ARM_CM4F/portmacro.h **** #define portNVIC_PENDSVSET_BIT		( 1UL << 28UL )
  92:Firmware/Middlewares/Third_Party/FreeRTOS/Source/portable/GCC/ARM_CM4F/portmacro.h **** #define portEND_SWITCHING_ISR( xSwitchRequired ) if( xSwitchRequired != pdFALSE ) portYIELD()
  93:Firmware/Middlewares/Third_Party/FreeRTOS/Source/portable/GCC/ARM_CM4F/portmacro.h **** #define portYIELD_FROM_ISR( x ) portEND_SWITCHING_ISR( x )
  94:Firmware/Middlewares/Third_Party/FreeRTOS/Source/portable/GCC/ARM_CM4F/portmacro.h **** /*-----------------------------------------------------------*/
ARM GAS  /tmp/ccwOJcWw.s 			page 8


  95:Firmware/Middlewares/Third_Party/FreeRTOS/Source/portable/GCC/ARM_CM4F/portmacro.h **** 
  96:Firmware/Middlewares/Third_Party/FreeRTOS/Source/portable/GCC/ARM_CM4F/portmacro.h **** /* Critical section management. */
  97:Firmware/Middlewares/Third_Party/FreeRTOS/Source/portable/GCC/ARM_CM4F/portmacro.h **** extern void vPortEnterCritical( void );
  98:Firmware/Middlewares/Third_Party/FreeRTOS/Source/portable/GCC/ARM_CM4F/portmacro.h **** extern void vPortExitCritical( void );
  99:Firmware/Middlewares/Third_Party/FreeRTOS/Source/portable/GCC/ARM_CM4F/portmacro.h **** #define portSET_INTERRUPT_MASK_FROM_ISR()		ulPortRaiseBASEPRI()
 100:Firmware/Middlewares/Third_Party/FreeRTOS/Source/portable/GCC/ARM_CM4F/portmacro.h **** #define portCLEAR_INTERRUPT_MASK_FROM_ISR(x)	vPortSetBASEPRI(x)
 101:Firmware/Middlewares/Third_Party/FreeRTOS/Source/portable/GCC/ARM_CM4F/portmacro.h **** #define portDISABLE_INTERRUPTS()				vPortRaiseBASEPRI()
 102:Firmware/Middlewares/Third_Party/FreeRTOS/Source/portable/GCC/ARM_CM4F/portmacro.h **** #define portENABLE_INTERRUPTS()					vPortSetBASEPRI(0)
 103:Firmware/Middlewares/Third_Party/FreeRTOS/Source/portable/GCC/ARM_CM4F/portmacro.h **** #define portENTER_CRITICAL()					vPortEnterCritical()
 104:Firmware/Middlewares/Third_Party/FreeRTOS/Source/portable/GCC/ARM_CM4F/portmacro.h **** #define portEXIT_CRITICAL()						vPortExitCritical()
 105:Firmware/Middlewares/Third_Party/FreeRTOS/Source/portable/GCC/ARM_CM4F/portmacro.h **** 
 106:Firmware/Middlewares/Third_Party/FreeRTOS/Source/portable/GCC/ARM_CM4F/portmacro.h **** /*-----------------------------------------------------------*/
 107:Firmware/Middlewares/Third_Party/FreeRTOS/Source/portable/GCC/ARM_CM4F/portmacro.h **** 
 108:Firmware/Middlewares/Third_Party/FreeRTOS/Source/portable/GCC/ARM_CM4F/portmacro.h **** /* Task function macros as described on the FreeRTOS.org WEB site.  These are
 109:Firmware/Middlewares/Third_Party/FreeRTOS/Source/portable/GCC/ARM_CM4F/portmacro.h **** not necessary for to use this port.  They are defined so the common demo files
 110:Firmware/Middlewares/Third_Party/FreeRTOS/Source/portable/GCC/ARM_CM4F/portmacro.h **** (which build with all the ports) will build. */
 111:Firmware/Middlewares/Third_Party/FreeRTOS/Source/portable/GCC/ARM_CM4F/portmacro.h **** #define portTASK_FUNCTION_PROTO( vFunction, pvParameters ) void vFunction( void *pvParameters )
 112:Firmware/Middlewares/Third_Party/FreeRTOS/Source/portable/GCC/ARM_CM4F/portmacro.h **** #define portTASK_FUNCTION( vFunction, pvParameters ) void vFunction( void *pvParameters )
 113:Firmware/Middlewares/Third_Party/FreeRTOS/Source/portable/GCC/ARM_CM4F/portmacro.h **** /*-----------------------------------------------------------*/
 114:Firmware/Middlewares/Third_Party/FreeRTOS/Source/portable/GCC/ARM_CM4F/portmacro.h **** 
 115:Firmware/Middlewares/Third_Party/FreeRTOS/Source/portable/GCC/ARM_CM4F/portmacro.h **** /* Tickless idle/low power functionality. */
 116:Firmware/Middlewares/Third_Party/FreeRTOS/Source/portable/GCC/ARM_CM4F/portmacro.h **** #ifndef portSUPPRESS_TICKS_AND_SLEEP
 117:Firmware/Middlewares/Third_Party/FreeRTOS/Source/portable/GCC/ARM_CM4F/portmacro.h **** 	extern void vPortSuppressTicksAndSleep( TickType_t xExpectedIdleTime );
 118:Firmware/Middlewares/Third_Party/FreeRTOS/Source/portable/GCC/ARM_CM4F/portmacro.h **** 	#define portSUPPRESS_TICKS_AND_SLEEP( xExpectedIdleTime ) vPortSuppressTicksAndSleep( xExpectedIdl
 119:Firmware/Middlewares/Third_Party/FreeRTOS/Source/portable/GCC/ARM_CM4F/portmacro.h **** #endif
 120:Firmware/Middlewares/Third_Party/FreeRTOS/Source/portable/GCC/ARM_CM4F/portmacro.h **** /*-----------------------------------------------------------*/
 121:Firmware/Middlewares/Third_Party/FreeRTOS/Source/portable/GCC/ARM_CM4F/portmacro.h **** 
 122:Firmware/Middlewares/Third_Party/FreeRTOS/Source/portable/GCC/ARM_CM4F/portmacro.h **** /* Architecture specific optimisations. */
 123:Firmware/Middlewares/Third_Party/FreeRTOS/Source/portable/GCC/ARM_CM4F/portmacro.h **** #ifndef configUSE_PORT_OPTIMISED_TASK_SELECTION
 124:Firmware/Middlewares/Third_Party/FreeRTOS/Source/portable/GCC/ARM_CM4F/portmacro.h **** 	#define configUSE_PORT_OPTIMISED_TASK_SELECTION 1
 125:Firmware/Middlewares/Third_Party/FreeRTOS/Source/portable/GCC/ARM_CM4F/portmacro.h **** #endif
 126:Firmware/Middlewares/Third_Party/FreeRTOS/Source/portable/GCC/ARM_CM4F/portmacro.h **** 
 127:Firmware/Middlewares/Third_Party/FreeRTOS/Source/portable/GCC/ARM_CM4F/portmacro.h **** #if configUSE_PORT_OPTIMISED_TASK_SELECTION == 1
 128:Firmware/Middlewares/Third_Party/FreeRTOS/Source/portable/GCC/ARM_CM4F/portmacro.h **** 
 129:Firmware/Middlewares/Third_Party/FreeRTOS/Source/portable/GCC/ARM_CM4F/portmacro.h **** 	/* Generic helper function. */
 130:Firmware/Middlewares/Third_Party/FreeRTOS/Source/portable/GCC/ARM_CM4F/portmacro.h **** 	__attribute__( ( always_inline ) ) static inline uint8_t ucPortCountLeadingZeros( uint32_t ulBitma
 131:Firmware/Middlewares/Third_Party/FreeRTOS/Source/portable/GCC/ARM_CM4F/portmacro.h **** 	{
 132:Firmware/Middlewares/Third_Party/FreeRTOS/Source/portable/GCC/ARM_CM4F/portmacro.h **** 	uint8_t ucReturn;
 133:Firmware/Middlewares/Third_Party/FreeRTOS/Source/portable/GCC/ARM_CM4F/portmacro.h **** 
 134:Firmware/Middlewares/Third_Party/FreeRTOS/Source/portable/GCC/ARM_CM4F/portmacro.h **** 		__asm volatile ( "clz %0, %1" : "=r" ( ucReturn ) : "r" ( ulBitmap ) : "memory" );
 135:Firmware/Middlewares/Third_Party/FreeRTOS/Source/portable/GCC/ARM_CM4F/portmacro.h **** 		return ucReturn;
 136:Firmware/Middlewares/Third_Party/FreeRTOS/Source/portable/GCC/ARM_CM4F/portmacro.h **** 	}
 137:Firmware/Middlewares/Third_Party/FreeRTOS/Source/portable/GCC/ARM_CM4F/portmacro.h **** 
 138:Firmware/Middlewares/Third_Party/FreeRTOS/Source/portable/GCC/ARM_CM4F/portmacro.h **** 	/* Check the configuration. */
 139:Firmware/Middlewares/Third_Party/FreeRTOS/Source/portable/GCC/ARM_CM4F/portmacro.h **** 	#if( configMAX_PRIORITIES > 32 )
 140:Firmware/Middlewares/Third_Party/FreeRTOS/Source/portable/GCC/ARM_CM4F/portmacro.h **** 		#error configUSE_PORT_OPTIMISED_TASK_SELECTION can only be set to 1 when configMAX_PRIORITIES is 
 141:Firmware/Middlewares/Third_Party/FreeRTOS/Source/portable/GCC/ARM_CM4F/portmacro.h **** 	#endif
 142:Firmware/Middlewares/Third_Party/FreeRTOS/Source/portable/GCC/ARM_CM4F/portmacro.h **** 
 143:Firmware/Middlewares/Third_Party/FreeRTOS/Source/portable/GCC/ARM_CM4F/portmacro.h **** 	/* Store/clear the ready priorities in a bit map. */
 144:Firmware/Middlewares/Third_Party/FreeRTOS/Source/portable/GCC/ARM_CM4F/portmacro.h **** 	#define portRECORD_READY_PRIORITY( uxPriority, uxReadyPriorities ) ( uxReadyPriorities ) |= ( 1UL 
 145:Firmware/Middlewares/Third_Party/FreeRTOS/Source/portable/GCC/ARM_CM4F/portmacro.h **** 	#define portRESET_READY_PRIORITY( uxPriority, uxReadyPriorities ) ( uxReadyPriorities ) &= ~( 1UL 
 146:Firmware/Middlewares/Third_Party/FreeRTOS/Source/portable/GCC/ARM_CM4F/portmacro.h **** 
 147:Firmware/Middlewares/Third_Party/FreeRTOS/Source/portable/GCC/ARM_CM4F/portmacro.h **** 	/*-----------------------------------------------------------*/
 148:Firmware/Middlewares/Third_Party/FreeRTOS/Source/portable/GCC/ARM_CM4F/portmacro.h **** 
 149:Firmware/Middlewares/Third_Party/FreeRTOS/Source/portable/GCC/ARM_CM4F/portmacro.h **** 	#define portGET_HIGHEST_PRIORITY( uxTopPriority, uxReadyPriorities ) uxTopPriority = ( 31UL - ( ui
 150:Firmware/Middlewares/Third_Party/FreeRTOS/Source/portable/GCC/ARM_CM4F/portmacro.h **** 
 151:Firmware/Middlewares/Third_Party/FreeRTOS/Source/portable/GCC/ARM_CM4F/portmacro.h **** #endif /* configUSE_PORT_OPTIMISED_TASK_SELECTION */
ARM GAS  /tmp/ccwOJcWw.s 			page 9


 152:Firmware/Middlewares/Third_Party/FreeRTOS/Source/portable/GCC/ARM_CM4F/portmacro.h **** 
 153:Firmware/Middlewares/Third_Party/FreeRTOS/Source/portable/GCC/ARM_CM4F/portmacro.h **** /*-----------------------------------------------------------*/
 154:Firmware/Middlewares/Third_Party/FreeRTOS/Source/portable/GCC/ARM_CM4F/portmacro.h **** 
 155:Firmware/Middlewares/Third_Party/FreeRTOS/Source/portable/GCC/ARM_CM4F/portmacro.h **** #ifdef configASSERT
 156:Firmware/Middlewares/Third_Party/FreeRTOS/Source/portable/GCC/ARM_CM4F/portmacro.h **** 	void vPortValidateInterruptPriority( void );
 157:Firmware/Middlewares/Third_Party/FreeRTOS/Source/portable/GCC/ARM_CM4F/portmacro.h **** 	#define portASSERT_IF_INTERRUPT_PRIORITY_INVALID() 	vPortValidateInterruptPriority()
 158:Firmware/Middlewares/Third_Party/FreeRTOS/Source/portable/GCC/ARM_CM4F/portmacro.h **** #endif
 159:Firmware/Middlewares/Third_Party/FreeRTOS/Source/portable/GCC/ARM_CM4F/portmacro.h **** 
 160:Firmware/Middlewares/Third_Party/FreeRTOS/Source/portable/GCC/ARM_CM4F/portmacro.h **** /* portNOP() is not required by this port. */
 161:Firmware/Middlewares/Third_Party/FreeRTOS/Source/portable/GCC/ARM_CM4F/portmacro.h **** #define portNOP()
 162:Firmware/Middlewares/Third_Party/FreeRTOS/Source/portable/GCC/ARM_CM4F/portmacro.h **** 
 163:Firmware/Middlewares/Third_Party/FreeRTOS/Source/portable/GCC/ARM_CM4F/portmacro.h **** #define portINLINE	__inline
 164:Firmware/Middlewares/Third_Party/FreeRTOS/Source/portable/GCC/ARM_CM4F/portmacro.h **** 
 165:Firmware/Middlewares/Third_Party/FreeRTOS/Source/portable/GCC/ARM_CM4F/portmacro.h **** #ifndef portFORCE_INLINE
 166:Firmware/Middlewares/Third_Party/FreeRTOS/Source/portable/GCC/ARM_CM4F/portmacro.h **** 	#define portFORCE_INLINE inline __attribute__(( always_inline))
 167:Firmware/Middlewares/Third_Party/FreeRTOS/Source/portable/GCC/ARM_CM4F/portmacro.h **** #endif
 168:Firmware/Middlewares/Third_Party/FreeRTOS/Source/portable/GCC/ARM_CM4F/portmacro.h **** 
 169:Firmware/Middlewares/Third_Party/FreeRTOS/Source/portable/GCC/ARM_CM4F/portmacro.h **** portFORCE_INLINE static BaseType_t xPortIsInsideInterrupt( void )
 170:Firmware/Middlewares/Third_Party/FreeRTOS/Source/portable/GCC/ARM_CM4F/portmacro.h **** {
 171:Firmware/Middlewares/Third_Party/FreeRTOS/Source/portable/GCC/ARM_CM4F/portmacro.h **** uint32_t ulCurrentInterrupt;
 172:Firmware/Middlewares/Third_Party/FreeRTOS/Source/portable/GCC/ARM_CM4F/portmacro.h **** BaseType_t xReturn;
 173:Firmware/Middlewares/Third_Party/FreeRTOS/Source/portable/GCC/ARM_CM4F/portmacro.h **** 
 174:Firmware/Middlewares/Third_Party/FreeRTOS/Source/portable/GCC/ARM_CM4F/portmacro.h **** 	/* Obtain the number of the currently executing interrupt. */
 175:Firmware/Middlewares/Third_Party/FreeRTOS/Source/portable/GCC/ARM_CM4F/portmacro.h **** 	__asm volatile( "mrs %0, ipsr" : "=r"( ulCurrentInterrupt ) :: "memory" );
 176:Firmware/Middlewares/Third_Party/FreeRTOS/Source/portable/GCC/ARM_CM4F/portmacro.h **** 
 177:Firmware/Middlewares/Third_Party/FreeRTOS/Source/portable/GCC/ARM_CM4F/portmacro.h **** 	if( ulCurrentInterrupt == 0 )
 178:Firmware/Middlewares/Third_Party/FreeRTOS/Source/portable/GCC/ARM_CM4F/portmacro.h **** 	{
 179:Firmware/Middlewares/Third_Party/FreeRTOS/Source/portable/GCC/ARM_CM4F/portmacro.h **** 		xReturn = pdFALSE;
 180:Firmware/Middlewares/Third_Party/FreeRTOS/Source/portable/GCC/ARM_CM4F/portmacro.h **** 	}
 181:Firmware/Middlewares/Third_Party/FreeRTOS/Source/portable/GCC/ARM_CM4F/portmacro.h **** 	else
 182:Firmware/Middlewares/Third_Party/FreeRTOS/Source/portable/GCC/ARM_CM4F/portmacro.h **** 	{
 183:Firmware/Middlewares/Third_Party/FreeRTOS/Source/portable/GCC/ARM_CM4F/portmacro.h **** 		xReturn = pdTRUE;
 184:Firmware/Middlewares/Third_Party/FreeRTOS/Source/portable/GCC/ARM_CM4F/portmacro.h **** 	}
 185:Firmware/Middlewares/Third_Party/FreeRTOS/Source/portable/GCC/ARM_CM4F/portmacro.h **** 
 186:Firmware/Middlewares/Third_Party/FreeRTOS/Source/portable/GCC/ARM_CM4F/portmacro.h **** 	return xReturn;
 187:Firmware/Middlewares/Third_Party/FreeRTOS/Source/portable/GCC/ARM_CM4F/portmacro.h **** }
 188:Firmware/Middlewares/Third_Party/FreeRTOS/Source/portable/GCC/ARM_CM4F/portmacro.h **** 
 189:Firmware/Middlewares/Third_Party/FreeRTOS/Source/portable/GCC/ARM_CM4F/portmacro.h **** /*-----------------------------------------------------------*/
 190:Firmware/Middlewares/Third_Party/FreeRTOS/Source/portable/GCC/ARM_CM4F/portmacro.h **** 
 191:Firmware/Middlewares/Third_Party/FreeRTOS/Source/portable/GCC/ARM_CM4F/portmacro.h **** portFORCE_INLINE static void vPortRaiseBASEPRI( void )
 192:Firmware/Middlewares/Third_Party/FreeRTOS/Source/portable/GCC/ARM_CM4F/portmacro.h **** {
 193:Firmware/Middlewares/Third_Party/FreeRTOS/Source/portable/GCC/ARM_CM4F/portmacro.h **** uint32_t ulNewBASEPRI;
 194:Firmware/Middlewares/Third_Party/FreeRTOS/Source/portable/GCC/ARM_CM4F/portmacro.h **** 
 195:Firmware/Middlewares/Third_Party/FreeRTOS/Source/portable/GCC/ARM_CM4F/portmacro.h **** 	__asm volatile
  56              		.loc 2 195 0 discriminator 1
  57              		.syntax unified
  58              	@ 195 "Firmware/Middlewares/Third_Party/FreeRTOS/Source/portable/GCC/ARM_CM4F/portmacro.h" 1
  59 0014 4FF05003 			mov r3, #80												
  60 0018 83F31188 		msr basepri, r3											
  61 001c BFF36F8F 		isb														
  62 0020 BFF34F8F 		dsb														
  63              	
  64              	@ 0 "" 2
  65              		.thumb
  66              		.syntax unified
  67 0024 BB60     		str	r3, [r7, #8]
  68              	.L3:
ARM GAS  /tmp/ccwOJcWw.s 			page 10


  69              	.LBE119:
  70              	.LBE118:
  71              		.loc 1 251 0 discriminator 1
  72 0026 FEE7     		b	.L3
  73              	.L2:
 252:Firmware/Middlewares/Third_Party/FreeRTOS/Source/queue.c **** 
 253:Firmware/Middlewares/Third_Party/FreeRTOS/Source/queue.c **** 	taskENTER_CRITICAL();
  74              		.loc 1 253 0
  75 0028 FFF7FEFF 		bl	vPortEnterCritical
 254:Firmware/Middlewares/Third_Party/FreeRTOS/Source/queue.c **** 	{
 255:Firmware/Middlewares/Third_Party/FreeRTOS/Source/queue.c **** 		pxQueue->pcTail = pxQueue->pcHead + ( pxQueue->uxLength * pxQueue->uxItemSize );
  76              		.loc 1 255 0
  77 002c FB68     		ldr	r3, [r7, #12]
  78 002e 1A68     		ldr	r2, [r3]
  79 0030 FB68     		ldr	r3, [r7, #12]
  80 0032 DB6B     		ldr	r3, [r3, #60]
  81 0034 F968     		ldr	r1, [r7, #12]
  82 0036 096C     		ldr	r1, [r1, #64]
  83 0038 01FB03F3 		mul	r3, r1, r3
  84 003c 1A44     		add	r2, r2, r3
  85 003e FB68     		ldr	r3, [r7, #12]
  86 0040 5A60     		str	r2, [r3, #4]
 256:Firmware/Middlewares/Third_Party/FreeRTOS/Source/queue.c **** 		pxQueue->uxMessagesWaiting = ( UBaseType_t ) 0U;
  87              		.loc 1 256 0
  88 0042 FB68     		ldr	r3, [r7, #12]
  89 0044 0022     		movs	r2, #0
  90 0046 9A63     		str	r2, [r3, #56]
 257:Firmware/Middlewares/Third_Party/FreeRTOS/Source/queue.c **** 		pxQueue->pcWriteTo = pxQueue->pcHead;
  91              		.loc 1 257 0
  92 0048 FB68     		ldr	r3, [r7, #12]
  93 004a 1A68     		ldr	r2, [r3]
  94 004c FB68     		ldr	r3, [r7, #12]
  95 004e 9A60     		str	r2, [r3, #8]
 258:Firmware/Middlewares/Third_Party/FreeRTOS/Source/queue.c **** 		pxQueue->u.pcReadFrom = pxQueue->pcHead + ( ( pxQueue->uxLength - ( UBaseType_t ) 1U ) * pxQueue-
  96              		.loc 1 258 0
  97 0050 FB68     		ldr	r3, [r7, #12]
  98 0052 1A68     		ldr	r2, [r3]
  99 0054 FB68     		ldr	r3, [r7, #12]
 100 0056 DB6B     		ldr	r3, [r3, #60]
 101 0058 013B     		subs	r3, r3, #1
 102 005a F968     		ldr	r1, [r7, #12]
 103 005c 096C     		ldr	r1, [r1, #64]
 104 005e 01FB03F3 		mul	r3, r1, r3
 105 0062 1A44     		add	r2, r2, r3
 106 0064 FB68     		ldr	r3, [r7, #12]
 107 0066 DA60     		str	r2, [r3, #12]
 259:Firmware/Middlewares/Third_Party/FreeRTOS/Source/queue.c **** 		pxQueue->cRxLock = queueUNLOCKED;
 108              		.loc 1 259 0
 109 0068 FB68     		ldr	r3, [r7, #12]
 110 006a FF22     		movs	r2, #255
 111 006c 83F84420 		strb	r2, [r3, #68]
 260:Firmware/Middlewares/Third_Party/FreeRTOS/Source/queue.c **** 		pxQueue->cTxLock = queueUNLOCKED;
 112              		.loc 1 260 0
 113 0070 FB68     		ldr	r3, [r7, #12]
 114 0072 FF22     		movs	r2, #255
 115 0074 83F84520 		strb	r2, [r3, #69]
 261:Firmware/Middlewares/Third_Party/FreeRTOS/Source/queue.c **** 
ARM GAS  /tmp/ccwOJcWw.s 			page 11


 262:Firmware/Middlewares/Third_Party/FreeRTOS/Source/queue.c **** 		if( xNewQueue == pdFALSE )
 116              		.loc 1 262 0
 117 0078 3B68     		ldr	r3, [r7]
 118 007a 002B     		cmp	r3, #0
 119 007c 14D1     		bne	.L4
 263:Firmware/Middlewares/Third_Party/FreeRTOS/Source/queue.c **** 		{
 264:Firmware/Middlewares/Third_Party/FreeRTOS/Source/queue.c **** 			/* If there are tasks blocked waiting to read from the queue, then
 265:Firmware/Middlewares/Third_Party/FreeRTOS/Source/queue.c **** 			the tasks will remain blocked as after this function exits the queue
 266:Firmware/Middlewares/Third_Party/FreeRTOS/Source/queue.c **** 			will still be empty.  If there are tasks blocked waiting to write to
 267:Firmware/Middlewares/Third_Party/FreeRTOS/Source/queue.c **** 			the queue, then one should be unblocked as after this function exits
 268:Firmware/Middlewares/Third_Party/FreeRTOS/Source/queue.c **** 			it will be possible to write to it. */
 269:Firmware/Middlewares/Third_Party/FreeRTOS/Source/queue.c **** 			if( listLIST_IS_EMPTY( &( pxQueue->xTasksWaitingToSend ) ) == pdFALSE )
 120              		.loc 1 269 0
 121 007e FB68     		ldr	r3, [r7, #12]
 122 0080 1B69     		ldr	r3, [r3, #16]
 123 0082 002B     		cmp	r3, #0
 124 0084 1AD0     		beq	.L5
 270:Firmware/Middlewares/Third_Party/FreeRTOS/Source/queue.c **** 			{
 271:Firmware/Middlewares/Third_Party/FreeRTOS/Source/queue.c **** 				if( xTaskRemoveFromEventList( &( pxQueue->xTasksWaitingToSend ) ) != pdFALSE )
 125              		.loc 1 271 0
 126 0086 FB68     		ldr	r3, [r7, #12]
 127 0088 1033     		adds	r3, r3, #16
 128 008a 1846     		mov	r0, r3
 129 008c FFF7FEFF 		bl	xTaskRemoveFromEventList
 130 0090 0346     		mov	r3, r0
 131 0092 002B     		cmp	r3, #0
 132 0094 12D0     		beq	.L5
 272:Firmware/Middlewares/Third_Party/FreeRTOS/Source/queue.c **** 				{
 273:Firmware/Middlewares/Third_Party/FreeRTOS/Source/queue.c **** 					queueYIELD_IF_USING_PREEMPTION();
 133              		.loc 1 273 0
 134 0096 0D4B     		ldr	r3, .L7
 135 0098 4FF08052 		mov	r2, #268435456
 136 009c 1A60     		str	r2, [r3]
 137              		.syntax unified
 138              	@ 273 "Firmware/Middlewares/Third_Party/FreeRTOS/Source/queue.c" 1
 139 009e BFF34F8F 		dsb
 140              	@ 0 "" 2
 141              	@ 273 "Firmware/Middlewares/Third_Party/FreeRTOS/Source/queue.c" 1
 142 00a2 BFF36F8F 		isb
 143              	@ 0 "" 2
 144              		.thumb
 145              		.syntax unified
 146 00a6 09E0     		b	.L5
 147              	.L4:
 274:Firmware/Middlewares/Third_Party/FreeRTOS/Source/queue.c **** 				}
 275:Firmware/Middlewares/Third_Party/FreeRTOS/Source/queue.c **** 				else
 276:Firmware/Middlewares/Third_Party/FreeRTOS/Source/queue.c **** 				{
 277:Firmware/Middlewares/Third_Party/FreeRTOS/Source/queue.c **** 					mtCOVERAGE_TEST_MARKER();
 278:Firmware/Middlewares/Third_Party/FreeRTOS/Source/queue.c **** 				}
 279:Firmware/Middlewares/Third_Party/FreeRTOS/Source/queue.c **** 			}
 280:Firmware/Middlewares/Third_Party/FreeRTOS/Source/queue.c **** 			else
 281:Firmware/Middlewares/Third_Party/FreeRTOS/Source/queue.c **** 			{
 282:Firmware/Middlewares/Third_Party/FreeRTOS/Source/queue.c **** 				mtCOVERAGE_TEST_MARKER();
 283:Firmware/Middlewares/Third_Party/FreeRTOS/Source/queue.c **** 			}
 284:Firmware/Middlewares/Third_Party/FreeRTOS/Source/queue.c **** 		}
 285:Firmware/Middlewares/Third_Party/FreeRTOS/Source/queue.c **** 		else
 286:Firmware/Middlewares/Third_Party/FreeRTOS/Source/queue.c **** 		{
ARM GAS  /tmp/ccwOJcWw.s 			page 12


 287:Firmware/Middlewares/Third_Party/FreeRTOS/Source/queue.c **** 			/* Ensure the event queues start in the correct state. */
 288:Firmware/Middlewares/Third_Party/FreeRTOS/Source/queue.c **** 			vListInitialise( &( pxQueue->xTasksWaitingToSend ) );
 148              		.loc 1 288 0
 149 00a8 FB68     		ldr	r3, [r7, #12]
 150 00aa 1033     		adds	r3, r3, #16
 151 00ac 1846     		mov	r0, r3
 152 00ae FFF7FEFF 		bl	vListInitialise
 289:Firmware/Middlewares/Third_Party/FreeRTOS/Source/queue.c **** 			vListInitialise( &( pxQueue->xTasksWaitingToReceive ) );
 153              		.loc 1 289 0
 154 00b2 FB68     		ldr	r3, [r7, #12]
 155 00b4 2433     		adds	r3, r3, #36
 156 00b6 1846     		mov	r0, r3
 157 00b8 FFF7FEFF 		bl	vListInitialise
 158              	.L5:
 290:Firmware/Middlewares/Third_Party/FreeRTOS/Source/queue.c **** 		}
 291:Firmware/Middlewares/Third_Party/FreeRTOS/Source/queue.c **** 	}
 292:Firmware/Middlewares/Third_Party/FreeRTOS/Source/queue.c **** 	taskEXIT_CRITICAL();
 159              		.loc 1 292 0
 160 00bc FFF7FEFF 		bl	vPortExitCritical
 293:Firmware/Middlewares/Third_Party/FreeRTOS/Source/queue.c **** 
 294:Firmware/Middlewares/Third_Party/FreeRTOS/Source/queue.c **** 	/* A value is returned for calling semantic consistency with previous
 295:Firmware/Middlewares/Third_Party/FreeRTOS/Source/queue.c **** 	versions. */
 296:Firmware/Middlewares/Third_Party/FreeRTOS/Source/queue.c **** 	return pdPASS;
 161              		.loc 1 296 0
 162 00c0 0123     		movs	r3, #1
 297:Firmware/Middlewares/Third_Party/FreeRTOS/Source/queue.c **** }
 163              		.loc 1 297 0
 164 00c2 1846     		mov	r0, r3
 165 00c4 1037     		adds	r7, r7, #16
 166              	.LCFI3:
 167              		.cfi_def_cfa_offset 8
 168 00c6 BD46     		mov	sp, r7
 169              	.LCFI4:
 170              		.cfi_def_cfa_register 13
 171              		@ sp needed
 172 00c8 80BD     		pop	{r7, pc}
 173              	.L8:
 174 00ca 00BF     		.align	2
 175              	.L7:
 176 00cc 04ED00E0 		.word	-536810236
 177              		.cfi_endproc
 178              	.LFE4:
 180              		.section	.text.xQueueGenericCreateStatic,"ax",%progbits
 181              		.align	1
 182              		.global	xQueueGenericCreateStatic
 183              		.syntax unified
 184              		.thumb
 185              		.thumb_func
 186              		.fpu fpv4-sp-d16
 188              	xQueueGenericCreateStatic:
 189              	.LFB5:
 298:Firmware/Middlewares/Third_Party/FreeRTOS/Source/queue.c **** /*-----------------------------------------------------------*/
 299:Firmware/Middlewares/Third_Party/FreeRTOS/Source/queue.c **** 
 300:Firmware/Middlewares/Third_Party/FreeRTOS/Source/queue.c **** #if( configSUPPORT_STATIC_ALLOCATION == 1 )
 301:Firmware/Middlewares/Third_Party/FreeRTOS/Source/queue.c **** 
 302:Firmware/Middlewares/Third_Party/FreeRTOS/Source/queue.c **** 	QueueHandle_t xQueueGenericCreateStatic( const UBaseType_t uxQueueLength, const UBaseType_t uxItem
 303:Firmware/Middlewares/Third_Party/FreeRTOS/Source/queue.c **** 	{
ARM GAS  /tmp/ccwOJcWw.s 			page 13


 190              		.loc 1 303 0
 191              		.cfi_startproc
 192              		@ args = 4, pretend = 0, frame = 48
 193              		@ frame_needed = 1, uses_anonymous_args = 0
 194 0000 80B5     		push	{r7, lr}
 195              	.LCFI5:
 196              		.cfi_def_cfa_offset 8
 197              		.cfi_offset 7, -8
 198              		.cfi_offset 14, -4
 199 0002 8EB0     		sub	sp, sp, #56
 200              	.LCFI6:
 201              		.cfi_def_cfa_offset 64
 202 0004 02AF     		add	r7, sp, #8
 203              	.LCFI7:
 204              		.cfi_def_cfa 7, 56
 205 0006 F860     		str	r0, [r7, #12]
 206 0008 B960     		str	r1, [r7, #8]
 207 000a 7A60     		str	r2, [r7, #4]
 208 000c 3B60     		str	r3, [r7]
 304:Firmware/Middlewares/Third_Party/FreeRTOS/Source/queue.c **** 	Queue_t *pxNewQueue;
 305:Firmware/Middlewares/Third_Party/FreeRTOS/Source/queue.c **** 
 306:Firmware/Middlewares/Third_Party/FreeRTOS/Source/queue.c **** 		configASSERT( uxQueueLength > ( UBaseType_t ) 0 );
 209              		.loc 1 306 0
 210 000e FB68     		ldr	r3, [r7, #12]
 211 0010 002B     		cmp	r3, #0
 212 0012 09D1     		bne	.L10
 213              	.LBB120:
 214              	.LBB121:
 215              		.loc 2 195 0 discriminator 1
 216              		.syntax unified
 217              	@ 195 "Firmware/Middlewares/Third_Party/FreeRTOS/Source/portable/GCC/ARM_CM4F/portmacro.h" 1
 218 0014 4FF05003 			mov r3, #80												
 219 0018 83F31188 		msr basepri, r3											
 220 001c BFF36F8F 		isb														
 221 0020 BFF34F8F 		dsb														
 222              	
 223              	@ 0 "" 2
 224              		.thumb
 225              		.syntax unified
 226 0024 BB62     		str	r3, [r7, #40]
 227              	.L11:
 228              	.LBE121:
 229              	.LBE120:
 230              		.loc 1 306 0 discriminator 1
 231 0026 FEE7     		b	.L11
 232              	.L10:
 307:Firmware/Middlewares/Third_Party/FreeRTOS/Source/queue.c **** 
 308:Firmware/Middlewares/Third_Party/FreeRTOS/Source/queue.c **** 		/* The StaticQueue_t structure and the queue storage area must be
 309:Firmware/Middlewares/Third_Party/FreeRTOS/Source/queue.c **** 		supplied. */
 310:Firmware/Middlewares/Third_Party/FreeRTOS/Source/queue.c **** 		configASSERT( pxStaticQueue != NULL );
 233              		.loc 1 310 0
 234 0028 3B68     		ldr	r3, [r7]
 235 002a 002B     		cmp	r3, #0
 236 002c 09D1     		bne	.L12
 237              	.LBB122:
 238              	.LBB123:
 239              		.loc 2 195 0 discriminator 1
ARM GAS  /tmp/ccwOJcWw.s 			page 14


 240              		.syntax unified
 241              	@ 195 "Firmware/Middlewares/Third_Party/FreeRTOS/Source/portable/GCC/ARM_CM4F/portmacro.h" 1
 242 002e 4FF05003 			mov r3, #80												
 243 0032 83F31188 		msr basepri, r3											
 244 0036 BFF36F8F 		isb														
 245 003a BFF34F8F 		dsb														
 246              	
 247              	@ 0 "" 2
 248              		.thumb
 249              		.syntax unified
 250 003e 7B62     		str	r3, [r7, #36]
 251              	.L13:
 252              	.LBE123:
 253              	.LBE122:
 254              		.loc 1 310 0 discriminator 2
 255 0040 FEE7     		b	.L13
 256              	.L12:
 311:Firmware/Middlewares/Third_Party/FreeRTOS/Source/queue.c **** 
 312:Firmware/Middlewares/Third_Party/FreeRTOS/Source/queue.c **** 		/* A queue storage area should be provided if the item size is not 0, and
 313:Firmware/Middlewares/Third_Party/FreeRTOS/Source/queue.c **** 		should not be provided if the item size is 0. */
 314:Firmware/Middlewares/Third_Party/FreeRTOS/Source/queue.c **** 		configASSERT( !( ( pucQueueStorage != NULL ) && ( uxItemSize == 0 ) ) );
 257              		.loc 1 314 0
 258 0042 7B68     		ldr	r3, [r7, #4]
 259 0044 002B     		cmp	r3, #0
 260 0046 02D0     		beq	.L14
 261              		.loc 1 314 0 is_stmt 0 discriminator 2
 262 0048 BB68     		ldr	r3, [r7, #8]
 263 004a 002B     		cmp	r3, #0
 264 004c 01D0     		beq	.L15
 265              	.L14:
 266              		.loc 1 314 0 discriminator 3
 267 004e 0123     		movs	r3, #1
 268 0050 00E0     		b	.L16
 269              	.L15:
 270              		.loc 1 314 0 discriminator 4
 271 0052 0023     		movs	r3, #0
 272              	.L16:
 273              		.loc 1 314 0 discriminator 6
 274 0054 002B     		cmp	r3, #0
 275 0056 09D1     		bne	.L17
 276              	.LBB124:
 277              	.LBB125:
 278              		.loc 2 195 0 is_stmt 1 discriminator 7
 279              		.syntax unified
 280              	@ 195 "Firmware/Middlewares/Third_Party/FreeRTOS/Source/portable/GCC/ARM_CM4F/portmacro.h" 1
 281 0058 4FF05003 			mov r3, #80												
 282 005c 83F31188 		msr basepri, r3											
 283 0060 BFF36F8F 		isb														
 284 0064 BFF34F8F 		dsb														
 285              	
 286              	@ 0 "" 2
 287              		.thumb
 288              		.syntax unified
 289 0068 3B62     		str	r3, [r7, #32]
 290              	.L18:
 291              	.LBE125:
 292              	.LBE124:
ARM GAS  /tmp/ccwOJcWw.s 			page 15


 293              		.loc 1 314 0 discriminator 3
 294 006a FEE7     		b	.L18
 295              	.L17:
 315:Firmware/Middlewares/Third_Party/FreeRTOS/Source/queue.c **** 		configASSERT( !( ( pucQueueStorage == NULL ) && ( uxItemSize != 0 ) ) );
 296              		.loc 1 315 0
 297 006c 7B68     		ldr	r3, [r7, #4]
 298 006e 002B     		cmp	r3, #0
 299 0070 02D1     		bne	.L19
 300              		.loc 1 315 0 is_stmt 0 discriminator 2
 301 0072 BB68     		ldr	r3, [r7, #8]
 302 0074 002B     		cmp	r3, #0
 303 0076 01D1     		bne	.L20
 304              	.L19:
 305              		.loc 1 315 0 discriminator 3
 306 0078 0123     		movs	r3, #1
 307 007a 00E0     		b	.L21
 308              	.L20:
 309              		.loc 1 315 0 discriminator 4
 310 007c 0023     		movs	r3, #0
 311              	.L21:
 312              		.loc 1 315 0 discriminator 6
 313 007e 002B     		cmp	r3, #0
 314 0080 09D1     		bne	.L22
 315              	.LBB126:
 316              	.LBB127:
 317              		.loc 2 195 0 is_stmt 1 discriminator 7
 318              		.syntax unified
 319              	@ 195 "Firmware/Middlewares/Third_Party/FreeRTOS/Source/portable/GCC/ARM_CM4F/portmacro.h" 1
 320 0082 4FF05003 			mov r3, #80												
 321 0086 83F31188 		msr basepri, r3											
 322 008a BFF36F8F 		isb														
 323 008e BFF34F8F 		dsb														
 324              	
 325              	@ 0 "" 2
 326              		.thumb
 327              		.syntax unified
 328 0092 FB61     		str	r3, [r7, #28]
 329              	.L23:
 330              	.LBE127:
 331              	.LBE126:
 332              		.loc 1 315 0 discriminator 4
 333 0094 FEE7     		b	.L23
 334              	.L22:
 335              	.LBB128:
 316:Firmware/Middlewares/Third_Party/FreeRTOS/Source/queue.c **** 
 317:Firmware/Middlewares/Third_Party/FreeRTOS/Source/queue.c **** 		#if( configASSERT_DEFINED == 1 )
 318:Firmware/Middlewares/Third_Party/FreeRTOS/Source/queue.c **** 		{
 319:Firmware/Middlewares/Third_Party/FreeRTOS/Source/queue.c **** 			/* Sanity check that the size of the structure used to declare a
 320:Firmware/Middlewares/Third_Party/FreeRTOS/Source/queue.c **** 			variable of type StaticQueue_t or StaticSemaphore_t equals the size of
 321:Firmware/Middlewares/Third_Party/FreeRTOS/Source/queue.c **** 			the real queue and semaphore structures. */
 322:Firmware/Middlewares/Third_Party/FreeRTOS/Source/queue.c **** 			volatile size_t xSize = sizeof( StaticQueue_t );
 336              		.loc 1 322 0
 337 0096 5023     		movs	r3, #80
 338 0098 7B61     		str	r3, [r7, #20]
 323:Firmware/Middlewares/Third_Party/FreeRTOS/Source/queue.c **** 			configASSERT( xSize == sizeof( Queue_t ) );
 339              		.loc 1 323 0
 340 009a 7B69     		ldr	r3, [r7, #20]
ARM GAS  /tmp/ccwOJcWw.s 			page 16


 341 009c 502B     		cmp	r3, #80
 342 009e 09D0     		beq	.L24
 343              	.LBB129:
 344              	.LBB130:
 345              		.loc 2 195 0 discriminator 1
 346              		.syntax unified
 347              	@ 195 "Firmware/Middlewares/Third_Party/FreeRTOS/Source/portable/GCC/ARM_CM4F/portmacro.h" 1
 348 00a0 4FF05003 			mov r3, #80												
 349 00a4 83F31188 		msr basepri, r3											
 350 00a8 BFF36F8F 		isb														
 351 00ac BFF34F8F 		dsb														
 352              	
 353              	@ 0 "" 2
 354              		.thumb
 355              		.syntax unified
 356 00b0 BB61     		str	r3, [r7, #24]
 357              	.L25:
 358              	.LBE130:
 359              	.LBE129:
 360              		.loc 1 323 0 discriminator 5
 361 00b2 FEE7     		b	.L25
 362              	.L24:
 363              	.LBE128:
 324:Firmware/Middlewares/Third_Party/FreeRTOS/Source/queue.c **** 		}
 325:Firmware/Middlewares/Third_Party/FreeRTOS/Source/queue.c **** 		#endif /* configASSERT_DEFINED */
 326:Firmware/Middlewares/Third_Party/FreeRTOS/Source/queue.c **** 
 327:Firmware/Middlewares/Third_Party/FreeRTOS/Source/queue.c **** 		/* The address of a statically allocated queue was passed in, use it.
 328:Firmware/Middlewares/Third_Party/FreeRTOS/Source/queue.c **** 		The address of a statically allocated storage area was also passed in
 329:Firmware/Middlewares/Third_Party/FreeRTOS/Source/queue.c **** 		but is already set. */
 330:Firmware/Middlewares/Third_Party/FreeRTOS/Source/queue.c **** 		pxNewQueue = ( Queue_t * ) pxStaticQueue; /*lint !e740 Unusual cast is ok as the structures are d
 364              		.loc 1 330 0
 365 00b4 3B68     		ldr	r3, [r7]
 366 00b6 FB62     		str	r3, [r7, #44]
 331:Firmware/Middlewares/Third_Party/FreeRTOS/Source/queue.c **** 
 332:Firmware/Middlewares/Third_Party/FreeRTOS/Source/queue.c **** 		if( pxNewQueue != NULL )
 367              		.loc 1 332 0
 368 00b8 FB6A     		ldr	r3, [r7, #44]
 369 00ba 002B     		cmp	r3, #0
 370 00bc 0DD0     		beq	.L26
 333:Firmware/Middlewares/Third_Party/FreeRTOS/Source/queue.c **** 		{
 334:Firmware/Middlewares/Third_Party/FreeRTOS/Source/queue.c **** 			#if( configSUPPORT_DYNAMIC_ALLOCATION == 1 )
 335:Firmware/Middlewares/Third_Party/FreeRTOS/Source/queue.c **** 			{
 336:Firmware/Middlewares/Third_Party/FreeRTOS/Source/queue.c **** 				/* Queues can be allocated wither statically or dynamically, so
 337:Firmware/Middlewares/Third_Party/FreeRTOS/Source/queue.c **** 				note this queue was allocated statically in case the queue is
 338:Firmware/Middlewares/Third_Party/FreeRTOS/Source/queue.c **** 				later deleted. */
 339:Firmware/Middlewares/Third_Party/FreeRTOS/Source/queue.c **** 				pxNewQueue->ucStaticallyAllocated = pdTRUE;
 371              		.loc 1 339 0
 372 00be FB6A     		ldr	r3, [r7, #44]
 373 00c0 0122     		movs	r2, #1
 374 00c2 83F84620 		strb	r2, [r3, #70]
 340:Firmware/Middlewares/Third_Party/FreeRTOS/Source/queue.c **** 			}
 341:Firmware/Middlewares/Third_Party/FreeRTOS/Source/queue.c **** 			#endif /* configSUPPORT_DYNAMIC_ALLOCATION */
 342:Firmware/Middlewares/Third_Party/FreeRTOS/Source/queue.c **** 
 343:Firmware/Middlewares/Third_Party/FreeRTOS/Source/queue.c **** 			prvInitialiseNewQueue( uxQueueLength, uxItemSize, pucQueueStorage, ucQueueType, pxNewQueue );
 375              		.loc 1 343 0
 376 00c6 97F83820 		ldrb	r2, [r7, #56]	@ zero_extendqisi2
 377 00ca FB6A     		ldr	r3, [r7, #44]
ARM GAS  /tmp/ccwOJcWw.s 			page 17


 378 00cc 0093     		str	r3, [sp]
 379 00ce 1346     		mov	r3, r2
 380 00d0 7A68     		ldr	r2, [r7, #4]
 381 00d2 B968     		ldr	r1, [r7, #8]
 382 00d4 F868     		ldr	r0, [r7, #12]
 383 00d6 FFF7FEFF 		bl	prvInitialiseNewQueue
 384              	.L26:
 344:Firmware/Middlewares/Third_Party/FreeRTOS/Source/queue.c **** 		}
 345:Firmware/Middlewares/Third_Party/FreeRTOS/Source/queue.c **** 		else
 346:Firmware/Middlewares/Third_Party/FreeRTOS/Source/queue.c **** 		{
 347:Firmware/Middlewares/Third_Party/FreeRTOS/Source/queue.c **** 			traceQUEUE_CREATE_FAILED( ucQueueType );
 348:Firmware/Middlewares/Third_Party/FreeRTOS/Source/queue.c **** 		}
 349:Firmware/Middlewares/Third_Party/FreeRTOS/Source/queue.c **** 
 350:Firmware/Middlewares/Third_Party/FreeRTOS/Source/queue.c **** 		return pxNewQueue;
 385              		.loc 1 350 0
 386 00da FB6A     		ldr	r3, [r7, #44]
 351:Firmware/Middlewares/Third_Party/FreeRTOS/Source/queue.c **** 	}
 387              		.loc 1 351 0
 388 00dc 1846     		mov	r0, r3
 389 00de 3037     		adds	r7, r7, #48
 390              	.LCFI8:
 391              		.cfi_def_cfa_offset 8
 392 00e0 BD46     		mov	sp, r7
 393              	.LCFI9:
 394              		.cfi_def_cfa_register 13
 395              		@ sp needed
 396 00e2 80BD     		pop	{r7, pc}
 397              		.cfi_endproc
 398              	.LFE5:
 400              		.section	.text.xQueueGenericCreate,"ax",%progbits
 401              		.align	1
 402              		.global	xQueueGenericCreate
 403              		.syntax unified
 404              		.thumb
 405              		.thumb_func
 406              		.fpu fpv4-sp-d16
 408              	xQueueGenericCreate:
 409              	.LFB6:
 352:Firmware/Middlewares/Third_Party/FreeRTOS/Source/queue.c **** 
 353:Firmware/Middlewares/Third_Party/FreeRTOS/Source/queue.c **** #endif /* configSUPPORT_STATIC_ALLOCATION */
 354:Firmware/Middlewares/Third_Party/FreeRTOS/Source/queue.c **** /*-----------------------------------------------------------*/
 355:Firmware/Middlewares/Third_Party/FreeRTOS/Source/queue.c **** 
 356:Firmware/Middlewares/Third_Party/FreeRTOS/Source/queue.c **** #if( configSUPPORT_DYNAMIC_ALLOCATION == 1 )
 357:Firmware/Middlewares/Third_Party/FreeRTOS/Source/queue.c **** 
 358:Firmware/Middlewares/Third_Party/FreeRTOS/Source/queue.c **** 	QueueHandle_t xQueueGenericCreate( const UBaseType_t uxQueueLength, const UBaseType_t uxItemSize, 
 359:Firmware/Middlewares/Third_Party/FreeRTOS/Source/queue.c **** 	{
 410              		.loc 1 359 0
 411              		.cfi_startproc
 412              		@ args = 0, pretend = 0, frame = 32
 413              		@ frame_needed = 1, uses_anonymous_args = 0
 414 0000 80B5     		push	{r7, lr}
 415              	.LCFI10:
 416              		.cfi_def_cfa_offset 8
 417              		.cfi_offset 7, -8
 418              		.cfi_offset 14, -4
 419 0002 8AB0     		sub	sp, sp, #40
 420              	.LCFI11:
ARM GAS  /tmp/ccwOJcWw.s 			page 18


 421              		.cfi_def_cfa_offset 48
 422 0004 02AF     		add	r7, sp, #8
 423              	.LCFI12:
 424              		.cfi_def_cfa 7, 40
 425 0006 F860     		str	r0, [r7, #12]
 426 0008 B960     		str	r1, [r7, #8]
 427 000a 1346     		mov	r3, r2
 428 000c FB71     		strb	r3, [r7, #7]
 360:Firmware/Middlewares/Third_Party/FreeRTOS/Source/queue.c **** 	Queue_t *pxNewQueue;
 361:Firmware/Middlewares/Third_Party/FreeRTOS/Source/queue.c **** 	size_t xQueueSizeInBytes;
 362:Firmware/Middlewares/Third_Party/FreeRTOS/Source/queue.c **** 	uint8_t *pucQueueStorage;
 363:Firmware/Middlewares/Third_Party/FreeRTOS/Source/queue.c **** 
 364:Firmware/Middlewares/Third_Party/FreeRTOS/Source/queue.c **** 		configASSERT( uxQueueLength > ( UBaseType_t ) 0 );
 429              		.loc 1 364 0
 430 000e FB68     		ldr	r3, [r7, #12]
 431 0010 002B     		cmp	r3, #0
 432 0012 09D1     		bne	.L29
 433              	.LBB131:
 434              	.LBB132:
 435              		.loc 2 195 0 discriminator 1
 436              		.syntax unified
 437              	@ 195 "Firmware/Middlewares/Third_Party/FreeRTOS/Source/portable/GCC/ARM_CM4F/portmacro.h" 1
 438 0014 4FF05003 			mov r3, #80												
 439 0018 83F31188 		msr basepri, r3											
 440 001c BFF36F8F 		isb														
 441 0020 BFF34F8F 		dsb														
 442              	
 443              	@ 0 "" 2
 444              		.thumb
 445              		.syntax unified
 446 0024 3B61     		str	r3, [r7, #16]
 447              	.L30:
 448              	.LBE132:
 449              	.LBE131:
 450              		.loc 1 364 0 discriminator 1
 451 0026 FEE7     		b	.L30
 452              	.L29:
 365:Firmware/Middlewares/Third_Party/FreeRTOS/Source/queue.c **** 
 366:Firmware/Middlewares/Third_Party/FreeRTOS/Source/queue.c **** 		if( uxItemSize == ( UBaseType_t ) 0 )
 453              		.loc 1 366 0
 454 0028 BB68     		ldr	r3, [r7, #8]
 455 002a 002B     		cmp	r3, #0
 456 002c 02D1     		bne	.L31
 367:Firmware/Middlewares/Third_Party/FreeRTOS/Source/queue.c **** 		{
 368:Firmware/Middlewares/Third_Party/FreeRTOS/Source/queue.c **** 			/* There is not going to be a queue storage area. */
 369:Firmware/Middlewares/Third_Party/FreeRTOS/Source/queue.c **** 			xQueueSizeInBytes = ( size_t ) 0;
 457              		.loc 1 369 0
 458 002e 0023     		movs	r3, #0
 459 0030 FB61     		str	r3, [r7, #28]
 460 0032 04E0     		b	.L32
 461              	.L31:
 370:Firmware/Middlewares/Third_Party/FreeRTOS/Source/queue.c **** 		}
 371:Firmware/Middlewares/Third_Party/FreeRTOS/Source/queue.c **** 		else
 372:Firmware/Middlewares/Third_Party/FreeRTOS/Source/queue.c **** 		{
 373:Firmware/Middlewares/Third_Party/FreeRTOS/Source/queue.c **** 			/* Allocate enough space to hold the maximum number of items that
 374:Firmware/Middlewares/Third_Party/FreeRTOS/Source/queue.c **** 			can be in the queue at any time. */
 375:Firmware/Middlewares/Third_Party/FreeRTOS/Source/queue.c **** 			xQueueSizeInBytes = ( size_t ) ( uxQueueLength * uxItemSize ); /*lint !e961 MISRA exception as t
ARM GAS  /tmp/ccwOJcWw.s 			page 19


 462              		.loc 1 375 0
 463 0034 FB68     		ldr	r3, [r7, #12]
 464 0036 BA68     		ldr	r2, [r7, #8]
 465 0038 02FB03F3 		mul	r3, r2, r3
 466 003c FB61     		str	r3, [r7, #28]
 467              	.L32:
 376:Firmware/Middlewares/Third_Party/FreeRTOS/Source/queue.c **** 		}
 377:Firmware/Middlewares/Third_Party/FreeRTOS/Source/queue.c **** 
 378:Firmware/Middlewares/Third_Party/FreeRTOS/Source/queue.c **** 		pxNewQueue = ( Queue_t * ) pvPortMalloc( sizeof( Queue_t ) + xQueueSizeInBytes );
 468              		.loc 1 378 0
 469 003e FB69     		ldr	r3, [r7, #28]
 470 0040 5033     		adds	r3, r3, #80
 471 0042 1846     		mov	r0, r3
 472 0044 FFF7FEFF 		bl	pvPortMalloc
 473 0048 B861     		str	r0, [r7, #24]
 379:Firmware/Middlewares/Third_Party/FreeRTOS/Source/queue.c **** 
 380:Firmware/Middlewares/Third_Party/FreeRTOS/Source/queue.c **** 		if( pxNewQueue != NULL )
 474              		.loc 1 380 0
 475 004a BB69     		ldr	r3, [r7, #24]
 476 004c 002B     		cmp	r3, #0
 477 004e 0FD0     		beq	.L33
 381:Firmware/Middlewares/Third_Party/FreeRTOS/Source/queue.c **** 		{
 382:Firmware/Middlewares/Third_Party/FreeRTOS/Source/queue.c **** 			/* Jump past the queue structure to find the location of the queue
 383:Firmware/Middlewares/Third_Party/FreeRTOS/Source/queue.c **** 			storage area. */
 384:Firmware/Middlewares/Third_Party/FreeRTOS/Source/queue.c **** 			pucQueueStorage = ( ( uint8_t * ) pxNewQueue ) + sizeof( Queue_t );
 478              		.loc 1 384 0
 479 0050 BB69     		ldr	r3, [r7, #24]
 480 0052 5033     		adds	r3, r3, #80
 481 0054 7B61     		str	r3, [r7, #20]
 385:Firmware/Middlewares/Third_Party/FreeRTOS/Source/queue.c **** 
 386:Firmware/Middlewares/Third_Party/FreeRTOS/Source/queue.c **** 			#if( configSUPPORT_STATIC_ALLOCATION == 1 )
 387:Firmware/Middlewares/Third_Party/FreeRTOS/Source/queue.c **** 			{
 388:Firmware/Middlewares/Third_Party/FreeRTOS/Source/queue.c **** 				/* Queues can be created either statically or dynamically, so
 389:Firmware/Middlewares/Third_Party/FreeRTOS/Source/queue.c **** 				note this task was created dynamically in case it is later
 390:Firmware/Middlewares/Third_Party/FreeRTOS/Source/queue.c **** 				deleted. */
 391:Firmware/Middlewares/Third_Party/FreeRTOS/Source/queue.c **** 				pxNewQueue->ucStaticallyAllocated = pdFALSE;
 482              		.loc 1 391 0
 483 0056 BB69     		ldr	r3, [r7, #24]
 484 0058 0022     		movs	r2, #0
 485 005a 83F84620 		strb	r2, [r3, #70]
 392:Firmware/Middlewares/Third_Party/FreeRTOS/Source/queue.c **** 			}
 393:Firmware/Middlewares/Third_Party/FreeRTOS/Source/queue.c **** 			#endif /* configSUPPORT_STATIC_ALLOCATION */
 394:Firmware/Middlewares/Third_Party/FreeRTOS/Source/queue.c **** 
 395:Firmware/Middlewares/Third_Party/FreeRTOS/Source/queue.c **** 			prvInitialiseNewQueue( uxQueueLength, uxItemSize, pucQueueStorage, ucQueueType, pxNewQueue );
 486              		.loc 1 395 0
 487 005e FA79     		ldrb	r2, [r7, #7]	@ zero_extendqisi2
 488 0060 BB69     		ldr	r3, [r7, #24]
 489 0062 0093     		str	r3, [sp]
 490 0064 1346     		mov	r3, r2
 491 0066 7A69     		ldr	r2, [r7, #20]
 492 0068 B968     		ldr	r1, [r7, #8]
 493 006a F868     		ldr	r0, [r7, #12]
 494 006c FFF7FEFF 		bl	prvInitialiseNewQueue
 495              	.L33:
 396:Firmware/Middlewares/Third_Party/FreeRTOS/Source/queue.c **** 		}
 397:Firmware/Middlewares/Third_Party/FreeRTOS/Source/queue.c **** 		else
 398:Firmware/Middlewares/Third_Party/FreeRTOS/Source/queue.c **** 		{
ARM GAS  /tmp/ccwOJcWw.s 			page 20


 399:Firmware/Middlewares/Third_Party/FreeRTOS/Source/queue.c **** 			traceQUEUE_CREATE_FAILED( ucQueueType );
 400:Firmware/Middlewares/Third_Party/FreeRTOS/Source/queue.c **** 		}
 401:Firmware/Middlewares/Third_Party/FreeRTOS/Source/queue.c **** 
 402:Firmware/Middlewares/Third_Party/FreeRTOS/Source/queue.c **** 		return pxNewQueue;
 496              		.loc 1 402 0
 497 0070 BB69     		ldr	r3, [r7, #24]
 403:Firmware/Middlewares/Third_Party/FreeRTOS/Source/queue.c **** 	}
 498              		.loc 1 403 0
 499 0072 1846     		mov	r0, r3
 500 0074 2037     		adds	r7, r7, #32
 501              	.LCFI13:
 502              		.cfi_def_cfa_offset 8
 503 0076 BD46     		mov	sp, r7
 504              	.LCFI14:
 505              		.cfi_def_cfa_register 13
 506              		@ sp needed
 507 0078 80BD     		pop	{r7, pc}
 508              		.cfi_endproc
 509              	.LFE6:
 511              		.section	.text.prvInitialiseNewQueue,"ax",%progbits
 512              		.align	1
 513              		.syntax unified
 514              		.thumb
 515              		.thumb_func
 516              		.fpu fpv4-sp-d16
 518              	prvInitialiseNewQueue:
 519              	.LFB7:
 404:Firmware/Middlewares/Third_Party/FreeRTOS/Source/queue.c **** 
 405:Firmware/Middlewares/Third_Party/FreeRTOS/Source/queue.c **** #endif /* configSUPPORT_STATIC_ALLOCATION */
 406:Firmware/Middlewares/Third_Party/FreeRTOS/Source/queue.c **** /*-----------------------------------------------------------*/
 407:Firmware/Middlewares/Third_Party/FreeRTOS/Source/queue.c **** 
 408:Firmware/Middlewares/Third_Party/FreeRTOS/Source/queue.c **** static void prvInitialiseNewQueue( const UBaseType_t uxQueueLength, const UBaseType_t uxItemSize, u
 409:Firmware/Middlewares/Third_Party/FreeRTOS/Source/queue.c **** {
 520              		.loc 1 409 0
 521              		.cfi_startproc
 522              		@ args = 4, pretend = 0, frame = 16
 523              		@ frame_needed = 1, uses_anonymous_args = 0
 524 0000 80B5     		push	{r7, lr}
 525              	.LCFI15:
 526              		.cfi_def_cfa_offset 8
 527              		.cfi_offset 7, -8
 528              		.cfi_offset 14, -4
 529 0002 84B0     		sub	sp, sp, #16
 530              	.LCFI16:
 531              		.cfi_def_cfa_offset 24
 532 0004 00AF     		add	r7, sp, #0
 533              	.LCFI17:
 534              		.cfi_def_cfa_register 7
 535 0006 F860     		str	r0, [r7, #12]
 536 0008 B960     		str	r1, [r7, #8]
 537 000a 7A60     		str	r2, [r7, #4]
 538 000c FB70     		strb	r3, [r7, #3]
 410:Firmware/Middlewares/Third_Party/FreeRTOS/Source/queue.c **** 	/* Remove compiler warnings about unused parameters should
 411:Firmware/Middlewares/Third_Party/FreeRTOS/Source/queue.c **** 	configUSE_TRACE_FACILITY not be set to 1. */
 412:Firmware/Middlewares/Third_Party/FreeRTOS/Source/queue.c **** 	( void ) ucQueueType;
 413:Firmware/Middlewares/Third_Party/FreeRTOS/Source/queue.c **** 
 414:Firmware/Middlewares/Third_Party/FreeRTOS/Source/queue.c **** 	if( uxItemSize == ( UBaseType_t ) 0 )
ARM GAS  /tmp/ccwOJcWw.s 			page 21


 539              		.loc 1 414 0
 540 000e BB68     		ldr	r3, [r7, #8]
 541 0010 002B     		cmp	r3, #0
 542 0012 03D1     		bne	.L36
 415:Firmware/Middlewares/Third_Party/FreeRTOS/Source/queue.c **** 	{
 416:Firmware/Middlewares/Third_Party/FreeRTOS/Source/queue.c **** 		/* No RAM was allocated for the queue storage area, but PC head cannot
 417:Firmware/Middlewares/Third_Party/FreeRTOS/Source/queue.c **** 		be set to NULL because NULL is used as a key to say the queue is used as
 418:Firmware/Middlewares/Third_Party/FreeRTOS/Source/queue.c **** 		a mutex.  Therefore just set pcHead to point to the queue as a benign
 419:Firmware/Middlewares/Third_Party/FreeRTOS/Source/queue.c **** 		value that is known to be within the memory map. */
 420:Firmware/Middlewares/Third_Party/FreeRTOS/Source/queue.c **** 		pxNewQueue->pcHead = ( int8_t * ) pxNewQueue;
 543              		.loc 1 420 0
 544 0014 BB69     		ldr	r3, [r7, #24]
 545 0016 BA69     		ldr	r2, [r7, #24]
 546 0018 1A60     		str	r2, [r3]
 547 001a 02E0     		b	.L37
 548              	.L36:
 421:Firmware/Middlewares/Third_Party/FreeRTOS/Source/queue.c **** 	}
 422:Firmware/Middlewares/Third_Party/FreeRTOS/Source/queue.c **** 	else
 423:Firmware/Middlewares/Third_Party/FreeRTOS/Source/queue.c **** 	{
 424:Firmware/Middlewares/Third_Party/FreeRTOS/Source/queue.c **** 		/* Set the head to the start of the queue storage area. */
 425:Firmware/Middlewares/Third_Party/FreeRTOS/Source/queue.c **** 		pxNewQueue->pcHead = ( int8_t * ) pucQueueStorage;
 549              		.loc 1 425 0
 550 001c BB69     		ldr	r3, [r7, #24]
 551 001e 7A68     		ldr	r2, [r7, #4]
 552 0020 1A60     		str	r2, [r3]
 553              	.L37:
 426:Firmware/Middlewares/Third_Party/FreeRTOS/Source/queue.c **** 	}
 427:Firmware/Middlewares/Third_Party/FreeRTOS/Source/queue.c **** 
 428:Firmware/Middlewares/Third_Party/FreeRTOS/Source/queue.c **** 	/* Initialise the queue members as described where the queue type is
 429:Firmware/Middlewares/Third_Party/FreeRTOS/Source/queue.c **** 	defined. */
 430:Firmware/Middlewares/Third_Party/FreeRTOS/Source/queue.c **** 	pxNewQueue->uxLength = uxQueueLength;
 554              		.loc 1 430 0
 555 0022 BB69     		ldr	r3, [r7, #24]
 556 0024 FA68     		ldr	r2, [r7, #12]
 557 0026 DA63     		str	r2, [r3, #60]
 431:Firmware/Middlewares/Third_Party/FreeRTOS/Source/queue.c **** 	pxNewQueue->uxItemSize = uxItemSize;
 558              		.loc 1 431 0
 559 0028 BB69     		ldr	r3, [r7, #24]
 560 002a BA68     		ldr	r2, [r7, #8]
 561 002c 1A64     		str	r2, [r3, #64]
 432:Firmware/Middlewares/Third_Party/FreeRTOS/Source/queue.c **** 	( void ) xQueueGenericReset( pxNewQueue, pdTRUE );
 562              		.loc 1 432 0
 563 002e 0121     		movs	r1, #1
 564 0030 B869     		ldr	r0, [r7, #24]
 565 0032 FFF7FEFF 		bl	xQueueGenericReset
 433:Firmware/Middlewares/Third_Party/FreeRTOS/Source/queue.c **** 
 434:Firmware/Middlewares/Third_Party/FreeRTOS/Source/queue.c **** 	#if ( configUSE_TRACE_FACILITY == 1 )
 435:Firmware/Middlewares/Third_Party/FreeRTOS/Source/queue.c **** 	{
 436:Firmware/Middlewares/Third_Party/FreeRTOS/Source/queue.c **** 		pxNewQueue->ucQueueType = ucQueueType;
 566              		.loc 1 436 0
 567 0036 BB69     		ldr	r3, [r7, #24]
 568 0038 FA78     		ldrb	r2, [r7, #3]
 569 003a 83F84C20 		strb	r2, [r3, #76]
 437:Firmware/Middlewares/Third_Party/FreeRTOS/Source/queue.c **** 	}
 438:Firmware/Middlewares/Third_Party/FreeRTOS/Source/queue.c **** 	#endif /* configUSE_TRACE_FACILITY */
 439:Firmware/Middlewares/Third_Party/FreeRTOS/Source/queue.c **** 
 440:Firmware/Middlewares/Third_Party/FreeRTOS/Source/queue.c **** 	#if( configUSE_QUEUE_SETS == 1 )
ARM GAS  /tmp/ccwOJcWw.s 			page 22


 441:Firmware/Middlewares/Third_Party/FreeRTOS/Source/queue.c **** 	{
 442:Firmware/Middlewares/Third_Party/FreeRTOS/Source/queue.c **** 		pxNewQueue->pxQueueSetContainer = NULL;
 443:Firmware/Middlewares/Third_Party/FreeRTOS/Source/queue.c **** 	}
 444:Firmware/Middlewares/Third_Party/FreeRTOS/Source/queue.c **** 	#endif /* configUSE_QUEUE_SETS */
 445:Firmware/Middlewares/Third_Party/FreeRTOS/Source/queue.c **** 
 446:Firmware/Middlewares/Third_Party/FreeRTOS/Source/queue.c **** 	traceQUEUE_CREATE( pxNewQueue );
 447:Firmware/Middlewares/Third_Party/FreeRTOS/Source/queue.c **** }
 570              		.loc 1 447 0
 571 003e 00BF     		nop
 572 0040 1037     		adds	r7, r7, #16
 573              	.LCFI18:
 574              		.cfi_def_cfa_offset 8
 575 0042 BD46     		mov	sp, r7
 576              	.LCFI19:
 577              		.cfi_def_cfa_register 13
 578              		@ sp needed
 579 0044 80BD     		pop	{r7, pc}
 580              		.cfi_endproc
 581              	.LFE7:
 583              		.section	.text.prvInitialiseMutex,"ax",%progbits
 584              		.align	1
 585              		.syntax unified
 586              		.thumb
 587              		.thumb_func
 588              		.fpu fpv4-sp-d16
 590              	prvInitialiseMutex:
 591              	.LFB8:
 448:Firmware/Middlewares/Third_Party/FreeRTOS/Source/queue.c **** /*-----------------------------------------------------------*/
 449:Firmware/Middlewares/Third_Party/FreeRTOS/Source/queue.c **** 
 450:Firmware/Middlewares/Third_Party/FreeRTOS/Source/queue.c **** #if( configUSE_MUTEXES == 1 )
 451:Firmware/Middlewares/Third_Party/FreeRTOS/Source/queue.c **** 
 452:Firmware/Middlewares/Third_Party/FreeRTOS/Source/queue.c **** 	static void prvInitialiseMutex( Queue_t *pxNewQueue )
 453:Firmware/Middlewares/Third_Party/FreeRTOS/Source/queue.c **** 	{
 592              		.loc 1 453 0
 593              		.cfi_startproc
 594              		@ args = 0, pretend = 0, frame = 8
 595              		@ frame_needed = 1, uses_anonymous_args = 0
 596 0000 80B5     		push	{r7, lr}
 597              	.LCFI20:
 598              		.cfi_def_cfa_offset 8
 599              		.cfi_offset 7, -8
 600              		.cfi_offset 14, -4
 601 0002 82B0     		sub	sp, sp, #8
 602              	.LCFI21:
 603              		.cfi_def_cfa_offset 16
 604 0004 00AF     		add	r7, sp, #0
 605              	.LCFI22:
 606              		.cfi_def_cfa_register 7
 607 0006 7860     		str	r0, [r7, #4]
 454:Firmware/Middlewares/Third_Party/FreeRTOS/Source/queue.c **** 		if( pxNewQueue != NULL )
 608              		.loc 1 454 0
 609 0008 7B68     		ldr	r3, [r7, #4]
 610 000a 002B     		cmp	r3, #0
 611 000c 0ED0     		beq	.L40
 455:Firmware/Middlewares/Third_Party/FreeRTOS/Source/queue.c **** 		{
 456:Firmware/Middlewares/Third_Party/FreeRTOS/Source/queue.c **** 			/* The queue create function will set all the queue structure members
 457:Firmware/Middlewares/Third_Party/FreeRTOS/Source/queue.c **** 			correctly for a generic queue, but this function is creating a
ARM GAS  /tmp/ccwOJcWw.s 			page 23


 458:Firmware/Middlewares/Third_Party/FreeRTOS/Source/queue.c **** 			mutex.  Overwrite those members that need to be set differently -
 459:Firmware/Middlewares/Third_Party/FreeRTOS/Source/queue.c **** 			in particular the information required for priority inheritance. */
 460:Firmware/Middlewares/Third_Party/FreeRTOS/Source/queue.c **** 			pxNewQueue->pxMutexHolder = NULL;
 612              		.loc 1 460 0
 613 000e 7B68     		ldr	r3, [r7, #4]
 614 0010 0022     		movs	r2, #0
 615 0012 5A60     		str	r2, [r3, #4]
 461:Firmware/Middlewares/Third_Party/FreeRTOS/Source/queue.c **** 			pxNewQueue->uxQueueType = queueQUEUE_IS_MUTEX;
 616              		.loc 1 461 0
 617 0014 7B68     		ldr	r3, [r7, #4]
 618 0016 0022     		movs	r2, #0
 619 0018 1A60     		str	r2, [r3]
 462:Firmware/Middlewares/Third_Party/FreeRTOS/Source/queue.c **** 
 463:Firmware/Middlewares/Third_Party/FreeRTOS/Source/queue.c **** 			/* In case this is a recursive mutex. */
 464:Firmware/Middlewares/Third_Party/FreeRTOS/Source/queue.c **** 			pxNewQueue->u.uxRecursiveCallCount = 0;
 620              		.loc 1 464 0
 621 001a 7B68     		ldr	r3, [r7, #4]
 622 001c 0022     		movs	r2, #0
 623 001e DA60     		str	r2, [r3, #12]
 465:Firmware/Middlewares/Third_Party/FreeRTOS/Source/queue.c **** 
 466:Firmware/Middlewares/Third_Party/FreeRTOS/Source/queue.c **** 			traceCREATE_MUTEX( pxNewQueue );
 467:Firmware/Middlewares/Third_Party/FreeRTOS/Source/queue.c **** 
 468:Firmware/Middlewares/Third_Party/FreeRTOS/Source/queue.c **** 			/* Start with the semaphore in the expected state. */
 469:Firmware/Middlewares/Third_Party/FreeRTOS/Source/queue.c **** 			( void ) xQueueGenericSend( pxNewQueue, NULL, ( TickType_t ) 0U, queueSEND_TO_BACK );
 624              		.loc 1 469 0
 625 0020 0023     		movs	r3, #0
 626 0022 0022     		movs	r2, #0
 627 0024 0021     		movs	r1, #0
 628 0026 7868     		ldr	r0, [r7, #4]
 629 0028 FFF7FEFF 		bl	xQueueGenericSend
 630              	.L40:
 470:Firmware/Middlewares/Third_Party/FreeRTOS/Source/queue.c **** 		}
 471:Firmware/Middlewares/Third_Party/FreeRTOS/Source/queue.c **** 		else
 472:Firmware/Middlewares/Third_Party/FreeRTOS/Source/queue.c **** 		{
 473:Firmware/Middlewares/Third_Party/FreeRTOS/Source/queue.c **** 			traceCREATE_MUTEX_FAILED();
 474:Firmware/Middlewares/Third_Party/FreeRTOS/Source/queue.c **** 		}
 475:Firmware/Middlewares/Third_Party/FreeRTOS/Source/queue.c **** 	}
 631              		.loc 1 475 0
 632 002c 00BF     		nop
 633 002e 0837     		adds	r7, r7, #8
 634              	.LCFI23:
 635              		.cfi_def_cfa_offset 8
 636 0030 BD46     		mov	sp, r7
 637              	.LCFI24:
 638              		.cfi_def_cfa_register 13
 639              		@ sp needed
 640 0032 80BD     		pop	{r7, pc}
 641              		.cfi_endproc
 642              	.LFE8:
 644              		.section	.text.xQueueCreateMutex,"ax",%progbits
 645              		.align	1
 646              		.global	xQueueCreateMutex
 647              		.syntax unified
 648              		.thumb
 649              		.thumb_func
 650              		.fpu fpv4-sp-d16
 652              	xQueueCreateMutex:
ARM GAS  /tmp/ccwOJcWw.s 			page 24


 653              	.LFB9:
 476:Firmware/Middlewares/Third_Party/FreeRTOS/Source/queue.c **** 
 477:Firmware/Middlewares/Third_Party/FreeRTOS/Source/queue.c **** #endif /* configUSE_MUTEXES */
 478:Firmware/Middlewares/Third_Party/FreeRTOS/Source/queue.c **** /*-----------------------------------------------------------*/
 479:Firmware/Middlewares/Third_Party/FreeRTOS/Source/queue.c **** 
 480:Firmware/Middlewares/Third_Party/FreeRTOS/Source/queue.c **** #if( ( configUSE_MUTEXES == 1 ) && ( configSUPPORT_DYNAMIC_ALLOCATION == 1 ) )
 481:Firmware/Middlewares/Third_Party/FreeRTOS/Source/queue.c **** 
 482:Firmware/Middlewares/Third_Party/FreeRTOS/Source/queue.c **** 	QueueHandle_t xQueueCreateMutex( const uint8_t ucQueueType )
 483:Firmware/Middlewares/Third_Party/FreeRTOS/Source/queue.c **** 	{
 654              		.loc 1 483 0
 655              		.cfi_startproc
 656              		@ args = 0, pretend = 0, frame = 24
 657              		@ frame_needed = 1, uses_anonymous_args = 0
 658 0000 80B5     		push	{r7, lr}
 659              	.LCFI25:
 660              		.cfi_def_cfa_offset 8
 661              		.cfi_offset 7, -8
 662              		.cfi_offset 14, -4
 663 0002 86B0     		sub	sp, sp, #24
 664              	.LCFI26:
 665              		.cfi_def_cfa_offset 32
 666 0004 00AF     		add	r7, sp, #0
 667              	.LCFI27:
 668              		.cfi_def_cfa_register 7
 669 0006 0346     		mov	r3, r0
 670 0008 FB71     		strb	r3, [r7, #7]
 484:Firmware/Middlewares/Third_Party/FreeRTOS/Source/queue.c **** 	Queue_t *pxNewQueue;
 485:Firmware/Middlewares/Third_Party/FreeRTOS/Source/queue.c **** 	const UBaseType_t uxMutexLength = ( UBaseType_t ) 1, uxMutexSize = ( UBaseType_t ) 0;
 671              		.loc 1 485 0
 672 000a 0123     		movs	r3, #1
 673 000c 7B61     		str	r3, [r7, #20]
 674 000e 0023     		movs	r3, #0
 675 0010 3B61     		str	r3, [r7, #16]
 486:Firmware/Middlewares/Third_Party/FreeRTOS/Source/queue.c **** 
 487:Firmware/Middlewares/Third_Party/FreeRTOS/Source/queue.c **** 		pxNewQueue = ( Queue_t * ) xQueueGenericCreate( uxMutexLength, uxMutexSize, ucQueueType );
 676              		.loc 1 487 0
 677 0012 FB79     		ldrb	r3, [r7, #7]	@ zero_extendqisi2
 678 0014 1A46     		mov	r2, r3
 679 0016 3969     		ldr	r1, [r7, #16]
 680 0018 7869     		ldr	r0, [r7, #20]
 681 001a FFF7FEFF 		bl	xQueueGenericCreate
 682 001e F860     		str	r0, [r7, #12]
 488:Firmware/Middlewares/Third_Party/FreeRTOS/Source/queue.c **** 		prvInitialiseMutex( pxNewQueue );
 683              		.loc 1 488 0
 684 0020 F868     		ldr	r0, [r7, #12]
 685 0022 FFF7FEFF 		bl	prvInitialiseMutex
 489:Firmware/Middlewares/Third_Party/FreeRTOS/Source/queue.c **** 
 490:Firmware/Middlewares/Third_Party/FreeRTOS/Source/queue.c **** 		return pxNewQueue;
 686              		.loc 1 490 0
 687 0026 FB68     		ldr	r3, [r7, #12]
 491:Firmware/Middlewares/Third_Party/FreeRTOS/Source/queue.c **** 	}
 688              		.loc 1 491 0
 689 0028 1846     		mov	r0, r3
 690 002a 1837     		adds	r7, r7, #24
 691              	.LCFI28:
 692              		.cfi_def_cfa_offset 8
 693 002c BD46     		mov	sp, r7
ARM GAS  /tmp/ccwOJcWw.s 			page 25


 694              	.LCFI29:
 695              		.cfi_def_cfa_register 13
 696              		@ sp needed
 697 002e 80BD     		pop	{r7, pc}
 698              		.cfi_endproc
 699              	.LFE9:
 701              		.section	.text.xQueueCreateMutexStatic,"ax",%progbits
 702              		.align	1
 703              		.global	xQueueCreateMutexStatic
 704              		.syntax unified
 705              		.thumb
 706              		.thumb_func
 707              		.fpu fpv4-sp-d16
 709              	xQueueCreateMutexStatic:
 710              	.LFB10:
 492:Firmware/Middlewares/Third_Party/FreeRTOS/Source/queue.c **** 
 493:Firmware/Middlewares/Third_Party/FreeRTOS/Source/queue.c **** #endif /* configUSE_MUTEXES */
 494:Firmware/Middlewares/Third_Party/FreeRTOS/Source/queue.c **** /*-----------------------------------------------------------*/
 495:Firmware/Middlewares/Third_Party/FreeRTOS/Source/queue.c **** 
 496:Firmware/Middlewares/Third_Party/FreeRTOS/Source/queue.c **** #if( ( configUSE_MUTEXES == 1 ) && ( configSUPPORT_STATIC_ALLOCATION == 1 ) )
 497:Firmware/Middlewares/Third_Party/FreeRTOS/Source/queue.c **** 
 498:Firmware/Middlewares/Third_Party/FreeRTOS/Source/queue.c **** 	QueueHandle_t xQueueCreateMutexStatic( const uint8_t ucQueueType, StaticQueue_t *pxStaticQueue )
 499:Firmware/Middlewares/Third_Party/FreeRTOS/Source/queue.c **** 	{
 711              		.loc 1 499 0
 712              		.cfi_startproc
 713              		@ args = 0, pretend = 0, frame = 24
 714              		@ frame_needed = 1, uses_anonymous_args = 0
 715 0000 80B5     		push	{r7, lr}
 716              	.LCFI30:
 717              		.cfi_def_cfa_offset 8
 718              		.cfi_offset 7, -8
 719              		.cfi_offset 14, -4
 720 0002 88B0     		sub	sp, sp, #32
 721              	.LCFI31:
 722              		.cfi_def_cfa_offset 40
 723 0004 02AF     		add	r7, sp, #8
 724              	.LCFI32:
 725              		.cfi_def_cfa 7, 32
 726 0006 0346     		mov	r3, r0
 727 0008 3960     		str	r1, [r7]
 728 000a FB71     		strb	r3, [r7, #7]
 500:Firmware/Middlewares/Third_Party/FreeRTOS/Source/queue.c **** 	Queue_t *pxNewQueue;
 501:Firmware/Middlewares/Third_Party/FreeRTOS/Source/queue.c **** 	const UBaseType_t uxMutexLength = ( UBaseType_t ) 1, uxMutexSize = ( UBaseType_t ) 0;
 729              		.loc 1 501 0
 730 000c 0123     		movs	r3, #1
 731 000e 7B61     		str	r3, [r7, #20]
 732 0010 0023     		movs	r3, #0
 733 0012 3B61     		str	r3, [r7, #16]
 502:Firmware/Middlewares/Third_Party/FreeRTOS/Source/queue.c **** 
 503:Firmware/Middlewares/Third_Party/FreeRTOS/Source/queue.c **** 		/* Prevent compiler warnings about unused parameters if
 504:Firmware/Middlewares/Third_Party/FreeRTOS/Source/queue.c **** 		configUSE_TRACE_FACILITY does not equal 1. */
 505:Firmware/Middlewares/Third_Party/FreeRTOS/Source/queue.c **** 		( void ) ucQueueType;
 506:Firmware/Middlewares/Third_Party/FreeRTOS/Source/queue.c **** 
 507:Firmware/Middlewares/Third_Party/FreeRTOS/Source/queue.c **** 		pxNewQueue = ( Queue_t * ) xQueueGenericCreateStatic( uxMutexLength, uxMutexSize, NULL, pxStaticQ
 734              		.loc 1 507 0
 735 0014 FB79     		ldrb	r3, [r7, #7]	@ zero_extendqisi2
 736 0016 0093     		str	r3, [sp]
ARM GAS  /tmp/ccwOJcWw.s 			page 26


 737 0018 3B68     		ldr	r3, [r7]
 738 001a 0022     		movs	r2, #0
 739 001c 3969     		ldr	r1, [r7, #16]
 740 001e 7869     		ldr	r0, [r7, #20]
 741 0020 FFF7FEFF 		bl	xQueueGenericCreateStatic
 742 0024 F860     		str	r0, [r7, #12]
 508:Firmware/Middlewares/Third_Party/FreeRTOS/Source/queue.c **** 		prvInitialiseMutex( pxNewQueue );
 743              		.loc 1 508 0
 744 0026 F868     		ldr	r0, [r7, #12]
 745 0028 FFF7FEFF 		bl	prvInitialiseMutex
 509:Firmware/Middlewares/Third_Party/FreeRTOS/Source/queue.c **** 
 510:Firmware/Middlewares/Third_Party/FreeRTOS/Source/queue.c **** 		return pxNewQueue;
 746              		.loc 1 510 0
 747 002c FB68     		ldr	r3, [r7, #12]
 511:Firmware/Middlewares/Third_Party/FreeRTOS/Source/queue.c **** 	}
 748              		.loc 1 511 0
 749 002e 1846     		mov	r0, r3
 750 0030 1837     		adds	r7, r7, #24
 751              	.LCFI33:
 752              		.cfi_def_cfa_offset 8
 753 0032 BD46     		mov	sp, r7
 754              	.LCFI34:
 755              		.cfi_def_cfa_register 13
 756              		@ sp needed
 757 0034 80BD     		pop	{r7, pc}
 758              		.cfi_endproc
 759              	.LFE10:
 761              		.section	.text.xQueueGetMutexHolder,"ax",%progbits
 762              		.align	1
 763              		.global	xQueueGetMutexHolder
 764              		.syntax unified
 765              		.thumb
 766              		.thumb_func
 767              		.fpu fpv4-sp-d16
 769              	xQueueGetMutexHolder:
 770              	.LFB11:
 512:Firmware/Middlewares/Third_Party/FreeRTOS/Source/queue.c **** 
 513:Firmware/Middlewares/Third_Party/FreeRTOS/Source/queue.c **** #endif /* configUSE_MUTEXES */
 514:Firmware/Middlewares/Third_Party/FreeRTOS/Source/queue.c **** /*-----------------------------------------------------------*/
 515:Firmware/Middlewares/Third_Party/FreeRTOS/Source/queue.c **** 
 516:Firmware/Middlewares/Third_Party/FreeRTOS/Source/queue.c **** #if ( ( configUSE_MUTEXES == 1 ) && ( INCLUDE_xSemaphoreGetMutexHolder == 1 ) )
 517:Firmware/Middlewares/Third_Party/FreeRTOS/Source/queue.c **** 
 518:Firmware/Middlewares/Third_Party/FreeRTOS/Source/queue.c **** 	void* xQueueGetMutexHolder( QueueHandle_t xSemaphore )
 519:Firmware/Middlewares/Third_Party/FreeRTOS/Source/queue.c **** 	{
 771              		.loc 1 519 0
 772              		.cfi_startproc
 773              		@ args = 0, pretend = 0, frame = 16
 774              		@ frame_needed = 1, uses_anonymous_args = 0
 775 0000 80B5     		push	{r7, lr}
 776              	.LCFI35:
 777              		.cfi_def_cfa_offset 8
 778              		.cfi_offset 7, -8
 779              		.cfi_offset 14, -4
 780 0002 84B0     		sub	sp, sp, #16
 781              	.LCFI36:
 782              		.cfi_def_cfa_offset 24
 783 0004 00AF     		add	r7, sp, #0
ARM GAS  /tmp/ccwOJcWw.s 			page 27


 784              	.LCFI37:
 785              		.cfi_def_cfa_register 7
 786 0006 7860     		str	r0, [r7, #4]
 520:Firmware/Middlewares/Third_Party/FreeRTOS/Source/queue.c **** 	void *pxReturn;
 521:Firmware/Middlewares/Third_Party/FreeRTOS/Source/queue.c **** 
 522:Firmware/Middlewares/Third_Party/FreeRTOS/Source/queue.c **** 		/* This function is called by xSemaphoreGetMutexHolder(), and should not
 523:Firmware/Middlewares/Third_Party/FreeRTOS/Source/queue.c **** 		be called directly.  Note:  This is a good way of determining if the
 524:Firmware/Middlewares/Third_Party/FreeRTOS/Source/queue.c **** 		calling task is the mutex holder, but not a good way of determining the
 525:Firmware/Middlewares/Third_Party/FreeRTOS/Source/queue.c **** 		identity of the mutex holder, as the holder may change between the
 526:Firmware/Middlewares/Third_Party/FreeRTOS/Source/queue.c **** 		following critical section exiting and the function returning. */
 527:Firmware/Middlewares/Third_Party/FreeRTOS/Source/queue.c **** 		taskENTER_CRITICAL();
 787              		.loc 1 527 0
 788 0008 FFF7FEFF 		bl	vPortEnterCritical
 528:Firmware/Middlewares/Third_Party/FreeRTOS/Source/queue.c **** 		{
 529:Firmware/Middlewares/Third_Party/FreeRTOS/Source/queue.c **** 			if( ( ( Queue_t * ) xSemaphore )->uxQueueType == queueQUEUE_IS_MUTEX )
 789              		.loc 1 529 0
 790 000c 7B68     		ldr	r3, [r7, #4]
 791 000e 1B68     		ldr	r3, [r3]
 792 0010 002B     		cmp	r3, #0
 793 0012 03D1     		bne	.L46
 530:Firmware/Middlewares/Third_Party/FreeRTOS/Source/queue.c **** 			{
 531:Firmware/Middlewares/Third_Party/FreeRTOS/Source/queue.c **** 				pxReturn = ( void * ) ( ( Queue_t * ) xSemaphore )->pxMutexHolder;
 794              		.loc 1 531 0
 795 0014 7B68     		ldr	r3, [r7, #4]
 796 0016 5B68     		ldr	r3, [r3, #4]
 797 0018 FB60     		str	r3, [r7, #12]
 798 001a 01E0     		b	.L47
 799              	.L46:
 532:Firmware/Middlewares/Third_Party/FreeRTOS/Source/queue.c **** 			}
 533:Firmware/Middlewares/Third_Party/FreeRTOS/Source/queue.c **** 			else
 534:Firmware/Middlewares/Third_Party/FreeRTOS/Source/queue.c **** 			{
 535:Firmware/Middlewares/Third_Party/FreeRTOS/Source/queue.c **** 				pxReturn = NULL;
 800              		.loc 1 535 0
 801 001c 0023     		movs	r3, #0
 802 001e FB60     		str	r3, [r7, #12]
 803              	.L47:
 536:Firmware/Middlewares/Third_Party/FreeRTOS/Source/queue.c **** 			}
 537:Firmware/Middlewares/Third_Party/FreeRTOS/Source/queue.c **** 		}
 538:Firmware/Middlewares/Third_Party/FreeRTOS/Source/queue.c **** 		taskEXIT_CRITICAL();
 804              		.loc 1 538 0
 805 0020 FFF7FEFF 		bl	vPortExitCritical
 539:Firmware/Middlewares/Third_Party/FreeRTOS/Source/queue.c **** 
 540:Firmware/Middlewares/Third_Party/FreeRTOS/Source/queue.c **** 		return pxReturn;
 806              		.loc 1 540 0
 807 0024 FB68     		ldr	r3, [r7, #12]
 541:Firmware/Middlewares/Third_Party/FreeRTOS/Source/queue.c **** 	} /*lint !e818 xSemaphore cannot be a pointer to const because it is a typedef. */
 808              		.loc 1 541 0
 809 0026 1846     		mov	r0, r3
 810 0028 1037     		adds	r7, r7, #16
 811              	.LCFI38:
 812              		.cfi_def_cfa_offset 8
 813 002a BD46     		mov	sp, r7
 814              	.LCFI39:
 815              		.cfi_def_cfa_register 13
 816              		@ sp needed
 817 002c 80BD     		pop	{r7, pc}
 818              		.cfi_endproc
ARM GAS  /tmp/ccwOJcWw.s 			page 28


 819              	.LFE11:
 821              		.section	.text.xQueueGetMutexHolderFromISR,"ax",%progbits
 822              		.align	1
 823              		.global	xQueueGetMutexHolderFromISR
 824              		.syntax unified
 825              		.thumb
 826              		.thumb_func
 827              		.fpu fpv4-sp-d16
 829              	xQueueGetMutexHolderFromISR:
 830              	.LFB12:
 542:Firmware/Middlewares/Third_Party/FreeRTOS/Source/queue.c **** 
 543:Firmware/Middlewares/Third_Party/FreeRTOS/Source/queue.c **** #endif
 544:Firmware/Middlewares/Third_Party/FreeRTOS/Source/queue.c **** /*-----------------------------------------------------------*/
 545:Firmware/Middlewares/Third_Party/FreeRTOS/Source/queue.c **** 
 546:Firmware/Middlewares/Third_Party/FreeRTOS/Source/queue.c **** #if ( ( configUSE_MUTEXES == 1 ) && ( INCLUDE_xSemaphoreGetMutexHolder == 1 ) )
 547:Firmware/Middlewares/Third_Party/FreeRTOS/Source/queue.c **** 
 548:Firmware/Middlewares/Third_Party/FreeRTOS/Source/queue.c **** 	void* xQueueGetMutexHolderFromISR( QueueHandle_t xSemaphore )
 549:Firmware/Middlewares/Third_Party/FreeRTOS/Source/queue.c **** 	{
 831              		.loc 1 549 0
 832              		.cfi_startproc
 833              		@ args = 0, pretend = 0, frame = 16
 834              		@ frame_needed = 1, uses_anonymous_args = 0
 835              		@ link register save eliminated.
 836 0000 80B4     		push	{r7}
 837              	.LCFI40:
 838              		.cfi_def_cfa_offset 4
 839              		.cfi_offset 7, -4
 840 0002 85B0     		sub	sp, sp, #20
 841              	.LCFI41:
 842              		.cfi_def_cfa_offset 24
 843 0004 00AF     		add	r7, sp, #0
 844              	.LCFI42:
 845              		.cfi_def_cfa_register 7
 846 0006 7860     		str	r0, [r7, #4]
 550:Firmware/Middlewares/Third_Party/FreeRTOS/Source/queue.c **** 	void *pxReturn;
 551:Firmware/Middlewares/Third_Party/FreeRTOS/Source/queue.c **** 
 552:Firmware/Middlewares/Third_Party/FreeRTOS/Source/queue.c **** 		configASSERT( xSemaphore );
 847              		.loc 1 552 0
 848 0008 7B68     		ldr	r3, [r7, #4]
 849 000a 002B     		cmp	r3, #0
 850 000c 09D1     		bne	.L50
 851              	.LBB133:
 852              	.LBB134:
 853              		.loc 2 195 0 discriminator 1
 854              		.syntax unified
 855              	@ 195 "Firmware/Middlewares/Third_Party/FreeRTOS/Source/portable/GCC/ARM_CM4F/portmacro.h" 1
 856 000e 4FF05003 			mov r3, #80												
 857 0012 83F31188 		msr basepri, r3											
 858 0016 BFF36F8F 		isb														
 859 001a BFF34F8F 		dsb														
 860              	
 861              	@ 0 "" 2
 862              		.thumb
 863              		.syntax unified
 864 001e BB60     		str	r3, [r7, #8]
 865              	.L51:
 866              	.LBE134:
ARM GAS  /tmp/ccwOJcWw.s 			page 29


 867              	.LBE133:
 868              		.loc 1 552 0 discriminator 1
 869 0020 FEE7     		b	.L51
 870              	.L50:
 553:Firmware/Middlewares/Third_Party/FreeRTOS/Source/queue.c **** 
 554:Firmware/Middlewares/Third_Party/FreeRTOS/Source/queue.c **** 		/* Mutexes cannot be used in interrupt service routines, so the mutex
 555:Firmware/Middlewares/Third_Party/FreeRTOS/Source/queue.c **** 		holder should not change in an ISR, and therefore a critical section is
 556:Firmware/Middlewares/Third_Party/FreeRTOS/Source/queue.c **** 		not required here. */
 557:Firmware/Middlewares/Third_Party/FreeRTOS/Source/queue.c **** 		if( ( ( Queue_t * ) xSemaphore )->uxQueueType == queueQUEUE_IS_MUTEX )
 871              		.loc 1 557 0
 872 0022 7B68     		ldr	r3, [r7, #4]
 873 0024 1B68     		ldr	r3, [r3]
 874 0026 002B     		cmp	r3, #0
 875 0028 03D1     		bne	.L52
 558:Firmware/Middlewares/Third_Party/FreeRTOS/Source/queue.c **** 		{
 559:Firmware/Middlewares/Third_Party/FreeRTOS/Source/queue.c **** 			pxReturn = ( void * ) ( ( Queue_t * ) xSemaphore )->pxMutexHolder;
 876              		.loc 1 559 0
 877 002a 7B68     		ldr	r3, [r7, #4]
 878 002c 5B68     		ldr	r3, [r3, #4]
 879 002e FB60     		str	r3, [r7, #12]
 880 0030 01E0     		b	.L53
 881              	.L52:
 560:Firmware/Middlewares/Third_Party/FreeRTOS/Source/queue.c **** 		}
 561:Firmware/Middlewares/Third_Party/FreeRTOS/Source/queue.c **** 		else
 562:Firmware/Middlewares/Third_Party/FreeRTOS/Source/queue.c **** 		{
 563:Firmware/Middlewares/Third_Party/FreeRTOS/Source/queue.c **** 			pxReturn = NULL;
 882              		.loc 1 563 0
 883 0032 0023     		movs	r3, #0
 884 0034 FB60     		str	r3, [r7, #12]
 885              	.L53:
 564:Firmware/Middlewares/Third_Party/FreeRTOS/Source/queue.c **** 		}
 565:Firmware/Middlewares/Third_Party/FreeRTOS/Source/queue.c **** 
 566:Firmware/Middlewares/Third_Party/FreeRTOS/Source/queue.c **** 		return pxReturn;
 886              		.loc 1 566 0
 887 0036 FB68     		ldr	r3, [r7, #12]
 567:Firmware/Middlewares/Third_Party/FreeRTOS/Source/queue.c **** 	} /*lint !e818 xSemaphore cannot be a pointer to const because it is a typedef. */
 888              		.loc 1 567 0
 889 0038 1846     		mov	r0, r3
 890 003a 1437     		adds	r7, r7, #20
 891              	.LCFI43:
 892              		.cfi_def_cfa_offset 4
 893 003c BD46     		mov	sp, r7
 894              	.LCFI44:
 895              		.cfi_def_cfa_register 13
 896              		@ sp needed
 897 003e 5DF8047B 		ldr	r7, [sp], #4
 898              	.LCFI45:
 899              		.cfi_restore 7
 900              		.cfi_def_cfa_offset 0
 901 0042 7047     		bx	lr
 902              		.cfi_endproc
 903              	.LFE12:
 905              		.section	.text.xQueueGiveMutexRecursive,"ax",%progbits
 906              		.align	1
 907              		.global	xQueueGiveMutexRecursive
 908              		.syntax unified
 909              		.thumb
ARM GAS  /tmp/ccwOJcWw.s 			page 30


 910              		.thumb_func
 911              		.fpu fpv4-sp-d16
 913              	xQueueGiveMutexRecursive:
 914              	.LFB13:
 568:Firmware/Middlewares/Third_Party/FreeRTOS/Source/queue.c **** 
 569:Firmware/Middlewares/Third_Party/FreeRTOS/Source/queue.c **** #endif
 570:Firmware/Middlewares/Third_Party/FreeRTOS/Source/queue.c **** /*-----------------------------------------------------------*/
 571:Firmware/Middlewares/Third_Party/FreeRTOS/Source/queue.c **** 
 572:Firmware/Middlewares/Third_Party/FreeRTOS/Source/queue.c **** #if ( configUSE_RECURSIVE_MUTEXES == 1 )
 573:Firmware/Middlewares/Third_Party/FreeRTOS/Source/queue.c **** 
 574:Firmware/Middlewares/Third_Party/FreeRTOS/Source/queue.c **** 	BaseType_t xQueueGiveMutexRecursive( QueueHandle_t xMutex )
 575:Firmware/Middlewares/Third_Party/FreeRTOS/Source/queue.c **** 	{
 915              		.loc 1 575 0
 916              		.cfi_startproc
 917              		@ args = 0, pretend = 0, frame = 24
 918              		@ frame_needed = 1, uses_anonymous_args = 0
 919 0000 90B5     		push	{r4, r7, lr}
 920              	.LCFI46:
 921              		.cfi_def_cfa_offset 12
 922              		.cfi_offset 4, -12
 923              		.cfi_offset 7, -8
 924              		.cfi_offset 14, -4
 925 0002 87B0     		sub	sp, sp, #28
 926              	.LCFI47:
 927              		.cfi_def_cfa_offset 40
 928 0004 00AF     		add	r7, sp, #0
 929              	.LCFI48:
 930              		.cfi_def_cfa_register 7
 931 0006 7860     		str	r0, [r7, #4]
 576:Firmware/Middlewares/Third_Party/FreeRTOS/Source/queue.c **** 	BaseType_t xReturn;
 577:Firmware/Middlewares/Third_Party/FreeRTOS/Source/queue.c **** 	Queue_t * const pxMutex = ( Queue_t * ) xMutex;
 932              		.loc 1 577 0
 933 0008 7B68     		ldr	r3, [r7, #4]
 934 000a 3B61     		str	r3, [r7, #16]
 578:Firmware/Middlewares/Third_Party/FreeRTOS/Source/queue.c **** 
 579:Firmware/Middlewares/Third_Party/FreeRTOS/Source/queue.c **** 		configASSERT( pxMutex );
 935              		.loc 1 579 0
 936 000c 3B69     		ldr	r3, [r7, #16]
 937 000e 002B     		cmp	r3, #0
 938 0010 09D1     		bne	.L56
 939              	.LBB135:
 940              	.LBB136:
 941              		.loc 2 195 0 discriminator 1
 942              		.syntax unified
 943              	@ 195 "Firmware/Middlewares/Third_Party/FreeRTOS/Source/portable/GCC/ARM_CM4F/portmacro.h" 1
 944 0012 4FF05003 			mov r3, #80												
 945 0016 83F31188 		msr basepri, r3											
 946 001a BFF36F8F 		isb														
 947 001e BFF34F8F 		dsb														
 948              	
 949              	@ 0 "" 2
 950              		.thumb
 951              		.syntax unified
 952 0022 FB60     		str	r3, [r7, #12]
 953              	.L57:
 954              	.LBE136:
 955              	.LBE135:
ARM GAS  /tmp/ccwOJcWw.s 			page 31


 956              		.loc 1 579 0 discriminator 1
 957 0024 FEE7     		b	.L57
 958              	.L56:
 580:Firmware/Middlewares/Third_Party/FreeRTOS/Source/queue.c **** 
 581:Firmware/Middlewares/Third_Party/FreeRTOS/Source/queue.c **** 		/* If this is the task that holds the mutex then pxMutexHolder will not
 582:Firmware/Middlewares/Third_Party/FreeRTOS/Source/queue.c **** 		change outside of this task.  If this task does not hold the mutex then
 583:Firmware/Middlewares/Third_Party/FreeRTOS/Source/queue.c **** 		pxMutexHolder can never coincidentally equal the tasks handle, and as
 584:Firmware/Middlewares/Third_Party/FreeRTOS/Source/queue.c **** 		this is the only condition we are interested in it does not matter if
 585:Firmware/Middlewares/Third_Party/FreeRTOS/Source/queue.c **** 		pxMutexHolder is accessed simultaneously by another task.  Therefore no
 586:Firmware/Middlewares/Third_Party/FreeRTOS/Source/queue.c **** 		mutual exclusion is required to test the pxMutexHolder variable. */
 587:Firmware/Middlewares/Third_Party/FreeRTOS/Source/queue.c **** 		if( pxMutex->pxMutexHolder == ( void * ) xTaskGetCurrentTaskHandle() ) /*lint !e961 Not a redunda
 959              		.loc 1 587 0
 960 0026 3B69     		ldr	r3, [r7, #16]
 961 0028 5C68     		ldr	r4, [r3, #4]
 962 002a FFF7FEFF 		bl	xTaskGetCurrentTaskHandle
 963 002e 0346     		mov	r3, r0
 964 0030 9C42     		cmp	r4, r3
 965 0032 11D1     		bne	.L58
 588:Firmware/Middlewares/Third_Party/FreeRTOS/Source/queue.c **** 		{
 589:Firmware/Middlewares/Third_Party/FreeRTOS/Source/queue.c **** 			traceGIVE_MUTEX_RECURSIVE( pxMutex );
 590:Firmware/Middlewares/Third_Party/FreeRTOS/Source/queue.c **** 
 591:Firmware/Middlewares/Third_Party/FreeRTOS/Source/queue.c **** 			/* uxRecursiveCallCount cannot be zero if pxMutexHolder is equal to
 592:Firmware/Middlewares/Third_Party/FreeRTOS/Source/queue.c **** 			the task handle, therefore no underflow check is required.  Also,
 593:Firmware/Middlewares/Third_Party/FreeRTOS/Source/queue.c **** 			uxRecursiveCallCount is only modified by the mutex holder, and as
 594:Firmware/Middlewares/Third_Party/FreeRTOS/Source/queue.c **** 			there can only be one, no mutual exclusion is required to modify the
 595:Firmware/Middlewares/Third_Party/FreeRTOS/Source/queue.c **** 			uxRecursiveCallCount member. */
 596:Firmware/Middlewares/Third_Party/FreeRTOS/Source/queue.c **** 			( pxMutex->u.uxRecursiveCallCount )--;
 966              		.loc 1 596 0
 967 0034 3B69     		ldr	r3, [r7, #16]
 968 0036 DB68     		ldr	r3, [r3, #12]
 969 0038 5A1E     		subs	r2, r3, #1
 970 003a 3B69     		ldr	r3, [r7, #16]
 971 003c DA60     		str	r2, [r3, #12]
 597:Firmware/Middlewares/Third_Party/FreeRTOS/Source/queue.c **** 
 598:Firmware/Middlewares/Third_Party/FreeRTOS/Source/queue.c **** 			/* Has the recursive call count unwound to 0? */
 599:Firmware/Middlewares/Third_Party/FreeRTOS/Source/queue.c **** 			if( pxMutex->u.uxRecursiveCallCount == ( UBaseType_t ) 0 )
 972              		.loc 1 599 0
 973 003e 3B69     		ldr	r3, [r7, #16]
 974 0040 DB68     		ldr	r3, [r3, #12]
 975 0042 002B     		cmp	r3, #0
 976 0044 05D1     		bne	.L59
 600:Firmware/Middlewares/Third_Party/FreeRTOS/Source/queue.c **** 			{
 601:Firmware/Middlewares/Third_Party/FreeRTOS/Source/queue.c **** 				/* Return the mutex.  This will automatically unblock any other
 602:Firmware/Middlewares/Third_Party/FreeRTOS/Source/queue.c **** 				task that might be waiting to access the mutex. */
 603:Firmware/Middlewares/Third_Party/FreeRTOS/Source/queue.c **** 				( void ) xQueueGenericSend( pxMutex, NULL, queueMUTEX_GIVE_BLOCK_TIME, queueSEND_TO_BACK );
 977              		.loc 1 603 0
 978 0046 0023     		movs	r3, #0
 979 0048 0022     		movs	r2, #0
 980 004a 0021     		movs	r1, #0
 981 004c 3869     		ldr	r0, [r7, #16]
 982 004e FFF7FEFF 		bl	xQueueGenericSend
 983              	.L59:
 604:Firmware/Middlewares/Third_Party/FreeRTOS/Source/queue.c **** 			}
 605:Firmware/Middlewares/Third_Party/FreeRTOS/Source/queue.c **** 			else
 606:Firmware/Middlewares/Third_Party/FreeRTOS/Source/queue.c **** 			{
 607:Firmware/Middlewares/Third_Party/FreeRTOS/Source/queue.c **** 				mtCOVERAGE_TEST_MARKER();
 608:Firmware/Middlewares/Third_Party/FreeRTOS/Source/queue.c **** 			}
ARM GAS  /tmp/ccwOJcWw.s 			page 32


 609:Firmware/Middlewares/Third_Party/FreeRTOS/Source/queue.c **** 
 610:Firmware/Middlewares/Third_Party/FreeRTOS/Source/queue.c **** 			xReturn = pdPASS;
 984              		.loc 1 610 0
 985 0052 0123     		movs	r3, #1
 986 0054 7B61     		str	r3, [r7, #20]
 987 0056 01E0     		b	.L60
 988              	.L58:
 611:Firmware/Middlewares/Third_Party/FreeRTOS/Source/queue.c **** 		}
 612:Firmware/Middlewares/Third_Party/FreeRTOS/Source/queue.c **** 		else
 613:Firmware/Middlewares/Third_Party/FreeRTOS/Source/queue.c **** 		{
 614:Firmware/Middlewares/Third_Party/FreeRTOS/Source/queue.c **** 			/* The mutex cannot be given because the calling task is not the
 615:Firmware/Middlewares/Third_Party/FreeRTOS/Source/queue.c **** 			holder. */
 616:Firmware/Middlewares/Third_Party/FreeRTOS/Source/queue.c **** 			xReturn = pdFAIL;
 989              		.loc 1 616 0
 990 0058 0023     		movs	r3, #0
 991 005a 7B61     		str	r3, [r7, #20]
 992              	.L60:
 617:Firmware/Middlewares/Third_Party/FreeRTOS/Source/queue.c **** 
 618:Firmware/Middlewares/Third_Party/FreeRTOS/Source/queue.c **** 			traceGIVE_MUTEX_RECURSIVE_FAILED( pxMutex );
 619:Firmware/Middlewares/Third_Party/FreeRTOS/Source/queue.c **** 		}
 620:Firmware/Middlewares/Third_Party/FreeRTOS/Source/queue.c **** 
 621:Firmware/Middlewares/Third_Party/FreeRTOS/Source/queue.c **** 		return xReturn;
 993              		.loc 1 621 0
 994 005c 7B69     		ldr	r3, [r7, #20]
 622:Firmware/Middlewares/Third_Party/FreeRTOS/Source/queue.c **** 	}
 995              		.loc 1 622 0
 996 005e 1846     		mov	r0, r3
 997 0060 1C37     		adds	r7, r7, #28
 998              	.LCFI49:
 999              		.cfi_def_cfa_offset 12
 1000 0062 BD46     		mov	sp, r7
 1001              	.LCFI50:
 1002              		.cfi_def_cfa_register 13
 1003              		@ sp needed
 1004 0064 90BD     		pop	{r4, r7, pc}
 1005              		.cfi_endproc
 1006              	.LFE13:
 1008              		.section	.text.xQueueTakeMutexRecursive,"ax",%progbits
 1009              		.align	1
 1010              		.global	xQueueTakeMutexRecursive
 1011              		.syntax unified
 1012              		.thumb
 1013              		.thumb_func
 1014              		.fpu fpv4-sp-d16
 1016              	xQueueTakeMutexRecursive:
 1017              	.LFB14:
 623:Firmware/Middlewares/Third_Party/FreeRTOS/Source/queue.c **** 
 624:Firmware/Middlewares/Third_Party/FreeRTOS/Source/queue.c **** #endif /* configUSE_RECURSIVE_MUTEXES */
 625:Firmware/Middlewares/Third_Party/FreeRTOS/Source/queue.c **** /*-----------------------------------------------------------*/
 626:Firmware/Middlewares/Third_Party/FreeRTOS/Source/queue.c **** 
 627:Firmware/Middlewares/Third_Party/FreeRTOS/Source/queue.c **** #if ( configUSE_RECURSIVE_MUTEXES == 1 )
 628:Firmware/Middlewares/Third_Party/FreeRTOS/Source/queue.c **** 
 629:Firmware/Middlewares/Third_Party/FreeRTOS/Source/queue.c **** 	BaseType_t xQueueTakeMutexRecursive( QueueHandle_t xMutex, TickType_t xTicksToWait )
 630:Firmware/Middlewares/Third_Party/FreeRTOS/Source/queue.c **** 	{
 1018              		.loc 1 630 0
 1019              		.cfi_startproc
 1020              		@ args = 0, pretend = 0, frame = 24
ARM GAS  /tmp/ccwOJcWw.s 			page 33


 1021              		@ frame_needed = 1, uses_anonymous_args = 0
 1022 0000 90B5     		push	{r4, r7, lr}
 1023              	.LCFI51:
 1024              		.cfi_def_cfa_offset 12
 1025              		.cfi_offset 4, -12
 1026              		.cfi_offset 7, -8
 1027              		.cfi_offset 14, -4
 1028 0002 87B0     		sub	sp, sp, #28
 1029              	.LCFI52:
 1030              		.cfi_def_cfa_offset 40
 1031 0004 00AF     		add	r7, sp, #0
 1032              	.LCFI53:
 1033              		.cfi_def_cfa_register 7
 1034 0006 7860     		str	r0, [r7, #4]
 1035 0008 3960     		str	r1, [r7]
 631:Firmware/Middlewares/Third_Party/FreeRTOS/Source/queue.c **** 	BaseType_t xReturn;
 632:Firmware/Middlewares/Third_Party/FreeRTOS/Source/queue.c **** 	Queue_t * const pxMutex = ( Queue_t * ) xMutex;
 1036              		.loc 1 632 0
 1037 000a 7B68     		ldr	r3, [r7, #4]
 1038 000c 3B61     		str	r3, [r7, #16]
 633:Firmware/Middlewares/Third_Party/FreeRTOS/Source/queue.c **** 
 634:Firmware/Middlewares/Third_Party/FreeRTOS/Source/queue.c **** 		configASSERT( pxMutex );
 1039              		.loc 1 634 0
 1040 000e 3B69     		ldr	r3, [r7, #16]
 1041 0010 002B     		cmp	r3, #0
 1042 0012 09D1     		bne	.L63
 1043              	.LBB137:
 1044              	.LBB138:
 1045              		.loc 2 195 0 discriminator 1
 1046              		.syntax unified
 1047              	@ 195 "Firmware/Middlewares/Third_Party/FreeRTOS/Source/portable/GCC/ARM_CM4F/portmacro.h" 1
 1048 0014 4FF05003 			mov r3, #80												
 1049 0018 83F31188 		msr basepri, r3											
 1050 001c BFF36F8F 		isb														
 1051 0020 BFF34F8F 		dsb														
 1052              	
 1053              	@ 0 "" 2
 1054              		.thumb
 1055              		.syntax unified
 1056 0024 FB60     		str	r3, [r7, #12]
 1057              	.L64:
 1058              	.LBE138:
 1059              	.LBE137:
 1060              		.loc 1 634 0 discriminator 1
 1061 0026 FEE7     		b	.L64
 1062              	.L63:
 635:Firmware/Middlewares/Third_Party/FreeRTOS/Source/queue.c **** 
 636:Firmware/Middlewares/Third_Party/FreeRTOS/Source/queue.c **** 		/* Comments regarding mutual exclusion as per those within
 637:Firmware/Middlewares/Third_Party/FreeRTOS/Source/queue.c **** 		xQueueGiveMutexRecursive(). */
 638:Firmware/Middlewares/Third_Party/FreeRTOS/Source/queue.c **** 
 639:Firmware/Middlewares/Third_Party/FreeRTOS/Source/queue.c **** 		traceTAKE_MUTEX_RECURSIVE( pxMutex );
 640:Firmware/Middlewares/Third_Party/FreeRTOS/Source/queue.c **** 
 641:Firmware/Middlewares/Third_Party/FreeRTOS/Source/queue.c **** 		if( pxMutex->pxMutexHolder == ( void * ) xTaskGetCurrentTaskHandle() ) /*lint !e961 Cast is not r
 1063              		.loc 1 641 0
 1064 0028 3B69     		ldr	r3, [r7, #16]
 1065 002a 5C68     		ldr	r4, [r3, #4]
 1066 002c FFF7FEFF 		bl	xTaskGetCurrentTaskHandle
ARM GAS  /tmp/ccwOJcWw.s 			page 34


 1067 0030 0346     		mov	r3, r0
 1068 0032 9C42     		cmp	r4, r3
 1069 0034 07D1     		bne	.L65
 642:Firmware/Middlewares/Third_Party/FreeRTOS/Source/queue.c **** 		{
 643:Firmware/Middlewares/Third_Party/FreeRTOS/Source/queue.c **** 			( pxMutex->u.uxRecursiveCallCount )++;
 1070              		.loc 1 643 0
 1071 0036 3B69     		ldr	r3, [r7, #16]
 1072 0038 DB68     		ldr	r3, [r3, #12]
 1073 003a 5A1C     		adds	r2, r3, #1
 1074 003c 3B69     		ldr	r3, [r7, #16]
 1075 003e DA60     		str	r2, [r3, #12]
 644:Firmware/Middlewares/Third_Party/FreeRTOS/Source/queue.c **** 			xReturn = pdPASS;
 1076              		.loc 1 644 0
 1077 0040 0123     		movs	r3, #1
 1078 0042 7B61     		str	r3, [r7, #20]
 1079 0044 0CE0     		b	.L66
 1080              	.L65:
 645:Firmware/Middlewares/Third_Party/FreeRTOS/Source/queue.c **** 		}
 646:Firmware/Middlewares/Third_Party/FreeRTOS/Source/queue.c **** 		else
 647:Firmware/Middlewares/Third_Party/FreeRTOS/Source/queue.c **** 		{
 648:Firmware/Middlewares/Third_Party/FreeRTOS/Source/queue.c **** 			xReturn = xQueueSemaphoreTake( pxMutex, xTicksToWait );
 1081              		.loc 1 648 0
 1082 0046 3968     		ldr	r1, [r7]
 1083 0048 3869     		ldr	r0, [r7, #16]
 1084 004a FFF7FEFF 		bl	xQueueSemaphoreTake
 1085 004e 7861     		str	r0, [r7, #20]
 649:Firmware/Middlewares/Third_Party/FreeRTOS/Source/queue.c **** 
 650:Firmware/Middlewares/Third_Party/FreeRTOS/Source/queue.c **** 			/* pdPASS will only be returned if the mutex was successfully
 651:Firmware/Middlewares/Third_Party/FreeRTOS/Source/queue.c **** 			obtained.  The calling task may have entered the Blocked state
 652:Firmware/Middlewares/Third_Party/FreeRTOS/Source/queue.c **** 			before reaching here. */
 653:Firmware/Middlewares/Third_Party/FreeRTOS/Source/queue.c **** 			if( xReturn != pdFAIL )
 1086              		.loc 1 653 0
 1087 0050 7B69     		ldr	r3, [r7, #20]
 1088 0052 002B     		cmp	r3, #0
 1089 0054 04D0     		beq	.L66
 654:Firmware/Middlewares/Third_Party/FreeRTOS/Source/queue.c **** 			{
 655:Firmware/Middlewares/Third_Party/FreeRTOS/Source/queue.c **** 				( pxMutex->u.uxRecursiveCallCount )++;
 1090              		.loc 1 655 0
 1091 0056 3B69     		ldr	r3, [r7, #16]
 1092 0058 DB68     		ldr	r3, [r3, #12]
 1093 005a 5A1C     		adds	r2, r3, #1
 1094 005c 3B69     		ldr	r3, [r7, #16]
 1095 005e DA60     		str	r2, [r3, #12]
 1096              	.L66:
 656:Firmware/Middlewares/Third_Party/FreeRTOS/Source/queue.c **** 			}
 657:Firmware/Middlewares/Third_Party/FreeRTOS/Source/queue.c **** 			else
 658:Firmware/Middlewares/Third_Party/FreeRTOS/Source/queue.c **** 			{
 659:Firmware/Middlewares/Third_Party/FreeRTOS/Source/queue.c **** 				traceTAKE_MUTEX_RECURSIVE_FAILED( pxMutex );
 660:Firmware/Middlewares/Third_Party/FreeRTOS/Source/queue.c **** 			}
 661:Firmware/Middlewares/Third_Party/FreeRTOS/Source/queue.c **** 		}
 662:Firmware/Middlewares/Third_Party/FreeRTOS/Source/queue.c **** 
 663:Firmware/Middlewares/Third_Party/FreeRTOS/Source/queue.c **** 		return xReturn;
 1097              		.loc 1 663 0
 1098 0060 7B69     		ldr	r3, [r7, #20]
 664:Firmware/Middlewares/Third_Party/FreeRTOS/Source/queue.c **** 	}
 1099              		.loc 1 664 0
 1100 0062 1846     		mov	r0, r3
ARM GAS  /tmp/ccwOJcWw.s 			page 35


 1101 0064 1C37     		adds	r7, r7, #28
 1102              	.LCFI54:
 1103              		.cfi_def_cfa_offset 12
 1104 0066 BD46     		mov	sp, r7
 1105              	.LCFI55:
 1106              		.cfi_def_cfa_register 13
 1107              		@ sp needed
 1108 0068 90BD     		pop	{r4, r7, pc}
 1109              		.cfi_endproc
 1110              	.LFE14:
 1112              		.section	.text.xQueueCreateCountingSemaphoreStatic,"ax",%progbits
 1113              		.align	1
 1114              		.global	xQueueCreateCountingSemaphoreStatic
 1115              		.syntax unified
 1116              		.thumb
 1117              		.thumb_func
 1118              		.fpu fpv4-sp-d16
 1120              	xQueueCreateCountingSemaphoreStatic:
 1121              	.LFB15:
 665:Firmware/Middlewares/Third_Party/FreeRTOS/Source/queue.c **** 
 666:Firmware/Middlewares/Third_Party/FreeRTOS/Source/queue.c **** #endif /* configUSE_RECURSIVE_MUTEXES */
 667:Firmware/Middlewares/Third_Party/FreeRTOS/Source/queue.c **** /*-----------------------------------------------------------*/
 668:Firmware/Middlewares/Third_Party/FreeRTOS/Source/queue.c **** 
 669:Firmware/Middlewares/Third_Party/FreeRTOS/Source/queue.c **** #if( ( configUSE_COUNTING_SEMAPHORES == 1 ) && ( configSUPPORT_STATIC_ALLOCATION == 1 ) )
 670:Firmware/Middlewares/Third_Party/FreeRTOS/Source/queue.c **** 
 671:Firmware/Middlewares/Third_Party/FreeRTOS/Source/queue.c **** 	QueueHandle_t xQueueCreateCountingSemaphoreStatic( const UBaseType_t uxMaxCount, const UBaseType_t
 672:Firmware/Middlewares/Third_Party/FreeRTOS/Source/queue.c **** 	{
 1122              		.loc 1 672 0
 1123              		.cfi_startproc
 1124              		@ args = 0, pretend = 0, frame = 32
 1125              		@ frame_needed = 1, uses_anonymous_args = 0
 1126 0000 80B5     		push	{r7, lr}
 1127              	.LCFI56:
 1128              		.cfi_def_cfa_offset 8
 1129              		.cfi_offset 7, -8
 1130              		.cfi_offset 14, -4
 1131 0002 8AB0     		sub	sp, sp, #40
 1132              	.LCFI57:
 1133              		.cfi_def_cfa_offset 48
 1134 0004 02AF     		add	r7, sp, #8
 1135              	.LCFI58:
 1136              		.cfi_def_cfa 7, 40
 1137 0006 F860     		str	r0, [r7, #12]
 1138 0008 B960     		str	r1, [r7, #8]
 1139 000a 7A60     		str	r2, [r7, #4]
 673:Firmware/Middlewares/Third_Party/FreeRTOS/Source/queue.c **** 	QueueHandle_t xHandle;
 674:Firmware/Middlewares/Third_Party/FreeRTOS/Source/queue.c **** 
 675:Firmware/Middlewares/Third_Party/FreeRTOS/Source/queue.c **** 		configASSERT( uxMaxCount != 0 );
 1140              		.loc 1 675 0
 1141 000c FB68     		ldr	r3, [r7, #12]
 1142 000e 002B     		cmp	r3, #0
 1143 0010 09D1     		bne	.L69
 1144              	.LBB139:
 1145              	.LBB140:
 1146              		.loc 2 195 0 discriminator 1
 1147              		.syntax unified
 1148              	@ 195 "Firmware/Middlewares/Third_Party/FreeRTOS/Source/portable/GCC/ARM_CM4F/portmacro.h" 1
ARM GAS  /tmp/ccwOJcWw.s 			page 36


 1149 0012 4FF05003 			mov r3, #80												
 1150 0016 83F31188 		msr basepri, r3											
 1151 001a BFF36F8F 		isb														
 1152 001e BFF34F8F 		dsb														
 1153              	
 1154              	@ 0 "" 2
 1155              		.thumb
 1156              		.syntax unified
 1157 0022 BB61     		str	r3, [r7, #24]
 1158              	.L70:
 1159              	.LBE140:
 1160              	.LBE139:
 1161              		.loc 1 675 0 discriminator 1
 1162 0024 FEE7     		b	.L70
 1163              	.L69:
 676:Firmware/Middlewares/Third_Party/FreeRTOS/Source/queue.c **** 		configASSERT( uxInitialCount <= uxMaxCount );
 1164              		.loc 1 676 0
 1165 0026 BA68     		ldr	r2, [r7, #8]
 1166 0028 FB68     		ldr	r3, [r7, #12]
 1167 002a 9A42     		cmp	r2, r3
 1168 002c 09D9     		bls	.L71
 1169              	.LBB141:
 1170              	.LBB142:
 1171              		.loc 2 195 0 discriminator 1
 1172              		.syntax unified
 1173              	@ 195 "Firmware/Middlewares/Third_Party/FreeRTOS/Source/portable/GCC/ARM_CM4F/portmacro.h" 1
 1174 002e 4FF05003 			mov r3, #80												
 1175 0032 83F31188 		msr basepri, r3											
 1176 0036 BFF36F8F 		isb														
 1177 003a BFF34F8F 		dsb														
 1178              	
 1179              	@ 0 "" 2
 1180              		.thumb
 1181              		.syntax unified
 1182 003e 7B61     		str	r3, [r7, #20]
 1183              	.L72:
 1184              	.LBE142:
 1185              	.LBE141:
 1186              		.loc 1 676 0 discriminator 2
 1187 0040 FEE7     		b	.L72
 1188              	.L71:
 677:Firmware/Middlewares/Third_Party/FreeRTOS/Source/queue.c **** 
 678:Firmware/Middlewares/Third_Party/FreeRTOS/Source/queue.c **** 		xHandle = xQueueGenericCreateStatic( uxMaxCount, queueSEMAPHORE_QUEUE_ITEM_LENGTH, NULL, pxStatic
 1189              		.loc 1 678 0
 1190 0042 0223     		movs	r3, #2
 1191 0044 0093     		str	r3, [sp]
 1192 0046 7B68     		ldr	r3, [r7, #4]
 1193 0048 0022     		movs	r2, #0
 1194 004a 0021     		movs	r1, #0
 1195 004c F868     		ldr	r0, [r7, #12]
 1196 004e FFF7FEFF 		bl	xQueueGenericCreateStatic
 1197 0052 F861     		str	r0, [r7, #28]
 679:Firmware/Middlewares/Third_Party/FreeRTOS/Source/queue.c **** 
 680:Firmware/Middlewares/Third_Party/FreeRTOS/Source/queue.c **** 		if( xHandle != NULL )
 1198              		.loc 1 680 0
 1199 0054 FB69     		ldr	r3, [r7, #28]
 1200 0056 002B     		cmp	r3, #0
ARM GAS  /tmp/ccwOJcWw.s 			page 37


 1201 0058 02D0     		beq	.L73
 681:Firmware/Middlewares/Third_Party/FreeRTOS/Source/queue.c **** 		{
 682:Firmware/Middlewares/Third_Party/FreeRTOS/Source/queue.c **** 			( ( Queue_t * ) xHandle )->uxMessagesWaiting = uxInitialCount;
 1202              		.loc 1 682 0
 1203 005a FB69     		ldr	r3, [r7, #28]
 1204 005c BA68     		ldr	r2, [r7, #8]
 1205 005e 9A63     		str	r2, [r3, #56]
 1206              	.L73:
 683:Firmware/Middlewares/Third_Party/FreeRTOS/Source/queue.c **** 
 684:Firmware/Middlewares/Third_Party/FreeRTOS/Source/queue.c **** 			traceCREATE_COUNTING_SEMAPHORE();
 685:Firmware/Middlewares/Third_Party/FreeRTOS/Source/queue.c **** 		}
 686:Firmware/Middlewares/Third_Party/FreeRTOS/Source/queue.c **** 		else
 687:Firmware/Middlewares/Third_Party/FreeRTOS/Source/queue.c **** 		{
 688:Firmware/Middlewares/Third_Party/FreeRTOS/Source/queue.c **** 			traceCREATE_COUNTING_SEMAPHORE_FAILED();
 689:Firmware/Middlewares/Third_Party/FreeRTOS/Source/queue.c **** 		}
 690:Firmware/Middlewares/Third_Party/FreeRTOS/Source/queue.c **** 
 691:Firmware/Middlewares/Third_Party/FreeRTOS/Source/queue.c **** 		return xHandle;
 1207              		.loc 1 691 0
 1208 0060 FB69     		ldr	r3, [r7, #28]
 692:Firmware/Middlewares/Third_Party/FreeRTOS/Source/queue.c **** 	}
 1209              		.loc 1 692 0
 1210 0062 1846     		mov	r0, r3
 1211 0064 2037     		adds	r7, r7, #32
 1212              	.LCFI59:
 1213              		.cfi_def_cfa_offset 8
 1214 0066 BD46     		mov	sp, r7
 1215              	.LCFI60:
 1216              		.cfi_def_cfa_register 13
 1217              		@ sp needed
 1218 0068 80BD     		pop	{r7, pc}
 1219              		.cfi_endproc
 1220              	.LFE15:
 1222              		.section	.text.xQueueCreateCountingSemaphore,"ax",%progbits
 1223              		.align	1
 1224              		.global	xQueueCreateCountingSemaphore
 1225              		.syntax unified
 1226              		.thumb
 1227              		.thumb_func
 1228              		.fpu fpv4-sp-d16
 1230              	xQueueCreateCountingSemaphore:
 1231              	.LFB16:
 693:Firmware/Middlewares/Third_Party/FreeRTOS/Source/queue.c **** 
 694:Firmware/Middlewares/Third_Party/FreeRTOS/Source/queue.c **** #endif /* ( ( configUSE_COUNTING_SEMAPHORES == 1 ) && ( configSUPPORT_DYNAMIC_ALLOCATION == 1 ) ) *
 695:Firmware/Middlewares/Third_Party/FreeRTOS/Source/queue.c **** /*-----------------------------------------------------------*/
 696:Firmware/Middlewares/Third_Party/FreeRTOS/Source/queue.c **** 
 697:Firmware/Middlewares/Third_Party/FreeRTOS/Source/queue.c **** #if( ( configUSE_COUNTING_SEMAPHORES == 1 ) && ( configSUPPORT_DYNAMIC_ALLOCATION == 1 ) )
 698:Firmware/Middlewares/Third_Party/FreeRTOS/Source/queue.c **** 
 699:Firmware/Middlewares/Third_Party/FreeRTOS/Source/queue.c **** 	QueueHandle_t xQueueCreateCountingSemaphore( const UBaseType_t uxMaxCount, const UBaseType_t uxIni
 700:Firmware/Middlewares/Third_Party/FreeRTOS/Source/queue.c **** 	{
 1232              		.loc 1 700 0
 1233              		.cfi_startproc
 1234              		@ args = 0, pretend = 0, frame = 24
 1235              		@ frame_needed = 1, uses_anonymous_args = 0
 1236 0000 80B5     		push	{r7, lr}
 1237              	.LCFI61:
 1238              		.cfi_def_cfa_offset 8
 1239              		.cfi_offset 7, -8
ARM GAS  /tmp/ccwOJcWw.s 			page 38


 1240              		.cfi_offset 14, -4
 1241 0002 86B0     		sub	sp, sp, #24
 1242              	.LCFI62:
 1243              		.cfi_def_cfa_offset 32
 1244 0004 00AF     		add	r7, sp, #0
 1245              	.LCFI63:
 1246              		.cfi_def_cfa_register 7
 1247 0006 7860     		str	r0, [r7, #4]
 1248 0008 3960     		str	r1, [r7]
 701:Firmware/Middlewares/Third_Party/FreeRTOS/Source/queue.c **** 	QueueHandle_t xHandle;
 702:Firmware/Middlewares/Third_Party/FreeRTOS/Source/queue.c **** 
 703:Firmware/Middlewares/Third_Party/FreeRTOS/Source/queue.c **** 		configASSERT( uxMaxCount != 0 );
 1249              		.loc 1 703 0
 1250 000a 7B68     		ldr	r3, [r7, #4]
 1251 000c 002B     		cmp	r3, #0
 1252 000e 09D1     		bne	.L76
 1253              	.LBB143:
 1254              	.LBB144:
 1255              		.loc 2 195 0 discriminator 1
 1256              		.syntax unified
 1257              	@ 195 "Firmware/Middlewares/Third_Party/FreeRTOS/Source/portable/GCC/ARM_CM4F/portmacro.h" 1
 1258 0010 4FF05003 			mov r3, #80												
 1259 0014 83F31188 		msr basepri, r3											
 1260 0018 BFF36F8F 		isb														
 1261 001c BFF34F8F 		dsb														
 1262              	
 1263              	@ 0 "" 2
 1264              		.thumb
 1265              		.syntax unified
 1266 0020 3B61     		str	r3, [r7, #16]
 1267              	.L77:
 1268              	.LBE144:
 1269              	.LBE143:
 1270              		.loc 1 703 0 discriminator 1
 1271 0022 FEE7     		b	.L77
 1272              	.L76:
 704:Firmware/Middlewares/Third_Party/FreeRTOS/Source/queue.c **** 		configASSERT( uxInitialCount <= uxMaxCount );
 1273              		.loc 1 704 0
 1274 0024 3A68     		ldr	r2, [r7]
 1275 0026 7B68     		ldr	r3, [r7, #4]
 1276 0028 9A42     		cmp	r2, r3
 1277 002a 09D9     		bls	.L78
 1278              	.LBB145:
 1279              	.LBB146:
 1280              		.loc 2 195 0 discriminator 1
 1281              		.syntax unified
 1282              	@ 195 "Firmware/Middlewares/Third_Party/FreeRTOS/Source/portable/GCC/ARM_CM4F/portmacro.h" 1
 1283 002c 4FF05003 			mov r3, #80												
 1284 0030 83F31188 		msr basepri, r3											
 1285 0034 BFF36F8F 		isb														
 1286 0038 BFF34F8F 		dsb														
 1287              	
 1288              	@ 0 "" 2
 1289              		.thumb
 1290              		.syntax unified
 1291 003c FB60     		str	r3, [r7, #12]
 1292              	.L79:
ARM GAS  /tmp/ccwOJcWw.s 			page 39


 1293              	.LBE146:
 1294              	.LBE145:
 1295              		.loc 1 704 0 discriminator 2
 1296 003e FEE7     		b	.L79
 1297              	.L78:
 705:Firmware/Middlewares/Third_Party/FreeRTOS/Source/queue.c **** 
 706:Firmware/Middlewares/Third_Party/FreeRTOS/Source/queue.c **** 		xHandle = xQueueGenericCreate( uxMaxCount, queueSEMAPHORE_QUEUE_ITEM_LENGTH, queueQUEUE_TYPE_COUN
 1298              		.loc 1 706 0
 1299 0040 0222     		movs	r2, #2
 1300 0042 0021     		movs	r1, #0
 1301 0044 7868     		ldr	r0, [r7, #4]
 1302 0046 FFF7FEFF 		bl	xQueueGenericCreate
 1303 004a 7861     		str	r0, [r7, #20]
 707:Firmware/Middlewares/Third_Party/FreeRTOS/Source/queue.c **** 
 708:Firmware/Middlewares/Third_Party/FreeRTOS/Source/queue.c **** 		if( xHandle != NULL )
 1304              		.loc 1 708 0
 1305 004c 7B69     		ldr	r3, [r7, #20]
 1306 004e 002B     		cmp	r3, #0
 1307 0050 02D0     		beq	.L80
 709:Firmware/Middlewares/Third_Party/FreeRTOS/Source/queue.c **** 		{
 710:Firmware/Middlewares/Third_Party/FreeRTOS/Source/queue.c **** 			( ( Queue_t * ) xHandle )->uxMessagesWaiting = uxInitialCount;
 1308              		.loc 1 710 0
 1309 0052 7B69     		ldr	r3, [r7, #20]
 1310 0054 3A68     		ldr	r2, [r7]
 1311 0056 9A63     		str	r2, [r3, #56]
 1312              	.L80:
 711:Firmware/Middlewares/Third_Party/FreeRTOS/Source/queue.c **** 
 712:Firmware/Middlewares/Third_Party/FreeRTOS/Source/queue.c **** 			traceCREATE_COUNTING_SEMAPHORE();
 713:Firmware/Middlewares/Third_Party/FreeRTOS/Source/queue.c **** 		}
 714:Firmware/Middlewares/Third_Party/FreeRTOS/Source/queue.c **** 		else
 715:Firmware/Middlewares/Third_Party/FreeRTOS/Source/queue.c **** 		{
 716:Firmware/Middlewares/Third_Party/FreeRTOS/Source/queue.c **** 			traceCREATE_COUNTING_SEMAPHORE_FAILED();
 717:Firmware/Middlewares/Third_Party/FreeRTOS/Source/queue.c **** 		}
 718:Firmware/Middlewares/Third_Party/FreeRTOS/Source/queue.c **** 
 719:Firmware/Middlewares/Third_Party/FreeRTOS/Source/queue.c **** 		return xHandle;
 1313              		.loc 1 719 0
 1314 0058 7B69     		ldr	r3, [r7, #20]
 720:Firmware/Middlewares/Third_Party/FreeRTOS/Source/queue.c **** 	}
 1315              		.loc 1 720 0
 1316 005a 1846     		mov	r0, r3
 1317 005c 1837     		adds	r7, r7, #24
 1318              	.LCFI64:
 1319              		.cfi_def_cfa_offset 8
 1320 005e BD46     		mov	sp, r7
 1321              	.LCFI65:
 1322              		.cfi_def_cfa_register 13
 1323              		@ sp needed
 1324 0060 80BD     		pop	{r7, pc}
 1325              		.cfi_endproc
 1326              	.LFE16:
 1328              		.section	.text.xQueueGenericSend,"ax",%progbits
 1329              		.align	1
 1330              		.global	xQueueGenericSend
 1331              		.syntax unified
 1332              		.thumb
 1333              		.thumb_func
 1334              		.fpu fpv4-sp-d16
ARM GAS  /tmp/ccwOJcWw.s 			page 40


 1336              	xQueueGenericSend:
 1337              	.LFB17:
 721:Firmware/Middlewares/Third_Party/FreeRTOS/Source/queue.c **** 
 722:Firmware/Middlewares/Third_Party/FreeRTOS/Source/queue.c **** #endif /* ( ( configUSE_COUNTING_SEMAPHORES == 1 ) && ( configSUPPORT_DYNAMIC_ALLOCATION == 1 ) ) *
 723:Firmware/Middlewares/Third_Party/FreeRTOS/Source/queue.c **** /*-----------------------------------------------------------*/
 724:Firmware/Middlewares/Third_Party/FreeRTOS/Source/queue.c **** 
 725:Firmware/Middlewares/Third_Party/FreeRTOS/Source/queue.c **** BaseType_t xQueueGenericSend( QueueHandle_t xQueue, const void * const pvItemToQueue, TickType_t xT
 726:Firmware/Middlewares/Third_Party/FreeRTOS/Source/queue.c **** {
 1338              		.loc 1 726 0
 1339              		.cfi_startproc
 1340              		@ args = 0, pretend = 0, frame = 56
 1341              		@ frame_needed = 1, uses_anonymous_args = 0
 1342 0000 80B5     		push	{r7, lr}
 1343              	.LCFI66:
 1344              		.cfi_def_cfa_offset 8
 1345              		.cfi_offset 7, -8
 1346              		.cfi_offset 14, -4
 1347 0002 8EB0     		sub	sp, sp, #56
 1348              	.LCFI67:
 1349              		.cfi_def_cfa_offset 64
 1350 0004 00AF     		add	r7, sp, #0
 1351              	.LCFI68:
 1352              		.cfi_def_cfa_register 7
 1353 0006 F860     		str	r0, [r7, #12]
 1354 0008 B960     		str	r1, [r7, #8]
 1355 000a 7A60     		str	r2, [r7, #4]
 1356 000c 3B60     		str	r3, [r7]
 727:Firmware/Middlewares/Third_Party/FreeRTOS/Source/queue.c **** BaseType_t xEntryTimeSet = pdFALSE, xYieldRequired;
 1357              		.loc 1 727 0
 1358 000e 0023     		movs	r3, #0
 1359 0010 7B63     		str	r3, [r7, #52]
 728:Firmware/Middlewares/Third_Party/FreeRTOS/Source/queue.c **** TimeOut_t xTimeOut;
 729:Firmware/Middlewares/Third_Party/FreeRTOS/Source/queue.c **** Queue_t * const pxQueue = ( Queue_t * ) xQueue;
 1360              		.loc 1 729 0
 1361 0012 FB68     		ldr	r3, [r7, #12]
 1362 0014 3B63     		str	r3, [r7, #48]
 730:Firmware/Middlewares/Third_Party/FreeRTOS/Source/queue.c **** 
 731:Firmware/Middlewares/Third_Party/FreeRTOS/Source/queue.c **** 	configASSERT( pxQueue );
 1363              		.loc 1 731 0
 1364 0016 3B6B     		ldr	r3, [r7, #48]
 1365 0018 002B     		cmp	r3, #0
 1366 001a 09D1     		bne	.L83
 1367              	.LBB147:
 1368              	.LBB148:
 1369              		.loc 2 195 0 discriminator 1
 1370              		.syntax unified
 1371              	@ 195 "Firmware/Middlewares/Third_Party/FreeRTOS/Source/portable/GCC/ARM_CM4F/portmacro.h" 1
 1372 001c 4FF05003 			mov r3, #80												
 1373 0020 83F31188 		msr basepri, r3											
 1374 0024 BFF36F8F 		isb														
 1375 0028 BFF34F8F 		dsb														
 1376              	
 1377              	@ 0 "" 2
 1378              		.thumb
 1379              		.syntax unified
 1380 002c BB62     		str	r3, [r7, #40]
 1381              	.L84:
ARM GAS  /tmp/ccwOJcWw.s 			page 41


 1382              	.LBE148:
 1383              	.LBE147:
 1384              		.loc 1 731 0 discriminator 1
 1385 002e FEE7     		b	.L84
 1386              	.L83:
 732:Firmware/Middlewares/Third_Party/FreeRTOS/Source/queue.c **** 	configASSERT( !( ( pvItemToQueue == NULL ) && ( pxQueue->uxItemSize != ( UBaseType_t ) 0U ) ) );
 1387              		.loc 1 732 0
 1388 0030 BB68     		ldr	r3, [r7, #8]
 1389 0032 002B     		cmp	r3, #0
 1390 0034 03D1     		bne	.L85
 1391              		.loc 1 732 0 is_stmt 0 discriminator 2
 1392 0036 3B6B     		ldr	r3, [r7, #48]
 1393 0038 1B6C     		ldr	r3, [r3, #64]
 1394 003a 002B     		cmp	r3, #0
 1395 003c 01D1     		bne	.L86
 1396              	.L85:
 1397              		.loc 1 732 0 discriminator 3
 1398 003e 0123     		movs	r3, #1
 1399 0040 00E0     		b	.L87
 1400              	.L86:
 1401              		.loc 1 732 0 discriminator 4
 1402 0042 0023     		movs	r3, #0
 1403              	.L87:
 1404              		.loc 1 732 0 discriminator 6
 1405 0044 002B     		cmp	r3, #0
 1406 0046 09D1     		bne	.L88
 1407              	.LBB149:
 1408              	.LBB150:
 1409              		.loc 2 195 0 is_stmt 1 discriminator 7
 1410              		.syntax unified
 1411              	@ 195 "Firmware/Middlewares/Third_Party/FreeRTOS/Source/portable/GCC/ARM_CM4F/portmacro.h" 1
 1412 0048 4FF05003 			mov r3, #80												
 1413 004c 83F31188 		msr basepri, r3											
 1414 0050 BFF36F8F 		isb														
 1415 0054 BFF34F8F 		dsb														
 1416              	
 1417              	@ 0 "" 2
 1418              		.thumb
 1419              		.syntax unified
 1420 0058 7B62     		str	r3, [r7, #36]
 1421              	.L89:
 1422              	.LBE150:
 1423              	.LBE149:
 1424              		.loc 1 732 0 discriminator 2
 1425 005a FEE7     		b	.L89
 1426              	.L88:
 733:Firmware/Middlewares/Third_Party/FreeRTOS/Source/queue.c **** 	configASSERT( !( ( xCopyPosition == queueOVERWRITE ) && ( pxQueue->uxLength != 1 ) ) );
 1427              		.loc 1 733 0
 1428 005c 3B68     		ldr	r3, [r7]
 1429 005e 022B     		cmp	r3, #2
 1430 0060 03D1     		bne	.L90
 1431              		.loc 1 733 0 is_stmt 0 discriminator 2
 1432 0062 3B6B     		ldr	r3, [r7, #48]
 1433 0064 DB6B     		ldr	r3, [r3, #60]
 1434 0066 012B     		cmp	r3, #1
 1435 0068 01D1     		bne	.L91
 1436              	.L90:
ARM GAS  /tmp/ccwOJcWw.s 			page 42


 1437              		.loc 1 733 0 discriminator 3
 1438 006a 0123     		movs	r3, #1
 1439 006c 00E0     		b	.L92
 1440              	.L91:
 1441              		.loc 1 733 0 discriminator 4
 1442 006e 0023     		movs	r3, #0
 1443              	.L92:
 1444              		.loc 1 733 0 discriminator 6
 1445 0070 002B     		cmp	r3, #0
 1446 0072 09D1     		bne	.L93
 1447              	.LBB151:
 1448              	.LBB152:
 1449              		.loc 2 195 0 is_stmt 1 discriminator 7
 1450              		.syntax unified
 1451              	@ 195 "Firmware/Middlewares/Third_Party/FreeRTOS/Source/portable/GCC/ARM_CM4F/portmacro.h" 1
 1452 0074 4FF05003 			mov r3, #80												
 1453 0078 83F31188 		msr basepri, r3											
 1454 007c BFF36F8F 		isb														
 1455 0080 BFF34F8F 		dsb														
 1456              	
 1457              	@ 0 "" 2
 1458              		.thumb
 1459              		.syntax unified
 1460 0084 3B62     		str	r3, [r7, #32]
 1461              	.L94:
 1462              	.LBE152:
 1463              	.LBE151:
 1464              		.loc 1 733 0 discriminator 3
 1465 0086 FEE7     		b	.L94
 1466              	.L93:
 734:Firmware/Middlewares/Third_Party/FreeRTOS/Source/queue.c **** 	#if ( ( INCLUDE_xTaskGetSchedulerState == 1 ) || ( configUSE_TIMERS == 1 ) )
 735:Firmware/Middlewares/Third_Party/FreeRTOS/Source/queue.c **** 	{
 736:Firmware/Middlewares/Third_Party/FreeRTOS/Source/queue.c **** 		configASSERT( !( ( xTaskGetSchedulerState() == taskSCHEDULER_SUSPENDED ) && ( xTicksToWait != 0 )
 1467              		.loc 1 736 0
 1468 0088 FFF7FEFF 		bl	xTaskGetSchedulerState
 1469 008c 0346     		mov	r3, r0
 1470 008e 002B     		cmp	r3, #0
 1471 0090 02D1     		bne	.L95
 1472              		.loc 1 736 0 is_stmt 0 discriminator 2
 1473 0092 7B68     		ldr	r3, [r7, #4]
 1474 0094 002B     		cmp	r3, #0
 1475 0096 01D1     		bne	.L96
 1476              	.L95:
 1477              		.loc 1 736 0 discriminator 3
 1478 0098 0123     		movs	r3, #1
 1479 009a 00E0     		b	.L97
 1480              	.L96:
 1481              		.loc 1 736 0 discriminator 4
 1482 009c 0023     		movs	r3, #0
 1483              	.L97:
 1484              		.loc 1 736 0 discriminator 6
 1485 009e 002B     		cmp	r3, #0
 1486 00a0 09D1     		bne	.L98
 1487              	.LBB153:
 1488              	.LBB154:
 1489              		.loc 2 195 0 is_stmt 1 discriminator 7
 1490              		.syntax unified
ARM GAS  /tmp/ccwOJcWw.s 			page 43


 1491              	@ 195 "Firmware/Middlewares/Third_Party/FreeRTOS/Source/portable/GCC/ARM_CM4F/portmacro.h" 1
 1492 00a2 4FF05003 			mov r3, #80												
 1493 00a6 83F31188 		msr basepri, r3											
 1494 00aa BFF36F8F 		isb														
 1495 00ae BFF34F8F 		dsb														
 1496              	
 1497              	@ 0 "" 2
 1498              		.thumb
 1499              		.syntax unified
 1500 00b2 FB61     		str	r3, [r7, #28]
 1501              	.L99:
 1502              	.LBE154:
 1503              	.LBE153:
 1504              		.loc 1 736 0 discriminator 4
 1505 00b4 FEE7     		b	.L99
 1506              	.L98:
 737:Firmware/Middlewares/Third_Party/FreeRTOS/Source/queue.c **** 	}
 738:Firmware/Middlewares/Third_Party/FreeRTOS/Source/queue.c **** 	#endif
 739:Firmware/Middlewares/Third_Party/FreeRTOS/Source/queue.c **** 
 740:Firmware/Middlewares/Third_Party/FreeRTOS/Source/queue.c **** 
 741:Firmware/Middlewares/Third_Party/FreeRTOS/Source/queue.c **** 	/* This function relaxes the coding standard somewhat to allow return
 742:Firmware/Middlewares/Third_Party/FreeRTOS/Source/queue.c **** 	statements within the function itself.  This is done in the interest
 743:Firmware/Middlewares/Third_Party/FreeRTOS/Source/queue.c **** 	of execution time efficiency. */
 744:Firmware/Middlewares/Third_Party/FreeRTOS/Source/queue.c **** 	for( ;; )
 745:Firmware/Middlewares/Third_Party/FreeRTOS/Source/queue.c **** 	{
 746:Firmware/Middlewares/Third_Party/FreeRTOS/Source/queue.c **** 		taskENTER_CRITICAL();
 1507              		.loc 1 746 0
 1508 00b6 FFF7FEFF 		bl	vPortEnterCritical
 747:Firmware/Middlewares/Third_Party/FreeRTOS/Source/queue.c **** 		{
 748:Firmware/Middlewares/Third_Party/FreeRTOS/Source/queue.c **** 			/* Is there room on the queue now?  The running task must be the
 749:Firmware/Middlewares/Third_Party/FreeRTOS/Source/queue.c **** 			highest priority task wanting to access the queue.  If the head item
 750:Firmware/Middlewares/Third_Party/FreeRTOS/Source/queue.c **** 			in the queue is to be overwritten then it does not matter if the
 751:Firmware/Middlewares/Third_Party/FreeRTOS/Source/queue.c **** 			queue is full. */
 752:Firmware/Middlewares/Third_Party/FreeRTOS/Source/queue.c **** 			if( ( pxQueue->uxMessagesWaiting < pxQueue->uxLength ) || ( xCopyPosition == queueOVERWRITE ) )
 1509              		.loc 1 752 0
 1510 00ba 3B6B     		ldr	r3, [r7, #48]
 1511 00bc 9A6B     		ldr	r2, [r3, #56]
 1512 00be 3B6B     		ldr	r3, [r7, #48]
 1513 00c0 DB6B     		ldr	r3, [r3, #60]
 1514 00c2 9A42     		cmp	r2, r3
 1515 00c4 02D3     		bcc	.L100
 1516              		.loc 1 752 0 is_stmt 0 discriminator 1
 1517 00c6 3B68     		ldr	r3, [r7]
 1518 00c8 022B     		cmp	r3, #2
 1519 00ca 29D1     		bne	.L101
 1520              	.L100:
 753:Firmware/Middlewares/Third_Party/FreeRTOS/Source/queue.c **** 			{
 754:Firmware/Middlewares/Third_Party/FreeRTOS/Source/queue.c **** 				traceQUEUE_SEND( pxQueue );
 755:Firmware/Middlewares/Third_Party/FreeRTOS/Source/queue.c **** 				xYieldRequired = prvCopyDataToQueue( pxQueue, pvItemToQueue, xCopyPosition );
 1521              		.loc 1 755 0 is_stmt 1
 1522 00cc 3A68     		ldr	r2, [r7]
 1523 00ce B968     		ldr	r1, [r7, #8]
 1524 00d0 386B     		ldr	r0, [r7, #48]
 1525 00d2 FFF7FEFF 		bl	prvCopyDataToQueue
 1526 00d6 F862     		str	r0, [r7, #44]
 756:Firmware/Middlewares/Third_Party/FreeRTOS/Source/queue.c **** 
 757:Firmware/Middlewares/Third_Party/FreeRTOS/Source/queue.c **** 				#if ( configUSE_QUEUE_SETS == 1 )
ARM GAS  /tmp/ccwOJcWw.s 			page 44


 758:Firmware/Middlewares/Third_Party/FreeRTOS/Source/queue.c **** 				{
 759:Firmware/Middlewares/Third_Party/FreeRTOS/Source/queue.c **** 					if( pxQueue->pxQueueSetContainer != NULL )
 760:Firmware/Middlewares/Third_Party/FreeRTOS/Source/queue.c **** 					{
 761:Firmware/Middlewares/Third_Party/FreeRTOS/Source/queue.c **** 						if( prvNotifyQueueSetContainer( pxQueue, xCopyPosition ) != pdFALSE )
 762:Firmware/Middlewares/Third_Party/FreeRTOS/Source/queue.c **** 						{
 763:Firmware/Middlewares/Third_Party/FreeRTOS/Source/queue.c **** 							/* The queue is a member of a queue set, and posting
 764:Firmware/Middlewares/Third_Party/FreeRTOS/Source/queue.c **** 							to the queue set caused a higher priority task to
 765:Firmware/Middlewares/Third_Party/FreeRTOS/Source/queue.c **** 							unblock. A context switch is required. */
 766:Firmware/Middlewares/Third_Party/FreeRTOS/Source/queue.c **** 							queueYIELD_IF_USING_PREEMPTION();
 767:Firmware/Middlewares/Third_Party/FreeRTOS/Source/queue.c **** 						}
 768:Firmware/Middlewares/Third_Party/FreeRTOS/Source/queue.c **** 						else
 769:Firmware/Middlewares/Third_Party/FreeRTOS/Source/queue.c **** 						{
 770:Firmware/Middlewares/Third_Party/FreeRTOS/Source/queue.c **** 							mtCOVERAGE_TEST_MARKER();
 771:Firmware/Middlewares/Third_Party/FreeRTOS/Source/queue.c **** 						}
 772:Firmware/Middlewares/Third_Party/FreeRTOS/Source/queue.c **** 					}
 773:Firmware/Middlewares/Third_Party/FreeRTOS/Source/queue.c **** 					else
 774:Firmware/Middlewares/Third_Party/FreeRTOS/Source/queue.c **** 					{
 775:Firmware/Middlewares/Third_Party/FreeRTOS/Source/queue.c **** 						/* If there was a task waiting for data to arrive on the
 776:Firmware/Middlewares/Third_Party/FreeRTOS/Source/queue.c **** 						queue then unblock it now. */
 777:Firmware/Middlewares/Third_Party/FreeRTOS/Source/queue.c **** 						if( listLIST_IS_EMPTY( &( pxQueue->xTasksWaitingToReceive ) ) == pdFALSE )
 778:Firmware/Middlewares/Third_Party/FreeRTOS/Source/queue.c **** 						{
 779:Firmware/Middlewares/Third_Party/FreeRTOS/Source/queue.c **** 							if( xTaskRemoveFromEventList( &( pxQueue->xTasksWaitingToReceive ) ) != pdFALSE )
 780:Firmware/Middlewares/Third_Party/FreeRTOS/Source/queue.c **** 							{
 781:Firmware/Middlewares/Third_Party/FreeRTOS/Source/queue.c **** 								/* The unblocked task has a priority higher than
 782:Firmware/Middlewares/Third_Party/FreeRTOS/Source/queue.c **** 								our own so yield immediately.  Yes it is ok to
 783:Firmware/Middlewares/Third_Party/FreeRTOS/Source/queue.c **** 								do this from within the critical section - the
 784:Firmware/Middlewares/Third_Party/FreeRTOS/Source/queue.c **** 								kernel takes care of that. */
 785:Firmware/Middlewares/Third_Party/FreeRTOS/Source/queue.c **** 								queueYIELD_IF_USING_PREEMPTION();
 786:Firmware/Middlewares/Third_Party/FreeRTOS/Source/queue.c **** 							}
 787:Firmware/Middlewares/Third_Party/FreeRTOS/Source/queue.c **** 							else
 788:Firmware/Middlewares/Third_Party/FreeRTOS/Source/queue.c **** 							{
 789:Firmware/Middlewares/Third_Party/FreeRTOS/Source/queue.c **** 								mtCOVERAGE_TEST_MARKER();
 790:Firmware/Middlewares/Third_Party/FreeRTOS/Source/queue.c **** 							}
 791:Firmware/Middlewares/Third_Party/FreeRTOS/Source/queue.c **** 						}
 792:Firmware/Middlewares/Third_Party/FreeRTOS/Source/queue.c **** 						else if( xYieldRequired != pdFALSE )
 793:Firmware/Middlewares/Third_Party/FreeRTOS/Source/queue.c **** 						{
 794:Firmware/Middlewares/Third_Party/FreeRTOS/Source/queue.c **** 							/* This path is a special case that will only get
 795:Firmware/Middlewares/Third_Party/FreeRTOS/Source/queue.c **** 							executed if the task was holding multiple mutexes
 796:Firmware/Middlewares/Third_Party/FreeRTOS/Source/queue.c **** 							and the mutexes were given back in an order that is
 797:Firmware/Middlewares/Third_Party/FreeRTOS/Source/queue.c **** 							different to that in which they were taken. */
 798:Firmware/Middlewares/Third_Party/FreeRTOS/Source/queue.c **** 							queueYIELD_IF_USING_PREEMPTION();
 799:Firmware/Middlewares/Third_Party/FreeRTOS/Source/queue.c **** 						}
 800:Firmware/Middlewares/Third_Party/FreeRTOS/Source/queue.c **** 						else
 801:Firmware/Middlewares/Third_Party/FreeRTOS/Source/queue.c **** 						{
 802:Firmware/Middlewares/Third_Party/FreeRTOS/Source/queue.c **** 							mtCOVERAGE_TEST_MARKER();
 803:Firmware/Middlewares/Third_Party/FreeRTOS/Source/queue.c **** 						}
 804:Firmware/Middlewares/Third_Party/FreeRTOS/Source/queue.c **** 					}
 805:Firmware/Middlewares/Third_Party/FreeRTOS/Source/queue.c **** 				}
 806:Firmware/Middlewares/Third_Party/FreeRTOS/Source/queue.c **** 				#else /* configUSE_QUEUE_SETS */
 807:Firmware/Middlewares/Third_Party/FreeRTOS/Source/queue.c **** 				{
 808:Firmware/Middlewares/Third_Party/FreeRTOS/Source/queue.c **** 					/* If there was a task waiting for data to arrive on the
 809:Firmware/Middlewares/Third_Party/FreeRTOS/Source/queue.c **** 					queue then unblock it now. */
 810:Firmware/Middlewares/Third_Party/FreeRTOS/Source/queue.c **** 					if( listLIST_IS_EMPTY( &( pxQueue->xTasksWaitingToReceive ) ) == pdFALSE )
 1527              		.loc 1 810 0
 1528 00d8 3B6B     		ldr	r3, [r7, #48]
 1529 00da 5B6A     		ldr	r3, [r3, #36]
 1530 00dc 002B     		cmp	r3, #0
ARM GAS  /tmp/ccwOJcWw.s 			page 45


 1531 00de 10D0     		beq	.L102
 811:Firmware/Middlewares/Third_Party/FreeRTOS/Source/queue.c **** 					{
 812:Firmware/Middlewares/Third_Party/FreeRTOS/Source/queue.c **** 						if( xTaskRemoveFromEventList( &( pxQueue->xTasksWaitingToReceive ) ) != pdFALSE )
 1532              		.loc 1 812 0
 1533 00e0 3B6B     		ldr	r3, [r7, #48]
 1534 00e2 2433     		adds	r3, r3, #36
 1535 00e4 1846     		mov	r0, r3
 1536 00e6 FFF7FEFF 		bl	xTaskRemoveFromEventList
 1537 00ea 0346     		mov	r3, r0
 1538 00ec 002B     		cmp	r3, #0
 1539 00ee 13D0     		beq	.L103
 813:Firmware/Middlewares/Third_Party/FreeRTOS/Source/queue.c **** 						{
 814:Firmware/Middlewares/Third_Party/FreeRTOS/Source/queue.c **** 							/* The unblocked task has a priority higher than
 815:Firmware/Middlewares/Third_Party/FreeRTOS/Source/queue.c **** 							our own so yield immediately.  Yes it is ok to do
 816:Firmware/Middlewares/Third_Party/FreeRTOS/Source/queue.c **** 							this from within the critical section - the kernel
 817:Firmware/Middlewares/Third_Party/FreeRTOS/Source/queue.c **** 							takes care of that. */
 818:Firmware/Middlewares/Third_Party/FreeRTOS/Source/queue.c **** 							queueYIELD_IF_USING_PREEMPTION();
 1540              		.loc 1 818 0
 1541 00f0 3F4B     		ldr	r3, .L115
 1542 00f2 4FF08052 		mov	r2, #268435456
 1543 00f6 1A60     		str	r2, [r3]
 1544              		.syntax unified
 1545              	@ 818 "Firmware/Middlewares/Third_Party/FreeRTOS/Source/queue.c" 1
 1546 00f8 BFF34F8F 		dsb
 1547              	@ 0 "" 2
 1548              	@ 818 "Firmware/Middlewares/Third_Party/FreeRTOS/Source/queue.c" 1
 1549 00fc BFF36F8F 		isb
 1550              	@ 0 "" 2
 1551              		.thumb
 1552              		.syntax unified
 1553 0100 0AE0     		b	.L103
 1554              	.L102:
 819:Firmware/Middlewares/Third_Party/FreeRTOS/Source/queue.c **** 						}
 820:Firmware/Middlewares/Third_Party/FreeRTOS/Source/queue.c **** 						else
 821:Firmware/Middlewares/Third_Party/FreeRTOS/Source/queue.c **** 						{
 822:Firmware/Middlewares/Third_Party/FreeRTOS/Source/queue.c **** 							mtCOVERAGE_TEST_MARKER();
 823:Firmware/Middlewares/Third_Party/FreeRTOS/Source/queue.c **** 						}
 824:Firmware/Middlewares/Third_Party/FreeRTOS/Source/queue.c **** 					}
 825:Firmware/Middlewares/Third_Party/FreeRTOS/Source/queue.c **** 					else if( xYieldRequired != pdFALSE )
 1555              		.loc 1 825 0
 1556 0102 FB6A     		ldr	r3, [r7, #44]
 1557 0104 002B     		cmp	r3, #0
 1558 0106 07D0     		beq	.L103
 826:Firmware/Middlewares/Third_Party/FreeRTOS/Source/queue.c **** 					{
 827:Firmware/Middlewares/Third_Party/FreeRTOS/Source/queue.c **** 						/* This path is a special case that will only get
 828:Firmware/Middlewares/Third_Party/FreeRTOS/Source/queue.c **** 						executed if the task was holding multiple mutexes and
 829:Firmware/Middlewares/Third_Party/FreeRTOS/Source/queue.c **** 						the mutexes were given back in an order that is
 830:Firmware/Middlewares/Third_Party/FreeRTOS/Source/queue.c **** 						different to that in which they were taken. */
 831:Firmware/Middlewares/Third_Party/FreeRTOS/Source/queue.c **** 						queueYIELD_IF_USING_PREEMPTION();
 1559              		.loc 1 831 0
 1560 0108 394B     		ldr	r3, .L115
 1561 010a 4FF08052 		mov	r2, #268435456
 1562 010e 1A60     		str	r2, [r3]
 1563              		.syntax unified
 1564              	@ 831 "Firmware/Middlewares/Third_Party/FreeRTOS/Source/queue.c" 1
 1565 0110 BFF34F8F 		dsb
 1566              	@ 0 "" 2
ARM GAS  /tmp/ccwOJcWw.s 			page 46


 1567              	@ 831 "Firmware/Middlewares/Third_Party/FreeRTOS/Source/queue.c" 1
 1568 0114 BFF36F8F 		isb
 1569              	@ 0 "" 2
 1570              		.thumb
 1571              		.syntax unified
 1572              	.L103:
 832:Firmware/Middlewares/Third_Party/FreeRTOS/Source/queue.c **** 					}
 833:Firmware/Middlewares/Third_Party/FreeRTOS/Source/queue.c **** 					else
 834:Firmware/Middlewares/Third_Party/FreeRTOS/Source/queue.c **** 					{
 835:Firmware/Middlewares/Third_Party/FreeRTOS/Source/queue.c **** 						mtCOVERAGE_TEST_MARKER();
 836:Firmware/Middlewares/Third_Party/FreeRTOS/Source/queue.c **** 					}
 837:Firmware/Middlewares/Third_Party/FreeRTOS/Source/queue.c **** 				}
 838:Firmware/Middlewares/Third_Party/FreeRTOS/Source/queue.c **** 				#endif /* configUSE_QUEUE_SETS */
 839:Firmware/Middlewares/Third_Party/FreeRTOS/Source/queue.c **** 
 840:Firmware/Middlewares/Third_Party/FreeRTOS/Source/queue.c **** 				taskEXIT_CRITICAL();
 1573              		.loc 1 840 0
 1574 0118 FFF7FEFF 		bl	vPortExitCritical
 841:Firmware/Middlewares/Third_Party/FreeRTOS/Source/queue.c **** 				return pdPASS;
 1575              		.loc 1 841 0
 1576 011c 0123     		movs	r3, #1
 1577 011e 63E0     		b	.L114
 1578              	.L101:
 842:Firmware/Middlewares/Third_Party/FreeRTOS/Source/queue.c **** 			}
 843:Firmware/Middlewares/Third_Party/FreeRTOS/Source/queue.c **** 			else
 844:Firmware/Middlewares/Third_Party/FreeRTOS/Source/queue.c **** 			{
 845:Firmware/Middlewares/Third_Party/FreeRTOS/Source/queue.c **** 				if( xTicksToWait == ( TickType_t ) 0 )
 1579              		.loc 1 845 0
 1580 0120 7B68     		ldr	r3, [r7, #4]
 1581 0122 002B     		cmp	r3, #0
 1582 0124 03D1     		bne	.L105
 846:Firmware/Middlewares/Third_Party/FreeRTOS/Source/queue.c **** 				{
 847:Firmware/Middlewares/Third_Party/FreeRTOS/Source/queue.c **** 					/* The queue was full and no block time is specified (or
 848:Firmware/Middlewares/Third_Party/FreeRTOS/Source/queue.c **** 					the block time has expired) so leave now. */
 849:Firmware/Middlewares/Third_Party/FreeRTOS/Source/queue.c **** 					taskEXIT_CRITICAL();
 1583              		.loc 1 849 0
 1584 0126 FFF7FEFF 		bl	vPortExitCritical
 850:Firmware/Middlewares/Third_Party/FreeRTOS/Source/queue.c **** 
 851:Firmware/Middlewares/Third_Party/FreeRTOS/Source/queue.c **** 					/* Return to the original privilege level before exiting
 852:Firmware/Middlewares/Third_Party/FreeRTOS/Source/queue.c **** 					the function. */
 853:Firmware/Middlewares/Third_Party/FreeRTOS/Source/queue.c **** 					traceQUEUE_SEND_FAILED( pxQueue );
 854:Firmware/Middlewares/Third_Party/FreeRTOS/Source/queue.c **** 					return errQUEUE_FULL;
 1585              		.loc 1 854 0
 1586 012a 0023     		movs	r3, #0
 1587 012c 5CE0     		b	.L114
 1588              	.L105:
 855:Firmware/Middlewares/Third_Party/FreeRTOS/Source/queue.c **** 				}
 856:Firmware/Middlewares/Third_Party/FreeRTOS/Source/queue.c **** 				else if( xEntryTimeSet == pdFALSE )
 1589              		.loc 1 856 0
 1590 012e 7B6B     		ldr	r3, [r7, #52]
 1591 0130 002B     		cmp	r3, #0
 1592 0132 06D1     		bne	.L106
 857:Firmware/Middlewares/Third_Party/FreeRTOS/Source/queue.c **** 				{
 858:Firmware/Middlewares/Third_Party/FreeRTOS/Source/queue.c **** 					/* The queue was full and a block time was specified so
 859:Firmware/Middlewares/Third_Party/FreeRTOS/Source/queue.c **** 					configure the timeout structure. */
 860:Firmware/Middlewares/Third_Party/FreeRTOS/Source/queue.c **** 					vTaskInternalSetTimeOutState( &xTimeOut );
 1593              		.loc 1 860 0
 1594 0134 07F11403 		add	r3, r7, #20
ARM GAS  /tmp/ccwOJcWw.s 			page 47


 1595 0138 1846     		mov	r0, r3
 1596 013a FFF7FEFF 		bl	vTaskInternalSetTimeOutState
 861:Firmware/Middlewares/Third_Party/FreeRTOS/Source/queue.c **** 					xEntryTimeSet = pdTRUE;
 1597              		.loc 1 861 0
 1598 013e 0123     		movs	r3, #1
 1599 0140 7B63     		str	r3, [r7, #52]
 1600              	.L106:
 862:Firmware/Middlewares/Third_Party/FreeRTOS/Source/queue.c **** 				}
 863:Firmware/Middlewares/Third_Party/FreeRTOS/Source/queue.c **** 				else
 864:Firmware/Middlewares/Third_Party/FreeRTOS/Source/queue.c **** 				{
 865:Firmware/Middlewares/Third_Party/FreeRTOS/Source/queue.c **** 					/* Entry time was already set. */
 866:Firmware/Middlewares/Third_Party/FreeRTOS/Source/queue.c **** 					mtCOVERAGE_TEST_MARKER();
 867:Firmware/Middlewares/Third_Party/FreeRTOS/Source/queue.c **** 				}
 868:Firmware/Middlewares/Third_Party/FreeRTOS/Source/queue.c **** 			}
 869:Firmware/Middlewares/Third_Party/FreeRTOS/Source/queue.c **** 		}
 870:Firmware/Middlewares/Third_Party/FreeRTOS/Source/queue.c **** 		taskEXIT_CRITICAL();
 1601              		.loc 1 870 0
 1602 0142 FFF7FEFF 		bl	vPortExitCritical
 871:Firmware/Middlewares/Third_Party/FreeRTOS/Source/queue.c **** 
 872:Firmware/Middlewares/Third_Party/FreeRTOS/Source/queue.c **** 		/* Interrupts and other tasks can send to and receive from the queue
 873:Firmware/Middlewares/Third_Party/FreeRTOS/Source/queue.c **** 		now the critical section has been exited. */
 874:Firmware/Middlewares/Third_Party/FreeRTOS/Source/queue.c **** 
 875:Firmware/Middlewares/Third_Party/FreeRTOS/Source/queue.c **** 		vTaskSuspendAll();
 1603              		.loc 1 875 0
 1604 0146 FFF7FEFF 		bl	vTaskSuspendAll
 876:Firmware/Middlewares/Third_Party/FreeRTOS/Source/queue.c **** 		prvLockQueue( pxQueue );
 1605              		.loc 1 876 0
 1606 014a FFF7FEFF 		bl	vPortEnterCritical
 1607 014e 3B6B     		ldr	r3, [r7, #48]
 1608 0150 93F84430 		ldrb	r3, [r3, #68]
 1609 0154 5BB2     		sxtb	r3, r3
 1610 0156 B3F1FF3F 		cmp	r3, #-1
 1611 015a 03D1     		bne	.L107
 1612              		.loc 1 876 0 is_stmt 0 discriminator 1
 1613 015c 3B6B     		ldr	r3, [r7, #48]
 1614 015e 0022     		movs	r2, #0
 1615 0160 83F84420 		strb	r2, [r3, #68]
 1616              	.L107:
 1617              		.loc 1 876 0 discriminator 3
 1618 0164 3B6B     		ldr	r3, [r7, #48]
 1619 0166 93F84530 		ldrb	r3, [r3, #69]
 1620 016a 5BB2     		sxtb	r3, r3
 1621 016c B3F1FF3F 		cmp	r3, #-1
 1622 0170 03D1     		bne	.L108
 1623              		.loc 1 876 0 discriminator 4
 1624 0172 3B6B     		ldr	r3, [r7, #48]
 1625 0174 0022     		movs	r2, #0
 1626 0176 83F84520 		strb	r2, [r3, #69]
 1627              	.L108:
 1628              		.loc 1 876 0 discriminator 6
 1629 017a FFF7FEFF 		bl	vPortExitCritical
 877:Firmware/Middlewares/Third_Party/FreeRTOS/Source/queue.c **** 
 878:Firmware/Middlewares/Third_Party/FreeRTOS/Source/queue.c **** 		/* Update the timeout state to see if it has expired yet. */
 879:Firmware/Middlewares/Third_Party/FreeRTOS/Source/queue.c **** 		if( xTaskCheckForTimeOut( &xTimeOut, &xTicksToWait ) == pdFALSE )
 1630              		.loc 1 879 0 is_stmt 1 discriminator 6
 1631 017e 3A1D     		adds	r2, r7, #4
 1632 0180 07F11403 		add	r3, r7, #20
ARM GAS  /tmp/ccwOJcWw.s 			page 48


 1633 0184 1146     		mov	r1, r2
 1634 0186 1846     		mov	r0, r3
 1635 0188 FFF7FEFF 		bl	xTaskCheckForTimeOut
 1636 018c 0346     		mov	r3, r0
 1637 018e 002B     		cmp	r3, #0
 1638 0190 24D1     		bne	.L109
 880:Firmware/Middlewares/Third_Party/FreeRTOS/Source/queue.c **** 		{
 881:Firmware/Middlewares/Third_Party/FreeRTOS/Source/queue.c **** 			if( prvIsQueueFull( pxQueue ) != pdFALSE )
 1639              		.loc 1 881 0
 1640 0192 386B     		ldr	r0, [r7, #48]
 1641 0194 FFF7FEFF 		bl	prvIsQueueFull
 1642 0198 0346     		mov	r3, r0
 1643 019a 002B     		cmp	r3, #0
 1644 019c 18D0     		beq	.L110
 882:Firmware/Middlewares/Third_Party/FreeRTOS/Source/queue.c **** 			{
 883:Firmware/Middlewares/Third_Party/FreeRTOS/Source/queue.c **** 				traceBLOCKING_ON_QUEUE_SEND( pxQueue );
 884:Firmware/Middlewares/Third_Party/FreeRTOS/Source/queue.c **** 				vTaskPlaceOnEventList( &( pxQueue->xTasksWaitingToSend ), xTicksToWait );
 1645              		.loc 1 884 0
 1646 019e 3B6B     		ldr	r3, [r7, #48]
 1647 01a0 1033     		adds	r3, r3, #16
 1648 01a2 7A68     		ldr	r2, [r7, #4]
 1649 01a4 1146     		mov	r1, r2
 1650 01a6 1846     		mov	r0, r3
 1651 01a8 FFF7FEFF 		bl	vTaskPlaceOnEventList
 885:Firmware/Middlewares/Third_Party/FreeRTOS/Source/queue.c **** 
 886:Firmware/Middlewares/Third_Party/FreeRTOS/Source/queue.c **** 				/* Unlocking the queue means queue events can effect the
 887:Firmware/Middlewares/Third_Party/FreeRTOS/Source/queue.c **** 				event list.  It is possible that interrupts occurring now
 888:Firmware/Middlewares/Third_Party/FreeRTOS/Source/queue.c **** 				remove this task from the event list again - but as the
 889:Firmware/Middlewares/Third_Party/FreeRTOS/Source/queue.c **** 				scheduler is suspended the task will go onto the pending
 890:Firmware/Middlewares/Third_Party/FreeRTOS/Source/queue.c **** 				ready last instead of the actual ready list. */
 891:Firmware/Middlewares/Third_Party/FreeRTOS/Source/queue.c **** 				prvUnlockQueue( pxQueue );
 1652              		.loc 1 891 0
 1653 01ac 386B     		ldr	r0, [r7, #48]
 1654 01ae FFF7FEFF 		bl	prvUnlockQueue
 892:Firmware/Middlewares/Third_Party/FreeRTOS/Source/queue.c **** 
 893:Firmware/Middlewares/Third_Party/FreeRTOS/Source/queue.c **** 				/* Resuming the scheduler will move tasks from the pending
 894:Firmware/Middlewares/Third_Party/FreeRTOS/Source/queue.c **** 				ready list into the ready list - so it is feasible that this
 895:Firmware/Middlewares/Third_Party/FreeRTOS/Source/queue.c **** 				task is already in a ready list before it yields - in which
 896:Firmware/Middlewares/Third_Party/FreeRTOS/Source/queue.c **** 				case the yield will not cause a context switch unless there
 897:Firmware/Middlewares/Third_Party/FreeRTOS/Source/queue.c **** 				is also a higher priority task in the pending ready list. */
 898:Firmware/Middlewares/Third_Party/FreeRTOS/Source/queue.c **** 				if( xTaskResumeAll() == pdFALSE )
 1655              		.loc 1 898 0
 1656 01b2 FFF7FEFF 		bl	xTaskResumeAll
 1657 01b6 0346     		mov	r3, r0
 1658 01b8 002B     		cmp	r3, #0
 1659 01ba 7FF47CAF 		bne	.L98
 899:Firmware/Middlewares/Third_Party/FreeRTOS/Source/queue.c **** 				{
 900:Firmware/Middlewares/Third_Party/FreeRTOS/Source/queue.c **** 					portYIELD_WITHIN_API();
 1660              		.loc 1 900 0
 1661 01be 0C4B     		ldr	r3, .L115
 1662 01c0 4FF08052 		mov	r2, #268435456
 1663 01c4 1A60     		str	r2, [r3]
 1664              		.syntax unified
 1665              	@ 900 "Firmware/Middlewares/Third_Party/FreeRTOS/Source/queue.c" 1
 1666 01c6 BFF34F8F 		dsb
 1667              	@ 0 "" 2
 1668              	@ 900 "Firmware/Middlewares/Third_Party/FreeRTOS/Source/queue.c" 1
ARM GAS  /tmp/ccwOJcWw.s 			page 49


 1669 01ca BFF36F8F 		isb
 1670              	@ 0 "" 2
 1671              		.thumb
 1672              		.syntax unified
 1673 01ce 72E7     		b	.L98
 1674              	.L110:
 901:Firmware/Middlewares/Third_Party/FreeRTOS/Source/queue.c **** 				}
 902:Firmware/Middlewares/Third_Party/FreeRTOS/Source/queue.c **** 			}
 903:Firmware/Middlewares/Third_Party/FreeRTOS/Source/queue.c **** 			else
 904:Firmware/Middlewares/Third_Party/FreeRTOS/Source/queue.c **** 			{
 905:Firmware/Middlewares/Third_Party/FreeRTOS/Source/queue.c **** 				/* Try again. */
 906:Firmware/Middlewares/Third_Party/FreeRTOS/Source/queue.c **** 				prvUnlockQueue( pxQueue );
 1675              		.loc 1 906 0
 1676 01d0 386B     		ldr	r0, [r7, #48]
 1677 01d2 FFF7FEFF 		bl	prvUnlockQueue
 907:Firmware/Middlewares/Third_Party/FreeRTOS/Source/queue.c **** 				( void ) xTaskResumeAll();
 1678              		.loc 1 907 0
 1679 01d6 FFF7FEFF 		bl	xTaskResumeAll
 1680 01da 6CE7     		b	.L98
 1681              	.L109:
 908:Firmware/Middlewares/Third_Party/FreeRTOS/Source/queue.c **** 			}
 909:Firmware/Middlewares/Third_Party/FreeRTOS/Source/queue.c **** 		}
 910:Firmware/Middlewares/Third_Party/FreeRTOS/Source/queue.c **** 		else
 911:Firmware/Middlewares/Third_Party/FreeRTOS/Source/queue.c **** 		{
 912:Firmware/Middlewares/Third_Party/FreeRTOS/Source/queue.c **** 			/* The timeout has expired. */
 913:Firmware/Middlewares/Third_Party/FreeRTOS/Source/queue.c **** 			prvUnlockQueue( pxQueue );
 1682              		.loc 1 913 0
 1683 01dc 386B     		ldr	r0, [r7, #48]
 1684 01de FFF7FEFF 		bl	prvUnlockQueue
 914:Firmware/Middlewares/Third_Party/FreeRTOS/Source/queue.c **** 			( void ) xTaskResumeAll();
 1685              		.loc 1 914 0
 1686 01e2 FFF7FEFF 		bl	xTaskResumeAll
 915:Firmware/Middlewares/Third_Party/FreeRTOS/Source/queue.c **** 
 916:Firmware/Middlewares/Third_Party/FreeRTOS/Source/queue.c **** 			traceQUEUE_SEND_FAILED( pxQueue );
 917:Firmware/Middlewares/Third_Party/FreeRTOS/Source/queue.c **** 			return errQUEUE_FULL;
 1687              		.loc 1 917 0
 1688 01e6 0023     		movs	r3, #0
 1689              	.L114:
 918:Firmware/Middlewares/Third_Party/FreeRTOS/Source/queue.c **** 		}
 919:Firmware/Middlewares/Third_Party/FreeRTOS/Source/queue.c **** 	}
 920:Firmware/Middlewares/Third_Party/FreeRTOS/Source/queue.c **** }
 1690              		.loc 1 920 0 discriminator 7
 1691 01e8 1846     		mov	r0, r3
 1692 01ea 3837     		adds	r7, r7, #56
 1693              	.LCFI69:
 1694              		.cfi_def_cfa_offset 8
 1695 01ec BD46     		mov	sp, r7
 1696              	.LCFI70:
 1697              		.cfi_def_cfa_register 13
 1698              		@ sp needed
 1699 01ee 80BD     		pop	{r7, pc}
 1700              	.L116:
 1701              		.align	2
 1702              	.L115:
 1703 01f0 04ED00E0 		.word	-536810236
 1704              		.cfi_endproc
 1705              	.LFE17:
ARM GAS  /tmp/ccwOJcWw.s 			page 50


 1707              		.section	.text.xQueueGenericSendFromISR,"ax",%progbits
 1708              		.align	1
 1709              		.global	xQueueGenericSendFromISR
 1710              		.syntax unified
 1711              		.thumb
 1712              		.thumb_func
 1713              		.fpu fpv4-sp-d16
 1715              	xQueueGenericSendFromISR:
 1716              	.LFB18:
 921:Firmware/Middlewares/Third_Party/FreeRTOS/Source/queue.c **** /*-----------------------------------------------------------*/
 922:Firmware/Middlewares/Third_Party/FreeRTOS/Source/queue.c **** 
 923:Firmware/Middlewares/Third_Party/FreeRTOS/Source/queue.c **** BaseType_t xQueueGenericSendFromISR( QueueHandle_t xQueue, const void * const pvItemToQueue, BaseTy
 924:Firmware/Middlewares/Third_Party/FreeRTOS/Source/queue.c **** {
 1717              		.loc 1 924 0
 1718              		.cfi_startproc
 1719              		@ args = 0, pretend = 0, frame = 56
 1720              		@ frame_needed = 1, uses_anonymous_args = 0
 1721 0000 80B5     		push	{r7, lr}
 1722              	.LCFI71:
 1723              		.cfi_def_cfa_offset 8
 1724              		.cfi_offset 7, -8
 1725              		.cfi_offset 14, -4
 1726 0002 8EB0     		sub	sp, sp, #56
 1727              	.LCFI72:
 1728              		.cfi_def_cfa_offset 64
 1729 0004 00AF     		add	r7, sp, #0
 1730              	.LCFI73:
 1731              		.cfi_def_cfa_register 7
 1732 0006 F860     		str	r0, [r7, #12]
 1733 0008 B960     		str	r1, [r7, #8]
 1734 000a 7A60     		str	r2, [r7, #4]
 1735 000c 3B60     		str	r3, [r7]
 925:Firmware/Middlewares/Third_Party/FreeRTOS/Source/queue.c **** BaseType_t xReturn;
 926:Firmware/Middlewares/Third_Party/FreeRTOS/Source/queue.c **** UBaseType_t uxSavedInterruptStatus;
 927:Firmware/Middlewares/Third_Party/FreeRTOS/Source/queue.c **** Queue_t * const pxQueue = ( Queue_t * ) xQueue;
 1736              		.loc 1 927 0
 1737 000e FB68     		ldr	r3, [r7, #12]
 1738 0010 3B63     		str	r3, [r7, #48]
 928:Firmware/Middlewares/Third_Party/FreeRTOS/Source/queue.c **** 
 929:Firmware/Middlewares/Third_Party/FreeRTOS/Source/queue.c **** 	configASSERT( pxQueue );
 1739              		.loc 1 929 0
 1740 0012 3B6B     		ldr	r3, [r7, #48]
 1741 0014 002B     		cmp	r3, #0
 1742 0016 09D1     		bne	.L118
 1743              	.LBB155:
 1744              	.LBB156:
 1745              		.loc 2 195 0 discriminator 1
 1746              		.syntax unified
 1747              	@ 195 "Firmware/Middlewares/Third_Party/FreeRTOS/Source/portable/GCC/ARM_CM4F/portmacro.h" 1
 1748 0018 4FF05003 			mov r3, #80												
 1749 001c 83F31188 		msr basepri, r3											
 1750 0020 BFF36F8F 		isb														
 1751 0024 BFF34F8F 		dsb														
 1752              	
 1753              	@ 0 "" 2
 1754              		.thumb
 1755              		.syntax unified
ARM GAS  /tmp/ccwOJcWw.s 			page 51


 1756 0028 7B62     		str	r3, [r7, #36]
 1757              	.L119:
 1758              	.LBE156:
 1759              	.LBE155:
 1760              		.loc 1 929 0 discriminator 1
 1761 002a FEE7     		b	.L119
 1762              	.L118:
 930:Firmware/Middlewares/Third_Party/FreeRTOS/Source/queue.c **** 	configASSERT( !( ( pvItemToQueue == NULL ) && ( pxQueue->uxItemSize != ( UBaseType_t ) 0U ) ) );
 1763              		.loc 1 930 0
 1764 002c BB68     		ldr	r3, [r7, #8]
 1765 002e 002B     		cmp	r3, #0
 1766 0030 03D1     		bne	.L120
 1767              		.loc 1 930 0 is_stmt 0 discriminator 2
 1768 0032 3B6B     		ldr	r3, [r7, #48]
 1769 0034 1B6C     		ldr	r3, [r3, #64]
 1770 0036 002B     		cmp	r3, #0
 1771 0038 01D1     		bne	.L121
 1772              	.L120:
 1773              		.loc 1 930 0 discriminator 3
 1774 003a 0123     		movs	r3, #1
 1775 003c 00E0     		b	.L122
 1776              	.L121:
 1777              		.loc 1 930 0 discriminator 4
 1778 003e 0023     		movs	r3, #0
 1779              	.L122:
 1780              		.loc 1 930 0 discriminator 6
 1781 0040 002B     		cmp	r3, #0
 1782 0042 09D1     		bne	.L123
 1783              	.LBB157:
 1784              	.LBB158:
 1785              		.loc 2 195 0 is_stmt 1 discriminator 7
 1786              		.syntax unified
 1787              	@ 195 "Firmware/Middlewares/Third_Party/FreeRTOS/Source/portable/GCC/ARM_CM4F/portmacro.h" 1
 1788 0044 4FF05003 			mov r3, #80												
 1789 0048 83F31188 		msr basepri, r3											
 1790 004c BFF36F8F 		isb														
 1791 0050 BFF34F8F 		dsb														
 1792              	
 1793              	@ 0 "" 2
 1794              		.thumb
 1795              		.syntax unified
 1796 0054 3B62     		str	r3, [r7, #32]
 1797              	.L124:
 1798              	.LBE158:
 1799              	.LBE157:
 1800              		.loc 1 930 0 discriminator 2
 1801 0056 FEE7     		b	.L124
 1802              	.L123:
 931:Firmware/Middlewares/Third_Party/FreeRTOS/Source/queue.c **** 	configASSERT( !( ( xCopyPosition == queueOVERWRITE ) && ( pxQueue->uxLength != 1 ) ) );
 1803              		.loc 1 931 0
 1804 0058 3B68     		ldr	r3, [r7]
 1805 005a 022B     		cmp	r3, #2
 1806 005c 03D1     		bne	.L125
 1807              		.loc 1 931 0 is_stmt 0 discriminator 2
 1808 005e 3B6B     		ldr	r3, [r7, #48]
 1809 0060 DB6B     		ldr	r3, [r3, #60]
 1810 0062 012B     		cmp	r3, #1
ARM GAS  /tmp/ccwOJcWw.s 			page 52


 1811 0064 01D1     		bne	.L126
 1812              	.L125:
 1813              		.loc 1 931 0 discriminator 3
 1814 0066 0123     		movs	r3, #1
 1815 0068 00E0     		b	.L127
 1816              	.L126:
 1817              		.loc 1 931 0 discriminator 4
 1818 006a 0023     		movs	r3, #0
 1819              	.L127:
 1820              		.loc 1 931 0 discriminator 6
 1821 006c 002B     		cmp	r3, #0
 1822 006e 09D1     		bne	.L128
 1823              	.LBB159:
 1824              	.LBB160:
 1825              		.loc 2 195 0 is_stmt 1 discriminator 7
 1826              		.syntax unified
 1827              	@ 195 "Firmware/Middlewares/Third_Party/FreeRTOS/Source/portable/GCC/ARM_CM4F/portmacro.h" 1
 1828 0070 4FF05003 			mov r3, #80												
 1829 0074 83F31188 		msr basepri, r3											
 1830 0078 BFF36F8F 		isb														
 1831 007c BFF34F8F 		dsb														
 1832              	
 1833              	@ 0 "" 2
 1834              		.thumb
 1835              		.syntax unified
 1836 0080 FB61     		str	r3, [r7, #28]
 1837              	.L129:
 1838              	.LBE160:
 1839              	.LBE159:
 1840              		.loc 1 931 0 discriminator 3
 1841 0082 FEE7     		b	.L129
 1842              	.L128:
 932:Firmware/Middlewares/Third_Party/FreeRTOS/Source/queue.c **** 
 933:Firmware/Middlewares/Third_Party/FreeRTOS/Source/queue.c **** 	/* RTOS ports that support interrupt nesting have the concept of a maximum
 934:Firmware/Middlewares/Third_Party/FreeRTOS/Source/queue.c **** 	system call (or maximum API call) interrupt priority.  Interrupts that are
 935:Firmware/Middlewares/Third_Party/FreeRTOS/Source/queue.c **** 	above the maximum system call priority are kept permanently enabled, even
 936:Firmware/Middlewares/Third_Party/FreeRTOS/Source/queue.c **** 	when the RTOS kernel is in a critical section, but cannot make any calls to
 937:Firmware/Middlewares/Third_Party/FreeRTOS/Source/queue.c **** 	FreeRTOS API functions.  If configASSERT() is defined in FreeRTOSConfig.h
 938:Firmware/Middlewares/Third_Party/FreeRTOS/Source/queue.c **** 	then portASSERT_IF_INTERRUPT_PRIORITY_INVALID() will result in an assertion
 939:Firmware/Middlewares/Third_Party/FreeRTOS/Source/queue.c **** 	failure if a FreeRTOS API function is called from an interrupt that has been
 940:Firmware/Middlewares/Third_Party/FreeRTOS/Source/queue.c **** 	assigned a priority above the configured maximum system call priority.
 941:Firmware/Middlewares/Third_Party/FreeRTOS/Source/queue.c **** 	Only FreeRTOS functions that end in FromISR can be called from interrupts
 942:Firmware/Middlewares/Third_Party/FreeRTOS/Source/queue.c **** 	that have been assigned a priority at or (logically) below the maximum
 943:Firmware/Middlewares/Third_Party/FreeRTOS/Source/queue.c **** 	system call	interrupt priority.  FreeRTOS maintains a separate interrupt
 944:Firmware/Middlewares/Third_Party/FreeRTOS/Source/queue.c **** 	safe API to ensure interrupt entry is as fast and as simple as possible.
 945:Firmware/Middlewares/Third_Party/FreeRTOS/Source/queue.c **** 	More information (albeit Cortex-M specific) is provided on the following
 946:Firmware/Middlewares/Third_Party/FreeRTOS/Source/queue.c **** 	link: http://www.freertos.org/RTOS-Cortex-M3-M4.html */
 947:Firmware/Middlewares/Third_Party/FreeRTOS/Source/queue.c **** 	portASSERT_IF_INTERRUPT_PRIORITY_INVALID();
 1843              		.loc 1 947 0
 1844 0084 FFF7FEFF 		bl	vPortValidateInterruptPriority
 1845              	.LBB161:
 1846              	.LBB162:
 196:Firmware/Middlewares/Third_Party/FreeRTOS/Source/portable/GCC/ARM_CM4F/portmacro.h **** 	(
 197:Firmware/Middlewares/Third_Party/FreeRTOS/Source/portable/GCC/ARM_CM4F/portmacro.h **** 		"	mov %0, %1												\n"	\
 198:Firmware/Middlewares/Third_Party/FreeRTOS/Source/portable/GCC/ARM_CM4F/portmacro.h **** 		"	msr basepri, %0											\n" \
 199:Firmware/Middlewares/Third_Party/FreeRTOS/Source/portable/GCC/ARM_CM4F/portmacro.h **** 		"	isb														\n" \
 200:Firmware/Middlewares/Third_Party/FreeRTOS/Source/portable/GCC/ARM_CM4F/portmacro.h **** 		"	dsb														\n" \
ARM GAS  /tmp/ccwOJcWw.s 			page 53


 201:Firmware/Middlewares/Third_Party/FreeRTOS/Source/portable/GCC/ARM_CM4F/portmacro.h **** 		:"=r" (ulNewBASEPRI) : "i" ( configMAX_SYSCALL_INTERRUPT_PRIORITY ) : "memory"
 202:Firmware/Middlewares/Third_Party/FreeRTOS/Source/portable/GCC/ARM_CM4F/portmacro.h **** 	);
 203:Firmware/Middlewares/Third_Party/FreeRTOS/Source/portable/GCC/ARM_CM4F/portmacro.h **** }
 204:Firmware/Middlewares/Third_Party/FreeRTOS/Source/portable/GCC/ARM_CM4F/portmacro.h **** 
 205:Firmware/Middlewares/Third_Party/FreeRTOS/Source/portable/GCC/ARM_CM4F/portmacro.h **** /*-----------------------------------------------------------*/
 206:Firmware/Middlewares/Third_Party/FreeRTOS/Source/portable/GCC/ARM_CM4F/portmacro.h **** 
 207:Firmware/Middlewares/Third_Party/FreeRTOS/Source/portable/GCC/ARM_CM4F/portmacro.h **** portFORCE_INLINE static uint32_t ulPortRaiseBASEPRI( void )
 208:Firmware/Middlewares/Third_Party/FreeRTOS/Source/portable/GCC/ARM_CM4F/portmacro.h **** {
 209:Firmware/Middlewares/Third_Party/FreeRTOS/Source/portable/GCC/ARM_CM4F/portmacro.h **** uint32_t ulOriginalBASEPRI, ulNewBASEPRI;
 210:Firmware/Middlewares/Third_Party/FreeRTOS/Source/portable/GCC/ARM_CM4F/portmacro.h **** 
 211:Firmware/Middlewares/Third_Party/FreeRTOS/Source/portable/GCC/ARM_CM4F/portmacro.h **** 	__asm volatile
 1847              		.loc 2 211 0
 1848              		.syntax unified
 1849              	@ 211 "Firmware/Middlewares/Third_Party/FreeRTOS/Source/portable/GCC/ARM_CM4F/portmacro.h" 1
 1850 0088 EFF31182 			mrs r2, basepri											
 1851 008c 4FF05003 		mov r3, #80												
 1852 0090 83F31188 		msr basepri, r3											
 1853 0094 BFF36F8F 		isb														
 1854 0098 BFF34F8F 		dsb														
 1855              	
 1856              	@ 0 "" 2
 1857              		.thumb
 1858              		.syntax unified
 1859 009c BA61     		str	r2, [r7, #24]
 1860 009e 7B61     		str	r3, [r7, #20]
 212:Firmware/Middlewares/Third_Party/FreeRTOS/Source/portable/GCC/ARM_CM4F/portmacro.h **** 	(
 213:Firmware/Middlewares/Third_Party/FreeRTOS/Source/portable/GCC/ARM_CM4F/portmacro.h **** 		"	mrs %0, basepri											\n" \
 214:Firmware/Middlewares/Third_Party/FreeRTOS/Source/portable/GCC/ARM_CM4F/portmacro.h **** 		"	mov %1, %2												\n"	\
 215:Firmware/Middlewares/Third_Party/FreeRTOS/Source/portable/GCC/ARM_CM4F/portmacro.h **** 		"	msr basepri, %1											\n" \
 216:Firmware/Middlewares/Third_Party/FreeRTOS/Source/portable/GCC/ARM_CM4F/portmacro.h **** 		"	isb														\n" \
 217:Firmware/Middlewares/Third_Party/FreeRTOS/Source/portable/GCC/ARM_CM4F/portmacro.h **** 		"	dsb														\n" \
 218:Firmware/Middlewares/Third_Party/FreeRTOS/Source/portable/GCC/ARM_CM4F/portmacro.h **** 		:"=r" (ulOriginalBASEPRI), "=r" (ulNewBASEPRI) : "i" ( configMAX_SYSCALL_INTERRUPT_PRIORITY ) : "
 219:Firmware/Middlewares/Third_Party/FreeRTOS/Source/portable/GCC/ARM_CM4F/portmacro.h **** 	);
 220:Firmware/Middlewares/Third_Party/FreeRTOS/Source/portable/GCC/ARM_CM4F/portmacro.h **** 
 221:Firmware/Middlewares/Third_Party/FreeRTOS/Source/portable/GCC/ARM_CM4F/portmacro.h **** 	/* This return will not be reached but is necessary to prevent compiler
 222:Firmware/Middlewares/Third_Party/FreeRTOS/Source/portable/GCC/ARM_CM4F/portmacro.h **** 	warnings. */
 223:Firmware/Middlewares/Third_Party/FreeRTOS/Source/portable/GCC/ARM_CM4F/portmacro.h **** 	return ulOriginalBASEPRI;
 1861              		.loc 2 223 0
 1862 00a0 BB69     		ldr	r3, [r7, #24]
 1863              	.LBE162:
 1864              	.LBE161:
 948:Firmware/Middlewares/Third_Party/FreeRTOS/Source/queue.c **** 
 949:Firmware/Middlewares/Third_Party/FreeRTOS/Source/queue.c **** 	/* Similar to xQueueGenericSend, except without blocking if there is no room
 950:Firmware/Middlewares/Third_Party/FreeRTOS/Source/queue.c **** 	in the queue.  Also don't directly wake a task that was blocked on a queue
 951:Firmware/Middlewares/Third_Party/FreeRTOS/Source/queue.c **** 	read, instead return a flag to say whether a context switch is required or
 952:Firmware/Middlewares/Third_Party/FreeRTOS/Source/queue.c **** 	not (i.e. has a task with a higher priority than us been woken by this
 953:Firmware/Middlewares/Third_Party/FreeRTOS/Source/queue.c **** 	post). */
 954:Firmware/Middlewares/Third_Party/FreeRTOS/Source/queue.c **** 	uxSavedInterruptStatus = portSET_INTERRUPT_MASK_FROM_ISR();
 1865              		.loc 1 954 0
 1866 00a2 FB62     		str	r3, [r7, #44]
 955:Firmware/Middlewares/Third_Party/FreeRTOS/Source/queue.c **** 	{
 956:Firmware/Middlewares/Third_Party/FreeRTOS/Source/queue.c **** 		if( ( pxQueue->uxMessagesWaiting < pxQueue->uxLength ) || ( xCopyPosition == queueOVERWRITE ) )
 1867              		.loc 1 956 0
 1868 00a4 3B6B     		ldr	r3, [r7, #48]
 1869 00a6 9A6B     		ldr	r2, [r3, #56]
 1870 00a8 3B6B     		ldr	r3, [r7, #48]
 1871 00aa DB6B     		ldr	r3, [r3, #60]
ARM GAS  /tmp/ccwOJcWw.s 			page 54


 1872 00ac 9A42     		cmp	r2, r3
 1873 00ae 02D3     		bcc	.L131
 1874              		.loc 1 956 0 is_stmt 0 discriminator 1
 1875 00b0 3B68     		ldr	r3, [r7]
 1876 00b2 022B     		cmp	r3, #2
 1877 00b4 2CD1     		bne	.L132
 1878              	.L131:
 1879              	.LBB163:
 957:Firmware/Middlewares/Third_Party/FreeRTOS/Source/queue.c **** 		{
 958:Firmware/Middlewares/Third_Party/FreeRTOS/Source/queue.c **** 			const int8_t cTxLock = pxQueue->cTxLock;
 1880              		.loc 1 958 0 is_stmt 1
 1881 00b6 3B6B     		ldr	r3, [r7, #48]
 1882 00b8 93F84530 		ldrb	r3, [r3, #69]
 1883 00bc 87F82B30 		strb	r3, [r7, #43]
 959:Firmware/Middlewares/Third_Party/FreeRTOS/Source/queue.c **** 
 960:Firmware/Middlewares/Third_Party/FreeRTOS/Source/queue.c **** 			traceQUEUE_SEND_FROM_ISR( pxQueue );
 961:Firmware/Middlewares/Third_Party/FreeRTOS/Source/queue.c **** 
 962:Firmware/Middlewares/Third_Party/FreeRTOS/Source/queue.c **** 			/* Semaphores use xQueueGiveFromISR(), so pxQueue will not be a
 963:Firmware/Middlewares/Third_Party/FreeRTOS/Source/queue.c **** 			semaphore or mutex.  That means prvCopyDataToQueue() cannot result
 964:Firmware/Middlewares/Third_Party/FreeRTOS/Source/queue.c **** 			in a task disinheriting a priority and prvCopyDataToQueue() can be
 965:Firmware/Middlewares/Third_Party/FreeRTOS/Source/queue.c **** 			called here even though the disinherit function does not check if
 966:Firmware/Middlewares/Third_Party/FreeRTOS/Source/queue.c **** 			the scheduler is suspended before accessing the ready lists. */
 967:Firmware/Middlewares/Third_Party/FreeRTOS/Source/queue.c **** 			( void ) prvCopyDataToQueue( pxQueue, pvItemToQueue, xCopyPosition );
 1884              		.loc 1 967 0
 1885 00c0 3A68     		ldr	r2, [r7]
 1886 00c2 B968     		ldr	r1, [r7, #8]
 1887 00c4 386B     		ldr	r0, [r7, #48]
 1888 00c6 FFF7FEFF 		bl	prvCopyDataToQueue
 968:Firmware/Middlewares/Third_Party/FreeRTOS/Source/queue.c **** 
 969:Firmware/Middlewares/Third_Party/FreeRTOS/Source/queue.c **** 			/* The event list is not altered if the queue is locked.  This will
 970:Firmware/Middlewares/Third_Party/FreeRTOS/Source/queue.c **** 			be done when the queue is unlocked later. */
 971:Firmware/Middlewares/Third_Party/FreeRTOS/Source/queue.c **** 			if( cTxLock == queueUNLOCKED )
 1889              		.loc 1 971 0
 1890 00ca 97F92B30 		ldrsb	r3, [r7, #43]
 1891 00ce B3F1FF3F 		cmp	r3, #-1
 1892 00d2 12D1     		bne	.L133
 972:Firmware/Middlewares/Third_Party/FreeRTOS/Source/queue.c **** 			{
 973:Firmware/Middlewares/Third_Party/FreeRTOS/Source/queue.c **** 				#if ( configUSE_QUEUE_SETS == 1 )
 974:Firmware/Middlewares/Third_Party/FreeRTOS/Source/queue.c **** 				{
 975:Firmware/Middlewares/Third_Party/FreeRTOS/Source/queue.c **** 					if( pxQueue->pxQueueSetContainer != NULL )
 976:Firmware/Middlewares/Third_Party/FreeRTOS/Source/queue.c **** 					{
 977:Firmware/Middlewares/Third_Party/FreeRTOS/Source/queue.c **** 						if( prvNotifyQueueSetContainer( pxQueue, xCopyPosition ) != pdFALSE )
 978:Firmware/Middlewares/Third_Party/FreeRTOS/Source/queue.c **** 						{
 979:Firmware/Middlewares/Third_Party/FreeRTOS/Source/queue.c **** 							/* The queue is a member of a queue set, and posting
 980:Firmware/Middlewares/Third_Party/FreeRTOS/Source/queue.c **** 							to the queue set caused a higher priority task to
 981:Firmware/Middlewares/Third_Party/FreeRTOS/Source/queue.c **** 							unblock.  A context switch is required. */
 982:Firmware/Middlewares/Third_Party/FreeRTOS/Source/queue.c **** 							if( pxHigherPriorityTaskWoken != NULL )
 983:Firmware/Middlewares/Third_Party/FreeRTOS/Source/queue.c **** 							{
 984:Firmware/Middlewares/Third_Party/FreeRTOS/Source/queue.c **** 								*pxHigherPriorityTaskWoken = pdTRUE;
 985:Firmware/Middlewares/Third_Party/FreeRTOS/Source/queue.c **** 							}
 986:Firmware/Middlewares/Third_Party/FreeRTOS/Source/queue.c **** 							else
 987:Firmware/Middlewares/Third_Party/FreeRTOS/Source/queue.c **** 							{
 988:Firmware/Middlewares/Third_Party/FreeRTOS/Source/queue.c **** 								mtCOVERAGE_TEST_MARKER();
 989:Firmware/Middlewares/Third_Party/FreeRTOS/Source/queue.c **** 							}
 990:Firmware/Middlewares/Third_Party/FreeRTOS/Source/queue.c **** 						}
 991:Firmware/Middlewares/Third_Party/FreeRTOS/Source/queue.c **** 						else
 992:Firmware/Middlewares/Third_Party/FreeRTOS/Source/queue.c **** 						{
ARM GAS  /tmp/ccwOJcWw.s 			page 55


 993:Firmware/Middlewares/Third_Party/FreeRTOS/Source/queue.c **** 							mtCOVERAGE_TEST_MARKER();
 994:Firmware/Middlewares/Third_Party/FreeRTOS/Source/queue.c **** 						}
 995:Firmware/Middlewares/Third_Party/FreeRTOS/Source/queue.c **** 					}
 996:Firmware/Middlewares/Third_Party/FreeRTOS/Source/queue.c **** 					else
 997:Firmware/Middlewares/Third_Party/FreeRTOS/Source/queue.c **** 					{
 998:Firmware/Middlewares/Third_Party/FreeRTOS/Source/queue.c **** 						if( listLIST_IS_EMPTY( &( pxQueue->xTasksWaitingToReceive ) ) == pdFALSE )
 999:Firmware/Middlewares/Third_Party/FreeRTOS/Source/queue.c **** 						{
1000:Firmware/Middlewares/Third_Party/FreeRTOS/Source/queue.c **** 							if( xTaskRemoveFromEventList( &( pxQueue->xTasksWaitingToReceive ) ) != pdFALSE )
1001:Firmware/Middlewares/Third_Party/FreeRTOS/Source/queue.c **** 							{
1002:Firmware/Middlewares/Third_Party/FreeRTOS/Source/queue.c **** 								/* The task waiting has a higher priority so
1003:Firmware/Middlewares/Third_Party/FreeRTOS/Source/queue.c **** 								record that a context switch is required. */
1004:Firmware/Middlewares/Third_Party/FreeRTOS/Source/queue.c **** 								if( pxHigherPriorityTaskWoken != NULL )
1005:Firmware/Middlewares/Third_Party/FreeRTOS/Source/queue.c **** 								{
1006:Firmware/Middlewares/Third_Party/FreeRTOS/Source/queue.c **** 									*pxHigherPriorityTaskWoken = pdTRUE;
1007:Firmware/Middlewares/Third_Party/FreeRTOS/Source/queue.c **** 								}
1008:Firmware/Middlewares/Third_Party/FreeRTOS/Source/queue.c **** 								else
1009:Firmware/Middlewares/Third_Party/FreeRTOS/Source/queue.c **** 								{
1010:Firmware/Middlewares/Third_Party/FreeRTOS/Source/queue.c **** 									mtCOVERAGE_TEST_MARKER();
1011:Firmware/Middlewares/Third_Party/FreeRTOS/Source/queue.c **** 								}
1012:Firmware/Middlewares/Third_Party/FreeRTOS/Source/queue.c **** 							}
1013:Firmware/Middlewares/Third_Party/FreeRTOS/Source/queue.c **** 							else
1014:Firmware/Middlewares/Third_Party/FreeRTOS/Source/queue.c **** 							{
1015:Firmware/Middlewares/Third_Party/FreeRTOS/Source/queue.c **** 								mtCOVERAGE_TEST_MARKER();
1016:Firmware/Middlewares/Third_Party/FreeRTOS/Source/queue.c **** 							}
1017:Firmware/Middlewares/Third_Party/FreeRTOS/Source/queue.c **** 						}
1018:Firmware/Middlewares/Third_Party/FreeRTOS/Source/queue.c **** 						else
1019:Firmware/Middlewares/Third_Party/FreeRTOS/Source/queue.c **** 						{
1020:Firmware/Middlewares/Third_Party/FreeRTOS/Source/queue.c **** 							mtCOVERAGE_TEST_MARKER();
1021:Firmware/Middlewares/Third_Party/FreeRTOS/Source/queue.c **** 						}
1022:Firmware/Middlewares/Third_Party/FreeRTOS/Source/queue.c **** 					}
1023:Firmware/Middlewares/Third_Party/FreeRTOS/Source/queue.c **** 				}
1024:Firmware/Middlewares/Third_Party/FreeRTOS/Source/queue.c **** 				#else /* configUSE_QUEUE_SETS */
1025:Firmware/Middlewares/Third_Party/FreeRTOS/Source/queue.c **** 				{
1026:Firmware/Middlewares/Third_Party/FreeRTOS/Source/queue.c **** 					if( listLIST_IS_EMPTY( &( pxQueue->xTasksWaitingToReceive ) ) == pdFALSE )
 1893              		.loc 1 1026 0
 1894 00d4 3B6B     		ldr	r3, [r7, #48]
 1895 00d6 5B6A     		ldr	r3, [r3, #36]
 1896 00d8 002B     		cmp	r3, #0
 1897 00da 16D0     		beq	.L134
1027:Firmware/Middlewares/Third_Party/FreeRTOS/Source/queue.c **** 					{
1028:Firmware/Middlewares/Third_Party/FreeRTOS/Source/queue.c **** 						if( xTaskRemoveFromEventList( &( pxQueue->xTasksWaitingToReceive ) ) != pdFALSE )
 1898              		.loc 1 1028 0
 1899 00dc 3B6B     		ldr	r3, [r7, #48]
 1900 00de 2433     		adds	r3, r3, #36
 1901 00e0 1846     		mov	r0, r3
 1902 00e2 FFF7FEFF 		bl	xTaskRemoveFromEventList
 1903 00e6 0346     		mov	r3, r0
 1904 00e8 002B     		cmp	r3, #0
 1905 00ea 0ED0     		beq	.L134
1029:Firmware/Middlewares/Third_Party/FreeRTOS/Source/queue.c **** 						{
1030:Firmware/Middlewares/Third_Party/FreeRTOS/Source/queue.c **** 							/* The task waiting has a higher priority so record that a
1031:Firmware/Middlewares/Third_Party/FreeRTOS/Source/queue.c **** 							context	switch is required. */
1032:Firmware/Middlewares/Third_Party/FreeRTOS/Source/queue.c **** 							if( pxHigherPriorityTaskWoken != NULL )
 1906              		.loc 1 1032 0
 1907 00ec 7B68     		ldr	r3, [r7, #4]
 1908 00ee 002B     		cmp	r3, #0
 1909 00f0 0BD0     		beq	.L134
ARM GAS  /tmp/ccwOJcWw.s 			page 56


1033:Firmware/Middlewares/Third_Party/FreeRTOS/Source/queue.c **** 							{
1034:Firmware/Middlewares/Third_Party/FreeRTOS/Source/queue.c **** 								*pxHigherPriorityTaskWoken = pdTRUE;
 1910              		.loc 1 1034 0
 1911 00f2 7B68     		ldr	r3, [r7, #4]
 1912 00f4 0122     		movs	r2, #1
 1913 00f6 1A60     		str	r2, [r3]
 1914 00f8 07E0     		b	.L134
 1915              	.L133:
1035:Firmware/Middlewares/Third_Party/FreeRTOS/Source/queue.c **** 							}
1036:Firmware/Middlewares/Third_Party/FreeRTOS/Source/queue.c **** 							else
1037:Firmware/Middlewares/Third_Party/FreeRTOS/Source/queue.c **** 							{
1038:Firmware/Middlewares/Third_Party/FreeRTOS/Source/queue.c **** 								mtCOVERAGE_TEST_MARKER();
1039:Firmware/Middlewares/Third_Party/FreeRTOS/Source/queue.c **** 							}
1040:Firmware/Middlewares/Third_Party/FreeRTOS/Source/queue.c **** 						}
1041:Firmware/Middlewares/Third_Party/FreeRTOS/Source/queue.c **** 						else
1042:Firmware/Middlewares/Third_Party/FreeRTOS/Source/queue.c **** 						{
1043:Firmware/Middlewares/Third_Party/FreeRTOS/Source/queue.c **** 							mtCOVERAGE_TEST_MARKER();
1044:Firmware/Middlewares/Third_Party/FreeRTOS/Source/queue.c **** 						}
1045:Firmware/Middlewares/Third_Party/FreeRTOS/Source/queue.c **** 					}
1046:Firmware/Middlewares/Third_Party/FreeRTOS/Source/queue.c **** 					else
1047:Firmware/Middlewares/Third_Party/FreeRTOS/Source/queue.c **** 					{
1048:Firmware/Middlewares/Third_Party/FreeRTOS/Source/queue.c **** 						mtCOVERAGE_TEST_MARKER();
1049:Firmware/Middlewares/Third_Party/FreeRTOS/Source/queue.c **** 					}
1050:Firmware/Middlewares/Third_Party/FreeRTOS/Source/queue.c **** 				}
1051:Firmware/Middlewares/Third_Party/FreeRTOS/Source/queue.c **** 				#endif /* configUSE_QUEUE_SETS */
1052:Firmware/Middlewares/Third_Party/FreeRTOS/Source/queue.c **** 			}
1053:Firmware/Middlewares/Third_Party/FreeRTOS/Source/queue.c **** 			else
1054:Firmware/Middlewares/Third_Party/FreeRTOS/Source/queue.c **** 			{
1055:Firmware/Middlewares/Third_Party/FreeRTOS/Source/queue.c **** 				/* Increment the lock count so the task that unlocks the queue
1056:Firmware/Middlewares/Third_Party/FreeRTOS/Source/queue.c **** 				knows that data was posted while it was locked. */
1057:Firmware/Middlewares/Third_Party/FreeRTOS/Source/queue.c **** 				pxQueue->cTxLock = ( int8_t ) ( cTxLock + 1 );
 1916              		.loc 1 1057 0
 1917 00fa 97F82B30 		ldrb	r3, [r7, #43]	@ zero_extendqisi2
 1918 00fe 0133     		adds	r3, r3, #1
 1919 0100 DBB2     		uxtb	r3, r3
 1920 0102 5AB2     		sxtb	r2, r3
 1921 0104 3B6B     		ldr	r3, [r7, #48]
 1922 0106 83F84520 		strb	r2, [r3, #69]
 1923              	.L134:
1058:Firmware/Middlewares/Third_Party/FreeRTOS/Source/queue.c **** 			}
1059:Firmware/Middlewares/Third_Party/FreeRTOS/Source/queue.c **** 
1060:Firmware/Middlewares/Third_Party/FreeRTOS/Source/queue.c **** 			xReturn = pdPASS;
 1924              		.loc 1 1060 0
 1925 010a 0123     		movs	r3, #1
 1926 010c 7B63     		str	r3, [r7, #52]
 1927              	.LBE163:
 957:Firmware/Middlewares/Third_Party/FreeRTOS/Source/queue.c **** 			const int8_t cTxLock = pxQueue->cTxLock;
 1928              		.loc 1 957 0
 1929 010e 01E0     		b	.L135
 1930              	.L132:
1061:Firmware/Middlewares/Third_Party/FreeRTOS/Source/queue.c **** 		}
1062:Firmware/Middlewares/Third_Party/FreeRTOS/Source/queue.c **** 		else
1063:Firmware/Middlewares/Third_Party/FreeRTOS/Source/queue.c **** 		{
1064:Firmware/Middlewares/Third_Party/FreeRTOS/Source/queue.c **** 			traceQUEUE_SEND_FROM_ISR_FAILED( pxQueue );
1065:Firmware/Middlewares/Third_Party/FreeRTOS/Source/queue.c **** 			xReturn = errQUEUE_FULL;
 1931              		.loc 1 1065 0
 1932 0110 0023     		movs	r3, #0
ARM GAS  /tmp/ccwOJcWw.s 			page 57


 1933 0112 7B63     		str	r3, [r7, #52]
 1934              	.L135:
 1935 0114 FB6A     		ldr	r3, [r7, #44]
 1936 0116 3B61     		str	r3, [r7, #16]
 1937              	.LBB164:
 1938              	.LBB165:
 224:Firmware/Middlewares/Third_Party/FreeRTOS/Source/portable/GCC/ARM_CM4F/portmacro.h **** }
 225:Firmware/Middlewares/Third_Party/FreeRTOS/Source/portable/GCC/ARM_CM4F/portmacro.h **** /*-----------------------------------------------------------*/
 226:Firmware/Middlewares/Third_Party/FreeRTOS/Source/portable/GCC/ARM_CM4F/portmacro.h **** 
 227:Firmware/Middlewares/Third_Party/FreeRTOS/Source/portable/GCC/ARM_CM4F/portmacro.h **** portFORCE_INLINE static void vPortSetBASEPRI( uint32_t ulNewMaskValue )
 228:Firmware/Middlewares/Third_Party/FreeRTOS/Source/portable/GCC/ARM_CM4F/portmacro.h **** {
 229:Firmware/Middlewares/Third_Party/FreeRTOS/Source/portable/GCC/ARM_CM4F/portmacro.h **** 	__asm volatile
 1939              		.loc 2 229 0
 1940 0118 3B69     		ldr	r3, [r7, #16]
 1941              		.syntax unified
 1942              	@ 229 "Firmware/Middlewares/Third_Party/FreeRTOS/Source/portable/GCC/ARM_CM4F/portmacro.h" 1
 1943 011a 83F31188 			msr basepri, r3	
 1944              	@ 0 "" 2
 1945              		.thumb
 1946              		.syntax unified
 1947              	.LBE165:
 1948              	.LBE164:
1066:Firmware/Middlewares/Third_Party/FreeRTOS/Source/queue.c **** 		}
1067:Firmware/Middlewares/Third_Party/FreeRTOS/Source/queue.c **** 	}
1068:Firmware/Middlewares/Third_Party/FreeRTOS/Source/queue.c **** 	portCLEAR_INTERRUPT_MASK_FROM_ISR( uxSavedInterruptStatus );
1069:Firmware/Middlewares/Third_Party/FreeRTOS/Source/queue.c **** 
1070:Firmware/Middlewares/Third_Party/FreeRTOS/Source/queue.c **** 	return xReturn;
 1949              		.loc 1 1070 0
 1950 011e 7B6B     		ldr	r3, [r7, #52]
1071:Firmware/Middlewares/Third_Party/FreeRTOS/Source/queue.c **** }
 1951              		.loc 1 1071 0
 1952 0120 1846     		mov	r0, r3
 1953 0122 3837     		adds	r7, r7, #56
 1954              	.LCFI74:
 1955              		.cfi_def_cfa_offset 8
 1956 0124 BD46     		mov	sp, r7
 1957              	.LCFI75:
 1958              		.cfi_def_cfa_register 13
 1959              		@ sp needed
 1960 0126 80BD     		pop	{r7, pc}
 1961              		.cfi_endproc
 1962              	.LFE18:
 1964              		.section	.text.xQueueGiveFromISR,"ax",%progbits
 1965              		.align	1
 1966              		.global	xQueueGiveFromISR
 1967              		.syntax unified
 1968              		.thumb
 1969              		.thumb_func
 1970              		.fpu fpv4-sp-d16
 1972              	xQueueGiveFromISR:
 1973              	.LFB19:
1072:Firmware/Middlewares/Third_Party/FreeRTOS/Source/queue.c **** /*-----------------------------------------------------------*/
1073:Firmware/Middlewares/Third_Party/FreeRTOS/Source/queue.c **** 
1074:Firmware/Middlewares/Third_Party/FreeRTOS/Source/queue.c **** BaseType_t xQueueGiveFromISR( QueueHandle_t xQueue, BaseType_t * const pxHigherPriorityTaskWoken )
1075:Firmware/Middlewares/Third_Party/FreeRTOS/Source/queue.c **** {
 1974              		.loc 1 1075 0
 1975              		.cfi_startproc
ARM GAS  /tmp/ccwOJcWw.s 			page 58


 1976              		@ args = 0, pretend = 0, frame = 56
 1977              		@ frame_needed = 1, uses_anonymous_args = 0
 1978 0000 80B5     		push	{r7, lr}
 1979              	.LCFI76:
 1980              		.cfi_def_cfa_offset 8
 1981              		.cfi_offset 7, -8
 1982              		.cfi_offset 14, -4
 1983 0002 8EB0     		sub	sp, sp, #56
 1984              	.LCFI77:
 1985              		.cfi_def_cfa_offset 64
 1986 0004 00AF     		add	r7, sp, #0
 1987              	.LCFI78:
 1988              		.cfi_def_cfa_register 7
 1989 0006 7860     		str	r0, [r7, #4]
 1990 0008 3960     		str	r1, [r7]
1076:Firmware/Middlewares/Third_Party/FreeRTOS/Source/queue.c **** BaseType_t xReturn;
1077:Firmware/Middlewares/Third_Party/FreeRTOS/Source/queue.c **** UBaseType_t uxSavedInterruptStatus;
1078:Firmware/Middlewares/Third_Party/FreeRTOS/Source/queue.c **** Queue_t * const pxQueue = ( Queue_t * ) xQueue;
 1991              		.loc 1 1078 0
 1992 000a 7B68     		ldr	r3, [r7, #4]
 1993 000c 3B63     		str	r3, [r7, #48]
1079:Firmware/Middlewares/Third_Party/FreeRTOS/Source/queue.c **** 
1080:Firmware/Middlewares/Third_Party/FreeRTOS/Source/queue.c **** 	/* Similar to xQueueGenericSendFromISR() but used with semaphores where the
1081:Firmware/Middlewares/Third_Party/FreeRTOS/Source/queue.c **** 	item size is 0.  Don't directly wake a task that was blocked on a queue
1082:Firmware/Middlewares/Third_Party/FreeRTOS/Source/queue.c **** 	read, instead return a flag to say whether a context switch is required or
1083:Firmware/Middlewares/Third_Party/FreeRTOS/Source/queue.c **** 	not (i.e. has a task with a higher priority than us been woken by this
1084:Firmware/Middlewares/Third_Party/FreeRTOS/Source/queue.c **** 	post). */
1085:Firmware/Middlewares/Third_Party/FreeRTOS/Source/queue.c **** 
1086:Firmware/Middlewares/Third_Party/FreeRTOS/Source/queue.c **** 	configASSERT( pxQueue );
 1994              		.loc 1 1086 0
 1995 000e 3B6B     		ldr	r3, [r7, #48]
 1996 0010 002B     		cmp	r3, #0
 1997 0012 09D1     		bne	.L138
 1998              	.LBB166:
 1999              	.LBB167:
 195:Firmware/Middlewares/Third_Party/FreeRTOS/Source/portable/GCC/ARM_CM4F/portmacro.h **** 	(
 2000              		.loc 2 195 0 discriminator 1
 2001              		.syntax unified
 2002              	@ 195 "Firmware/Middlewares/Third_Party/FreeRTOS/Source/portable/GCC/ARM_CM4F/portmacro.h" 1
 2003 0014 4FF05003 			mov r3, #80												
 2004 0018 83F31188 		msr basepri, r3											
 2005 001c BFF36F8F 		isb														
 2006 0020 BFF34F8F 		dsb														
 2007              	
 2008              	@ 0 "" 2
 2009              		.thumb
 2010              		.syntax unified
 2011 0024 3B62     		str	r3, [r7, #32]
 2012              	.L139:
 2013              	.LBE167:
 2014              	.LBE166:
 2015              		.loc 1 1086 0 discriminator 1
 2016 0026 FEE7     		b	.L139
 2017              	.L138:
1087:Firmware/Middlewares/Third_Party/FreeRTOS/Source/queue.c **** 
1088:Firmware/Middlewares/Third_Party/FreeRTOS/Source/queue.c **** 	/* xQueueGenericSendFromISR() should be used instead of xQueueGiveFromISR()
1089:Firmware/Middlewares/Third_Party/FreeRTOS/Source/queue.c **** 	if the item size is not 0. */
ARM GAS  /tmp/ccwOJcWw.s 			page 59


1090:Firmware/Middlewares/Third_Party/FreeRTOS/Source/queue.c **** 	configASSERT( pxQueue->uxItemSize == 0 );
 2018              		.loc 1 1090 0
 2019 0028 3B6B     		ldr	r3, [r7, #48]
 2020 002a 1B6C     		ldr	r3, [r3, #64]
 2021 002c 002B     		cmp	r3, #0
 2022 002e 09D0     		beq	.L140
 2023              	.LBB168:
 2024              	.LBB169:
 195:Firmware/Middlewares/Third_Party/FreeRTOS/Source/portable/GCC/ARM_CM4F/portmacro.h **** 	(
 2025              		.loc 2 195 0 discriminator 1
 2026              		.syntax unified
 2027              	@ 195 "Firmware/Middlewares/Third_Party/FreeRTOS/Source/portable/GCC/ARM_CM4F/portmacro.h" 1
 2028 0030 4FF05003 			mov r3, #80												
 2029 0034 83F31188 		msr basepri, r3											
 2030 0038 BFF36F8F 		isb														
 2031 003c BFF34F8F 		dsb														
 2032              	
 2033              	@ 0 "" 2
 2034              		.thumb
 2035              		.syntax unified
 2036 0040 FB61     		str	r3, [r7, #28]
 2037              	.L141:
 2038              	.LBE169:
 2039              	.LBE168:
 2040              		.loc 1 1090 0 discriminator 2
 2041 0042 FEE7     		b	.L141
 2042              	.L140:
1091:Firmware/Middlewares/Third_Party/FreeRTOS/Source/queue.c **** 
1092:Firmware/Middlewares/Third_Party/FreeRTOS/Source/queue.c **** 	/* Normally a mutex would not be given from an interrupt, especially if
1093:Firmware/Middlewares/Third_Party/FreeRTOS/Source/queue.c **** 	there is a mutex holder, as priority inheritance makes no sense for an
1094:Firmware/Middlewares/Third_Party/FreeRTOS/Source/queue.c **** 	interrupts, only tasks. */
1095:Firmware/Middlewares/Third_Party/FreeRTOS/Source/queue.c **** 	configASSERT( !( ( pxQueue->uxQueueType == queueQUEUE_IS_MUTEX ) && ( pxQueue->pxMutexHolder != NU
 2043              		.loc 1 1095 0
 2044 0044 3B6B     		ldr	r3, [r7, #48]
 2045 0046 1B68     		ldr	r3, [r3]
 2046 0048 002B     		cmp	r3, #0
 2047 004a 03D1     		bne	.L142
 2048              		.loc 1 1095 0 is_stmt 0 discriminator 2
 2049 004c 3B6B     		ldr	r3, [r7, #48]
 2050 004e 5B68     		ldr	r3, [r3, #4]
 2051 0050 002B     		cmp	r3, #0
 2052 0052 01D1     		bne	.L143
 2053              	.L142:
 2054              		.loc 1 1095 0 discriminator 3
 2055 0054 0123     		movs	r3, #1
 2056 0056 00E0     		b	.L144
 2057              	.L143:
 2058              		.loc 1 1095 0 discriminator 4
 2059 0058 0023     		movs	r3, #0
 2060              	.L144:
 2061              		.loc 1 1095 0 discriminator 6
 2062 005a 002B     		cmp	r3, #0
 2063 005c 09D1     		bne	.L145
 2064              	.LBB170:
 2065              	.LBB171:
 195:Firmware/Middlewares/Third_Party/FreeRTOS/Source/portable/GCC/ARM_CM4F/portmacro.h **** 	(
 2066              		.loc 2 195 0 is_stmt 1 discriminator 7
ARM GAS  /tmp/ccwOJcWw.s 			page 60


 2067              		.syntax unified
 2068              	@ 195 "Firmware/Middlewares/Third_Party/FreeRTOS/Source/portable/GCC/ARM_CM4F/portmacro.h" 1
 2069 005e 4FF05003 			mov r3, #80												
 2070 0062 83F31188 		msr basepri, r3											
 2071 0066 BFF36F8F 		isb														
 2072 006a BFF34F8F 		dsb														
 2073              	
 2074              	@ 0 "" 2
 2075              		.thumb
 2076              		.syntax unified
 2077 006e BB61     		str	r3, [r7, #24]
 2078              	.L146:
 2079              	.LBE171:
 2080              	.LBE170:
 2081              		.loc 1 1095 0 discriminator 3
 2082 0070 FEE7     		b	.L146
 2083              	.L145:
1096:Firmware/Middlewares/Third_Party/FreeRTOS/Source/queue.c **** 
1097:Firmware/Middlewares/Third_Party/FreeRTOS/Source/queue.c **** 	/* RTOS ports that support interrupt nesting have the concept of a maximum
1098:Firmware/Middlewares/Third_Party/FreeRTOS/Source/queue.c **** 	system call (or maximum API call) interrupt priority.  Interrupts that are
1099:Firmware/Middlewares/Third_Party/FreeRTOS/Source/queue.c **** 	above the maximum system call priority are kept permanently enabled, even
1100:Firmware/Middlewares/Third_Party/FreeRTOS/Source/queue.c **** 	when the RTOS kernel is in a critical section, but cannot make any calls to
1101:Firmware/Middlewares/Third_Party/FreeRTOS/Source/queue.c **** 	FreeRTOS API functions.  If configASSERT() is defined in FreeRTOSConfig.h
1102:Firmware/Middlewares/Third_Party/FreeRTOS/Source/queue.c **** 	then portASSERT_IF_INTERRUPT_PRIORITY_INVALID() will result in an assertion
1103:Firmware/Middlewares/Third_Party/FreeRTOS/Source/queue.c **** 	failure if a FreeRTOS API function is called from an interrupt that has been
1104:Firmware/Middlewares/Third_Party/FreeRTOS/Source/queue.c **** 	assigned a priority above the configured maximum system call priority.
1105:Firmware/Middlewares/Third_Party/FreeRTOS/Source/queue.c **** 	Only FreeRTOS functions that end in FromISR can be called from interrupts
1106:Firmware/Middlewares/Third_Party/FreeRTOS/Source/queue.c **** 	that have been assigned a priority at or (logically) below the maximum
1107:Firmware/Middlewares/Third_Party/FreeRTOS/Source/queue.c **** 	system call	interrupt priority.  FreeRTOS maintains a separate interrupt
1108:Firmware/Middlewares/Third_Party/FreeRTOS/Source/queue.c **** 	safe API to ensure interrupt entry is as fast and as simple as possible.
1109:Firmware/Middlewares/Third_Party/FreeRTOS/Source/queue.c **** 	More information (albeit Cortex-M specific) is provided on the following
1110:Firmware/Middlewares/Third_Party/FreeRTOS/Source/queue.c **** 	link: http://www.freertos.org/RTOS-Cortex-M3-M4.html */
1111:Firmware/Middlewares/Third_Party/FreeRTOS/Source/queue.c **** 	portASSERT_IF_INTERRUPT_PRIORITY_INVALID();
 2084              		.loc 1 1111 0
 2085 0072 FFF7FEFF 		bl	vPortValidateInterruptPriority
 2086              	.LBB172:
 2087              	.LBB173:
 211:Firmware/Middlewares/Third_Party/FreeRTOS/Source/portable/GCC/ARM_CM4F/portmacro.h **** 	(
 2088              		.loc 2 211 0
 2089              		.syntax unified
 2090              	@ 211 "Firmware/Middlewares/Third_Party/FreeRTOS/Source/portable/GCC/ARM_CM4F/portmacro.h" 1
 2091 0076 EFF31182 			mrs r2, basepri											
 2092 007a 4FF05003 		mov r3, #80												
 2093 007e 83F31188 		msr basepri, r3											
 2094 0082 BFF36F8F 		isb														
 2095 0086 BFF34F8F 		dsb														
 2096              	
 2097              	@ 0 "" 2
 2098              		.thumb
 2099              		.syntax unified
 2100 008a 7A61     		str	r2, [r7, #20]
 2101 008c 3B61     		str	r3, [r7, #16]
 223:Firmware/Middlewares/Third_Party/FreeRTOS/Source/portable/GCC/ARM_CM4F/portmacro.h **** }
 2102              		.loc 2 223 0
 2103 008e 7B69     		ldr	r3, [r7, #20]
 2104              	.LBE173:
 2105              	.LBE172:
ARM GAS  /tmp/ccwOJcWw.s 			page 61


1112:Firmware/Middlewares/Third_Party/FreeRTOS/Source/queue.c **** 
1113:Firmware/Middlewares/Third_Party/FreeRTOS/Source/queue.c **** 	uxSavedInterruptStatus = portSET_INTERRUPT_MASK_FROM_ISR();
 2106              		.loc 1 1113 0
 2107 0090 FB62     		str	r3, [r7, #44]
 2108              	.LBB174:
1114:Firmware/Middlewares/Third_Party/FreeRTOS/Source/queue.c **** 	{
1115:Firmware/Middlewares/Third_Party/FreeRTOS/Source/queue.c **** 		const UBaseType_t uxMessagesWaiting = pxQueue->uxMessagesWaiting;
 2109              		.loc 1 1115 0
 2110 0092 3B6B     		ldr	r3, [r7, #48]
 2111 0094 9B6B     		ldr	r3, [r3, #56]
 2112 0096 BB62     		str	r3, [r7, #40]
1116:Firmware/Middlewares/Third_Party/FreeRTOS/Source/queue.c **** 
1117:Firmware/Middlewares/Third_Party/FreeRTOS/Source/queue.c **** 		/* When the queue is used to implement a semaphore no data is ever
1118:Firmware/Middlewares/Third_Party/FreeRTOS/Source/queue.c **** 		moved through the queue but it is still valid to see if the queue 'has
1119:Firmware/Middlewares/Third_Party/FreeRTOS/Source/queue.c **** 		space'. */
1120:Firmware/Middlewares/Third_Party/FreeRTOS/Source/queue.c **** 		if( uxMessagesWaiting < pxQueue->uxLength )
 2113              		.loc 1 1120 0
 2114 0098 3B6B     		ldr	r3, [r7, #48]
 2115 009a DB6B     		ldr	r3, [r3, #60]
 2116 009c BA6A     		ldr	r2, [r7, #40]
 2117 009e 9A42     		cmp	r2, r3
 2118 00a0 2BD2     		bcs	.L148
 2119              	.LBB175:
1121:Firmware/Middlewares/Third_Party/FreeRTOS/Source/queue.c **** 		{
1122:Firmware/Middlewares/Third_Party/FreeRTOS/Source/queue.c **** 			const int8_t cTxLock = pxQueue->cTxLock;
 2120              		.loc 1 1122 0
 2121 00a2 3B6B     		ldr	r3, [r7, #48]
 2122 00a4 93F84530 		ldrb	r3, [r3, #69]
 2123 00a8 87F82730 		strb	r3, [r7, #39]
1123:Firmware/Middlewares/Third_Party/FreeRTOS/Source/queue.c **** 
1124:Firmware/Middlewares/Third_Party/FreeRTOS/Source/queue.c **** 			traceQUEUE_SEND_FROM_ISR( pxQueue );
1125:Firmware/Middlewares/Third_Party/FreeRTOS/Source/queue.c **** 
1126:Firmware/Middlewares/Third_Party/FreeRTOS/Source/queue.c **** 			/* A task can only have an inherited priority if it is a mutex
1127:Firmware/Middlewares/Third_Party/FreeRTOS/Source/queue.c **** 			holder - and if there is a mutex holder then the mutex cannot be
1128:Firmware/Middlewares/Third_Party/FreeRTOS/Source/queue.c **** 			given from an ISR.  As this is the ISR version of the function it
1129:Firmware/Middlewares/Third_Party/FreeRTOS/Source/queue.c **** 			can be assumed there is no mutex holder and no need to determine if
1130:Firmware/Middlewares/Third_Party/FreeRTOS/Source/queue.c **** 			priority disinheritance is needed.  Simply increase the count of
1131:Firmware/Middlewares/Third_Party/FreeRTOS/Source/queue.c **** 			messages (semaphores) available. */
1132:Firmware/Middlewares/Third_Party/FreeRTOS/Source/queue.c **** 			pxQueue->uxMessagesWaiting = uxMessagesWaiting + ( UBaseType_t ) 1;
 2124              		.loc 1 1132 0
 2125 00ac BB6A     		ldr	r3, [r7, #40]
 2126 00ae 5A1C     		adds	r2, r3, #1
 2127 00b0 3B6B     		ldr	r3, [r7, #48]
 2128 00b2 9A63     		str	r2, [r3, #56]
1133:Firmware/Middlewares/Third_Party/FreeRTOS/Source/queue.c **** 
1134:Firmware/Middlewares/Third_Party/FreeRTOS/Source/queue.c **** 			/* The event list is not altered if the queue is locked.  This will
1135:Firmware/Middlewares/Third_Party/FreeRTOS/Source/queue.c **** 			be done when the queue is unlocked later. */
1136:Firmware/Middlewares/Third_Party/FreeRTOS/Source/queue.c **** 			if( cTxLock == queueUNLOCKED )
 2129              		.loc 1 1136 0
 2130 00b4 97F92730 		ldrsb	r3, [r7, #39]
 2131 00b8 B3F1FF3F 		cmp	r3, #-1
 2132 00bc 12D1     		bne	.L149
1137:Firmware/Middlewares/Third_Party/FreeRTOS/Source/queue.c **** 			{
1138:Firmware/Middlewares/Third_Party/FreeRTOS/Source/queue.c **** 				#if ( configUSE_QUEUE_SETS == 1 )
1139:Firmware/Middlewares/Third_Party/FreeRTOS/Source/queue.c **** 				{
1140:Firmware/Middlewares/Third_Party/FreeRTOS/Source/queue.c **** 					if( pxQueue->pxQueueSetContainer != NULL )
1141:Firmware/Middlewares/Third_Party/FreeRTOS/Source/queue.c **** 					{
ARM GAS  /tmp/ccwOJcWw.s 			page 62


1142:Firmware/Middlewares/Third_Party/FreeRTOS/Source/queue.c **** 						if( prvNotifyQueueSetContainer( pxQueue, queueSEND_TO_BACK ) != pdFALSE )
1143:Firmware/Middlewares/Third_Party/FreeRTOS/Source/queue.c **** 						{
1144:Firmware/Middlewares/Third_Party/FreeRTOS/Source/queue.c **** 							/* The semaphore is a member of a queue set, and
1145:Firmware/Middlewares/Third_Party/FreeRTOS/Source/queue.c **** 							posting	to the queue set caused a higher priority
1146:Firmware/Middlewares/Third_Party/FreeRTOS/Source/queue.c **** 							task to	unblock.  A context switch is required. */
1147:Firmware/Middlewares/Third_Party/FreeRTOS/Source/queue.c **** 							if( pxHigherPriorityTaskWoken != NULL )
1148:Firmware/Middlewares/Third_Party/FreeRTOS/Source/queue.c **** 							{
1149:Firmware/Middlewares/Third_Party/FreeRTOS/Source/queue.c **** 								*pxHigherPriorityTaskWoken = pdTRUE;
1150:Firmware/Middlewares/Third_Party/FreeRTOS/Source/queue.c **** 							}
1151:Firmware/Middlewares/Third_Party/FreeRTOS/Source/queue.c **** 							else
1152:Firmware/Middlewares/Third_Party/FreeRTOS/Source/queue.c **** 							{
1153:Firmware/Middlewares/Third_Party/FreeRTOS/Source/queue.c **** 								mtCOVERAGE_TEST_MARKER();
1154:Firmware/Middlewares/Third_Party/FreeRTOS/Source/queue.c **** 							}
1155:Firmware/Middlewares/Third_Party/FreeRTOS/Source/queue.c **** 						}
1156:Firmware/Middlewares/Third_Party/FreeRTOS/Source/queue.c **** 						else
1157:Firmware/Middlewares/Third_Party/FreeRTOS/Source/queue.c **** 						{
1158:Firmware/Middlewares/Third_Party/FreeRTOS/Source/queue.c **** 							mtCOVERAGE_TEST_MARKER();
1159:Firmware/Middlewares/Third_Party/FreeRTOS/Source/queue.c **** 						}
1160:Firmware/Middlewares/Third_Party/FreeRTOS/Source/queue.c **** 					}
1161:Firmware/Middlewares/Third_Party/FreeRTOS/Source/queue.c **** 					else
1162:Firmware/Middlewares/Third_Party/FreeRTOS/Source/queue.c **** 					{
1163:Firmware/Middlewares/Third_Party/FreeRTOS/Source/queue.c **** 						if( listLIST_IS_EMPTY( &( pxQueue->xTasksWaitingToReceive ) ) == pdFALSE )
1164:Firmware/Middlewares/Third_Party/FreeRTOS/Source/queue.c **** 						{
1165:Firmware/Middlewares/Third_Party/FreeRTOS/Source/queue.c **** 							if( xTaskRemoveFromEventList( &( pxQueue->xTasksWaitingToReceive ) ) != pdFALSE )
1166:Firmware/Middlewares/Third_Party/FreeRTOS/Source/queue.c **** 							{
1167:Firmware/Middlewares/Third_Party/FreeRTOS/Source/queue.c **** 								/* The task waiting has a higher priority so
1168:Firmware/Middlewares/Third_Party/FreeRTOS/Source/queue.c **** 								record that a context switch is required. */
1169:Firmware/Middlewares/Third_Party/FreeRTOS/Source/queue.c **** 								if( pxHigherPriorityTaskWoken != NULL )
1170:Firmware/Middlewares/Third_Party/FreeRTOS/Source/queue.c **** 								{
1171:Firmware/Middlewares/Third_Party/FreeRTOS/Source/queue.c **** 									*pxHigherPriorityTaskWoken = pdTRUE;
1172:Firmware/Middlewares/Third_Party/FreeRTOS/Source/queue.c **** 								}
1173:Firmware/Middlewares/Third_Party/FreeRTOS/Source/queue.c **** 								else
1174:Firmware/Middlewares/Third_Party/FreeRTOS/Source/queue.c **** 								{
1175:Firmware/Middlewares/Third_Party/FreeRTOS/Source/queue.c **** 									mtCOVERAGE_TEST_MARKER();
1176:Firmware/Middlewares/Third_Party/FreeRTOS/Source/queue.c **** 								}
1177:Firmware/Middlewares/Third_Party/FreeRTOS/Source/queue.c **** 							}
1178:Firmware/Middlewares/Third_Party/FreeRTOS/Source/queue.c **** 							else
1179:Firmware/Middlewares/Third_Party/FreeRTOS/Source/queue.c **** 							{
1180:Firmware/Middlewares/Third_Party/FreeRTOS/Source/queue.c **** 								mtCOVERAGE_TEST_MARKER();
1181:Firmware/Middlewares/Third_Party/FreeRTOS/Source/queue.c **** 							}
1182:Firmware/Middlewares/Third_Party/FreeRTOS/Source/queue.c **** 						}
1183:Firmware/Middlewares/Third_Party/FreeRTOS/Source/queue.c **** 						else
1184:Firmware/Middlewares/Third_Party/FreeRTOS/Source/queue.c **** 						{
1185:Firmware/Middlewares/Third_Party/FreeRTOS/Source/queue.c **** 							mtCOVERAGE_TEST_MARKER();
1186:Firmware/Middlewares/Third_Party/FreeRTOS/Source/queue.c **** 						}
1187:Firmware/Middlewares/Third_Party/FreeRTOS/Source/queue.c **** 					}
1188:Firmware/Middlewares/Third_Party/FreeRTOS/Source/queue.c **** 				}
1189:Firmware/Middlewares/Third_Party/FreeRTOS/Source/queue.c **** 				#else /* configUSE_QUEUE_SETS */
1190:Firmware/Middlewares/Third_Party/FreeRTOS/Source/queue.c **** 				{
1191:Firmware/Middlewares/Third_Party/FreeRTOS/Source/queue.c **** 					if( listLIST_IS_EMPTY( &( pxQueue->xTasksWaitingToReceive ) ) == pdFALSE )
 2133              		.loc 1 1191 0
 2134 00be 3B6B     		ldr	r3, [r7, #48]
 2135 00c0 5B6A     		ldr	r3, [r3, #36]
 2136 00c2 002B     		cmp	r3, #0
 2137 00c4 16D0     		beq	.L150
1192:Firmware/Middlewares/Third_Party/FreeRTOS/Source/queue.c **** 					{
1193:Firmware/Middlewares/Third_Party/FreeRTOS/Source/queue.c **** 						if( xTaskRemoveFromEventList( &( pxQueue->xTasksWaitingToReceive ) ) != pdFALSE )
ARM GAS  /tmp/ccwOJcWw.s 			page 63


 2138              		.loc 1 1193 0
 2139 00c6 3B6B     		ldr	r3, [r7, #48]
 2140 00c8 2433     		adds	r3, r3, #36
 2141 00ca 1846     		mov	r0, r3
 2142 00cc FFF7FEFF 		bl	xTaskRemoveFromEventList
 2143 00d0 0346     		mov	r3, r0
 2144 00d2 002B     		cmp	r3, #0
 2145 00d4 0ED0     		beq	.L150
1194:Firmware/Middlewares/Third_Party/FreeRTOS/Source/queue.c **** 						{
1195:Firmware/Middlewares/Third_Party/FreeRTOS/Source/queue.c **** 							/* The task waiting has a higher priority so record that a
1196:Firmware/Middlewares/Third_Party/FreeRTOS/Source/queue.c **** 							context	switch is required. */
1197:Firmware/Middlewares/Third_Party/FreeRTOS/Source/queue.c **** 							if( pxHigherPriorityTaskWoken != NULL )
 2146              		.loc 1 1197 0
 2147 00d6 3B68     		ldr	r3, [r7]
 2148 00d8 002B     		cmp	r3, #0
 2149 00da 0BD0     		beq	.L150
1198:Firmware/Middlewares/Third_Party/FreeRTOS/Source/queue.c **** 							{
1199:Firmware/Middlewares/Third_Party/FreeRTOS/Source/queue.c **** 								*pxHigherPriorityTaskWoken = pdTRUE;
 2150              		.loc 1 1199 0
 2151 00dc 3B68     		ldr	r3, [r7]
 2152 00de 0122     		movs	r2, #1
 2153 00e0 1A60     		str	r2, [r3]
 2154 00e2 07E0     		b	.L150
 2155              	.L149:
1200:Firmware/Middlewares/Third_Party/FreeRTOS/Source/queue.c **** 							}
1201:Firmware/Middlewares/Third_Party/FreeRTOS/Source/queue.c **** 							else
1202:Firmware/Middlewares/Third_Party/FreeRTOS/Source/queue.c **** 							{
1203:Firmware/Middlewares/Third_Party/FreeRTOS/Source/queue.c **** 								mtCOVERAGE_TEST_MARKER();
1204:Firmware/Middlewares/Third_Party/FreeRTOS/Source/queue.c **** 							}
1205:Firmware/Middlewares/Third_Party/FreeRTOS/Source/queue.c **** 						}
1206:Firmware/Middlewares/Third_Party/FreeRTOS/Source/queue.c **** 						else
1207:Firmware/Middlewares/Third_Party/FreeRTOS/Source/queue.c **** 						{
1208:Firmware/Middlewares/Third_Party/FreeRTOS/Source/queue.c **** 							mtCOVERAGE_TEST_MARKER();
1209:Firmware/Middlewares/Third_Party/FreeRTOS/Source/queue.c **** 						}
1210:Firmware/Middlewares/Third_Party/FreeRTOS/Source/queue.c **** 					}
1211:Firmware/Middlewares/Third_Party/FreeRTOS/Source/queue.c **** 					else
1212:Firmware/Middlewares/Third_Party/FreeRTOS/Source/queue.c **** 					{
1213:Firmware/Middlewares/Third_Party/FreeRTOS/Source/queue.c **** 						mtCOVERAGE_TEST_MARKER();
1214:Firmware/Middlewares/Third_Party/FreeRTOS/Source/queue.c **** 					}
1215:Firmware/Middlewares/Third_Party/FreeRTOS/Source/queue.c **** 				}
1216:Firmware/Middlewares/Third_Party/FreeRTOS/Source/queue.c **** 				#endif /* configUSE_QUEUE_SETS */
1217:Firmware/Middlewares/Third_Party/FreeRTOS/Source/queue.c **** 			}
1218:Firmware/Middlewares/Third_Party/FreeRTOS/Source/queue.c **** 			else
1219:Firmware/Middlewares/Third_Party/FreeRTOS/Source/queue.c **** 			{
1220:Firmware/Middlewares/Third_Party/FreeRTOS/Source/queue.c **** 				/* Increment the lock count so the task that unlocks the queue
1221:Firmware/Middlewares/Third_Party/FreeRTOS/Source/queue.c **** 				knows that data was posted while it was locked. */
1222:Firmware/Middlewares/Third_Party/FreeRTOS/Source/queue.c **** 				pxQueue->cTxLock = ( int8_t ) ( cTxLock + 1 );
 2156              		.loc 1 1222 0
 2157 00e4 97F82730 		ldrb	r3, [r7, #39]	@ zero_extendqisi2
 2158 00e8 0133     		adds	r3, r3, #1
 2159 00ea DBB2     		uxtb	r3, r3
 2160 00ec 5AB2     		sxtb	r2, r3
 2161 00ee 3B6B     		ldr	r3, [r7, #48]
 2162 00f0 83F84520 		strb	r2, [r3, #69]
 2163              	.L150:
1223:Firmware/Middlewares/Third_Party/FreeRTOS/Source/queue.c **** 			}
1224:Firmware/Middlewares/Third_Party/FreeRTOS/Source/queue.c **** 
ARM GAS  /tmp/ccwOJcWw.s 			page 64


1225:Firmware/Middlewares/Third_Party/FreeRTOS/Source/queue.c **** 			xReturn = pdPASS;
 2164              		.loc 1 1225 0
 2165 00f4 0123     		movs	r3, #1
 2166 00f6 7B63     		str	r3, [r7, #52]
 2167              	.LBE175:
 2168 00f8 01E0     		b	.L151
 2169              	.L148:
1226:Firmware/Middlewares/Third_Party/FreeRTOS/Source/queue.c **** 		}
1227:Firmware/Middlewares/Third_Party/FreeRTOS/Source/queue.c **** 		else
1228:Firmware/Middlewares/Third_Party/FreeRTOS/Source/queue.c **** 		{
1229:Firmware/Middlewares/Third_Party/FreeRTOS/Source/queue.c **** 			traceQUEUE_SEND_FROM_ISR_FAILED( pxQueue );
1230:Firmware/Middlewares/Third_Party/FreeRTOS/Source/queue.c **** 			xReturn = errQUEUE_FULL;
 2170              		.loc 1 1230 0
 2171 00fa 0023     		movs	r3, #0
 2172 00fc 7B63     		str	r3, [r7, #52]
 2173              	.L151:
 2174 00fe FB6A     		ldr	r3, [r7, #44]
 2175 0100 FB60     		str	r3, [r7, #12]
 2176              	.LBE174:
 2177              	.LBB176:
 2178              	.LBB177:
 2179              		.loc 2 229 0
 2180 0102 FB68     		ldr	r3, [r7, #12]
 2181              		.syntax unified
 2182              	@ 229 "Firmware/Middlewares/Third_Party/FreeRTOS/Source/portable/GCC/ARM_CM4F/portmacro.h" 1
 2183 0104 83F31188 			msr basepri, r3	
 2184              	@ 0 "" 2
 2185              		.thumb
 2186              		.syntax unified
 2187              	.LBE177:
 2188              	.LBE176:
1231:Firmware/Middlewares/Third_Party/FreeRTOS/Source/queue.c **** 		}
1232:Firmware/Middlewares/Third_Party/FreeRTOS/Source/queue.c **** 	}
1233:Firmware/Middlewares/Third_Party/FreeRTOS/Source/queue.c **** 	portCLEAR_INTERRUPT_MASK_FROM_ISR( uxSavedInterruptStatus );
1234:Firmware/Middlewares/Third_Party/FreeRTOS/Source/queue.c **** 
1235:Firmware/Middlewares/Third_Party/FreeRTOS/Source/queue.c **** 	return xReturn;
 2189              		.loc 1 1235 0
 2190 0108 7B6B     		ldr	r3, [r7, #52]
1236:Firmware/Middlewares/Third_Party/FreeRTOS/Source/queue.c **** }
 2191              		.loc 1 1236 0
 2192 010a 1846     		mov	r0, r3
 2193 010c 3837     		adds	r7, r7, #56
 2194              	.LCFI79:
 2195              		.cfi_def_cfa_offset 8
 2196 010e BD46     		mov	sp, r7
 2197              	.LCFI80:
 2198              		.cfi_def_cfa_register 13
 2199              		@ sp needed
 2200 0110 80BD     		pop	{r7, pc}
 2201              		.cfi_endproc
 2202              	.LFE19:
 2204              		.section	.text.xQueueReceive,"ax",%progbits
 2205              		.align	1
 2206              		.global	xQueueReceive
 2207              		.syntax unified
 2208              		.thumb
 2209              		.thumb_func
ARM GAS  /tmp/ccwOJcWw.s 			page 65


 2210              		.fpu fpv4-sp-d16
 2212              	xQueueReceive:
 2213              	.LFB20:
1237:Firmware/Middlewares/Third_Party/FreeRTOS/Source/queue.c **** /*-----------------------------------------------------------*/
1238:Firmware/Middlewares/Third_Party/FreeRTOS/Source/queue.c **** 
1239:Firmware/Middlewares/Third_Party/FreeRTOS/Source/queue.c **** BaseType_t xQueueReceive( QueueHandle_t xQueue, void * const pvBuffer, TickType_t xTicksToWait )
1240:Firmware/Middlewares/Third_Party/FreeRTOS/Source/queue.c **** {
 2214              		.loc 1 1240 0
 2215              		.cfi_startproc
 2216              		@ args = 0, pretend = 0, frame = 48
 2217              		@ frame_needed = 1, uses_anonymous_args = 0
 2218 0000 80B5     		push	{r7, lr}
 2219              	.LCFI81:
 2220              		.cfi_def_cfa_offset 8
 2221              		.cfi_offset 7, -8
 2222              		.cfi_offset 14, -4
 2223 0002 8CB0     		sub	sp, sp, #48
 2224              	.LCFI82:
 2225              		.cfi_def_cfa_offset 56
 2226 0004 00AF     		add	r7, sp, #0
 2227              	.LCFI83:
 2228              		.cfi_def_cfa_register 7
 2229 0006 F860     		str	r0, [r7, #12]
 2230 0008 B960     		str	r1, [r7, #8]
 2231 000a 7A60     		str	r2, [r7, #4]
1241:Firmware/Middlewares/Third_Party/FreeRTOS/Source/queue.c **** BaseType_t xEntryTimeSet = pdFALSE;
 2232              		.loc 1 1241 0
 2233 000c 0023     		movs	r3, #0
 2234 000e FB62     		str	r3, [r7, #44]
1242:Firmware/Middlewares/Third_Party/FreeRTOS/Source/queue.c **** TimeOut_t xTimeOut;
1243:Firmware/Middlewares/Third_Party/FreeRTOS/Source/queue.c **** Queue_t * const pxQueue = ( Queue_t * ) xQueue;
 2235              		.loc 1 1243 0
 2236 0010 FB68     		ldr	r3, [r7, #12]
 2237 0012 BB62     		str	r3, [r7, #40]
1244:Firmware/Middlewares/Third_Party/FreeRTOS/Source/queue.c **** 
1245:Firmware/Middlewares/Third_Party/FreeRTOS/Source/queue.c **** 	/* Check the pointer is not NULL. */
1246:Firmware/Middlewares/Third_Party/FreeRTOS/Source/queue.c **** 	configASSERT( ( pxQueue ) );
 2238              		.loc 1 1246 0
 2239 0014 BB6A     		ldr	r3, [r7, #40]
 2240 0016 002B     		cmp	r3, #0
 2241 0018 09D1     		bne	.L154
 2242              	.LBB178:
 2243              	.LBB179:
 195:Firmware/Middlewares/Third_Party/FreeRTOS/Source/portable/GCC/ARM_CM4F/portmacro.h **** 	(
 2244              		.loc 2 195 0 discriminator 1
 2245              		.syntax unified
 2246              	@ 195 "Firmware/Middlewares/Third_Party/FreeRTOS/Source/portable/GCC/ARM_CM4F/portmacro.h" 1
 2247 001a 4FF05003 			mov r3, #80												
 2248 001e 83F31188 		msr basepri, r3											
 2249 0022 BFF36F8F 		isb														
 2250 0026 BFF34F8F 		dsb														
 2251              	
 2252              	@ 0 "" 2
 2253              		.thumb
 2254              		.syntax unified
 2255 002a 3B62     		str	r3, [r7, #32]
 2256              	.L155:
ARM GAS  /tmp/ccwOJcWw.s 			page 66


 2257              	.LBE179:
 2258              	.LBE178:
 2259              		.loc 1 1246 0 discriminator 1
 2260 002c FEE7     		b	.L155
 2261              	.L154:
1247:Firmware/Middlewares/Third_Party/FreeRTOS/Source/queue.c **** 
1248:Firmware/Middlewares/Third_Party/FreeRTOS/Source/queue.c **** 	/* The buffer into which data is received can only be NULL if the data size
1249:Firmware/Middlewares/Third_Party/FreeRTOS/Source/queue.c **** 	is zero (so no data is copied into the buffer. */
1250:Firmware/Middlewares/Third_Party/FreeRTOS/Source/queue.c **** 	configASSERT( !( ( ( pvBuffer ) == NULL ) && ( ( pxQueue )->uxItemSize != ( UBaseType_t ) 0U ) ) )
 2262              		.loc 1 1250 0
 2263 002e BB68     		ldr	r3, [r7, #8]
 2264 0030 002B     		cmp	r3, #0
 2265 0032 03D1     		bne	.L156
 2266              		.loc 1 1250 0 is_stmt 0 discriminator 2
 2267 0034 BB6A     		ldr	r3, [r7, #40]
 2268 0036 1B6C     		ldr	r3, [r3, #64]
 2269 0038 002B     		cmp	r3, #0
 2270 003a 01D1     		bne	.L157
 2271              	.L156:
 2272              		.loc 1 1250 0 discriminator 3
 2273 003c 0123     		movs	r3, #1
 2274 003e 00E0     		b	.L158
 2275              	.L157:
 2276              		.loc 1 1250 0 discriminator 4
 2277 0040 0023     		movs	r3, #0
 2278              	.L158:
 2279              		.loc 1 1250 0 discriminator 6
 2280 0042 002B     		cmp	r3, #0
 2281 0044 09D1     		bne	.L159
 2282              	.LBB180:
 2283              	.LBB181:
 195:Firmware/Middlewares/Third_Party/FreeRTOS/Source/portable/GCC/ARM_CM4F/portmacro.h **** 	(
 2284              		.loc 2 195 0 is_stmt 1 discriminator 7
 2285              		.syntax unified
 2286              	@ 195 "Firmware/Middlewares/Third_Party/FreeRTOS/Source/portable/GCC/ARM_CM4F/portmacro.h" 1
 2287 0046 4FF05003 			mov r3, #80												
 2288 004a 83F31188 		msr basepri, r3											
 2289 004e BFF36F8F 		isb														
 2290 0052 BFF34F8F 		dsb														
 2291              	
 2292              	@ 0 "" 2
 2293              		.thumb
 2294              		.syntax unified
 2295 0056 FB61     		str	r3, [r7, #28]
 2296              	.L160:
 2297              	.LBE181:
 2298              	.LBE180:
 2299              		.loc 1 1250 0 discriminator 2
 2300 0058 FEE7     		b	.L160
 2301              	.L159:
1251:Firmware/Middlewares/Third_Party/FreeRTOS/Source/queue.c **** 
1252:Firmware/Middlewares/Third_Party/FreeRTOS/Source/queue.c **** 	/* Cannot block if the scheduler is suspended. */
1253:Firmware/Middlewares/Third_Party/FreeRTOS/Source/queue.c **** 	#if ( ( INCLUDE_xTaskGetSchedulerState == 1 ) || ( configUSE_TIMERS == 1 ) )
1254:Firmware/Middlewares/Third_Party/FreeRTOS/Source/queue.c **** 	{
1255:Firmware/Middlewares/Third_Party/FreeRTOS/Source/queue.c **** 		configASSERT( !( ( xTaskGetSchedulerState() == taskSCHEDULER_SUSPENDED ) && ( xTicksToWait != 0 )
 2302              		.loc 1 1255 0
 2303 005a FFF7FEFF 		bl	xTaskGetSchedulerState
ARM GAS  /tmp/ccwOJcWw.s 			page 67


 2304 005e 0346     		mov	r3, r0
 2305 0060 002B     		cmp	r3, #0
 2306 0062 02D1     		bne	.L161
 2307              		.loc 1 1255 0 is_stmt 0 discriminator 2
 2308 0064 7B68     		ldr	r3, [r7, #4]
 2309 0066 002B     		cmp	r3, #0
 2310 0068 01D1     		bne	.L162
 2311              	.L161:
 2312              		.loc 1 1255 0 discriminator 3
 2313 006a 0123     		movs	r3, #1
 2314 006c 00E0     		b	.L163
 2315              	.L162:
 2316              		.loc 1 1255 0 discriminator 4
 2317 006e 0023     		movs	r3, #0
 2318              	.L163:
 2319              		.loc 1 1255 0 discriminator 6
 2320 0070 002B     		cmp	r3, #0
 2321 0072 09D1     		bne	.L164
 2322              	.LBB182:
 2323              	.LBB183:
 195:Firmware/Middlewares/Third_Party/FreeRTOS/Source/portable/GCC/ARM_CM4F/portmacro.h **** 	(
 2324              		.loc 2 195 0 is_stmt 1 discriminator 7
 2325              		.syntax unified
 2326              	@ 195 "Firmware/Middlewares/Third_Party/FreeRTOS/Source/portable/GCC/ARM_CM4F/portmacro.h" 1
 2327 0074 4FF05003 			mov r3, #80												
 2328 0078 83F31188 		msr basepri, r3											
 2329 007c BFF36F8F 		isb														
 2330 0080 BFF34F8F 		dsb														
 2331              	
 2332              	@ 0 "" 2
 2333              		.thumb
 2334              		.syntax unified
 2335 0084 BB61     		str	r3, [r7, #24]
 2336              	.L165:
 2337              	.LBE183:
 2338              	.LBE182:
 2339              		.loc 1 1255 0 discriminator 3
 2340 0086 FEE7     		b	.L165
 2341              	.L164:
1256:Firmware/Middlewares/Third_Party/FreeRTOS/Source/queue.c **** 	}
1257:Firmware/Middlewares/Third_Party/FreeRTOS/Source/queue.c **** 	#endif
1258:Firmware/Middlewares/Third_Party/FreeRTOS/Source/queue.c **** 
1259:Firmware/Middlewares/Third_Party/FreeRTOS/Source/queue.c **** 	/* This function relaxes the coding standard somewhat to allow return
1260:Firmware/Middlewares/Third_Party/FreeRTOS/Source/queue.c **** 	statements within the function itself.  This is done in the interest
1261:Firmware/Middlewares/Third_Party/FreeRTOS/Source/queue.c **** 	of execution time efficiency. */
1262:Firmware/Middlewares/Third_Party/FreeRTOS/Source/queue.c **** 
1263:Firmware/Middlewares/Third_Party/FreeRTOS/Source/queue.c **** 	for( ;; )
1264:Firmware/Middlewares/Third_Party/FreeRTOS/Source/queue.c **** 	{
1265:Firmware/Middlewares/Third_Party/FreeRTOS/Source/queue.c **** 		taskENTER_CRITICAL();
 2342              		.loc 1 1265 0
 2343 0088 FFF7FEFF 		bl	vPortEnterCritical
 2344              	.LBB184:
1266:Firmware/Middlewares/Third_Party/FreeRTOS/Source/queue.c **** 		{
1267:Firmware/Middlewares/Third_Party/FreeRTOS/Source/queue.c **** 			const UBaseType_t uxMessagesWaiting = pxQueue->uxMessagesWaiting;
 2345              		.loc 1 1267 0
 2346 008c BB6A     		ldr	r3, [r7, #40]
 2347 008e 9B6B     		ldr	r3, [r3, #56]
ARM GAS  /tmp/ccwOJcWw.s 			page 68


 2348 0090 7B62     		str	r3, [r7, #36]
1268:Firmware/Middlewares/Third_Party/FreeRTOS/Source/queue.c **** 
1269:Firmware/Middlewares/Third_Party/FreeRTOS/Source/queue.c **** 			/* Is there data in the queue now?  To be running the calling task
1270:Firmware/Middlewares/Third_Party/FreeRTOS/Source/queue.c **** 			must be the highest priority task wanting to access the queue. */
1271:Firmware/Middlewares/Third_Party/FreeRTOS/Source/queue.c **** 			if( uxMessagesWaiting > ( UBaseType_t ) 0 )
 2349              		.loc 1 1271 0
 2350 0092 7B6A     		ldr	r3, [r7, #36]
 2351 0094 002B     		cmp	r3, #0
 2352 0096 1FD0     		beq	.L166
1272:Firmware/Middlewares/Third_Party/FreeRTOS/Source/queue.c **** 			{
1273:Firmware/Middlewares/Third_Party/FreeRTOS/Source/queue.c **** 				/* Data available, remove one item. */
1274:Firmware/Middlewares/Third_Party/FreeRTOS/Source/queue.c **** 				prvCopyDataFromQueue( pxQueue, pvBuffer );
 2353              		.loc 1 1274 0
 2354 0098 B968     		ldr	r1, [r7, #8]
 2355 009a B86A     		ldr	r0, [r7, #40]
 2356 009c FFF7FEFF 		bl	prvCopyDataFromQueue
1275:Firmware/Middlewares/Third_Party/FreeRTOS/Source/queue.c **** 				traceQUEUE_RECEIVE( pxQueue );
1276:Firmware/Middlewares/Third_Party/FreeRTOS/Source/queue.c **** 				pxQueue->uxMessagesWaiting = uxMessagesWaiting - ( UBaseType_t ) 1;
 2357              		.loc 1 1276 0
 2358 00a0 7B6A     		ldr	r3, [r7, #36]
 2359 00a2 5A1E     		subs	r2, r3, #1
 2360 00a4 BB6A     		ldr	r3, [r7, #40]
 2361 00a6 9A63     		str	r2, [r3, #56]
1277:Firmware/Middlewares/Third_Party/FreeRTOS/Source/queue.c **** 
1278:Firmware/Middlewares/Third_Party/FreeRTOS/Source/queue.c **** 				/* There is now space in the queue, were any tasks waiting to
1279:Firmware/Middlewares/Third_Party/FreeRTOS/Source/queue.c **** 				post to the queue?  If so, unblock the highest priority waiting
1280:Firmware/Middlewares/Third_Party/FreeRTOS/Source/queue.c **** 				task. */
1281:Firmware/Middlewares/Third_Party/FreeRTOS/Source/queue.c **** 				if( listLIST_IS_EMPTY( &( pxQueue->xTasksWaitingToSend ) ) == pdFALSE )
 2362              		.loc 1 1281 0
 2363 00a8 BB6A     		ldr	r3, [r7, #40]
 2364 00aa 1B69     		ldr	r3, [r3, #16]
 2365 00ac 002B     		cmp	r3, #0
 2366 00ae 0FD0     		beq	.L167
1282:Firmware/Middlewares/Third_Party/FreeRTOS/Source/queue.c **** 				{
1283:Firmware/Middlewares/Third_Party/FreeRTOS/Source/queue.c **** 					if( xTaskRemoveFromEventList( &( pxQueue->xTasksWaitingToSend ) ) != pdFALSE )
 2367              		.loc 1 1283 0
 2368 00b0 BB6A     		ldr	r3, [r7, #40]
 2369 00b2 1033     		adds	r3, r3, #16
 2370 00b4 1846     		mov	r0, r3
 2371 00b6 FFF7FEFF 		bl	xTaskRemoveFromEventList
 2372 00ba 0346     		mov	r3, r0
 2373 00bc 002B     		cmp	r3, #0
 2374 00be 07D0     		beq	.L167
1284:Firmware/Middlewares/Third_Party/FreeRTOS/Source/queue.c **** 					{
1285:Firmware/Middlewares/Third_Party/FreeRTOS/Source/queue.c **** 						queueYIELD_IF_USING_PREEMPTION();
 2375              		.loc 1 1285 0
 2376 00c0 3C4B     		ldr	r3, .L178
 2377 00c2 4FF08052 		mov	r2, #268435456
 2378 00c6 1A60     		str	r2, [r3]
 2379              		.syntax unified
 2380              	@ 1285 "Firmware/Middlewares/Third_Party/FreeRTOS/Source/queue.c" 1
 2381 00c8 BFF34F8F 		dsb
 2382              	@ 0 "" 2
 2383              	@ 1285 "Firmware/Middlewares/Third_Party/FreeRTOS/Source/queue.c" 1
 2384 00cc BFF36F8F 		isb
 2385              	@ 0 "" 2
 2386              		.thumb
ARM GAS  /tmp/ccwOJcWw.s 			page 69


 2387              		.syntax unified
 2388              	.L167:
