ARM GAS  /tmp/ccGpM9Aw.s 			page 1


   1              		.cpu cortex-m4
   2              		.eabi_attribute 27, 1
   3              		.eabi_attribute 28, 1
   4              		.eabi_attribute 20, 1
   5              		.eabi_attribute 21, 1
   6              		.eabi_attribute 23, 3
   7              		.eabi_attribute 24, 1
   8              		.eabi_attribute 25, 1
   9              		.eabi_attribute 26, 1
  10              		.eabi_attribute 30, 6
  11              		.eabi_attribute 34, 1
  12              		.eabi_attribute 18, 4
  13              		.file	"scr_systick.cpp"
  14              		.text
  15              	.Ltext0:
  16              		.cfi_sections	.debug_frame
  17              		.section	.rodata._ZStL19piecewise_construct,"a",%progbits
  18              		.align	2
  21              	_ZStL19piecewise_construct:
  22 0000 00       		.space	1
  23              		.section	.text._ZL20__gthread_key_deletei,"ax",%progbits
  24              		.align	1
  25              		.syntax unified
  26              		.thumb
  27              		.thumb_func
  28              		.fpu fpv4-sp-d16
  30              	_ZL20__gthread_key_deletei:
  31              	.LFB584:
  32              		.file 1 "/home/zht/stm32tools/arm-gcc/arm-none-eabi/include/c++/7.3.1/arm-none-eabi/thumb/v7e-m/fp
   1:/home/zht/stm32tools/arm-gcc/arm-none-eabi/include/c++/7.3.1/arm-none-eabi/thumb/v7e-m/fpv4-sp/hard/bits/gthr-default.h **** /* Threads compatibility routines for libgcc2 and libobjc.  */
   2:/home/zht/stm32tools/arm-gcc/arm-none-eabi/include/c++/7.3.1/arm-none-eabi/thumb/v7e-m/fpv4-sp/hard/bits/gthr-default.h **** /* Compile this one with gcc.  */
   3:/home/zht/stm32tools/arm-gcc/arm-none-eabi/include/c++/7.3.1/arm-none-eabi/thumb/v7e-m/fpv4-sp/hard/bits/gthr-default.h **** /* Copyright (C) 1997-2017 Free Software Foundation, Inc.
   4:/home/zht/stm32tools/arm-gcc/arm-none-eabi/include/c++/7.3.1/arm-none-eabi/thumb/v7e-m/fpv4-sp/hard/bits/gthr-default.h **** 
   5:/home/zht/stm32tools/arm-gcc/arm-none-eabi/include/c++/7.3.1/arm-none-eabi/thumb/v7e-m/fpv4-sp/hard/bits/gthr-default.h **** This file is part of GCC.
   6:/home/zht/stm32tools/arm-gcc/arm-none-eabi/include/c++/7.3.1/arm-none-eabi/thumb/v7e-m/fpv4-sp/hard/bits/gthr-default.h **** 
   7:/home/zht/stm32tools/arm-gcc/arm-none-eabi/include/c++/7.3.1/arm-none-eabi/thumb/v7e-m/fpv4-sp/hard/bits/gthr-default.h **** GCC is free software; you can redistribute it and/or modify it under
   8:/home/zht/stm32tools/arm-gcc/arm-none-eabi/include/c++/7.3.1/arm-none-eabi/thumb/v7e-m/fpv4-sp/hard/bits/gthr-default.h **** the terms of the GNU General Public License as published by the Free
   9:/home/zht/stm32tools/arm-gcc/arm-none-eabi/include/c++/7.3.1/arm-none-eabi/thumb/v7e-m/fpv4-sp/hard/bits/gthr-default.h **** Software Foundation; either version 3, or (at your option) any later
  10:/home/zht/stm32tools/arm-gcc/arm-none-eabi/include/c++/7.3.1/arm-none-eabi/thumb/v7e-m/fpv4-sp/hard/bits/gthr-default.h **** version.
  11:/home/zht/stm32tools/arm-gcc/arm-none-eabi/include/c++/7.3.1/arm-none-eabi/thumb/v7e-m/fpv4-sp/hard/bits/gthr-default.h **** 
  12:/home/zht/stm32tools/arm-gcc/arm-none-eabi/include/c++/7.3.1/arm-none-eabi/thumb/v7e-m/fpv4-sp/hard/bits/gthr-default.h **** GCC is distributed in the hope that it will be useful, but WITHOUT ANY
  13:/home/zht/stm32tools/arm-gcc/arm-none-eabi/include/c++/7.3.1/arm-none-eabi/thumb/v7e-m/fpv4-sp/hard/bits/gthr-default.h **** WARRANTY; without even the implied warranty of MERCHANTABILITY or
  14:/home/zht/stm32tools/arm-gcc/arm-none-eabi/include/c++/7.3.1/arm-none-eabi/thumb/v7e-m/fpv4-sp/hard/bits/gthr-default.h **** FITNESS FOR A PARTICULAR PURPOSE.  See the GNU General Public License
  15:/home/zht/stm32tools/arm-gcc/arm-none-eabi/include/c++/7.3.1/arm-none-eabi/thumb/v7e-m/fpv4-sp/hard/bits/gthr-default.h **** for more details.
  16:/home/zht/stm32tools/arm-gcc/arm-none-eabi/include/c++/7.3.1/arm-none-eabi/thumb/v7e-m/fpv4-sp/hard/bits/gthr-default.h **** 
  17:/home/zht/stm32tools/arm-gcc/arm-none-eabi/include/c++/7.3.1/arm-none-eabi/thumb/v7e-m/fpv4-sp/hard/bits/gthr-default.h **** Under Section 7 of GPL version 3, you are granted additional
  18:/home/zht/stm32tools/arm-gcc/arm-none-eabi/include/c++/7.3.1/arm-none-eabi/thumb/v7e-m/fpv4-sp/hard/bits/gthr-default.h **** permissions described in the GCC Runtime Library Exception, version
  19:/home/zht/stm32tools/arm-gcc/arm-none-eabi/include/c++/7.3.1/arm-none-eabi/thumb/v7e-m/fpv4-sp/hard/bits/gthr-default.h **** 3.1, as published by the Free Software Foundation.
  20:/home/zht/stm32tools/arm-gcc/arm-none-eabi/include/c++/7.3.1/arm-none-eabi/thumb/v7e-m/fpv4-sp/hard/bits/gthr-default.h **** 
  21:/home/zht/stm32tools/arm-gcc/arm-none-eabi/include/c++/7.3.1/arm-none-eabi/thumb/v7e-m/fpv4-sp/hard/bits/gthr-default.h **** You should have received a copy of the GNU General Public License and
  22:/home/zht/stm32tools/arm-gcc/arm-none-eabi/include/c++/7.3.1/arm-none-eabi/thumb/v7e-m/fpv4-sp/hard/bits/gthr-default.h **** a copy of the GCC Runtime Library Exception along with this program;
  23:/home/zht/stm32tools/arm-gcc/arm-none-eabi/include/c++/7.3.1/arm-none-eabi/thumb/v7e-m/fpv4-sp/hard/bits/gthr-default.h **** see the files COPYING3 and COPYING.RUNTIME respectively.  If not, see
  24:/home/zht/stm32tools/arm-gcc/arm-none-eabi/include/c++/7.3.1/arm-none-eabi/thumb/v7e-m/fpv4-sp/hard/bits/gthr-default.h **** <http://www.gnu.org/licenses/>.  */
  25:/home/zht/stm32tools/arm-gcc/arm-none-eabi/include/c++/7.3.1/arm-none-eabi/thumb/v7e-m/fpv4-sp/hard/bits/gthr-default.h **** 
  26:/home/zht/stm32tools/arm-gcc/arm-none-eabi/include/c++/7.3.1/arm-none-eabi/thumb/v7e-m/fpv4-sp/hard/bits/gthr-default.h **** #ifndef _GLIBCXX_GCC_GTHR_SINGLE_H
  27:/home/zht/stm32tools/arm-gcc/arm-none-eabi/include/c++/7.3.1/arm-none-eabi/thumb/v7e-m/fpv4-sp/hard/bits/gthr-default.h **** #define _GLIBCXX_GCC_GTHR_SINGLE_H
  28:/home/zht/stm32tools/arm-gcc/arm-none-eabi/include/c++/7.3.1/arm-none-eabi/thumb/v7e-m/fpv4-sp/hard/bits/gthr-default.h **** 
ARM GAS  /tmp/ccGpM9Aw.s 			page 2


  29:/home/zht/stm32tools/arm-gcc/arm-none-eabi/include/c++/7.3.1/arm-none-eabi/thumb/v7e-m/fpv4-sp/hard/bits/gthr-default.h **** /* Just provide compatibility for mutex handling.  */
  30:/home/zht/stm32tools/arm-gcc/arm-none-eabi/include/c++/7.3.1/arm-none-eabi/thumb/v7e-m/fpv4-sp/hard/bits/gthr-default.h **** 
  31:/home/zht/stm32tools/arm-gcc/arm-none-eabi/include/c++/7.3.1/arm-none-eabi/thumb/v7e-m/fpv4-sp/hard/bits/gthr-default.h **** typedef int __gthread_key_t;
  32:/home/zht/stm32tools/arm-gcc/arm-none-eabi/include/c++/7.3.1/arm-none-eabi/thumb/v7e-m/fpv4-sp/hard/bits/gthr-default.h **** typedef int __gthread_once_t;
  33:/home/zht/stm32tools/arm-gcc/arm-none-eabi/include/c++/7.3.1/arm-none-eabi/thumb/v7e-m/fpv4-sp/hard/bits/gthr-default.h **** typedef int __gthread_mutex_t;
  34:/home/zht/stm32tools/arm-gcc/arm-none-eabi/include/c++/7.3.1/arm-none-eabi/thumb/v7e-m/fpv4-sp/hard/bits/gthr-default.h **** typedef int __gthread_recursive_mutex_t;
  35:/home/zht/stm32tools/arm-gcc/arm-none-eabi/include/c++/7.3.1/arm-none-eabi/thumb/v7e-m/fpv4-sp/hard/bits/gthr-default.h **** 
  36:/home/zht/stm32tools/arm-gcc/arm-none-eabi/include/c++/7.3.1/arm-none-eabi/thumb/v7e-m/fpv4-sp/hard/bits/gthr-default.h **** #define __GTHREAD_ONCE_INIT 0
  37:/home/zht/stm32tools/arm-gcc/arm-none-eabi/include/c++/7.3.1/arm-none-eabi/thumb/v7e-m/fpv4-sp/hard/bits/gthr-default.h **** #define __GTHREAD_MUTEX_INIT 0
  38:/home/zht/stm32tools/arm-gcc/arm-none-eabi/include/c++/7.3.1/arm-none-eabi/thumb/v7e-m/fpv4-sp/hard/bits/gthr-default.h **** #define __GTHREAD_MUTEX_INIT_FUNCTION(mx) do {} while (0)
  39:/home/zht/stm32tools/arm-gcc/arm-none-eabi/include/c++/7.3.1/arm-none-eabi/thumb/v7e-m/fpv4-sp/hard/bits/gthr-default.h **** #define __GTHREAD_RECURSIVE_MUTEX_INIT 0
  40:/home/zht/stm32tools/arm-gcc/arm-none-eabi/include/c++/7.3.1/arm-none-eabi/thumb/v7e-m/fpv4-sp/hard/bits/gthr-default.h **** 
  41:/home/zht/stm32tools/arm-gcc/arm-none-eabi/include/c++/7.3.1/arm-none-eabi/thumb/v7e-m/fpv4-sp/hard/bits/gthr-default.h **** #define _GLIBCXX_UNUSED __attribute__((__unused__))
  42:/home/zht/stm32tools/arm-gcc/arm-none-eabi/include/c++/7.3.1/arm-none-eabi/thumb/v7e-m/fpv4-sp/hard/bits/gthr-default.h **** 
  43:/home/zht/stm32tools/arm-gcc/arm-none-eabi/include/c++/7.3.1/arm-none-eabi/thumb/v7e-m/fpv4-sp/hard/bits/gthr-default.h **** #ifdef _LIBOBJC
  44:/home/zht/stm32tools/arm-gcc/arm-none-eabi/include/c++/7.3.1/arm-none-eabi/thumb/v7e-m/fpv4-sp/hard/bits/gthr-default.h **** 
  45:/home/zht/stm32tools/arm-gcc/arm-none-eabi/include/c++/7.3.1/arm-none-eabi/thumb/v7e-m/fpv4-sp/hard/bits/gthr-default.h **** /* Thread local storage for a single thread */
  46:/home/zht/stm32tools/arm-gcc/arm-none-eabi/include/c++/7.3.1/arm-none-eabi/thumb/v7e-m/fpv4-sp/hard/bits/gthr-default.h **** static void *thread_local_storage = NULL;
  47:/home/zht/stm32tools/arm-gcc/arm-none-eabi/include/c++/7.3.1/arm-none-eabi/thumb/v7e-m/fpv4-sp/hard/bits/gthr-default.h **** 
  48:/home/zht/stm32tools/arm-gcc/arm-none-eabi/include/c++/7.3.1/arm-none-eabi/thumb/v7e-m/fpv4-sp/hard/bits/gthr-default.h **** /* Backend initialization functions */
  49:/home/zht/stm32tools/arm-gcc/arm-none-eabi/include/c++/7.3.1/arm-none-eabi/thumb/v7e-m/fpv4-sp/hard/bits/gthr-default.h **** 
  50:/home/zht/stm32tools/arm-gcc/arm-none-eabi/include/c++/7.3.1/arm-none-eabi/thumb/v7e-m/fpv4-sp/hard/bits/gthr-default.h **** /* Initialize the threads subsystem.  */
  51:/home/zht/stm32tools/arm-gcc/arm-none-eabi/include/c++/7.3.1/arm-none-eabi/thumb/v7e-m/fpv4-sp/hard/bits/gthr-default.h **** static inline int
  52:/home/zht/stm32tools/arm-gcc/arm-none-eabi/include/c++/7.3.1/arm-none-eabi/thumb/v7e-m/fpv4-sp/hard/bits/gthr-default.h **** __gthread_objc_init_thread_system (void)
  53:/home/zht/stm32tools/arm-gcc/arm-none-eabi/include/c++/7.3.1/arm-none-eabi/thumb/v7e-m/fpv4-sp/hard/bits/gthr-default.h **** {
  54:/home/zht/stm32tools/arm-gcc/arm-none-eabi/include/c++/7.3.1/arm-none-eabi/thumb/v7e-m/fpv4-sp/hard/bits/gthr-default.h ****   /* No thread support available */
  55:/home/zht/stm32tools/arm-gcc/arm-none-eabi/include/c++/7.3.1/arm-none-eabi/thumb/v7e-m/fpv4-sp/hard/bits/gthr-default.h ****   return -1;
  56:/home/zht/stm32tools/arm-gcc/arm-none-eabi/include/c++/7.3.1/arm-none-eabi/thumb/v7e-m/fpv4-sp/hard/bits/gthr-default.h **** }
  57:/home/zht/stm32tools/arm-gcc/arm-none-eabi/include/c++/7.3.1/arm-none-eabi/thumb/v7e-m/fpv4-sp/hard/bits/gthr-default.h **** 
  58:/home/zht/stm32tools/arm-gcc/arm-none-eabi/include/c++/7.3.1/arm-none-eabi/thumb/v7e-m/fpv4-sp/hard/bits/gthr-default.h **** /* Close the threads subsystem.  */
  59:/home/zht/stm32tools/arm-gcc/arm-none-eabi/include/c++/7.3.1/arm-none-eabi/thumb/v7e-m/fpv4-sp/hard/bits/gthr-default.h **** static inline int
  60:/home/zht/stm32tools/arm-gcc/arm-none-eabi/include/c++/7.3.1/arm-none-eabi/thumb/v7e-m/fpv4-sp/hard/bits/gthr-default.h **** __gthread_objc_close_thread_system (void)
  61:/home/zht/stm32tools/arm-gcc/arm-none-eabi/include/c++/7.3.1/arm-none-eabi/thumb/v7e-m/fpv4-sp/hard/bits/gthr-default.h **** {
  62:/home/zht/stm32tools/arm-gcc/arm-none-eabi/include/c++/7.3.1/arm-none-eabi/thumb/v7e-m/fpv4-sp/hard/bits/gthr-default.h ****   /* No thread support available */
  63:/home/zht/stm32tools/arm-gcc/arm-none-eabi/include/c++/7.3.1/arm-none-eabi/thumb/v7e-m/fpv4-sp/hard/bits/gthr-default.h ****   return -1;
  64:/home/zht/stm32tools/arm-gcc/arm-none-eabi/include/c++/7.3.1/arm-none-eabi/thumb/v7e-m/fpv4-sp/hard/bits/gthr-default.h **** }
  65:/home/zht/stm32tools/arm-gcc/arm-none-eabi/include/c++/7.3.1/arm-none-eabi/thumb/v7e-m/fpv4-sp/hard/bits/gthr-default.h **** 
  66:/home/zht/stm32tools/arm-gcc/arm-none-eabi/include/c++/7.3.1/arm-none-eabi/thumb/v7e-m/fpv4-sp/hard/bits/gthr-default.h **** /* Backend thread functions */
  67:/home/zht/stm32tools/arm-gcc/arm-none-eabi/include/c++/7.3.1/arm-none-eabi/thumb/v7e-m/fpv4-sp/hard/bits/gthr-default.h **** 
  68:/home/zht/stm32tools/arm-gcc/arm-none-eabi/include/c++/7.3.1/arm-none-eabi/thumb/v7e-m/fpv4-sp/hard/bits/gthr-default.h **** /* Create a new thread of execution.  */
  69:/home/zht/stm32tools/arm-gcc/arm-none-eabi/include/c++/7.3.1/arm-none-eabi/thumb/v7e-m/fpv4-sp/hard/bits/gthr-default.h **** static inline objc_thread_t
  70:/home/zht/stm32tools/arm-gcc/arm-none-eabi/include/c++/7.3.1/arm-none-eabi/thumb/v7e-m/fpv4-sp/hard/bits/gthr-default.h **** __gthread_objc_thread_detach (void (* func)(void *), void * arg _GLIBCXX_UNUSED)
  71:/home/zht/stm32tools/arm-gcc/arm-none-eabi/include/c++/7.3.1/arm-none-eabi/thumb/v7e-m/fpv4-sp/hard/bits/gthr-default.h **** {
  72:/home/zht/stm32tools/arm-gcc/arm-none-eabi/include/c++/7.3.1/arm-none-eabi/thumb/v7e-m/fpv4-sp/hard/bits/gthr-default.h ****   /* No thread support available */
  73:/home/zht/stm32tools/arm-gcc/arm-none-eabi/include/c++/7.3.1/arm-none-eabi/thumb/v7e-m/fpv4-sp/hard/bits/gthr-default.h ****   return NULL;
  74:/home/zht/stm32tools/arm-gcc/arm-none-eabi/include/c++/7.3.1/arm-none-eabi/thumb/v7e-m/fpv4-sp/hard/bits/gthr-default.h **** }
  75:/home/zht/stm32tools/arm-gcc/arm-none-eabi/include/c++/7.3.1/arm-none-eabi/thumb/v7e-m/fpv4-sp/hard/bits/gthr-default.h **** 
  76:/home/zht/stm32tools/arm-gcc/arm-none-eabi/include/c++/7.3.1/arm-none-eabi/thumb/v7e-m/fpv4-sp/hard/bits/gthr-default.h **** /* Set the current thread's priority.  */
  77:/home/zht/stm32tools/arm-gcc/arm-none-eabi/include/c++/7.3.1/arm-none-eabi/thumb/v7e-m/fpv4-sp/hard/bits/gthr-default.h **** static inline int
  78:/home/zht/stm32tools/arm-gcc/arm-none-eabi/include/c++/7.3.1/arm-none-eabi/thumb/v7e-m/fpv4-sp/hard/bits/gthr-default.h **** __gthread_objc_thread_set_priority (int priority _GLIBCXX_UNUSED)
  79:/home/zht/stm32tools/arm-gcc/arm-none-eabi/include/c++/7.3.1/arm-none-eabi/thumb/v7e-m/fpv4-sp/hard/bits/gthr-default.h **** {
  80:/home/zht/stm32tools/arm-gcc/arm-none-eabi/include/c++/7.3.1/arm-none-eabi/thumb/v7e-m/fpv4-sp/hard/bits/gthr-default.h ****   /* No thread support available */
  81:/home/zht/stm32tools/arm-gcc/arm-none-eabi/include/c++/7.3.1/arm-none-eabi/thumb/v7e-m/fpv4-sp/hard/bits/gthr-default.h ****   return -1;
  82:/home/zht/stm32tools/arm-gcc/arm-none-eabi/include/c++/7.3.1/arm-none-eabi/thumb/v7e-m/fpv4-sp/hard/bits/gthr-default.h **** }
  83:/home/zht/stm32tools/arm-gcc/arm-none-eabi/include/c++/7.3.1/arm-none-eabi/thumb/v7e-m/fpv4-sp/hard/bits/gthr-default.h **** 
  84:/home/zht/stm32tools/arm-gcc/arm-none-eabi/include/c++/7.3.1/arm-none-eabi/thumb/v7e-m/fpv4-sp/hard/bits/gthr-default.h **** /* Return the current thread's priority.  */
  85:/home/zht/stm32tools/arm-gcc/arm-none-eabi/include/c++/7.3.1/arm-none-eabi/thumb/v7e-m/fpv4-sp/hard/bits/gthr-default.h **** static inline int
ARM GAS  /tmp/ccGpM9Aw.s 			page 3


  86:/home/zht/stm32tools/arm-gcc/arm-none-eabi/include/c++/7.3.1/arm-none-eabi/thumb/v7e-m/fpv4-sp/hard/bits/gthr-default.h **** __gthread_objc_thread_get_priority (void)
  87:/home/zht/stm32tools/arm-gcc/arm-none-eabi/include/c++/7.3.1/arm-none-eabi/thumb/v7e-m/fpv4-sp/hard/bits/gthr-default.h **** {
  88:/home/zht/stm32tools/arm-gcc/arm-none-eabi/include/c++/7.3.1/arm-none-eabi/thumb/v7e-m/fpv4-sp/hard/bits/gthr-default.h ****   return OBJC_THREAD_INTERACTIVE_PRIORITY;
  89:/home/zht/stm32tools/arm-gcc/arm-none-eabi/include/c++/7.3.1/arm-none-eabi/thumb/v7e-m/fpv4-sp/hard/bits/gthr-default.h **** }
  90:/home/zht/stm32tools/arm-gcc/arm-none-eabi/include/c++/7.3.1/arm-none-eabi/thumb/v7e-m/fpv4-sp/hard/bits/gthr-default.h **** 
  91:/home/zht/stm32tools/arm-gcc/arm-none-eabi/include/c++/7.3.1/arm-none-eabi/thumb/v7e-m/fpv4-sp/hard/bits/gthr-default.h **** /* Yield our process time to another thread.  */
  92:/home/zht/stm32tools/arm-gcc/arm-none-eabi/include/c++/7.3.1/arm-none-eabi/thumb/v7e-m/fpv4-sp/hard/bits/gthr-default.h **** static inline void
  93:/home/zht/stm32tools/arm-gcc/arm-none-eabi/include/c++/7.3.1/arm-none-eabi/thumb/v7e-m/fpv4-sp/hard/bits/gthr-default.h **** __gthread_objc_thread_yield (void)
  94:/home/zht/stm32tools/arm-gcc/arm-none-eabi/include/c++/7.3.1/arm-none-eabi/thumb/v7e-m/fpv4-sp/hard/bits/gthr-default.h **** {
  95:/home/zht/stm32tools/arm-gcc/arm-none-eabi/include/c++/7.3.1/arm-none-eabi/thumb/v7e-m/fpv4-sp/hard/bits/gthr-default.h ****   return;
  96:/home/zht/stm32tools/arm-gcc/arm-none-eabi/include/c++/7.3.1/arm-none-eabi/thumb/v7e-m/fpv4-sp/hard/bits/gthr-default.h **** }
  97:/home/zht/stm32tools/arm-gcc/arm-none-eabi/include/c++/7.3.1/arm-none-eabi/thumb/v7e-m/fpv4-sp/hard/bits/gthr-default.h **** 
  98:/home/zht/stm32tools/arm-gcc/arm-none-eabi/include/c++/7.3.1/arm-none-eabi/thumb/v7e-m/fpv4-sp/hard/bits/gthr-default.h **** /* Terminate the current thread.  */
  99:/home/zht/stm32tools/arm-gcc/arm-none-eabi/include/c++/7.3.1/arm-none-eabi/thumb/v7e-m/fpv4-sp/hard/bits/gthr-default.h **** static inline int
 100:/home/zht/stm32tools/arm-gcc/arm-none-eabi/include/c++/7.3.1/arm-none-eabi/thumb/v7e-m/fpv4-sp/hard/bits/gthr-default.h **** __gthread_objc_thread_exit (void)
 101:/home/zht/stm32tools/arm-gcc/arm-none-eabi/include/c++/7.3.1/arm-none-eabi/thumb/v7e-m/fpv4-sp/hard/bits/gthr-default.h **** {
 102:/home/zht/stm32tools/arm-gcc/arm-none-eabi/include/c++/7.3.1/arm-none-eabi/thumb/v7e-m/fpv4-sp/hard/bits/gthr-default.h ****   /* No thread support available */
 103:/home/zht/stm32tools/arm-gcc/arm-none-eabi/include/c++/7.3.1/arm-none-eabi/thumb/v7e-m/fpv4-sp/hard/bits/gthr-default.h ****   /* Should we really exit the program */
 104:/home/zht/stm32tools/arm-gcc/arm-none-eabi/include/c++/7.3.1/arm-none-eabi/thumb/v7e-m/fpv4-sp/hard/bits/gthr-default.h ****   /* exit (&__objc_thread_exit_status); */
 105:/home/zht/stm32tools/arm-gcc/arm-none-eabi/include/c++/7.3.1/arm-none-eabi/thumb/v7e-m/fpv4-sp/hard/bits/gthr-default.h ****   return -1;
 106:/home/zht/stm32tools/arm-gcc/arm-none-eabi/include/c++/7.3.1/arm-none-eabi/thumb/v7e-m/fpv4-sp/hard/bits/gthr-default.h **** }
 107:/home/zht/stm32tools/arm-gcc/arm-none-eabi/include/c++/7.3.1/arm-none-eabi/thumb/v7e-m/fpv4-sp/hard/bits/gthr-default.h **** 
 108:/home/zht/stm32tools/arm-gcc/arm-none-eabi/include/c++/7.3.1/arm-none-eabi/thumb/v7e-m/fpv4-sp/hard/bits/gthr-default.h **** /* Returns an integer value which uniquely describes a thread.  */
 109:/home/zht/stm32tools/arm-gcc/arm-none-eabi/include/c++/7.3.1/arm-none-eabi/thumb/v7e-m/fpv4-sp/hard/bits/gthr-default.h **** static inline objc_thread_t
 110:/home/zht/stm32tools/arm-gcc/arm-none-eabi/include/c++/7.3.1/arm-none-eabi/thumb/v7e-m/fpv4-sp/hard/bits/gthr-default.h **** __gthread_objc_thread_id (void)
 111:/home/zht/stm32tools/arm-gcc/arm-none-eabi/include/c++/7.3.1/arm-none-eabi/thumb/v7e-m/fpv4-sp/hard/bits/gthr-default.h **** {
 112:/home/zht/stm32tools/arm-gcc/arm-none-eabi/include/c++/7.3.1/arm-none-eabi/thumb/v7e-m/fpv4-sp/hard/bits/gthr-default.h ****   /* No thread support, use 1.  */
 113:/home/zht/stm32tools/arm-gcc/arm-none-eabi/include/c++/7.3.1/arm-none-eabi/thumb/v7e-m/fpv4-sp/hard/bits/gthr-default.h ****   return (objc_thread_t) 1;
 114:/home/zht/stm32tools/arm-gcc/arm-none-eabi/include/c++/7.3.1/arm-none-eabi/thumb/v7e-m/fpv4-sp/hard/bits/gthr-default.h **** }
 115:/home/zht/stm32tools/arm-gcc/arm-none-eabi/include/c++/7.3.1/arm-none-eabi/thumb/v7e-m/fpv4-sp/hard/bits/gthr-default.h **** 
 116:/home/zht/stm32tools/arm-gcc/arm-none-eabi/include/c++/7.3.1/arm-none-eabi/thumb/v7e-m/fpv4-sp/hard/bits/gthr-default.h **** /* Sets the thread's local storage pointer.  */
 117:/home/zht/stm32tools/arm-gcc/arm-none-eabi/include/c++/7.3.1/arm-none-eabi/thumb/v7e-m/fpv4-sp/hard/bits/gthr-default.h **** static inline int
 118:/home/zht/stm32tools/arm-gcc/arm-none-eabi/include/c++/7.3.1/arm-none-eabi/thumb/v7e-m/fpv4-sp/hard/bits/gthr-default.h **** __gthread_objc_thread_set_data (void *value)
 119:/home/zht/stm32tools/arm-gcc/arm-none-eabi/include/c++/7.3.1/arm-none-eabi/thumb/v7e-m/fpv4-sp/hard/bits/gthr-default.h **** {
 120:/home/zht/stm32tools/arm-gcc/arm-none-eabi/include/c++/7.3.1/arm-none-eabi/thumb/v7e-m/fpv4-sp/hard/bits/gthr-default.h ****   thread_local_storage = value;
 121:/home/zht/stm32tools/arm-gcc/arm-none-eabi/include/c++/7.3.1/arm-none-eabi/thumb/v7e-m/fpv4-sp/hard/bits/gthr-default.h ****   return 0;
 122:/home/zht/stm32tools/arm-gcc/arm-none-eabi/include/c++/7.3.1/arm-none-eabi/thumb/v7e-m/fpv4-sp/hard/bits/gthr-default.h **** }
 123:/home/zht/stm32tools/arm-gcc/arm-none-eabi/include/c++/7.3.1/arm-none-eabi/thumb/v7e-m/fpv4-sp/hard/bits/gthr-default.h **** 
 124:/home/zht/stm32tools/arm-gcc/arm-none-eabi/include/c++/7.3.1/arm-none-eabi/thumb/v7e-m/fpv4-sp/hard/bits/gthr-default.h **** /* Returns the thread's local storage pointer.  */
 125:/home/zht/stm32tools/arm-gcc/arm-none-eabi/include/c++/7.3.1/arm-none-eabi/thumb/v7e-m/fpv4-sp/hard/bits/gthr-default.h **** static inline void *
 126:/home/zht/stm32tools/arm-gcc/arm-none-eabi/include/c++/7.3.1/arm-none-eabi/thumb/v7e-m/fpv4-sp/hard/bits/gthr-default.h **** __gthread_objc_thread_get_data (void)
 127:/home/zht/stm32tools/arm-gcc/arm-none-eabi/include/c++/7.3.1/arm-none-eabi/thumb/v7e-m/fpv4-sp/hard/bits/gthr-default.h **** {
 128:/home/zht/stm32tools/arm-gcc/arm-none-eabi/include/c++/7.3.1/arm-none-eabi/thumb/v7e-m/fpv4-sp/hard/bits/gthr-default.h ****   return thread_local_storage;
 129:/home/zht/stm32tools/arm-gcc/arm-none-eabi/include/c++/7.3.1/arm-none-eabi/thumb/v7e-m/fpv4-sp/hard/bits/gthr-default.h **** }
 130:/home/zht/stm32tools/arm-gcc/arm-none-eabi/include/c++/7.3.1/arm-none-eabi/thumb/v7e-m/fpv4-sp/hard/bits/gthr-default.h **** 
 131:/home/zht/stm32tools/arm-gcc/arm-none-eabi/include/c++/7.3.1/arm-none-eabi/thumb/v7e-m/fpv4-sp/hard/bits/gthr-default.h **** /* Backend mutex functions */
 132:/home/zht/stm32tools/arm-gcc/arm-none-eabi/include/c++/7.3.1/arm-none-eabi/thumb/v7e-m/fpv4-sp/hard/bits/gthr-default.h **** 
 133:/home/zht/stm32tools/arm-gcc/arm-none-eabi/include/c++/7.3.1/arm-none-eabi/thumb/v7e-m/fpv4-sp/hard/bits/gthr-default.h **** /* Allocate a mutex.  */
 134:/home/zht/stm32tools/arm-gcc/arm-none-eabi/include/c++/7.3.1/arm-none-eabi/thumb/v7e-m/fpv4-sp/hard/bits/gthr-default.h **** static inline int
 135:/home/zht/stm32tools/arm-gcc/arm-none-eabi/include/c++/7.3.1/arm-none-eabi/thumb/v7e-m/fpv4-sp/hard/bits/gthr-default.h **** __gthread_objc_mutex_allocate (objc_mutex_t mutex _GLIBCXX_UNUSED)
 136:/home/zht/stm32tools/arm-gcc/arm-none-eabi/include/c++/7.3.1/arm-none-eabi/thumb/v7e-m/fpv4-sp/hard/bits/gthr-default.h **** {
 137:/home/zht/stm32tools/arm-gcc/arm-none-eabi/include/c++/7.3.1/arm-none-eabi/thumb/v7e-m/fpv4-sp/hard/bits/gthr-default.h ****   return 0;
 138:/home/zht/stm32tools/arm-gcc/arm-none-eabi/include/c++/7.3.1/arm-none-eabi/thumb/v7e-m/fpv4-sp/hard/bits/gthr-default.h **** }
 139:/home/zht/stm32tools/arm-gcc/arm-none-eabi/include/c++/7.3.1/arm-none-eabi/thumb/v7e-m/fpv4-sp/hard/bits/gthr-default.h **** 
 140:/home/zht/stm32tools/arm-gcc/arm-none-eabi/include/c++/7.3.1/arm-none-eabi/thumb/v7e-m/fpv4-sp/hard/bits/gthr-default.h **** /* Deallocate a mutex.  */
 141:/home/zht/stm32tools/arm-gcc/arm-none-eabi/include/c++/7.3.1/arm-none-eabi/thumb/v7e-m/fpv4-sp/hard/bits/gthr-default.h **** static inline int
 142:/home/zht/stm32tools/arm-gcc/arm-none-eabi/include/c++/7.3.1/arm-none-eabi/thumb/v7e-m/fpv4-sp/hard/bits/gthr-default.h **** __gthread_objc_mutex_deallocate (objc_mutex_t mutex _GLIBCXX_UNUSED)
ARM GAS  /tmp/ccGpM9Aw.s 			page 4


 143:/home/zht/stm32tools/arm-gcc/arm-none-eabi/include/c++/7.3.1/arm-none-eabi/thumb/v7e-m/fpv4-sp/hard/bits/gthr-default.h **** {
 144:/home/zht/stm32tools/arm-gcc/arm-none-eabi/include/c++/7.3.1/arm-none-eabi/thumb/v7e-m/fpv4-sp/hard/bits/gthr-default.h ****   return 0;
 145:/home/zht/stm32tools/arm-gcc/arm-none-eabi/include/c++/7.3.1/arm-none-eabi/thumb/v7e-m/fpv4-sp/hard/bits/gthr-default.h **** }
 146:/home/zht/stm32tools/arm-gcc/arm-none-eabi/include/c++/7.3.1/arm-none-eabi/thumb/v7e-m/fpv4-sp/hard/bits/gthr-default.h **** 
 147:/home/zht/stm32tools/arm-gcc/arm-none-eabi/include/c++/7.3.1/arm-none-eabi/thumb/v7e-m/fpv4-sp/hard/bits/gthr-default.h **** /* Grab a lock on a mutex.  */
 148:/home/zht/stm32tools/arm-gcc/arm-none-eabi/include/c++/7.3.1/arm-none-eabi/thumb/v7e-m/fpv4-sp/hard/bits/gthr-default.h **** static inline int
 149:/home/zht/stm32tools/arm-gcc/arm-none-eabi/include/c++/7.3.1/arm-none-eabi/thumb/v7e-m/fpv4-sp/hard/bits/gthr-default.h **** __gthread_objc_mutex_lock (objc_mutex_t mutex _GLIBCXX_UNUSED)
 150:/home/zht/stm32tools/arm-gcc/arm-none-eabi/include/c++/7.3.1/arm-none-eabi/thumb/v7e-m/fpv4-sp/hard/bits/gthr-default.h **** {
 151:/home/zht/stm32tools/arm-gcc/arm-none-eabi/include/c++/7.3.1/arm-none-eabi/thumb/v7e-m/fpv4-sp/hard/bits/gthr-default.h ****   /* There can only be one thread, so we always get the lock */
 152:/home/zht/stm32tools/arm-gcc/arm-none-eabi/include/c++/7.3.1/arm-none-eabi/thumb/v7e-m/fpv4-sp/hard/bits/gthr-default.h ****   return 0;
 153:/home/zht/stm32tools/arm-gcc/arm-none-eabi/include/c++/7.3.1/arm-none-eabi/thumb/v7e-m/fpv4-sp/hard/bits/gthr-default.h **** }
 154:/home/zht/stm32tools/arm-gcc/arm-none-eabi/include/c++/7.3.1/arm-none-eabi/thumb/v7e-m/fpv4-sp/hard/bits/gthr-default.h **** 
 155:/home/zht/stm32tools/arm-gcc/arm-none-eabi/include/c++/7.3.1/arm-none-eabi/thumb/v7e-m/fpv4-sp/hard/bits/gthr-default.h **** /* Try to grab a lock on a mutex.  */
 156:/home/zht/stm32tools/arm-gcc/arm-none-eabi/include/c++/7.3.1/arm-none-eabi/thumb/v7e-m/fpv4-sp/hard/bits/gthr-default.h **** static inline int
 157:/home/zht/stm32tools/arm-gcc/arm-none-eabi/include/c++/7.3.1/arm-none-eabi/thumb/v7e-m/fpv4-sp/hard/bits/gthr-default.h **** __gthread_objc_mutex_trylock (objc_mutex_t mutex _GLIBCXX_UNUSED)
 158:/home/zht/stm32tools/arm-gcc/arm-none-eabi/include/c++/7.3.1/arm-none-eabi/thumb/v7e-m/fpv4-sp/hard/bits/gthr-default.h **** {
 159:/home/zht/stm32tools/arm-gcc/arm-none-eabi/include/c++/7.3.1/arm-none-eabi/thumb/v7e-m/fpv4-sp/hard/bits/gthr-default.h ****   /* There can only be one thread, so we always get the lock */
 160:/home/zht/stm32tools/arm-gcc/arm-none-eabi/include/c++/7.3.1/arm-none-eabi/thumb/v7e-m/fpv4-sp/hard/bits/gthr-default.h ****   return 0;
 161:/home/zht/stm32tools/arm-gcc/arm-none-eabi/include/c++/7.3.1/arm-none-eabi/thumb/v7e-m/fpv4-sp/hard/bits/gthr-default.h **** }
 162:/home/zht/stm32tools/arm-gcc/arm-none-eabi/include/c++/7.3.1/arm-none-eabi/thumb/v7e-m/fpv4-sp/hard/bits/gthr-default.h **** 
 163:/home/zht/stm32tools/arm-gcc/arm-none-eabi/include/c++/7.3.1/arm-none-eabi/thumb/v7e-m/fpv4-sp/hard/bits/gthr-default.h **** /* Unlock the mutex */
 164:/home/zht/stm32tools/arm-gcc/arm-none-eabi/include/c++/7.3.1/arm-none-eabi/thumb/v7e-m/fpv4-sp/hard/bits/gthr-default.h **** static inline int
 165:/home/zht/stm32tools/arm-gcc/arm-none-eabi/include/c++/7.3.1/arm-none-eabi/thumb/v7e-m/fpv4-sp/hard/bits/gthr-default.h **** __gthread_objc_mutex_unlock (objc_mutex_t mutex _GLIBCXX_UNUSED)
 166:/home/zht/stm32tools/arm-gcc/arm-none-eabi/include/c++/7.3.1/arm-none-eabi/thumb/v7e-m/fpv4-sp/hard/bits/gthr-default.h **** {
 167:/home/zht/stm32tools/arm-gcc/arm-none-eabi/include/c++/7.3.1/arm-none-eabi/thumb/v7e-m/fpv4-sp/hard/bits/gthr-default.h ****   return 0;
 168:/home/zht/stm32tools/arm-gcc/arm-none-eabi/include/c++/7.3.1/arm-none-eabi/thumb/v7e-m/fpv4-sp/hard/bits/gthr-default.h **** }
 169:/home/zht/stm32tools/arm-gcc/arm-none-eabi/include/c++/7.3.1/arm-none-eabi/thumb/v7e-m/fpv4-sp/hard/bits/gthr-default.h **** 
 170:/home/zht/stm32tools/arm-gcc/arm-none-eabi/include/c++/7.3.1/arm-none-eabi/thumb/v7e-m/fpv4-sp/hard/bits/gthr-default.h **** /* Backend condition mutex functions */
 171:/home/zht/stm32tools/arm-gcc/arm-none-eabi/include/c++/7.3.1/arm-none-eabi/thumb/v7e-m/fpv4-sp/hard/bits/gthr-default.h **** 
 172:/home/zht/stm32tools/arm-gcc/arm-none-eabi/include/c++/7.3.1/arm-none-eabi/thumb/v7e-m/fpv4-sp/hard/bits/gthr-default.h **** /* Allocate a condition.  */
 173:/home/zht/stm32tools/arm-gcc/arm-none-eabi/include/c++/7.3.1/arm-none-eabi/thumb/v7e-m/fpv4-sp/hard/bits/gthr-default.h **** static inline int
 174:/home/zht/stm32tools/arm-gcc/arm-none-eabi/include/c++/7.3.1/arm-none-eabi/thumb/v7e-m/fpv4-sp/hard/bits/gthr-default.h **** __gthread_objc_condition_allocate (objc_condition_t condition _GLIBCXX_UNUSED)
 175:/home/zht/stm32tools/arm-gcc/arm-none-eabi/include/c++/7.3.1/arm-none-eabi/thumb/v7e-m/fpv4-sp/hard/bits/gthr-default.h **** {
 176:/home/zht/stm32tools/arm-gcc/arm-none-eabi/include/c++/7.3.1/arm-none-eabi/thumb/v7e-m/fpv4-sp/hard/bits/gthr-default.h ****   return 0;
 177:/home/zht/stm32tools/arm-gcc/arm-none-eabi/include/c++/7.3.1/arm-none-eabi/thumb/v7e-m/fpv4-sp/hard/bits/gthr-default.h **** }
 178:/home/zht/stm32tools/arm-gcc/arm-none-eabi/include/c++/7.3.1/arm-none-eabi/thumb/v7e-m/fpv4-sp/hard/bits/gthr-default.h **** 
 179:/home/zht/stm32tools/arm-gcc/arm-none-eabi/include/c++/7.3.1/arm-none-eabi/thumb/v7e-m/fpv4-sp/hard/bits/gthr-default.h **** /* Deallocate a condition.  */
 180:/home/zht/stm32tools/arm-gcc/arm-none-eabi/include/c++/7.3.1/arm-none-eabi/thumb/v7e-m/fpv4-sp/hard/bits/gthr-default.h **** static inline int
 181:/home/zht/stm32tools/arm-gcc/arm-none-eabi/include/c++/7.3.1/arm-none-eabi/thumb/v7e-m/fpv4-sp/hard/bits/gthr-default.h **** __gthread_objc_condition_deallocate (objc_condition_t condition _GLIBCXX_UNUSED)
 182:/home/zht/stm32tools/arm-gcc/arm-none-eabi/include/c++/7.3.1/arm-none-eabi/thumb/v7e-m/fpv4-sp/hard/bits/gthr-default.h **** {
 183:/home/zht/stm32tools/arm-gcc/arm-none-eabi/include/c++/7.3.1/arm-none-eabi/thumb/v7e-m/fpv4-sp/hard/bits/gthr-default.h ****   return 0;
 184:/home/zht/stm32tools/arm-gcc/arm-none-eabi/include/c++/7.3.1/arm-none-eabi/thumb/v7e-m/fpv4-sp/hard/bits/gthr-default.h **** }
 185:/home/zht/stm32tools/arm-gcc/arm-none-eabi/include/c++/7.3.1/arm-none-eabi/thumb/v7e-m/fpv4-sp/hard/bits/gthr-default.h **** 
 186:/home/zht/stm32tools/arm-gcc/arm-none-eabi/include/c++/7.3.1/arm-none-eabi/thumb/v7e-m/fpv4-sp/hard/bits/gthr-default.h **** /* Wait on the condition */
 187:/home/zht/stm32tools/arm-gcc/arm-none-eabi/include/c++/7.3.1/arm-none-eabi/thumb/v7e-m/fpv4-sp/hard/bits/gthr-default.h **** static inline int
 188:/home/zht/stm32tools/arm-gcc/arm-none-eabi/include/c++/7.3.1/arm-none-eabi/thumb/v7e-m/fpv4-sp/hard/bits/gthr-default.h **** __gthread_objc_condition_wait (objc_condition_t condition _GLIBCXX_UNUSED,
 189:/home/zht/stm32tools/arm-gcc/arm-none-eabi/include/c++/7.3.1/arm-none-eabi/thumb/v7e-m/fpv4-sp/hard/bits/gthr-default.h **** 			       objc_mutex_t mutex _GLIBCXX_UNUSED)
 190:/home/zht/stm32tools/arm-gcc/arm-none-eabi/include/c++/7.3.1/arm-none-eabi/thumb/v7e-m/fpv4-sp/hard/bits/gthr-default.h **** {
 191:/home/zht/stm32tools/arm-gcc/arm-none-eabi/include/c++/7.3.1/arm-none-eabi/thumb/v7e-m/fpv4-sp/hard/bits/gthr-default.h ****   return 0;
 192:/home/zht/stm32tools/arm-gcc/arm-none-eabi/include/c++/7.3.1/arm-none-eabi/thumb/v7e-m/fpv4-sp/hard/bits/gthr-default.h **** }
 193:/home/zht/stm32tools/arm-gcc/arm-none-eabi/include/c++/7.3.1/arm-none-eabi/thumb/v7e-m/fpv4-sp/hard/bits/gthr-default.h **** 
 194:/home/zht/stm32tools/arm-gcc/arm-none-eabi/include/c++/7.3.1/arm-none-eabi/thumb/v7e-m/fpv4-sp/hard/bits/gthr-default.h **** /* Wake up all threads waiting on this condition.  */
 195:/home/zht/stm32tools/arm-gcc/arm-none-eabi/include/c++/7.3.1/arm-none-eabi/thumb/v7e-m/fpv4-sp/hard/bits/gthr-default.h **** static inline int
 196:/home/zht/stm32tools/arm-gcc/arm-none-eabi/include/c++/7.3.1/arm-none-eabi/thumb/v7e-m/fpv4-sp/hard/bits/gthr-default.h **** __gthread_objc_condition_broadcast (objc_condition_t condition _GLIBCXX_UNUSED)
 197:/home/zht/stm32tools/arm-gcc/arm-none-eabi/include/c++/7.3.1/arm-none-eabi/thumb/v7e-m/fpv4-sp/hard/bits/gthr-default.h **** {
 198:/home/zht/stm32tools/arm-gcc/arm-none-eabi/include/c++/7.3.1/arm-none-eabi/thumb/v7e-m/fpv4-sp/hard/bits/gthr-default.h ****   return 0;
 199:/home/zht/stm32tools/arm-gcc/arm-none-eabi/include/c++/7.3.1/arm-none-eabi/thumb/v7e-m/fpv4-sp/hard/bits/gthr-default.h **** }
ARM GAS  /tmp/ccGpM9Aw.s 			page 5


 200:/home/zht/stm32tools/arm-gcc/arm-none-eabi/include/c++/7.3.1/arm-none-eabi/thumb/v7e-m/fpv4-sp/hard/bits/gthr-default.h **** 
 201:/home/zht/stm32tools/arm-gcc/arm-none-eabi/include/c++/7.3.1/arm-none-eabi/thumb/v7e-m/fpv4-sp/hard/bits/gthr-default.h **** /* Wake up one thread waiting on this condition.  */
 202:/home/zht/stm32tools/arm-gcc/arm-none-eabi/include/c++/7.3.1/arm-none-eabi/thumb/v7e-m/fpv4-sp/hard/bits/gthr-default.h **** static inline int
 203:/home/zht/stm32tools/arm-gcc/arm-none-eabi/include/c++/7.3.1/arm-none-eabi/thumb/v7e-m/fpv4-sp/hard/bits/gthr-default.h **** __gthread_objc_condition_signal (objc_condition_t condition _GLIBCXX_UNUSED)
 204:/home/zht/stm32tools/arm-gcc/arm-none-eabi/include/c++/7.3.1/arm-none-eabi/thumb/v7e-m/fpv4-sp/hard/bits/gthr-default.h **** {
 205:/home/zht/stm32tools/arm-gcc/arm-none-eabi/include/c++/7.3.1/arm-none-eabi/thumb/v7e-m/fpv4-sp/hard/bits/gthr-default.h ****   return 0;
 206:/home/zht/stm32tools/arm-gcc/arm-none-eabi/include/c++/7.3.1/arm-none-eabi/thumb/v7e-m/fpv4-sp/hard/bits/gthr-default.h **** }
 207:/home/zht/stm32tools/arm-gcc/arm-none-eabi/include/c++/7.3.1/arm-none-eabi/thumb/v7e-m/fpv4-sp/hard/bits/gthr-default.h **** 
 208:/home/zht/stm32tools/arm-gcc/arm-none-eabi/include/c++/7.3.1/arm-none-eabi/thumb/v7e-m/fpv4-sp/hard/bits/gthr-default.h **** #else /* _LIBOBJC */
 209:/home/zht/stm32tools/arm-gcc/arm-none-eabi/include/c++/7.3.1/arm-none-eabi/thumb/v7e-m/fpv4-sp/hard/bits/gthr-default.h **** 
 210:/home/zht/stm32tools/arm-gcc/arm-none-eabi/include/c++/7.3.1/arm-none-eabi/thumb/v7e-m/fpv4-sp/hard/bits/gthr-default.h **** static inline int
 211:/home/zht/stm32tools/arm-gcc/arm-none-eabi/include/c++/7.3.1/arm-none-eabi/thumb/v7e-m/fpv4-sp/hard/bits/gthr-default.h **** __gthread_active_p (void)
 212:/home/zht/stm32tools/arm-gcc/arm-none-eabi/include/c++/7.3.1/arm-none-eabi/thumb/v7e-m/fpv4-sp/hard/bits/gthr-default.h **** {
 213:/home/zht/stm32tools/arm-gcc/arm-none-eabi/include/c++/7.3.1/arm-none-eabi/thumb/v7e-m/fpv4-sp/hard/bits/gthr-default.h ****   return 0;
 214:/home/zht/stm32tools/arm-gcc/arm-none-eabi/include/c++/7.3.1/arm-none-eabi/thumb/v7e-m/fpv4-sp/hard/bits/gthr-default.h **** }
 215:/home/zht/stm32tools/arm-gcc/arm-none-eabi/include/c++/7.3.1/arm-none-eabi/thumb/v7e-m/fpv4-sp/hard/bits/gthr-default.h **** 
 216:/home/zht/stm32tools/arm-gcc/arm-none-eabi/include/c++/7.3.1/arm-none-eabi/thumb/v7e-m/fpv4-sp/hard/bits/gthr-default.h **** static inline int
 217:/home/zht/stm32tools/arm-gcc/arm-none-eabi/include/c++/7.3.1/arm-none-eabi/thumb/v7e-m/fpv4-sp/hard/bits/gthr-default.h **** __gthread_once (__gthread_once_t *__once _GLIBCXX_UNUSED, void (*__func) (void) _GLIBCXX_UNUSED)
 218:/home/zht/stm32tools/arm-gcc/arm-none-eabi/include/c++/7.3.1/arm-none-eabi/thumb/v7e-m/fpv4-sp/hard/bits/gthr-default.h **** {
 219:/home/zht/stm32tools/arm-gcc/arm-none-eabi/include/c++/7.3.1/arm-none-eabi/thumb/v7e-m/fpv4-sp/hard/bits/gthr-default.h ****   return 0;
 220:/home/zht/stm32tools/arm-gcc/arm-none-eabi/include/c++/7.3.1/arm-none-eabi/thumb/v7e-m/fpv4-sp/hard/bits/gthr-default.h **** }
 221:/home/zht/stm32tools/arm-gcc/arm-none-eabi/include/c++/7.3.1/arm-none-eabi/thumb/v7e-m/fpv4-sp/hard/bits/gthr-default.h **** 
 222:/home/zht/stm32tools/arm-gcc/arm-none-eabi/include/c++/7.3.1/arm-none-eabi/thumb/v7e-m/fpv4-sp/hard/bits/gthr-default.h **** static inline int _GLIBCXX_UNUSED
 223:/home/zht/stm32tools/arm-gcc/arm-none-eabi/include/c++/7.3.1/arm-none-eabi/thumb/v7e-m/fpv4-sp/hard/bits/gthr-default.h **** __gthread_key_create (__gthread_key_t *__key _GLIBCXX_UNUSED, void (*__func) (void *) _GLIBCXX_UNUS
 224:/home/zht/stm32tools/arm-gcc/arm-none-eabi/include/c++/7.3.1/arm-none-eabi/thumb/v7e-m/fpv4-sp/hard/bits/gthr-default.h **** {
 225:/home/zht/stm32tools/arm-gcc/arm-none-eabi/include/c++/7.3.1/arm-none-eabi/thumb/v7e-m/fpv4-sp/hard/bits/gthr-default.h ****   return 0;
 226:/home/zht/stm32tools/arm-gcc/arm-none-eabi/include/c++/7.3.1/arm-none-eabi/thumb/v7e-m/fpv4-sp/hard/bits/gthr-default.h **** }
 227:/home/zht/stm32tools/arm-gcc/arm-none-eabi/include/c++/7.3.1/arm-none-eabi/thumb/v7e-m/fpv4-sp/hard/bits/gthr-default.h **** 
 228:/home/zht/stm32tools/arm-gcc/arm-none-eabi/include/c++/7.3.1/arm-none-eabi/thumb/v7e-m/fpv4-sp/hard/bits/gthr-default.h **** static int _GLIBCXX_UNUSED
 229:/home/zht/stm32tools/arm-gcc/arm-none-eabi/include/c++/7.3.1/arm-none-eabi/thumb/v7e-m/fpv4-sp/hard/bits/gthr-default.h **** __gthread_key_delete (__gthread_key_t __key _GLIBCXX_UNUSED)
 230:/home/zht/stm32tools/arm-gcc/arm-none-eabi/include/c++/7.3.1/arm-none-eabi/thumb/v7e-m/fpv4-sp/hard/bits/gthr-default.h **** {
  33              		.loc 1 230 0
  34              		.cfi_startproc
  35              		@ args = 0, pretend = 0, frame = 8
  36              		@ frame_needed = 1, uses_anonymous_args = 0
  37              		@ link register save eliminated.
  38 0000 80B4     		push	{r7}
  39              	.LCFI0:
  40              		.cfi_def_cfa_offset 4
  41              		.cfi_offset 7, -4
  42 0002 83B0     		sub	sp, sp, #12
  43              	.LCFI1:
  44              		.cfi_def_cfa_offset 16
  45 0004 00AF     		add	r7, sp, #0
  46              	.LCFI2:
  47              		.cfi_def_cfa_register 7
  48 0006 7860     		str	r0, [r7, #4]
 231:/home/zht/stm32tools/arm-gcc/arm-none-eabi/include/c++/7.3.1/arm-none-eabi/thumb/v7e-m/fpv4-sp/hard/bits/gthr-default.h ****   return 0;
  49              		.loc 1 231 0
  50 0008 0023     		movs	r3, #0
 232:/home/zht/stm32tools/arm-gcc/arm-none-eabi/include/c++/7.3.1/arm-none-eabi/thumb/v7e-m/fpv4-sp/hard/bits/gthr-default.h **** }
  51              		.loc 1 232 0
  52 000a 1846     		mov	r0, r3
  53 000c 0C37     		adds	r7, r7, #12
  54              	.LCFI3:
  55              		.cfi_def_cfa_offset 4
  56 000e BD46     		mov	sp, r7
ARM GAS  /tmp/ccGpM9Aw.s 			page 6


  57              	.LCFI4:
  58              		.cfi_def_cfa_register 13
  59              		@ sp needed
  60 0010 5DF8047B 		ldr	r7, [sp], #4
  61              	.LCFI5:
  62              		.cfi_restore 7
  63              		.cfi_def_cfa_offset 0
  64 0014 7047     		bx	lr
  65              		.cfi_endproc
  66              	.LFE584:
  68              		.section	.bss._ZStL8__ioinit,"aw",%nobits
  69              		.align	2
  72              	_ZStL8__ioinit:
  73 0000 00       		.space	1
  74              		.section	.text._Z14throwExceptionNSt7__cxx1112basic_stringIcSt11char_traitsIcESaIcEEE,"ax",%progbi
  75              		.align	1
  76              		.weak	_Z14throwExceptionNSt7__cxx1112basic_stringIcSt11char_traitsIcESaIcEEE
  77              		.syntax unified
  78              		.thumb
  79              		.thumb_func
  80              		.fpu fpv4-sp-d16
  82              	_Z14throwExceptionNSt7__cxx1112basic_stringIcSt11char_traitsIcESaIcEEE:
  83              	.LFB2283:
  84              		.file 2 "STM32CubeRobotics-Framework/Drivers/inc/scr_dependancy.h"
   1:STM32CubeRobotics-Framework/Drivers/inc/scr_dependancy.h **** #ifndef __SCR_DEPENDANCY_H
   2:STM32CubeRobotics-Framework/Drivers/inc/scr_dependancy.h **** #define __SCR_DEPENDANCY_H
   3:STM32CubeRobotics-Framework/Drivers/inc/scr_dependancy.h **** 
   4:STM32CubeRobotics-Framework/Drivers/inc/scr_dependancy.h **** 
   5:STM32CubeRobotics-Framework/Drivers/inc/scr_dependancy.h **** /*========================================================================*/
   6:STM32CubeRobotics-Framework/Drivers/inc/scr_dependancy.h **** #define DEVICE_FAMILY_STM32F4
   7:STM32CubeRobotics-Framework/Drivers/inc/scr_dependancy.h **** /*========================================================================*/
   8:STM32CubeRobotics-Framework/Drivers/inc/scr_dependancy.h **** 
   9:STM32CubeRobotics-Framework/Drivers/inc/scr_dependancy.h **** /*========================================================================*/
  10:STM32CubeRobotics-Framework/Drivers/inc/scr_dependancy.h ****     /*C includes*/
  11:STM32CubeRobotics-Framework/Drivers/inc/scr_dependancy.h **** extern "C" {
  12:STM32CubeRobotics-Framework/Drivers/inc/scr_dependancy.h **** 
  13:STM32CubeRobotics-Framework/Drivers/inc/scr_dependancy.h **** #ifdef DEVICE_FAMILY_STM32F1
  14:STM32CubeRobotics-Framework/Drivers/inc/scr_dependancy.h ****     #include "stm32f1xx_hal.h"
  15:STM32CubeRobotics-Framework/Drivers/inc/scr_dependancy.h **** #endif
  16:STM32CubeRobotics-Framework/Drivers/inc/scr_dependancy.h **** 
  17:STM32CubeRobotics-Framework/Drivers/inc/scr_dependancy.h **** #ifdef DEVICE_FAMILY_STM32F3
  18:STM32CubeRobotics-Framework/Drivers/inc/scr_dependancy.h ****     #include "stm32f3xx_hal.h"
  19:STM32CubeRobotics-Framework/Drivers/inc/scr_dependancy.h **** #endif
  20:STM32CubeRobotics-Framework/Drivers/inc/scr_dependancy.h **** 
  21:STM32CubeRobotics-Framework/Drivers/inc/scr_dependancy.h **** #ifdef DEVICE_FAMILY_STM32F4
  22:STM32CubeRobotics-Framework/Drivers/inc/scr_dependancy.h ****     #include "stm32f4xx_hal.h"
  23:STM32CubeRobotics-Framework/Drivers/inc/scr_dependancy.h **** #endif
  24:STM32CubeRobotics-Framework/Drivers/inc/scr_dependancy.h **** 
  25:STM32CubeRobotics-Framework/Drivers/inc/scr_dependancy.h **** #ifdef DEVICE_FAMILY_STM32F7
  26:STM32CubeRobotics-Framework/Drivers/inc/scr_dependancy.h ****     #include "stm32f7xx_hal.h"
  27:STM32CubeRobotics-Framework/Drivers/inc/scr_dependancy.h **** #endif
  28:STM32CubeRobotics-Framework/Drivers/inc/scr_dependancy.h **** 
  29:STM32CubeRobotics-Framework/Drivers/inc/scr_dependancy.h ****     #include "cmsis_os.h"
  30:STM32CubeRobotics-Framework/Drivers/inc/scr_dependancy.h **** }
  31:STM32CubeRobotics-Framework/Drivers/inc/scr_dependancy.h **** /*========================================================================*/
  32:STM32CubeRobotics-Framework/Drivers/inc/scr_dependancy.h **** 
  33:STM32CubeRobotics-Framework/Drivers/inc/scr_dependancy.h **** 
ARM GAS  /tmp/ccGpM9Aw.s 			page 7


  34:STM32CubeRobotics-Framework/Drivers/inc/scr_dependancy.h **** /*========================================================================*/
  35:STM32CubeRobotics-Framework/Drivers/inc/scr_dependancy.h ****     /*C++ includes*/
  36:STM32CubeRobotics-Framework/Drivers/inc/scr_dependancy.h **** 
  37:STM32CubeRobotics-Framework/Drivers/inc/scr_dependancy.h **** #include <iostream>
  38:STM32CubeRobotics-Framework/Drivers/inc/scr_dependancy.h **** #include <atomic>
  39:STM32CubeRobotics-Framework/Drivers/inc/scr_dependancy.h **** #include <cstring>
  40:STM32CubeRobotics-Framework/Drivers/inc/scr_dependancy.h **** #include <vector>
  41:STM32CubeRobotics-Framework/Drivers/inc/scr_dependancy.h **** #include <sstream>
  42:STM32CubeRobotics-Framework/Drivers/inc/scr_dependancy.h **** 
  43:STM32CubeRobotics-Framework/Drivers/inc/scr_dependancy.h **** /*========================================================================*/
  44:STM32CubeRobotics-Framework/Drivers/inc/scr_dependancy.h **** 
  45:STM32CubeRobotics-Framework/Drivers/inc/scr_dependancy.h **** namespace scr {
  46:STM32CubeRobotics-Framework/Drivers/inc/scr_dependancy.h ****     enum logic_level : int {High, Low};
  47:STM32CubeRobotics-Framework/Drivers/inc/scr_dependancy.h ****     enum periph_status : int
  48:STM32CubeRobotics-Framework/Drivers/inc/scr_dependancy.h ****     {	
  49:STM32CubeRobotics-Framework/Drivers/inc/scr_dependancy.h ****         NotReady,
  50:STM32CubeRobotics-Framework/Drivers/inc/scr_dependancy.h ****         Initialized,
  51:STM32CubeRobotics-Framework/Drivers/inc/scr_dependancy.h ****         InProgress,
  52:STM32CubeRobotics-Framework/Drivers/inc/scr_dependancy.h ****         Completed,
  53:STM32CubeRobotics-Framework/Drivers/inc/scr_dependancy.h ****         TimeOut,
  54:STM32CubeRobotics-Framework/Drivers/inc/scr_dependancy.h ****         Error
  55:STM32CubeRobotics-Framework/Drivers/inc/scr_dependancy.h ****     };
  56:STM32CubeRobotics-Framework/Drivers/inc/scr_dependancy.h ****     enum periph_mode {
  57:STM32CubeRobotics-Framework/Drivers/inc/scr_dependancy.h ****         Polling,
  58:STM32CubeRobotics-Framework/Drivers/inc/scr_dependancy.h ****         Interrupt,
  59:STM32CubeRobotics-Framework/Drivers/inc/scr_dependancy.h ****         DMA // direct memory access
  60:STM32CubeRobotics-Framework/Drivers/inc/scr_dependancy.h ****     };
  61:STM32CubeRobotics-Framework/Drivers/inc/scr_dependancy.h ****     enum delay_mode {
  62:STM32CubeRobotics-Framework/Drivers/inc/scr_dependancy.h ****         HAL,
  63:STM32CubeRobotics-Framework/Drivers/inc/scr_dependancy.h ****         RTOS
  64:STM32CubeRobotics-Framework/Drivers/inc/scr_dependancy.h ****     };
  65:STM32CubeRobotics-Framework/Drivers/inc/scr_dependancy.h **** }
  66:STM32CubeRobotics-Framework/Drivers/inc/scr_dependancy.h **** 
  67:STM32CubeRobotics-Framework/Drivers/inc/scr_dependancy.h **** typedef uint8_t byte_t;
  68:STM32CubeRobotics-Framework/Drivers/inc/scr_dependancy.h **** 
  69:STM32CubeRobotics-Framework/Drivers/inc/scr_dependancy.h **** 
  70:STM32CubeRobotics-Framework/Drivers/inc/scr_dependancy.h **** __weak void throwException(std::string str) {
  85              		.loc 2 70 0
  86              		.cfi_startproc
  87              		@ args = 0, pretend = 0, frame = 8
  88              		@ frame_needed = 1, uses_anonymous_args = 0
  89              		@ link register save eliminated.
  90 0000 80B4     		push	{r7}
  91              	.LCFI6:
  92              		.cfi_def_cfa_offset 4
  93              		.cfi_offset 7, -4
  94 0002 83B0     		sub	sp, sp, #12
  95              	.LCFI7:
  96              		.cfi_def_cfa_offset 16
  97 0004 00AF     		add	r7, sp, #0
  98              	.LCFI8:
  99              		.cfi_def_cfa_register 7
 100 0006 7860     		str	r0, [r7, #4]
  71:STM32CubeRobotics-Framework/Drivers/inc/scr_dependancy.h ****     UNUSED(str);
  72:STM32CubeRobotics-Framework/Drivers/inc/scr_dependancy.h **** }
 101              		.loc 2 72 0
 102 0008 00BF     		nop
ARM GAS  /tmp/ccGpM9Aw.s 			page 8


 103 000a 0C37     		adds	r7, r7, #12
 104              	.LCFI9:
 105              		.cfi_def_cfa_offset 4
 106 000c BD46     		mov	sp, r7
 107              	.LCFI10:
 108              		.cfi_def_cfa_register 13
 109              		@ sp needed
 110 000e 5DF8047B 		ldr	r7, [sp], #4
 111              	.LCFI11:
 112              		.cfi_restore 7
 113              		.cfi_def_cfa_offset 0
 114 0012 7047     		bx	lr
 115              		.cfi_endproc
 116              	.LFE2283:
 118              		.section	.bss._ZL10SysTime_T0,"aw",%nobits
 119              		.align	2
 122              	_ZL10SysTime_T0:
 123 0000 00000000 		.space	4
 124              		.section	.text._ZN3scr6millisEv,"ax",%progbits
 125              		.align	1
 126              		.global	_ZN3scr6millisEv
 127              		.syntax unified
 128              		.thumb
 129              		.thumb_func
 130              		.fpu fpv4-sp-d16
 132              	_ZN3scr6millisEv:
 133              	.LFB2284:
 134              		.file 3 "STM32CubeRobotics-Framework/Drivers/src/scr_systick.cpp"
   1:STM32CubeRobotics-Framework/Drivers/src/scr_systick.cpp **** #include "scr_systick.h"
   2:STM32CubeRobotics-Framework/Drivers/src/scr_systick.cpp **** 
   3:STM32CubeRobotics-Framework/Drivers/src/scr_systick.cpp **** 
   4:STM32CubeRobotics-Framework/Drivers/src/scr_systick.cpp **** static uint32_t SysTime_T0 = 0;
   5:STM32CubeRobotics-Framework/Drivers/src/scr_systick.cpp **** 
   6:STM32CubeRobotics-Framework/Drivers/src/scr_systick.cpp **** uint32_t scr::millis(void) {
 135              		.loc 3 6 0
 136              		.cfi_startproc
 137              		@ args = 0, pretend = 0, frame = 0
 138              		@ frame_needed = 1, uses_anonymous_args = 0
 139 0000 80B5     		push	{r7, lr}
 140              	.LCFI12:
 141              		.cfi_def_cfa_offset 8
 142              		.cfi_offset 7, -8
 143              		.cfi_offset 14, -4
 144 0002 00AF     		add	r7, sp, #0
 145              	.LCFI13:
 146              		.cfi_def_cfa_register 7
   7:STM32CubeRobotics-Framework/Drivers/src/scr_systick.cpp **** 	return HAL_GetTick() - SysTime_T0;
 147              		.loc 3 7 0
 148 0004 FFF7FEFF 		bl	HAL_GetTick
 149 0008 0246     		mov	r2, r0
 150 000a 024B     		ldr	r3, .L6
 151 000c 1B68     		ldr	r3, [r3]
 152 000e D31A     		subs	r3, r2, r3
   8:STM32CubeRobotics-Framework/Drivers/src/scr_systick.cpp **** }
 153              		.loc 3 8 0
 154 0010 1846     		mov	r0, r3
 155 0012 80BD     		pop	{r7, pc}
ARM GAS  /tmp/ccGpM9Aw.s 			page 9


 156              	.L7:
 157              		.align	2
 158              	.L6:
 159 0014 00000000 		.word	_ZL10SysTime_T0
 160              		.cfi_endproc
 161              	.LFE2284:
 163              		.section	.text._ZN3scr6microsEv,"ax",%progbits
 164              		.align	1
 165              		.global	_ZN3scr6microsEv
 166              		.syntax unified
 167              		.thumb
 168              		.thumb_func
 169              		.fpu fpv4-sp-d16
 171              	_ZN3scr6microsEv:
 172              	.LFB2285:
   9:STM32CubeRobotics-Framework/Drivers/src/scr_systick.cpp **** uint32_t scr::micros(void) {
 173              		.loc 3 9 0
 174              		.cfi_startproc
 175              		@ args = 0, pretend = 0, frame = 0
 176              		@ frame_needed = 1, uses_anonymous_args = 0
 177 0000 B0B5     		push	{r4, r5, r7, lr}
 178              	.LCFI14:
 179              		.cfi_def_cfa_offset 16
 180              		.cfi_offset 4, -16
 181              		.cfi_offset 5, -12
 182              		.cfi_offset 7, -8
 183              		.cfi_offset 14, -4
 184 0002 00AF     		add	r7, sp, #0
 185              	.LCFI15:
 186              		.cfi_def_cfa_register 7
  10:STM32CubeRobotics-Framework/Drivers/src/scr_systick.cpp **** 	//the second 1000 here corresponds to the default 1ms interrupt for teh Systick timer
  11:STM32CubeRobotics-Framework/Drivers/src/scr_systick.cpp **** 	return HAL_GetTick()*1000 + 1000 - (SysTick->VAL)/(HAL_RCC_GetHCLKFreq() / 1000000);
 187              		.loc 3 11 0
 188 0004 FFF7FEFF 		bl	HAL_GetTick
 189 0008 0346     		mov	r3, r0
 190 000a 0133     		adds	r3, r3, #1
 191 000c 4FF47A72 		mov	r2, #1000
 192 0010 02FB03F4 		mul	r4, r2, r3
 193 0014 064B     		ldr	r3, .L10
 194 0016 9D68     		ldr	r5, [r3, #8]
 195 0018 FFF7FEFF 		bl	HAL_RCC_GetHCLKFreq
 196 001c 0246     		mov	r2, r0
 197 001e 054B     		ldr	r3, .L10+4
 198 0020 A3FB0223 		umull	r2, r3, r3, r2
 199 0024 9B0C     		lsrs	r3, r3, #18
 200 0026 B5FBF3F3 		udiv	r3, r5, r3
 201 002a E31A     		subs	r3, r4, r3
  12:STM32CubeRobotics-Framework/Drivers/src/scr_systick.cpp **** }
 202              		.loc 3 12 0
 203 002c 1846     		mov	r0, r3
 204 002e B0BD     		pop	{r4, r5, r7, pc}
 205              	.L11:
 206              		.align	2
 207              	.L10:
 208 0030 10E000E0 		.word	-536813552
 209 0034 83DE1B43 		.word	1125899907
 210              		.cfi_endproc
ARM GAS  /tmp/ccGpM9Aw.s 			page 10


 211              	.LFE2285:
 213              		.section	.text._ZN3scr8delay_usEm,"ax",%progbits
 214              		.align	1
 215              		.global	_ZN3scr8delay_usEm
 216              		.syntax unified
 217              		.thumb
 218              		.thumb_func
 219              		.fpu fpv4-sp-d16
 221              	_ZN3scr8delay_usEm:
 222              	.LFB2286:
  13:STM32CubeRobotics-Framework/Drivers/src/scr_systick.cpp **** 
  14:STM32CubeRobotics-Framework/Drivers/src/scr_systick.cpp **** 
  15:STM32CubeRobotics-Framework/Drivers/src/scr_systick.cpp **** /* regular microsecond HAL-style delay*/
  16:STM32CubeRobotics-Framework/Drivers/src/scr_systick.cpp **** void scr::delay_us(uint32_t Time) {
 223              		.loc 3 16 0
 224              		.cfi_startproc
 225              		@ args = 0, pretend = 0, frame = 16
 226              		@ frame_needed = 1, uses_anonymous_args = 0
 227 0000 80B5     		push	{r7, lr}
 228              	.LCFI16:
 229              		.cfi_def_cfa_offset 8
 230              		.cfi_offset 7, -8
 231              		.cfi_offset 14, -4
 232 0002 84B0     		sub	sp, sp, #16
 233              	.LCFI17:
 234              		.cfi_def_cfa_offset 24
 235 0004 00AF     		add	r7, sp, #0
 236              	.LCFI18:
 237              		.cfi_def_cfa_register 7
 238 0006 7860     		str	r0, [r7, #4]
  17:STM32CubeRobotics-Framework/Drivers/src/scr_systick.cpp **** 	uint32_t T_init = scr::micros();
 239              		.loc 3 17 0
 240 0008 FFF7FEFF 		bl	_ZN3scr6microsEv
 241 000c F860     		str	r0, [r7, #12]
 242              	.L14:
  18:STM32CubeRobotics-Framework/Drivers/src/scr_systick.cpp **** 	while(scr::micros() - T_init < Time);
 243              		.loc 3 18 0
 244 000e FFF7FEFF 		bl	_ZN3scr6microsEv
 245 0012 0246     		mov	r2, r0
 246 0014 FB68     		ldr	r3, [r7, #12]
 247 0016 D31A     		subs	r3, r2, r3
 248 0018 7A68     		ldr	r2, [r7, #4]
 249 001a 9A42     		cmp	r2, r3
 250 001c 8CBF     		ite	hi
 251 001e 0123     		movhi	r3, #1
 252 0020 0023     		movls	r3, #0
 253 0022 DBB2     		uxtb	r3, r3
 254 0024 002B     		cmp	r3, #0
 255 0026 00D0     		beq	.L15
 256 0028 F1E7     		b	.L14
 257              	.L15:
  19:STM32CubeRobotics-Framework/Drivers/src/scr_systick.cpp **** }
 258              		.loc 3 19 0
 259 002a 00BF     		nop
 260 002c 1037     		adds	r7, r7, #16
 261              	.LCFI19:
 262              		.cfi_def_cfa_offset 8
ARM GAS  /tmp/ccGpM9Aw.s 			page 11


 263 002e BD46     		mov	sp, r7
 264              	.LCFI20:
 265              		.cfi_def_cfa_register 13
 266              		@ sp needed
 267 0030 80BD     		pop	{r7, pc}
 268              		.cfi_endproc
 269              	.LFE2286:
 271              		.section	.text._ZN3scr5delayEmNS_10delay_modeE,"ax",%progbits
 272              		.align	1
 273              		.global	_ZN3scr5delayEmNS_10delay_modeE
 274              		.syntax unified
 275              		.thumb
 276              		.thumb_func
 277              		.fpu fpv4-sp-d16
 279              	_ZN3scr5delayEmNS_10delay_modeE:
 280              	.LFB2287:
  20:STM32CubeRobotics-Framework/Drivers/src/scr_systick.cpp **** 
  21:STM32CubeRobotics-Framework/Drivers/src/scr_systick.cpp **** /* milliseconds delay that supports osDelay 
  22:STM32CubeRobotics-Framework/Drivers/src/scr_systick.cpp ****  * which notify RTOS scheduler when a task
  23:STM32CubeRobotics-Framework/Drivers/src/scr_systick.cpp ****  * is at idle time, which allow mutitask with
  24:STM32CubeRobotics-Framework/Drivers/src/scr_systick.cpp ****  * tasks of lower priority
  25:STM32CubeRobotics-Framework/Drivers/src/scr_systick.cpp ****  * */
  26:STM32CubeRobotics-Framework/Drivers/src/scr_systick.cpp **** void scr::delay(uint32_t Time, delay_mode mode) {
 281              		.loc 3 26 0
 282              		.cfi_startproc
 283              		@ args = 0, pretend = 0, frame = 16
 284              		@ frame_needed = 1, uses_anonymous_args = 0
 285 0000 80B5     		push	{r7, lr}
 286              	.LCFI21:
 287              		.cfi_def_cfa_offset 8
 288              		.cfi_offset 7, -8
 289              		.cfi_offset 14, -4
 290 0002 84B0     		sub	sp, sp, #16
 291              	.LCFI22:
 292              		.cfi_def_cfa_offset 24
 293 0004 00AF     		add	r7, sp, #0
 294              	.LCFI23:
 295              		.cfi_def_cfa_register 7
 296 0006 7860     		str	r0, [r7, #4]
 297 0008 0B46     		mov	r3, r1
 298 000a FB70     		strb	r3, [r7, #3]
 299              	.LBB2:
  27:STM32CubeRobotics-Framework/Drivers/src/scr_systick.cpp **** 	if(mode == HAL) {
 300              		.loc 3 27 0
 301 000c FB78     		ldrb	r3, [r7, #3]	@ zero_extendqisi2
 302 000e 002B     		cmp	r3, #0
 303 0010 10D1     		bne	.L17
 304              	.LBB3:
  28:STM32CubeRobotics-Framework/Drivers/src/scr_systick.cpp **** 		uint32_t T_init = scr::millis();
 305              		.loc 3 28 0
 306 0012 FFF7FEFF 		bl	_ZN3scr6millisEv
 307 0016 F860     		str	r0, [r7, #12]
 308              	.L19:
  29:STM32CubeRobotics-Framework/Drivers/src/scr_systick.cpp **** 		while(scr::millis() - T_init < Time);
 309              		.loc 3 29 0
 310 0018 FFF7FEFF 		bl	_ZN3scr6millisEv
 311 001c 0246     		mov	r2, r0
ARM GAS  /tmp/ccGpM9Aw.s 			page 12


 312 001e FB68     		ldr	r3, [r7, #12]
 313 0020 D31A     		subs	r3, r2, r3
 314 0022 7A68     		ldr	r2, [r7, #4]
 315 0024 9A42     		cmp	r2, r3
 316 0026 8CBF     		ite	hi
 317 0028 0123     		movhi	r3, #1
 318 002a 0023     		movls	r3, #0
 319 002c DBB2     		uxtb	r3, r3
 320 002e 002B     		cmp	r3, #0
 321 0030 00D0     		beq	.L17
 322 0032 F1E7     		b	.L19
 323              	.L17:
 324              	.LBE3:
 325              	.LBE2:
  30:STM32CubeRobotics-Framework/Drivers/src/scr_systick.cpp **** 	}
  31:STM32CubeRobotics-Framework/Drivers/src/scr_systick.cpp **** 	if(mode == RTOS) {
 326              		.loc 3 31 0
 327 0034 FB78     		ldrb	r3, [r7, #3]	@ zero_extendqisi2
 328 0036 012B     		cmp	r3, #1
 329 0038 02D1     		bne	.L21
  32:STM32CubeRobotics-Framework/Drivers/src/scr_systick.cpp **** 		osDelay(Time);
 330              		.loc 3 32 0
 331 003a 7868     		ldr	r0, [r7, #4]
 332 003c FFF7FEFF 		bl	osDelay
 333              	.L21:
  33:STM32CubeRobotics-Framework/Drivers/src/scr_systick.cpp **** 	}
  34:STM32CubeRobotics-Framework/Drivers/src/scr_systick.cpp **** }
 334              		.loc 3 34 0
 335 0040 00BF     		nop
 336 0042 1037     		adds	r7, r7, #16
 337              	.LCFI24:
 338              		.cfi_def_cfa_offset 8
 339 0044 BD46     		mov	sp, r7
 340              	.LCFI25:
 341              		.cfi_def_cfa_register 13
 342              		@ sp needed
 343 0046 80BD     		pop	{r7, pc}
 344              		.cfi_endproc
 345              	.LFE2287:
 347              		.section	.text._Z41__static_initialization_and_destruction_0ii,"ax",%progbits
 348              		.align	1
 349              		.syntax unified
 350              		.thumb
 351              		.thumb_func
 352              		.fpu fpv4-sp-d16
 354              	_Z41__static_initialization_and_destruction_0ii:
 355              	.LFB2831:
 356              		.loc 3 34 0
 357              		.cfi_startproc
 358              		@ args = 0, pretend = 0, frame = 8
 359              		@ frame_needed = 1, uses_anonymous_args = 0
 360 0000 80B5     		push	{r7, lr}
 361              	.LCFI26:
 362              		.cfi_def_cfa_offset 8
 363              		.cfi_offset 7, -8
 364              		.cfi_offset 14, -4
 365 0002 82B0     		sub	sp, sp, #8
ARM GAS  /tmp/ccGpM9Aw.s 			page 13


 366              	.LCFI27:
 367              		.cfi_def_cfa_offset 16
 368 0004 00AF     		add	r7, sp, #0
 369              	.LCFI28:
 370              		.cfi_def_cfa_register 7
 371 0006 7860     		str	r0, [r7, #4]
 372 0008 3960     		str	r1, [r7]
 373              		.loc 3 34 0
 374 000a 7B68     		ldr	r3, [r7, #4]
 375 000c 012B     		cmp	r3, #1
 376 000e 07D1     		bne	.L23
 377              		.loc 3 34 0 is_stmt 0 discriminator 1
 378 0010 3B68     		ldr	r3, [r7]
 379 0012 4FF6FF72 		movw	r2, #65535
 380 0016 9342     		cmp	r3, r2
 381 0018 02D1     		bne	.L23
 382              		.file 4 "/home/zht/stm32tools/arm-gcc/arm-none-eabi/include/c++/7.3.1/iostream"
   1:/home/zht/stm32tools/arm-gcc/arm-none-eabi/include/c++/7.3.1/iostream **** // Standard iostream objects -*- C++ -*-
   2:/home/zht/stm32tools/arm-gcc/arm-none-eabi/include/c++/7.3.1/iostream **** 
   3:/home/zht/stm32tools/arm-gcc/arm-none-eabi/include/c++/7.3.1/iostream **** // Copyright (C) 1997-2017 Free Software Foundation, Inc.
   4:/home/zht/stm32tools/arm-gcc/arm-none-eabi/include/c++/7.3.1/iostream **** //
   5:/home/zht/stm32tools/arm-gcc/arm-none-eabi/include/c++/7.3.1/iostream **** // This file is part of the GNU ISO C++ Library.  This library is free
   6:/home/zht/stm32tools/arm-gcc/arm-none-eabi/include/c++/7.3.1/iostream **** // software; you can redistribute it and/or modify it under the
   7:/home/zht/stm32tools/arm-gcc/arm-none-eabi/include/c++/7.3.1/iostream **** // terms of the GNU General Public License as published by the
   8:/home/zht/stm32tools/arm-gcc/arm-none-eabi/include/c++/7.3.1/iostream **** // Free Software Foundation; either version 3, or (at your option)
   9:/home/zht/stm32tools/arm-gcc/arm-none-eabi/include/c++/7.3.1/iostream **** // any later version.
  10:/home/zht/stm32tools/arm-gcc/arm-none-eabi/include/c++/7.3.1/iostream **** 
  11:/home/zht/stm32tools/arm-gcc/arm-none-eabi/include/c++/7.3.1/iostream **** // This library is distributed in the hope that it will be useful,
  12:/home/zht/stm32tools/arm-gcc/arm-none-eabi/include/c++/7.3.1/iostream **** // but WITHOUT ANY WARRANTY; without even the implied warranty of
  13:/home/zht/stm32tools/arm-gcc/arm-none-eabi/include/c++/7.3.1/iostream **** // MERCHANTABILITY or FITNESS FOR A PARTICULAR PURPOSE.  See the
  14:/home/zht/stm32tools/arm-gcc/arm-none-eabi/include/c++/7.3.1/iostream **** // GNU General Public License for more details.
  15:/home/zht/stm32tools/arm-gcc/arm-none-eabi/include/c++/7.3.1/iostream **** 
  16:/home/zht/stm32tools/arm-gcc/arm-none-eabi/include/c++/7.3.1/iostream **** // Under Section 7 of GPL version 3, you are granted additional
  17:/home/zht/stm32tools/arm-gcc/arm-none-eabi/include/c++/7.3.1/iostream **** // permissions described in the GCC Runtime Library Exception, version
  18:/home/zht/stm32tools/arm-gcc/arm-none-eabi/include/c++/7.3.1/iostream **** // 3.1, as published by the Free Software Foundation.
  19:/home/zht/stm32tools/arm-gcc/arm-none-eabi/include/c++/7.3.1/iostream **** 
  20:/home/zht/stm32tools/arm-gcc/arm-none-eabi/include/c++/7.3.1/iostream **** // You should have received a copy of the GNU General Public License and
  21:/home/zht/stm32tools/arm-gcc/arm-none-eabi/include/c++/7.3.1/iostream **** // a copy of the GCC Runtime Library Exception along with this program;
  22:/home/zht/stm32tools/arm-gcc/arm-none-eabi/include/c++/7.3.1/iostream **** // see the files COPYING3 and COPYING.RUNTIME respectively.  If not, see
  23:/home/zht/stm32tools/arm-gcc/arm-none-eabi/include/c++/7.3.1/iostream **** // <http://www.gnu.org/licenses/>.
  24:/home/zht/stm32tools/arm-gcc/arm-none-eabi/include/c++/7.3.1/iostream **** 
  25:/home/zht/stm32tools/arm-gcc/arm-none-eabi/include/c++/7.3.1/iostream **** /** @file include/iostream
  26:/home/zht/stm32tools/arm-gcc/arm-none-eabi/include/c++/7.3.1/iostream ****  *  This is a Standard C++ Library header.
  27:/home/zht/stm32tools/arm-gcc/arm-none-eabi/include/c++/7.3.1/iostream ****  */
  28:/home/zht/stm32tools/arm-gcc/arm-none-eabi/include/c++/7.3.1/iostream **** 
  29:/home/zht/stm32tools/arm-gcc/arm-none-eabi/include/c++/7.3.1/iostream **** //
  30:/home/zht/stm32tools/arm-gcc/arm-none-eabi/include/c++/7.3.1/iostream **** // ISO C++ 14882: 27.3  Standard iostream objects
  31:/home/zht/stm32tools/arm-gcc/arm-none-eabi/include/c++/7.3.1/iostream **** //
  32:/home/zht/stm32tools/arm-gcc/arm-none-eabi/include/c++/7.3.1/iostream **** 
  33:/home/zht/stm32tools/arm-gcc/arm-none-eabi/include/c++/7.3.1/iostream **** #ifndef _GLIBCXX_IOSTREAM
  34:/home/zht/stm32tools/arm-gcc/arm-none-eabi/include/c++/7.3.1/iostream **** #define _GLIBCXX_IOSTREAM 1
  35:/home/zht/stm32tools/arm-gcc/arm-none-eabi/include/c++/7.3.1/iostream **** 
  36:/home/zht/stm32tools/arm-gcc/arm-none-eabi/include/c++/7.3.1/iostream **** #pragma GCC system_header
  37:/home/zht/stm32tools/arm-gcc/arm-none-eabi/include/c++/7.3.1/iostream **** 
  38:/home/zht/stm32tools/arm-gcc/arm-none-eabi/include/c++/7.3.1/iostream **** #include <bits/c++config.h>
  39:/home/zht/stm32tools/arm-gcc/arm-none-eabi/include/c++/7.3.1/iostream **** #include <ostream>
  40:/home/zht/stm32tools/arm-gcc/arm-none-eabi/include/c++/7.3.1/iostream **** #include <istream>
ARM GAS  /tmp/ccGpM9Aw.s 			page 14


  41:/home/zht/stm32tools/arm-gcc/arm-none-eabi/include/c++/7.3.1/iostream **** 
  42:/home/zht/stm32tools/arm-gcc/arm-none-eabi/include/c++/7.3.1/iostream **** namespace std _GLIBCXX_VISIBILITY(default)
  43:/home/zht/stm32tools/arm-gcc/arm-none-eabi/include/c++/7.3.1/iostream **** {
  44:/home/zht/stm32tools/arm-gcc/arm-none-eabi/include/c++/7.3.1/iostream **** _GLIBCXX_BEGIN_NAMESPACE_VERSION
  45:/home/zht/stm32tools/arm-gcc/arm-none-eabi/include/c++/7.3.1/iostream **** 
  46:/home/zht/stm32tools/arm-gcc/arm-none-eabi/include/c++/7.3.1/iostream ****   /**
  47:/home/zht/stm32tools/arm-gcc/arm-none-eabi/include/c++/7.3.1/iostream ****    *  @name Standard Stream Objects
  48:/home/zht/stm32tools/arm-gcc/arm-none-eabi/include/c++/7.3.1/iostream ****    *
  49:/home/zht/stm32tools/arm-gcc/arm-none-eabi/include/c++/7.3.1/iostream ****    *  The &lt;iostream&gt; header declares the eight <em>standard stream
  50:/home/zht/stm32tools/arm-gcc/arm-none-eabi/include/c++/7.3.1/iostream ****    *  objects</em>.  For other declarations, see
  51:/home/zht/stm32tools/arm-gcc/arm-none-eabi/include/c++/7.3.1/iostream ****    *  http://gcc.gnu.org/onlinedocs/libstdc++/manual/io.html
  52:/home/zht/stm32tools/arm-gcc/arm-none-eabi/include/c++/7.3.1/iostream ****    *  and the @link iosfwd I/O forward declarations @endlink
  53:/home/zht/stm32tools/arm-gcc/arm-none-eabi/include/c++/7.3.1/iostream ****    *
  54:/home/zht/stm32tools/arm-gcc/arm-none-eabi/include/c++/7.3.1/iostream ****    *  They are required by default to cooperate with the global C
  55:/home/zht/stm32tools/arm-gcc/arm-none-eabi/include/c++/7.3.1/iostream ****    *  library's @c FILE streams, and to be available during program
  56:/home/zht/stm32tools/arm-gcc/arm-none-eabi/include/c++/7.3.1/iostream ****    *  startup and termination. For more information, see the section of the
  57:/home/zht/stm32tools/arm-gcc/arm-none-eabi/include/c++/7.3.1/iostream ****    *  manual linked to above.
  58:/home/zht/stm32tools/arm-gcc/arm-none-eabi/include/c++/7.3.1/iostream ****   */
  59:/home/zht/stm32tools/arm-gcc/arm-none-eabi/include/c++/7.3.1/iostream ****   //@{
  60:/home/zht/stm32tools/arm-gcc/arm-none-eabi/include/c++/7.3.1/iostream ****   extern istream cin;		/// Linked to standard input
  61:/home/zht/stm32tools/arm-gcc/arm-none-eabi/include/c++/7.3.1/iostream ****   extern ostream cout;		/// Linked to standard output
  62:/home/zht/stm32tools/arm-gcc/arm-none-eabi/include/c++/7.3.1/iostream ****   extern ostream cerr;		/// Linked to standard error (unbuffered)
  63:/home/zht/stm32tools/arm-gcc/arm-none-eabi/include/c++/7.3.1/iostream ****   extern ostream clog;		/// Linked to standard error (buffered)
  64:/home/zht/stm32tools/arm-gcc/arm-none-eabi/include/c++/7.3.1/iostream **** 
  65:/home/zht/stm32tools/arm-gcc/arm-none-eabi/include/c++/7.3.1/iostream **** #ifdef _GLIBCXX_USE_WCHAR_T
  66:/home/zht/stm32tools/arm-gcc/arm-none-eabi/include/c++/7.3.1/iostream ****   extern wistream wcin;		/// Linked to standard input
  67:/home/zht/stm32tools/arm-gcc/arm-none-eabi/include/c++/7.3.1/iostream ****   extern wostream wcout;	/// Linked to standard output
  68:/home/zht/stm32tools/arm-gcc/arm-none-eabi/include/c++/7.3.1/iostream ****   extern wostream wcerr;	/// Linked to standard error (unbuffered)
  69:/home/zht/stm32tools/arm-gcc/arm-none-eabi/include/c++/7.3.1/iostream ****   extern wostream wclog;	/// Linked to standard error (buffered)
  70:/home/zht/stm32tools/arm-gcc/arm-none-eabi/include/c++/7.3.1/iostream **** #endif
  71:/home/zht/stm32tools/arm-gcc/arm-none-eabi/include/c++/7.3.1/iostream ****   //@}
  72:/home/zht/stm32tools/arm-gcc/arm-none-eabi/include/c++/7.3.1/iostream **** 
  73:/home/zht/stm32tools/arm-gcc/arm-none-eabi/include/c++/7.3.1/iostream ****   // For construction of filebuffers for cout, cin, cerr, clog et. al.
  74:/home/zht/stm32tools/arm-gcc/arm-none-eabi/include/c++/7.3.1/iostream ****   static ios_base::Init __ioinit;
 383              		.loc 4 74 0 is_stmt 1
 384 001a 0948     		ldr	r0, .L26
 385 001c FFF7FEFF 		bl	_ZNSt8ios_base4InitC1Ev
 386              	.L23:
 387 0020 7B68     		ldr	r3, [r7, #4]
 388 0022 002B     		cmp	r3, #0
 389 0024 07D1     		bne	.L25
 390              		.loc 4 74 0 is_stmt 0 discriminator 1
 391 0026 3B68     		ldr	r3, [r7]
 392 0028 4FF6FF72 		movw	r2, #65535
 393 002c 9342     		cmp	r3, r2
 394 002e 02D1     		bne	.L25
 395              		.loc 4 74 0 discriminator 2
 396 0030 0348     		ldr	r0, .L26
 397 0032 FFF7FEFF 		bl	_ZNSt8ios_base4InitD1Ev
 398              	.L25:
 399              		.loc 3 34 0 is_stmt 1
 400 0036 00BF     		nop
 401 0038 0837     		adds	r7, r7, #8
 402              	.LCFI29:
 403              		.cfi_def_cfa_offset 8
 404 003a BD46     		mov	sp, r7
 405              	.LCFI30:
ARM GAS  /tmp/ccGpM9Aw.s 			page 15


 406              		.cfi_def_cfa_register 13
 407              		@ sp needed
 408 003c 80BD     		pop	{r7, pc}
 409              	.L27:
 410 003e 00BF     		.align	2
 411              	.L26:
 412 0040 00000000 		.word	_ZStL8__ioinit
 413              		.cfi_endproc
 414              	.LFE2831:
 416              		.section	.text._GLOBAL__sub_I__ZN3scr6millisEv,"ax",%progbits
 417              		.align	1
 418              		.syntax unified
 419              		.thumb
 420              		.thumb_func
 421              		.fpu fpv4-sp-d16
 423              	_GLOBAL__sub_I__ZN3scr6millisEv:
 424              	.LFB2832:
 425              		.loc 3 34 0
 426              		.cfi_startproc
 427              		@ args = 0, pretend = 0, frame = 0
 428              		@ frame_needed = 1, uses_anonymous_args = 0
 429 0000 80B5     		push	{r7, lr}
 430              	.LCFI31:
 431              		.cfi_def_cfa_offset 8
 432              		.cfi_offset 7, -8
 433              		.cfi_offset 14, -4
 434 0002 00AF     		add	r7, sp, #0
 435              	.LCFI32:
 436              		.cfi_def_cfa_register 7
 437              		.loc 3 34 0
 438 0004 4FF6FF71 		movw	r1, #65535
 439 0008 0120     		movs	r0, #1
 440 000a FFF7FEFF 		bl	_Z41__static_initialization_and_destruction_0ii
 441 000e 80BD     		pop	{r7, pc}
 442              		.cfi_endproc
 443              	.LFE2832:
 445              		.section	.init_array,"aw",%init_array
 446              		.align	2
 447 0000 00000000 		.word	_GLOBAL__sub_I__ZN3scr6millisEv(target1)
 448              		.section	.text._GLOBAL__sub_D__ZN3scr6millisEv,"ax",%progbits
 449              		.align	1
 450              		.syntax unified
 451              		.thumb
 452              		.thumb_func
 453              		.fpu fpv4-sp-d16
 455              	_GLOBAL__sub_D__ZN3scr6millisEv:
 456              	.LFB2833:
 457              		.loc 3 34 0
 458              		.cfi_startproc
 459              		@ args = 0, pretend = 0, frame = 0
 460              		@ frame_needed = 1, uses_anonymous_args = 0
 461 0000 80B5     		push	{r7, lr}
 462              	.LCFI33:
 463              		.cfi_def_cfa_offset 8
 464              		.cfi_offset 7, -8
 465              		.cfi_offset 14, -4
 466 0002 00AF     		add	r7, sp, #0
ARM GAS  /tmp/ccGpM9Aw.s 			page 16


 467              	.LCFI34:
 468              		.cfi_def_cfa_register 7
 469              		.loc 3 34 0
 470 0004 4FF6FF71 		movw	r1, #65535
 471 0008 0020     		movs	r0, #0
 472 000a FFF7FEFF 		bl	_Z41__static_initialization_and_destruction_0ii
 473 000e 80BD     		pop	{r7, pc}
 474              		.cfi_endproc
 475              	.LFE2833:
 477              		.section	.fini_array,"aw",%fini_array
 478              		.align	2
 479 0000 00000000 		.word	_GLOBAL__sub_D__ZN3scr6millisEv(target1)
 480              		.text
 481              	.Letext0:
 482              		.file 5 "/home/zht/stm32tools/arm-gcc/arm-none-eabi/include/machine/_default_types.h"
 483              		.file 6 "/home/zht/stm32tools/arm-gcc/arm-none-eabi/include/sys/_stdint.h"
 484              		.file 7 "/home/zht/stm32tools/arm-gcc/arm-none-eabi/include/stdint.h"
 485              		.file 8 "Firmware/Drivers/CMSIS/Include/core_cm4.h"
 486              		.file 9 "Firmware/Drivers/CMSIS/Device/ST/STM32F4xx/Include/system_stm32f4xx.h"
 487              		.file 10 "/home/zht/stm32tools/arm-gcc/lib/gcc/arm-none-eabi/7.3.1/include/stddef.h"
 488              		.file 11 "Firmware/Drivers/STM32F4xx_HAL_Driver/Inc/stm32f4xx_hal.h"
 489              		.file 12 "/home/zht/stm32tools/arm-gcc/arm-none-eabi/include/c++/7.3.1/bits/basic_string.h"
 490              		.file 13 "/home/zht/stm32tools/arm-gcc/arm-none-eabi/include/c++/7.3.1/bits/stringfwd.h"
 491              		.file 14 "/home/zht/stm32tools/arm-gcc/arm-none-eabi/include/c++/7.3.1/cwchar"
 492              		.file 15 "/home/zht/stm32tools/arm-gcc/arm-none-eabi/include/c++/7.3.1/new"
 493              		.file 16 "/home/zht/stm32tools/arm-gcc/arm-none-eabi/include/c++/7.3.1/arm-none-eabi/thumb/v7e-m/f
 494              		.file 17 "/home/zht/stm32tools/arm-gcc/arm-none-eabi/include/c++/7.3.1/bits/exception_ptr.h"
 495              		.file 18 "/home/zht/stm32tools/arm-gcc/arm-none-eabi/include/c++/7.3.1/type_traits"
 496              		.file 19 "/home/zht/stm32tools/arm-gcc/arm-none-eabi/include/c++/7.3.1/bits/cpp_type_traits.h"
 497              		.file 20 "/home/zht/stm32tools/arm-gcc/arm-none-eabi/include/c++/7.3.1/bits/stl_pair.h"
 498              		.file 21 "/home/zht/stm32tools/arm-gcc/arm-none-eabi/include/c++/7.3.1/debug/debug.h"
 499              		.file 22 "/home/zht/stm32tools/arm-gcc/arm-none-eabi/include/c++/7.3.1/bits/char_traits.h"
 500              		.file 23 "/home/zht/stm32tools/arm-gcc/arm-none-eabi/include/c++/7.3.1/cstdint"
 501              		.file 24 "/home/zht/stm32tools/arm-gcc/arm-none-eabi/include/c++/7.3.1/clocale"
 502              		.file 25 "/home/zht/stm32tools/arm-gcc/arm-none-eabi/include/c++/7.3.1/bits/allocator.h"
 503              		.file 26 "/home/zht/stm32tools/arm-gcc/arm-none-eabi/include/c++/7.3.1/cstdlib"
 504              		.file 27 "/home/zht/stm32tools/arm-gcc/arm-none-eabi/include/c++/7.3.1/cstdio"
 505              		.file 28 "/home/zht/stm32tools/arm-gcc/arm-none-eabi/include/c++/7.3.1/bits/alloc_traits.h"
 506              		.file 29 "/home/zht/stm32tools/arm-gcc/arm-none-eabi/include/c++/7.3.1/initializer_list"
 507              		.file 30 "/home/zht/stm32tools/arm-gcc/arm-none-eabi/include/c++/7.3.1/system_error"
 508              		.file 31 "/home/zht/stm32tools/arm-gcc/arm-none-eabi/include/c++/7.3.1/bits/ios_base.h"
 509              		.file 32 "/home/zht/stm32tools/arm-gcc/arm-none-eabi/include/c++/7.3.1/cwctype"
 510              		.file 33 "/home/zht/stm32tools/arm-gcc/arm-none-eabi/include/c++/7.3.1/iosfwd"
 511              		.file 34 "/home/zht/stm32tools/arm-gcc/arm-none-eabi/include/c++/7.3.1/cstring"
 512              		.file 35 "/home/zht/stm32tools/arm-gcc/arm-none-eabi/include/c++/7.3.1/bits/stl_iterator_base_type
 513              		.file 36 "/home/zht/stm32tools/arm-gcc/arm-none-eabi/include/c++/7.3.1/bits/predefined_ops.h"
 514              		.file 37 "/home/zht/stm32tools/arm-gcc/arm-none-eabi/include/c++/7.3.1/ext/new_allocator.h"
 515              		.file 38 "/home/zht/stm32tools/arm-gcc/arm-none-eabi/include/c++/7.3.1/ext/numeric_traits.h"
 516              		.file 39 "/home/zht/stm32tools/arm-gcc/arm-none-eabi/include/c++/7.3.1/ext/alloc_traits.h"
 517              		.file 40 "/home/zht/stm32tools/arm-gcc/arm-none-eabi/include/c++/7.3.1/bits/stl_iterator.h"
 518              		.file 41 "/home/zht/stm32tools/arm-gcc/arm-none-eabi/include/sys/lock.h"
 519              		.file 42 "/home/zht/stm32tools/arm-gcc/arm-none-eabi/include/sys/_types.h"
 520              		.file 43 "/home/zht/stm32tools/arm-gcc/arm-none-eabi/include/sys/reent.h"
 521              		.file 44 "/home/zht/stm32tools/arm-gcc/lib/gcc/arm-none-eabi/7.3.1/include/stdarg.h"
 522              		.file 45 "<built-in>"
 523              		.file 46 "/home/zht/stm32tools/arm-gcc/arm-none-eabi/include/wchar.h"
 524              		.file 47 "/home/zht/stm32tools/arm-gcc/arm-none-eabi/include/locale.h"
ARM GAS  /tmp/ccGpM9Aw.s 			page 17


 525              		.file 48 "/home/zht/stm32tools/arm-gcc/arm-none-eabi/include/ctype.h"
 526              		.file 49 "/home/zht/stm32tools/arm-gcc/arm-none-eabi/include/c++/7.3.1/arm-none-eabi/thumb/v7e-m/f
 527              		.file 50 "/home/zht/stm32tools/arm-gcc/arm-none-eabi/include/stdlib.h"
 528              		.file 51 "/home/zht/stm32tools/arm-gcc/arm-none-eabi/include/stdio.h"
 529              		.file 52 "/home/zht/stm32tools/arm-gcc/arm-none-eabi/include/sys/errno.h"
 530              		.file 53 "/home/zht/stm32tools/arm-gcc/arm-none-eabi/include/wctype.h"
 531              		.file 54 "/home/zht/stm32tools/arm-gcc/arm-none-eabi/include/string.h"
ARM GAS  /tmp/ccGpM9Aw.s 			page 18

