ARM GAS  /tmp/cczUr7WU.s 			page 1


   1              		.cpu cortex-m4
   2              		.eabi_attribute 27, 1
   3              		.eabi_attribute 28, 1
   4              		.eabi_attribute 20, 1
   5              		.eabi_attribute 21, 1
   6              		.eabi_attribute 23, 3
   7              		.eabi_attribute 24, 1
   8              		.eabi_attribute 25, 1
   9              		.eabi_attribute 26, 1
  10              		.eabi_attribute 30, 6
  11              		.eabi_attribute 34, 1
  12              		.eabi_attribute 18, 4
  13              		.file	"scr_usart.cpp"
  14              		.text
  15              	.Ltext0:
  16              		.cfi_sections	.debug_frame
  17              		.section	.rodata._ZStL19piecewise_construct,"a",%progbits
  18              		.align	2
  21              	_ZStL19piecewise_construct:
  22 0000 00       		.space	1
  23              		.section	.text._ZL20__gthread_key_deletei,"ax",%progbits
  24              		.align	1
  25              		.syntax unified
  26              		.thumb
  27              		.thumb_func
  28              		.fpu fpv4-sp-d16
  30              	_ZL20__gthread_key_deletei:
  31              	.LFB584:
  32              		.file 1 "/home/zht/stm32tools/arm-gcc/arm-none-eabi/include/c++/7.3.1/arm-none-eabi/thumb/v7e-m/fp
   1:/home/zht/stm32tools/arm-gcc/arm-none-eabi/include/c++/7.3.1/arm-none-eabi/thumb/v7e-m/fpv4-sp/hard/bits/gthr-default.h **** /* Threads compatibility routines for libgcc2 and libobjc.  */
   2:/home/zht/stm32tools/arm-gcc/arm-none-eabi/include/c++/7.3.1/arm-none-eabi/thumb/v7e-m/fpv4-sp/hard/bits/gthr-default.h **** /* Compile this one with gcc.  */
   3:/home/zht/stm32tools/arm-gcc/arm-none-eabi/include/c++/7.3.1/arm-none-eabi/thumb/v7e-m/fpv4-sp/hard/bits/gthr-default.h **** /* Copyright (C) 1997-2017 Free Software Foundation, Inc.
   4:/home/zht/stm32tools/arm-gcc/arm-none-eabi/include/c++/7.3.1/arm-none-eabi/thumb/v7e-m/fpv4-sp/hard/bits/gthr-default.h **** 
   5:/home/zht/stm32tools/arm-gcc/arm-none-eabi/include/c++/7.3.1/arm-none-eabi/thumb/v7e-m/fpv4-sp/hard/bits/gthr-default.h **** This file is part of GCC.
   6:/home/zht/stm32tools/arm-gcc/arm-none-eabi/include/c++/7.3.1/arm-none-eabi/thumb/v7e-m/fpv4-sp/hard/bits/gthr-default.h **** 
   7:/home/zht/stm32tools/arm-gcc/arm-none-eabi/include/c++/7.3.1/arm-none-eabi/thumb/v7e-m/fpv4-sp/hard/bits/gthr-default.h **** GCC is free software; you can redistribute it and/or modify it under
   8:/home/zht/stm32tools/arm-gcc/arm-none-eabi/include/c++/7.3.1/arm-none-eabi/thumb/v7e-m/fpv4-sp/hard/bits/gthr-default.h **** the terms of the GNU General Public License as published by the Free
   9:/home/zht/stm32tools/arm-gcc/arm-none-eabi/include/c++/7.3.1/arm-none-eabi/thumb/v7e-m/fpv4-sp/hard/bits/gthr-default.h **** Software Foundation; either version 3, or (at your option) any later
  10:/home/zht/stm32tools/arm-gcc/arm-none-eabi/include/c++/7.3.1/arm-none-eabi/thumb/v7e-m/fpv4-sp/hard/bits/gthr-default.h **** version.
  11:/home/zht/stm32tools/arm-gcc/arm-none-eabi/include/c++/7.3.1/arm-none-eabi/thumb/v7e-m/fpv4-sp/hard/bits/gthr-default.h **** 
  12:/home/zht/stm32tools/arm-gcc/arm-none-eabi/include/c++/7.3.1/arm-none-eabi/thumb/v7e-m/fpv4-sp/hard/bits/gthr-default.h **** GCC is distributed in the hope that it will be useful, but WITHOUT ANY
  13:/home/zht/stm32tools/arm-gcc/arm-none-eabi/include/c++/7.3.1/arm-none-eabi/thumb/v7e-m/fpv4-sp/hard/bits/gthr-default.h **** WARRANTY; without even the implied warranty of MERCHANTABILITY or
  14:/home/zht/stm32tools/arm-gcc/arm-none-eabi/include/c++/7.3.1/arm-none-eabi/thumb/v7e-m/fpv4-sp/hard/bits/gthr-default.h **** FITNESS FOR A PARTICULAR PURPOSE.  See the GNU General Public License
  15:/home/zht/stm32tools/arm-gcc/arm-none-eabi/include/c++/7.3.1/arm-none-eabi/thumb/v7e-m/fpv4-sp/hard/bits/gthr-default.h **** for more details.
  16:/home/zht/stm32tools/arm-gcc/arm-none-eabi/include/c++/7.3.1/arm-none-eabi/thumb/v7e-m/fpv4-sp/hard/bits/gthr-default.h **** 
  17:/home/zht/stm32tools/arm-gcc/arm-none-eabi/include/c++/7.3.1/arm-none-eabi/thumb/v7e-m/fpv4-sp/hard/bits/gthr-default.h **** Under Section 7 of GPL version 3, you are granted additional
  18:/home/zht/stm32tools/arm-gcc/arm-none-eabi/include/c++/7.3.1/arm-none-eabi/thumb/v7e-m/fpv4-sp/hard/bits/gthr-default.h **** permissions described in the GCC Runtime Library Exception, version
  19:/home/zht/stm32tools/arm-gcc/arm-none-eabi/include/c++/7.3.1/arm-none-eabi/thumb/v7e-m/fpv4-sp/hard/bits/gthr-default.h **** 3.1, as published by the Free Software Foundation.
  20:/home/zht/stm32tools/arm-gcc/arm-none-eabi/include/c++/7.3.1/arm-none-eabi/thumb/v7e-m/fpv4-sp/hard/bits/gthr-default.h **** 
  21:/home/zht/stm32tools/arm-gcc/arm-none-eabi/include/c++/7.3.1/arm-none-eabi/thumb/v7e-m/fpv4-sp/hard/bits/gthr-default.h **** You should have received a copy of the GNU General Public License and
  22:/home/zht/stm32tools/arm-gcc/arm-none-eabi/include/c++/7.3.1/arm-none-eabi/thumb/v7e-m/fpv4-sp/hard/bits/gthr-default.h **** a copy of the GCC Runtime Library Exception along with this program;
  23:/home/zht/stm32tools/arm-gcc/arm-none-eabi/include/c++/7.3.1/arm-none-eabi/thumb/v7e-m/fpv4-sp/hard/bits/gthr-default.h **** see the files COPYING3 and COPYING.RUNTIME respectively.  If not, see
  24:/home/zht/stm32tools/arm-gcc/arm-none-eabi/include/c++/7.3.1/arm-none-eabi/thumb/v7e-m/fpv4-sp/hard/bits/gthr-default.h **** <http://www.gnu.org/licenses/>.  */
  25:/home/zht/stm32tools/arm-gcc/arm-none-eabi/include/c++/7.3.1/arm-none-eabi/thumb/v7e-m/fpv4-sp/hard/bits/gthr-default.h **** 
  26:/home/zht/stm32tools/arm-gcc/arm-none-eabi/include/c++/7.3.1/arm-none-eabi/thumb/v7e-m/fpv4-sp/hard/bits/gthr-default.h **** #ifndef _GLIBCXX_GCC_GTHR_SINGLE_H
  27:/home/zht/stm32tools/arm-gcc/arm-none-eabi/include/c++/7.3.1/arm-none-eabi/thumb/v7e-m/fpv4-sp/hard/bits/gthr-default.h **** #define _GLIBCXX_GCC_GTHR_SINGLE_H
  28:/home/zht/stm32tools/arm-gcc/arm-none-eabi/include/c++/7.3.1/arm-none-eabi/thumb/v7e-m/fpv4-sp/hard/bits/gthr-default.h **** 
ARM GAS  /tmp/cczUr7WU.s 			page 2


  29:/home/zht/stm32tools/arm-gcc/arm-none-eabi/include/c++/7.3.1/arm-none-eabi/thumb/v7e-m/fpv4-sp/hard/bits/gthr-default.h **** /* Just provide compatibility for mutex handling.  */
  30:/home/zht/stm32tools/arm-gcc/arm-none-eabi/include/c++/7.3.1/arm-none-eabi/thumb/v7e-m/fpv4-sp/hard/bits/gthr-default.h **** 
  31:/home/zht/stm32tools/arm-gcc/arm-none-eabi/include/c++/7.3.1/arm-none-eabi/thumb/v7e-m/fpv4-sp/hard/bits/gthr-default.h **** typedef int __gthread_key_t;
  32:/home/zht/stm32tools/arm-gcc/arm-none-eabi/include/c++/7.3.1/arm-none-eabi/thumb/v7e-m/fpv4-sp/hard/bits/gthr-default.h **** typedef int __gthread_once_t;
  33:/home/zht/stm32tools/arm-gcc/arm-none-eabi/include/c++/7.3.1/arm-none-eabi/thumb/v7e-m/fpv4-sp/hard/bits/gthr-default.h **** typedef int __gthread_mutex_t;
  34:/home/zht/stm32tools/arm-gcc/arm-none-eabi/include/c++/7.3.1/arm-none-eabi/thumb/v7e-m/fpv4-sp/hard/bits/gthr-default.h **** typedef int __gthread_recursive_mutex_t;
  35:/home/zht/stm32tools/arm-gcc/arm-none-eabi/include/c++/7.3.1/arm-none-eabi/thumb/v7e-m/fpv4-sp/hard/bits/gthr-default.h **** 
  36:/home/zht/stm32tools/arm-gcc/arm-none-eabi/include/c++/7.3.1/arm-none-eabi/thumb/v7e-m/fpv4-sp/hard/bits/gthr-default.h **** #define __GTHREAD_ONCE_INIT 0
  37:/home/zht/stm32tools/arm-gcc/arm-none-eabi/include/c++/7.3.1/arm-none-eabi/thumb/v7e-m/fpv4-sp/hard/bits/gthr-default.h **** #define __GTHREAD_MUTEX_INIT 0
  38:/home/zht/stm32tools/arm-gcc/arm-none-eabi/include/c++/7.3.1/arm-none-eabi/thumb/v7e-m/fpv4-sp/hard/bits/gthr-default.h **** #define __GTHREAD_MUTEX_INIT_FUNCTION(mx) do {} while (0)
  39:/home/zht/stm32tools/arm-gcc/arm-none-eabi/include/c++/7.3.1/arm-none-eabi/thumb/v7e-m/fpv4-sp/hard/bits/gthr-default.h **** #define __GTHREAD_RECURSIVE_MUTEX_INIT 0
  40:/home/zht/stm32tools/arm-gcc/arm-none-eabi/include/c++/7.3.1/arm-none-eabi/thumb/v7e-m/fpv4-sp/hard/bits/gthr-default.h **** 
  41:/home/zht/stm32tools/arm-gcc/arm-none-eabi/include/c++/7.3.1/arm-none-eabi/thumb/v7e-m/fpv4-sp/hard/bits/gthr-default.h **** #define _GLIBCXX_UNUSED __attribute__((__unused__))
  42:/home/zht/stm32tools/arm-gcc/arm-none-eabi/include/c++/7.3.1/arm-none-eabi/thumb/v7e-m/fpv4-sp/hard/bits/gthr-default.h **** 
  43:/home/zht/stm32tools/arm-gcc/arm-none-eabi/include/c++/7.3.1/arm-none-eabi/thumb/v7e-m/fpv4-sp/hard/bits/gthr-default.h **** #ifdef _LIBOBJC
  44:/home/zht/stm32tools/arm-gcc/arm-none-eabi/include/c++/7.3.1/arm-none-eabi/thumb/v7e-m/fpv4-sp/hard/bits/gthr-default.h **** 
  45:/home/zht/stm32tools/arm-gcc/arm-none-eabi/include/c++/7.3.1/arm-none-eabi/thumb/v7e-m/fpv4-sp/hard/bits/gthr-default.h **** /* Thread local storage for a single thread */
  46:/home/zht/stm32tools/arm-gcc/arm-none-eabi/include/c++/7.3.1/arm-none-eabi/thumb/v7e-m/fpv4-sp/hard/bits/gthr-default.h **** static void *thread_local_storage = NULL;
  47:/home/zht/stm32tools/arm-gcc/arm-none-eabi/include/c++/7.3.1/arm-none-eabi/thumb/v7e-m/fpv4-sp/hard/bits/gthr-default.h **** 
  48:/home/zht/stm32tools/arm-gcc/arm-none-eabi/include/c++/7.3.1/arm-none-eabi/thumb/v7e-m/fpv4-sp/hard/bits/gthr-default.h **** /* Backend initialization functions */
  49:/home/zht/stm32tools/arm-gcc/arm-none-eabi/include/c++/7.3.1/arm-none-eabi/thumb/v7e-m/fpv4-sp/hard/bits/gthr-default.h **** 
  50:/home/zht/stm32tools/arm-gcc/arm-none-eabi/include/c++/7.3.1/arm-none-eabi/thumb/v7e-m/fpv4-sp/hard/bits/gthr-default.h **** /* Initialize the threads subsystem.  */
  51:/home/zht/stm32tools/arm-gcc/arm-none-eabi/include/c++/7.3.1/arm-none-eabi/thumb/v7e-m/fpv4-sp/hard/bits/gthr-default.h **** static inline int
  52:/home/zht/stm32tools/arm-gcc/arm-none-eabi/include/c++/7.3.1/arm-none-eabi/thumb/v7e-m/fpv4-sp/hard/bits/gthr-default.h **** __gthread_objc_init_thread_system (void)
  53:/home/zht/stm32tools/arm-gcc/arm-none-eabi/include/c++/7.3.1/arm-none-eabi/thumb/v7e-m/fpv4-sp/hard/bits/gthr-default.h **** {
  54:/home/zht/stm32tools/arm-gcc/arm-none-eabi/include/c++/7.3.1/arm-none-eabi/thumb/v7e-m/fpv4-sp/hard/bits/gthr-default.h ****   /* No thread support available */
  55:/home/zht/stm32tools/arm-gcc/arm-none-eabi/include/c++/7.3.1/arm-none-eabi/thumb/v7e-m/fpv4-sp/hard/bits/gthr-default.h ****   return -1;
  56:/home/zht/stm32tools/arm-gcc/arm-none-eabi/include/c++/7.3.1/arm-none-eabi/thumb/v7e-m/fpv4-sp/hard/bits/gthr-default.h **** }
  57:/home/zht/stm32tools/arm-gcc/arm-none-eabi/include/c++/7.3.1/arm-none-eabi/thumb/v7e-m/fpv4-sp/hard/bits/gthr-default.h **** 
  58:/home/zht/stm32tools/arm-gcc/arm-none-eabi/include/c++/7.3.1/arm-none-eabi/thumb/v7e-m/fpv4-sp/hard/bits/gthr-default.h **** /* Close the threads subsystem.  */
  59:/home/zht/stm32tools/arm-gcc/arm-none-eabi/include/c++/7.3.1/arm-none-eabi/thumb/v7e-m/fpv4-sp/hard/bits/gthr-default.h **** static inline int
  60:/home/zht/stm32tools/arm-gcc/arm-none-eabi/include/c++/7.3.1/arm-none-eabi/thumb/v7e-m/fpv4-sp/hard/bits/gthr-default.h **** __gthread_objc_close_thread_system (void)
  61:/home/zht/stm32tools/arm-gcc/arm-none-eabi/include/c++/7.3.1/arm-none-eabi/thumb/v7e-m/fpv4-sp/hard/bits/gthr-default.h **** {
  62:/home/zht/stm32tools/arm-gcc/arm-none-eabi/include/c++/7.3.1/arm-none-eabi/thumb/v7e-m/fpv4-sp/hard/bits/gthr-default.h ****   /* No thread support available */
  63:/home/zht/stm32tools/arm-gcc/arm-none-eabi/include/c++/7.3.1/arm-none-eabi/thumb/v7e-m/fpv4-sp/hard/bits/gthr-default.h ****   return -1;
  64:/home/zht/stm32tools/arm-gcc/arm-none-eabi/include/c++/7.3.1/arm-none-eabi/thumb/v7e-m/fpv4-sp/hard/bits/gthr-default.h **** }
  65:/home/zht/stm32tools/arm-gcc/arm-none-eabi/include/c++/7.3.1/arm-none-eabi/thumb/v7e-m/fpv4-sp/hard/bits/gthr-default.h **** 
  66:/home/zht/stm32tools/arm-gcc/arm-none-eabi/include/c++/7.3.1/arm-none-eabi/thumb/v7e-m/fpv4-sp/hard/bits/gthr-default.h **** /* Backend thread functions */
  67:/home/zht/stm32tools/arm-gcc/arm-none-eabi/include/c++/7.3.1/arm-none-eabi/thumb/v7e-m/fpv4-sp/hard/bits/gthr-default.h **** 
  68:/home/zht/stm32tools/arm-gcc/arm-none-eabi/include/c++/7.3.1/arm-none-eabi/thumb/v7e-m/fpv4-sp/hard/bits/gthr-default.h **** /* Create a new thread of execution.  */
  69:/home/zht/stm32tools/arm-gcc/arm-none-eabi/include/c++/7.3.1/arm-none-eabi/thumb/v7e-m/fpv4-sp/hard/bits/gthr-default.h **** static inline objc_thread_t
  70:/home/zht/stm32tools/arm-gcc/arm-none-eabi/include/c++/7.3.1/arm-none-eabi/thumb/v7e-m/fpv4-sp/hard/bits/gthr-default.h **** __gthread_objc_thread_detach (void (* func)(void *), void * arg _GLIBCXX_UNUSED)
  71:/home/zht/stm32tools/arm-gcc/arm-none-eabi/include/c++/7.3.1/arm-none-eabi/thumb/v7e-m/fpv4-sp/hard/bits/gthr-default.h **** {
  72:/home/zht/stm32tools/arm-gcc/arm-none-eabi/include/c++/7.3.1/arm-none-eabi/thumb/v7e-m/fpv4-sp/hard/bits/gthr-default.h ****   /* No thread support available */
  73:/home/zht/stm32tools/arm-gcc/arm-none-eabi/include/c++/7.3.1/arm-none-eabi/thumb/v7e-m/fpv4-sp/hard/bits/gthr-default.h ****   return NULL;
  74:/home/zht/stm32tools/arm-gcc/arm-none-eabi/include/c++/7.3.1/arm-none-eabi/thumb/v7e-m/fpv4-sp/hard/bits/gthr-default.h **** }
  75:/home/zht/stm32tools/arm-gcc/arm-none-eabi/include/c++/7.3.1/arm-none-eabi/thumb/v7e-m/fpv4-sp/hard/bits/gthr-default.h **** 
  76:/home/zht/stm32tools/arm-gcc/arm-none-eabi/include/c++/7.3.1/arm-none-eabi/thumb/v7e-m/fpv4-sp/hard/bits/gthr-default.h **** /* Set the current thread's priority.  */
  77:/home/zht/stm32tools/arm-gcc/arm-none-eabi/include/c++/7.3.1/arm-none-eabi/thumb/v7e-m/fpv4-sp/hard/bits/gthr-default.h **** static inline int
  78:/home/zht/stm32tools/arm-gcc/arm-none-eabi/include/c++/7.3.1/arm-none-eabi/thumb/v7e-m/fpv4-sp/hard/bits/gthr-default.h **** __gthread_objc_thread_set_priority (int priority _GLIBCXX_UNUSED)
  79:/home/zht/stm32tools/arm-gcc/arm-none-eabi/include/c++/7.3.1/arm-none-eabi/thumb/v7e-m/fpv4-sp/hard/bits/gthr-default.h **** {
  80:/home/zht/stm32tools/arm-gcc/arm-none-eabi/include/c++/7.3.1/arm-none-eabi/thumb/v7e-m/fpv4-sp/hard/bits/gthr-default.h ****   /* No thread support available */
  81:/home/zht/stm32tools/arm-gcc/arm-none-eabi/include/c++/7.3.1/arm-none-eabi/thumb/v7e-m/fpv4-sp/hard/bits/gthr-default.h ****   return -1;
  82:/home/zht/stm32tools/arm-gcc/arm-none-eabi/include/c++/7.3.1/arm-none-eabi/thumb/v7e-m/fpv4-sp/hard/bits/gthr-default.h **** }
  83:/home/zht/stm32tools/arm-gcc/arm-none-eabi/include/c++/7.3.1/arm-none-eabi/thumb/v7e-m/fpv4-sp/hard/bits/gthr-default.h **** 
  84:/home/zht/stm32tools/arm-gcc/arm-none-eabi/include/c++/7.3.1/arm-none-eabi/thumb/v7e-m/fpv4-sp/hard/bits/gthr-default.h **** /* Return the current thread's priority.  */
  85:/home/zht/stm32tools/arm-gcc/arm-none-eabi/include/c++/7.3.1/arm-none-eabi/thumb/v7e-m/fpv4-sp/hard/bits/gthr-default.h **** static inline int
ARM GAS  /tmp/cczUr7WU.s 			page 3


  86:/home/zht/stm32tools/arm-gcc/arm-none-eabi/include/c++/7.3.1/arm-none-eabi/thumb/v7e-m/fpv4-sp/hard/bits/gthr-default.h **** __gthread_objc_thread_get_priority (void)
  87:/home/zht/stm32tools/arm-gcc/arm-none-eabi/include/c++/7.3.1/arm-none-eabi/thumb/v7e-m/fpv4-sp/hard/bits/gthr-default.h **** {
  88:/home/zht/stm32tools/arm-gcc/arm-none-eabi/include/c++/7.3.1/arm-none-eabi/thumb/v7e-m/fpv4-sp/hard/bits/gthr-default.h ****   return OBJC_THREAD_INTERACTIVE_PRIORITY;
  89:/home/zht/stm32tools/arm-gcc/arm-none-eabi/include/c++/7.3.1/arm-none-eabi/thumb/v7e-m/fpv4-sp/hard/bits/gthr-default.h **** }
  90:/home/zht/stm32tools/arm-gcc/arm-none-eabi/include/c++/7.3.1/arm-none-eabi/thumb/v7e-m/fpv4-sp/hard/bits/gthr-default.h **** 
  91:/home/zht/stm32tools/arm-gcc/arm-none-eabi/include/c++/7.3.1/arm-none-eabi/thumb/v7e-m/fpv4-sp/hard/bits/gthr-default.h **** /* Yield our process time to another thread.  */
  92:/home/zht/stm32tools/arm-gcc/arm-none-eabi/include/c++/7.3.1/arm-none-eabi/thumb/v7e-m/fpv4-sp/hard/bits/gthr-default.h **** static inline void
  93:/home/zht/stm32tools/arm-gcc/arm-none-eabi/include/c++/7.3.1/arm-none-eabi/thumb/v7e-m/fpv4-sp/hard/bits/gthr-default.h **** __gthread_objc_thread_yield (void)
  94:/home/zht/stm32tools/arm-gcc/arm-none-eabi/include/c++/7.3.1/arm-none-eabi/thumb/v7e-m/fpv4-sp/hard/bits/gthr-default.h **** {
  95:/home/zht/stm32tools/arm-gcc/arm-none-eabi/include/c++/7.3.1/arm-none-eabi/thumb/v7e-m/fpv4-sp/hard/bits/gthr-default.h ****   return;
  96:/home/zht/stm32tools/arm-gcc/arm-none-eabi/include/c++/7.3.1/arm-none-eabi/thumb/v7e-m/fpv4-sp/hard/bits/gthr-default.h **** }
  97:/home/zht/stm32tools/arm-gcc/arm-none-eabi/include/c++/7.3.1/arm-none-eabi/thumb/v7e-m/fpv4-sp/hard/bits/gthr-default.h **** 
  98:/home/zht/stm32tools/arm-gcc/arm-none-eabi/include/c++/7.3.1/arm-none-eabi/thumb/v7e-m/fpv4-sp/hard/bits/gthr-default.h **** /* Terminate the current thread.  */
  99:/home/zht/stm32tools/arm-gcc/arm-none-eabi/include/c++/7.3.1/arm-none-eabi/thumb/v7e-m/fpv4-sp/hard/bits/gthr-default.h **** static inline int
 100:/home/zht/stm32tools/arm-gcc/arm-none-eabi/include/c++/7.3.1/arm-none-eabi/thumb/v7e-m/fpv4-sp/hard/bits/gthr-default.h **** __gthread_objc_thread_exit (void)
 101:/home/zht/stm32tools/arm-gcc/arm-none-eabi/include/c++/7.3.1/arm-none-eabi/thumb/v7e-m/fpv4-sp/hard/bits/gthr-default.h **** {
 102:/home/zht/stm32tools/arm-gcc/arm-none-eabi/include/c++/7.3.1/arm-none-eabi/thumb/v7e-m/fpv4-sp/hard/bits/gthr-default.h ****   /* No thread support available */
 103:/home/zht/stm32tools/arm-gcc/arm-none-eabi/include/c++/7.3.1/arm-none-eabi/thumb/v7e-m/fpv4-sp/hard/bits/gthr-default.h ****   /* Should we really exit the program */
 104:/home/zht/stm32tools/arm-gcc/arm-none-eabi/include/c++/7.3.1/arm-none-eabi/thumb/v7e-m/fpv4-sp/hard/bits/gthr-default.h ****   /* exit (&__objc_thread_exit_status); */
 105:/home/zht/stm32tools/arm-gcc/arm-none-eabi/include/c++/7.3.1/arm-none-eabi/thumb/v7e-m/fpv4-sp/hard/bits/gthr-default.h ****   return -1;
 106:/home/zht/stm32tools/arm-gcc/arm-none-eabi/include/c++/7.3.1/arm-none-eabi/thumb/v7e-m/fpv4-sp/hard/bits/gthr-default.h **** }
 107:/home/zht/stm32tools/arm-gcc/arm-none-eabi/include/c++/7.3.1/arm-none-eabi/thumb/v7e-m/fpv4-sp/hard/bits/gthr-default.h **** 
 108:/home/zht/stm32tools/arm-gcc/arm-none-eabi/include/c++/7.3.1/arm-none-eabi/thumb/v7e-m/fpv4-sp/hard/bits/gthr-default.h **** /* Returns an integer value which uniquely describes a thread.  */
 109:/home/zht/stm32tools/arm-gcc/arm-none-eabi/include/c++/7.3.1/arm-none-eabi/thumb/v7e-m/fpv4-sp/hard/bits/gthr-default.h **** static inline objc_thread_t
 110:/home/zht/stm32tools/arm-gcc/arm-none-eabi/include/c++/7.3.1/arm-none-eabi/thumb/v7e-m/fpv4-sp/hard/bits/gthr-default.h **** __gthread_objc_thread_id (void)
 111:/home/zht/stm32tools/arm-gcc/arm-none-eabi/include/c++/7.3.1/arm-none-eabi/thumb/v7e-m/fpv4-sp/hard/bits/gthr-default.h **** {
 112:/home/zht/stm32tools/arm-gcc/arm-none-eabi/include/c++/7.3.1/arm-none-eabi/thumb/v7e-m/fpv4-sp/hard/bits/gthr-default.h ****   /* No thread support, use 1.  */
 113:/home/zht/stm32tools/arm-gcc/arm-none-eabi/include/c++/7.3.1/arm-none-eabi/thumb/v7e-m/fpv4-sp/hard/bits/gthr-default.h ****   return (objc_thread_t) 1;
 114:/home/zht/stm32tools/arm-gcc/arm-none-eabi/include/c++/7.3.1/arm-none-eabi/thumb/v7e-m/fpv4-sp/hard/bits/gthr-default.h **** }
 115:/home/zht/stm32tools/arm-gcc/arm-none-eabi/include/c++/7.3.1/arm-none-eabi/thumb/v7e-m/fpv4-sp/hard/bits/gthr-default.h **** 
 116:/home/zht/stm32tools/arm-gcc/arm-none-eabi/include/c++/7.3.1/arm-none-eabi/thumb/v7e-m/fpv4-sp/hard/bits/gthr-default.h **** /* Sets the thread's local storage pointer.  */
 117:/home/zht/stm32tools/arm-gcc/arm-none-eabi/include/c++/7.3.1/arm-none-eabi/thumb/v7e-m/fpv4-sp/hard/bits/gthr-default.h **** static inline int
 118:/home/zht/stm32tools/arm-gcc/arm-none-eabi/include/c++/7.3.1/arm-none-eabi/thumb/v7e-m/fpv4-sp/hard/bits/gthr-default.h **** __gthread_objc_thread_set_data (void *value)
 119:/home/zht/stm32tools/arm-gcc/arm-none-eabi/include/c++/7.3.1/arm-none-eabi/thumb/v7e-m/fpv4-sp/hard/bits/gthr-default.h **** {
 120:/home/zht/stm32tools/arm-gcc/arm-none-eabi/include/c++/7.3.1/arm-none-eabi/thumb/v7e-m/fpv4-sp/hard/bits/gthr-default.h ****   thread_local_storage = value;
 121:/home/zht/stm32tools/arm-gcc/arm-none-eabi/include/c++/7.3.1/arm-none-eabi/thumb/v7e-m/fpv4-sp/hard/bits/gthr-default.h ****   return 0;
 122:/home/zht/stm32tools/arm-gcc/arm-none-eabi/include/c++/7.3.1/arm-none-eabi/thumb/v7e-m/fpv4-sp/hard/bits/gthr-default.h **** }
 123:/home/zht/stm32tools/arm-gcc/arm-none-eabi/include/c++/7.3.1/arm-none-eabi/thumb/v7e-m/fpv4-sp/hard/bits/gthr-default.h **** 
 124:/home/zht/stm32tools/arm-gcc/arm-none-eabi/include/c++/7.3.1/arm-none-eabi/thumb/v7e-m/fpv4-sp/hard/bits/gthr-default.h **** /* Returns the thread's local storage pointer.  */
 125:/home/zht/stm32tools/arm-gcc/arm-none-eabi/include/c++/7.3.1/arm-none-eabi/thumb/v7e-m/fpv4-sp/hard/bits/gthr-default.h **** static inline void *
 126:/home/zht/stm32tools/arm-gcc/arm-none-eabi/include/c++/7.3.1/arm-none-eabi/thumb/v7e-m/fpv4-sp/hard/bits/gthr-default.h **** __gthread_objc_thread_get_data (void)
 127:/home/zht/stm32tools/arm-gcc/arm-none-eabi/include/c++/7.3.1/arm-none-eabi/thumb/v7e-m/fpv4-sp/hard/bits/gthr-default.h **** {
 128:/home/zht/stm32tools/arm-gcc/arm-none-eabi/include/c++/7.3.1/arm-none-eabi/thumb/v7e-m/fpv4-sp/hard/bits/gthr-default.h ****   return thread_local_storage;
 129:/home/zht/stm32tools/arm-gcc/arm-none-eabi/include/c++/7.3.1/arm-none-eabi/thumb/v7e-m/fpv4-sp/hard/bits/gthr-default.h **** }
 130:/home/zht/stm32tools/arm-gcc/arm-none-eabi/include/c++/7.3.1/arm-none-eabi/thumb/v7e-m/fpv4-sp/hard/bits/gthr-default.h **** 
 131:/home/zht/stm32tools/arm-gcc/arm-none-eabi/include/c++/7.3.1/arm-none-eabi/thumb/v7e-m/fpv4-sp/hard/bits/gthr-default.h **** /* Backend mutex functions */
 132:/home/zht/stm32tools/arm-gcc/arm-none-eabi/include/c++/7.3.1/arm-none-eabi/thumb/v7e-m/fpv4-sp/hard/bits/gthr-default.h **** 
 133:/home/zht/stm32tools/arm-gcc/arm-none-eabi/include/c++/7.3.1/arm-none-eabi/thumb/v7e-m/fpv4-sp/hard/bits/gthr-default.h **** /* Allocate a mutex.  */
 134:/home/zht/stm32tools/arm-gcc/arm-none-eabi/include/c++/7.3.1/arm-none-eabi/thumb/v7e-m/fpv4-sp/hard/bits/gthr-default.h **** static inline int
 135:/home/zht/stm32tools/arm-gcc/arm-none-eabi/include/c++/7.3.1/arm-none-eabi/thumb/v7e-m/fpv4-sp/hard/bits/gthr-default.h **** __gthread_objc_mutex_allocate (objc_mutex_t mutex _GLIBCXX_UNUSED)
 136:/home/zht/stm32tools/arm-gcc/arm-none-eabi/include/c++/7.3.1/arm-none-eabi/thumb/v7e-m/fpv4-sp/hard/bits/gthr-default.h **** {
 137:/home/zht/stm32tools/arm-gcc/arm-none-eabi/include/c++/7.3.1/arm-none-eabi/thumb/v7e-m/fpv4-sp/hard/bits/gthr-default.h ****   return 0;
 138:/home/zht/stm32tools/arm-gcc/arm-none-eabi/include/c++/7.3.1/arm-none-eabi/thumb/v7e-m/fpv4-sp/hard/bits/gthr-default.h **** }
 139:/home/zht/stm32tools/arm-gcc/arm-none-eabi/include/c++/7.3.1/arm-none-eabi/thumb/v7e-m/fpv4-sp/hard/bits/gthr-default.h **** 
 140:/home/zht/stm32tools/arm-gcc/arm-none-eabi/include/c++/7.3.1/arm-none-eabi/thumb/v7e-m/fpv4-sp/hard/bits/gthr-default.h **** /* Deallocate a mutex.  */
 141:/home/zht/stm32tools/arm-gcc/arm-none-eabi/include/c++/7.3.1/arm-none-eabi/thumb/v7e-m/fpv4-sp/hard/bits/gthr-default.h **** static inline int
 142:/home/zht/stm32tools/arm-gcc/arm-none-eabi/include/c++/7.3.1/arm-none-eabi/thumb/v7e-m/fpv4-sp/hard/bits/gthr-default.h **** __gthread_objc_mutex_deallocate (objc_mutex_t mutex _GLIBCXX_UNUSED)
ARM GAS  /tmp/cczUr7WU.s 			page 4


 143:/home/zht/stm32tools/arm-gcc/arm-none-eabi/include/c++/7.3.1/arm-none-eabi/thumb/v7e-m/fpv4-sp/hard/bits/gthr-default.h **** {
 144:/home/zht/stm32tools/arm-gcc/arm-none-eabi/include/c++/7.3.1/arm-none-eabi/thumb/v7e-m/fpv4-sp/hard/bits/gthr-default.h ****   return 0;
 145:/home/zht/stm32tools/arm-gcc/arm-none-eabi/include/c++/7.3.1/arm-none-eabi/thumb/v7e-m/fpv4-sp/hard/bits/gthr-default.h **** }
 146:/home/zht/stm32tools/arm-gcc/arm-none-eabi/include/c++/7.3.1/arm-none-eabi/thumb/v7e-m/fpv4-sp/hard/bits/gthr-default.h **** 
 147:/home/zht/stm32tools/arm-gcc/arm-none-eabi/include/c++/7.3.1/arm-none-eabi/thumb/v7e-m/fpv4-sp/hard/bits/gthr-default.h **** /* Grab a lock on a mutex.  */
 148:/home/zht/stm32tools/arm-gcc/arm-none-eabi/include/c++/7.3.1/arm-none-eabi/thumb/v7e-m/fpv4-sp/hard/bits/gthr-default.h **** static inline int
 149:/home/zht/stm32tools/arm-gcc/arm-none-eabi/include/c++/7.3.1/arm-none-eabi/thumb/v7e-m/fpv4-sp/hard/bits/gthr-default.h **** __gthread_objc_mutex_lock (objc_mutex_t mutex _GLIBCXX_UNUSED)
 150:/home/zht/stm32tools/arm-gcc/arm-none-eabi/include/c++/7.3.1/arm-none-eabi/thumb/v7e-m/fpv4-sp/hard/bits/gthr-default.h **** {
 151:/home/zht/stm32tools/arm-gcc/arm-none-eabi/include/c++/7.3.1/arm-none-eabi/thumb/v7e-m/fpv4-sp/hard/bits/gthr-default.h ****   /* There can only be one thread, so we always get the lock */
 152:/home/zht/stm32tools/arm-gcc/arm-none-eabi/include/c++/7.3.1/arm-none-eabi/thumb/v7e-m/fpv4-sp/hard/bits/gthr-default.h ****   return 0;
 153:/home/zht/stm32tools/arm-gcc/arm-none-eabi/include/c++/7.3.1/arm-none-eabi/thumb/v7e-m/fpv4-sp/hard/bits/gthr-default.h **** }
 154:/home/zht/stm32tools/arm-gcc/arm-none-eabi/include/c++/7.3.1/arm-none-eabi/thumb/v7e-m/fpv4-sp/hard/bits/gthr-default.h **** 
 155:/home/zht/stm32tools/arm-gcc/arm-none-eabi/include/c++/7.3.1/arm-none-eabi/thumb/v7e-m/fpv4-sp/hard/bits/gthr-default.h **** /* Try to grab a lock on a mutex.  */
 156:/home/zht/stm32tools/arm-gcc/arm-none-eabi/include/c++/7.3.1/arm-none-eabi/thumb/v7e-m/fpv4-sp/hard/bits/gthr-default.h **** static inline int
 157:/home/zht/stm32tools/arm-gcc/arm-none-eabi/include/c++/7.3.1/arm-none-eabi/thumb/v7e-m/fpv4-sp/hard/bits/gthr-default.h **** __gthread_objc_mutex_trylock (objc_mutex_t mutex _GLIBCXX_UNUSED)
 158:/home/zht/stm32tools/arm-gcc/arm-none-eabi/include/c++/7.3.1/arm-none-eabi/thumb/v7e-m/fpv4-sp/hard/bits/gthr-default.h **** {
 159:/home/zht/stm32tools/arm-gcc/arm-none-eabi/include/c++/7.3.1/arm-none-eabi/thumb/v7e-m/fpv4-sp/hard/bits/gthr-default.h ****   /* There can only be one thread, so we always get the lock */
 160:/home/zht/stm32tools/arm-gcc/arm-none-eabi/include/c++/7.3.1/arm-none-eabi/thumb/v7e-m/fpv4-sp/hard/bits/gthr-default.h ****   return 0;
 161:/home/zht/stm32tools/arm-gcc/arm-none-eabi/include/c++/7.3.1/arm-none-eabi/thumb/v7e-m/fpv4-sp/hard/bits/gthr-default.h **** }
 162:/home/zht/stm32tools/arm-gcc/arm-none-eabi/include/c++/7.3.1/arm-none-eabi/thumb/v7e-m/fpv4-sp/hard/bits/gthr-default.h **** 
 163:/home/zht/stm32tools/arm-gcc/arm-none-eabi/include/c++/7.3.1/arm-none-eabi/thumb/v7e-m/fpv4-sp/hard/bits/gthr-default.h **** /* Unlock the mutex */
 164:/home/zht/stm32tools/arm-gcc/arm-none-eabi/include/c++/7.3.1/arm-none-eabi/thumb/v7e-m/fpv4-sp/hard/bits/gthr-default.h **** static inline int
 165:/home/zht/stm32tools/arm-gcc/arm-none-eabi/include/c++/7.3.1/arm-none-eabi/thumb/v7e-m/fpv4-sp/hard/bits/gthr-default.h **** __gthread_objc_mutex_unlock (objc_mutex_t mutex _GLIBCXX_UNUSED)
 166:/home/zht/stm32tools/arm-gcc/arm-none-eabi/include/c++/7.3.1/arm-none-eabi/thumb/v7e-m/fpv4-sp/hard/bits/gthr-default.h **** {
 167:/home/zht/stm32tools/arm-gcc/arm-none-eabi/include/c++/7.3.1/arm-none-eabi/thumb/v7e-m/fpv4-sp/hard/bits/gthr-default.h ****   return 0;
 168:/home/zht/stm32tools/arm-gcc/arm-none-eabi/include/c++/7.3.1/arm-none-eabi/thumb/v7e-m/fpv4-sp/hard/bits/gthr-default.h **** }
 169:/home/zht/stm32tools/arm-gcc/arm-none-eabi/include/c++/7.3.1/arm-none-eabi/thumb/v7e-m/fpv4-sp/hard/bits/gthr-default.h **** 
 170:/home/zht/stm32tools/arm-gcc/arm-none-eabi/include/c++/7.3.1/arm-none-eabi/thumb/v7e-m/fpv4-sp/hard/bits/gthr-default.h **** /* Backend condition mutex functions */
 171:/home/zht/stm32tools/arm-gcc/arm-none-eabi/include/c++/7.3.1/arm-none-eabi/thumb/v7e-m/fpv4-sp/hard/bits/gthr-default.h **** 
 172:/home/zht/stm32tools/arm-gcc/arm-none-eabi/include/c++/7.3.1/arm-none-eabi/thumb/v7e-m/fpv4-sp/hard/bits/gthr-default.h **** /* Allocate a condition.  */
 173:/home/zht/stm32tools/arm-gcc/arm-none-eabi/include/c++/7.3.1/arm-none-eabi/thumb/v7e-m/fpv4-sp/hard/bits/gthr-default.h **** static inline int
 174:/home/zht/stm32tools/arm-gcc/arm-none-eabi/include/c++/7.3.1/arm-none-eabi/thumb/v7e-m/fpv4-sp/hard/bits/gthr-default.h **** __gthread_objc_condition_allocate (objc_condition_t condition _GLIBCXX_UNUSED)
 175:/home/zht/stm32tools/arm-gcc/arm-none-eabi/include/c++/7.3.1/arm-none-eabi/thumb/v7e-m/fpv4-sp/hard/bits/gthr-default.h **** {
 176:/home/zht/stm32tools/arm-gcc/arm-none-eabi/include/c++/7.3.1/arm-none-eabi/thumb/v7e-m/fpv4-sp/hard/bits/gthr-default.h ****   return 0;
 177:/home/zht/stm32tools/arm-gcc/arm-none-eabi/include/c++/7.3.1/arm-none-eabi/thumb/v7e-m/fpv4-sp/hard/bits/gthr-default.h **** }
 178:/home/zht/stm32tools/arm-gcc/arm-none-eabi/include/c++/7.3.1/arm-none-eabi/thumb/v7e-m/fpv4-sp/hard/bits/gthr-default.h **** 
 179:/home/zht/stm32tools/arm-gcc/arm-none-eabi/include/c++/7.3.1/arm-none-eabi/thumb/v7e-m/fpv4-sp/hard/bits/gthr-default.h **** /* Deallocate a condition.  */
 180:/home/zht/stm32tools/arm-gcc/arm-none-eabi/include/c++/7.3.1/arm-none-eabi/thumb/v7e-m/fpv4-sp/hard/bits/gthr-default.h **** static inline int
 181:/home/zht/stm32tools/arm-gcc/arm-none-eabi/include/c++/7.3.1/arm-none-eabi/thumb/v7e-m/fpv4-sp/hard/bits/gthr-default.h **** __gthread_objc_condition_deallocate (objc_condition_t condition _GLIBCXX_UNUSED)
 182:/home/zht/stm32tools/arm-gcc/arm-none-eabi/include/c++/7.3.1/arm-none-eabi/thumb/v7e-m/fpv4-sp/hard/bits/gthr-default.h **** {
 183:/home/zht/stm32tools/arm-gcc/arm-none-eabi/include/c++/7.3.1/arm-none-eabi/thumb/v7e-m/fpv4-sp/hard/bits/gthr-default.h ****   return 0;
 184:/home/zht/stm32tools/arm-gcc/arm-none-eabi/include/c++/7.3.1/arm-none-eabi/thumb/v7e-m/fpv4-sp/hard/bits/gthr-default.h **** }
 185:/home/zht/stm32tools/arm-gcc/arm-none-eabi/include/c++/7.3.1/arm-none-eabi/thumb/v7e-m/fpv4-sp/hard/bits/gthr-default.h **** 
 186:/home/zht/stm32tools/arm-gcc/arm-none-eabi/include/c++/7.3.1/arm-none-eabi/thumb/v7e-m/fpv4-sp/hard/bits/gthr-default.h **** /* Wait on the condition */
 187:/home/zht/stm32tools/arm-gcc/arm-none-eabi/include/c++/7.3.1/arm-none-eabi/thumb/v7e-m/fpv4-sp/hard/bits/gthr-default.h **** static inline int
 188:/home/zht/stm32tools/arm-gcc/arm-none-eabi/include/c++/7.3.1/arm-none-eabi/thumb/v7e-m/fpv4-sp/hard/bits/gthr-default.h **** __gthread_objc_condition_wait (objc_condition_t condition _GLIBCXX_UNUSED,
 189:/home/zht/stm32tools/arm-gcc/arm-none-eabi/include/c++/7.3.1/arm-none-eabi/thumb/v7e-m/fpv4-sp/hard/bits/gthr-default.h **** 			       objc_mutex_t mutex _GLIBCXX_UNUSED)
 190:/home/zht/stm32tools/arm-gcc/arm-none-eabi/include/c++/7.3.1/arm-none-eabi/thumb/v7e-m/fpv4-sp/hard/bits/gthr-default.h **** {
 191:/home/zht/stm32tools/arm-gcc/arm-none-eabi/include/c++/7.3.1/arm-none-eabi/thumb/v7e-m/fpv4-sp/hard/bits/gthr-default.h ****   return 0;
 192:/home/zht/stm32tools/arm-gcc/arm-none-eabi/include/c++/7.3.1/arm-none-eabi/thumb/v7e-m/fpv4-sp/hard/bits/gthr-default.h **** }
 193:/home/zht/stm32tools/arm-gcc/arm-none-eabi/include/c++/7.3.1/arm-none-eabi/thumb/v7e-m/fpv4-sp/hard/bits/gthr-default.h **** 
 194:/home/zht/stm32tools/arm-gcc/arm-none-eabi/include/c++/7.3.1/arm-none-eabi/thumb/v7e-m/fpv4-sp/hard/bits/gthr-default.h **** /* Wake up all threads waiting on this condition.  */
 195:/home/zht/stm32tools/arm-gcc/arm-none-eabi/include/c++/7.3.1/arm-none-eabi/thumb/v7e-m/fpv4-sp/hard/bits/gthr-default.h **** static inline int
 196:/home/zht/stm32tools/arm-gcc/arm-none-eabi/include/c++/7.3.1/arm-none-eabi/thumb/v7e-m/fpv4-sp/hard/bits/gthr-default.h **** __gthread_objc_condition_broadcast (objc_condition_t condition _GLIBCXX_UNUSED)
 197:/home/zht/stm32tools/arm-gcc/arm-none-eabi/include/c++/7.3.1/arm-none-eabi/thumb/v7e-m/fpv4-sp/hard/bits/gthr-default.h **** {
 198:/home/zht/stm32tools/arm-gcc/arm-none-eabi/include/c++/7.3.1/arm-none-eabi/thumb/v7e-m/fpv4-sp/hard/bits/gthr-default.h ****   return 0;
 199:/home/zht/stm32tools/arm-gcc/arm-none-eabi/include/c++/7.3.1/arm-none-eabi/thumb/v7e-m/fpv4-sp/hard/bits/gthr-default.h **** }
ARM GAS  /tmp/cczUr7WU.s 			page 5


 200:/home/zht/stm32tools/arm-gcc/arm-none-eabi/include/c++/7.3.1/arm-none-eabi/thumb/v7e-m/fpv4-sp/hard/bits/gthr-default.h **** 
 201:/home/zht/stm32tools/arm-gcc/arm-none-eabi/include/c++/7.3.1/arm-none-eabi/thumb/v7e-m/fpv4-sp/hard/bits/gthr-default.h **** /* Wake up one thread waiting on this condition.  */
 202:/home/zht/stm32tools/arm-gcc/arm-none-eabi/include/c++/7.3.1/arm-none-eabi/thumb/v7e-m/fpv4-sp/hard/bits/gthr-default.h **** static inline int
 203:/home/zht/stm32tools/arm-gcc/arm-none-eabi/include/c++/7.3.1/arm-none-eabi/thumb/v7e-m/fpv4-sp/hard/bits/gthr-default.h **** __gthread_objc_condition_signal (objc_condition_t condition _GLIBCXX_UNUSED)
 204:/home/zht/stm32tools/arm-gcc/arm-none-eabi/include/c++/7.3.1/arm-none-eabi/thumb/v7e-m/fpv4-sp/hard/bits/gthr-default.h **** {
 205:/home/zht/stm32tools/arm-gcc/arm-none-eabi/include/c++/7.3.1/arm-none-eabi/thumb/v7e-m/fpv4-sp/hard/bits/gthr-default.h ****   return 0;
 206:/home/zht/stm32tools/arm-gcc/arm-none-eabi/include/c++/7.3.1/arm-none-eabi/thumb/v7e-m/fpv4-sp/hard/bits/gthr-default.h **** }
 207:/home/zht/stm32tools/arm-gcc/arm-none-eabi/include/c++/7.3.1/arm-none-eabi/thumb/v7e-m/fpv4-sp/hard/bits/gthr-default.h **** 
 208:/home/zht/stm32tools/arm-gcc/arm-none-eabi/include/c++/7.3.1/arm-none-eabi/thumb/v7e-m/fpv4-sp/hard/bits/gthr-default.h **** #else /* _LIBOBJC */
 209:/home/zht/stm32tools/arm-gcc/arm-none-eabi/include/c++/7.3.1/arm-none-eabi/thumb/v7e-m/fpv4-sp/hard/bits/gthr-default.h **** 
 210:/home/zht/stm32tools/arm-gcc/arm-none-eabi/include/c++/7.3.1/arm-none-eabi/thumb/v7e-m/fpv4-sp/hard/bits/gthr-default.h **** static inline int
 211:/home/zht/stm32tools/arm-gcc/arm-none-eabi/include/c++/7.3.1/arm-none-eabi/thumb/v7e-m/fpv4-sp/hard/bits/gthr-default.h **** __gthread_active_p (void)
 212:/home/zht/stm32tools/arm-gcc/arm-none-eabi/include/c++/7.3.1/arm-none-eabi/thumb/v7e-m/fpv4-sp/hard/bits/gthr-default.h **** {
 213:/home/zht/stm32tools/arm-gcc/arm-none-eabi/include/c++/7.3.1/arm-none-eabi/thumb/v7e-m/fpv4-sp/hard/bits/gthr-default.h ****   return 0;
 214:/home/zht/stm32tools/arm-gcc/arm-none-eabi/include/c++/7.3.1/arm-none-eabi/thumb/v7e-m/fpv4-sp/hard/bits/gthr-default.h **** }
 215:/home/zht/stm32tools/arm-gcc/arm-none-eabi/include/c++/7.3.1/arm-none-eabi/thumb/v7e-m/fpv4-sp/hard/bits/gthr-default.h **** 
 216:/home/zht/stm32tools/arm-gcc/arm-none-eabi/include/c++/7.3.1/arm-none-eabi/thumb/v7e-m/fpv4-sp/hard/bits/gthr-default.h **** static inline int
 217:/home/zht/stm32tools/arm-gcc/arm-none-eabi/include/c++/7.3.1/arm-none-eabi/thumb/v7e-m/fpv4-sp/hard/bits/gthr-default.h **** __gthread_once (__gthread_once_t *__once _GLIBCXX_UNUSED, void (*__func) (void) _GLIBCXX_UNUSED)
 218:/home/zht/stm32tools/arm-gcc/arm-none-eabi/include/c++/7.3.1/arm-none-eabi/thumb/v7e-m/fpv4-sp/hard/bits/gthr-default.h **** {
 219:/home/zht/stm32tools/arm-gcc/arm-none-eabi/include/c++/7.3.1/arm-none-eabi/thumb/v7e-m/fpv4-sp/hard/bits/gthr-default.h ****   return 0;
 220:/home/zht/stm32tools/arm-gcc/arm-none-eabi/include/c++/7.3.1/arm-none-eabi/thumb/v7e-m/fpv4-sp/hard/bits/gthr-default.h **** }
 221:/home/zht/stm32tools/arm-gcc/arm-none-eabi/include/c++/7.3.1/arm-none-eabi/thumb/v7e-m/fpv4-sp/hard/bits/gthr-default.h **** 
 222:/home/zht/stm32tools/arm-gcc/arm-none-eabi/include/c++/7.3.1/arm-none-eabi/thumb/v7e-m/fpv4-sp/hard/bits/gthr-default.h **** static inline int _GLIBCXX_UNUSED
 223:/home/zht/stm32tools/arm-gcc/arm-none-eabi/include/c++/7.3.1/arm-none-eabi/thumb/v7e-m/fpv4-sp/hard/bits/gthr-default.h **** __gthread_key_create (__gthread_key_t *__key _GLIBCXX_UNUSED, void (*__func) (void *) _GLIBCXX_UNUS
 224:/home/zht/stm32tools/arm-gcc/arm-none-eabi/include/c++/7.3.1/arm-none-eabi/thumb/v7e-m/fpv4-sp/hard/bits/gthr-default.h **** {
 225:/home/zht/stm32tools/arm-gcc/arm-none-eabi/include/c++/7.3.1/arm-none-eabi/thumb/v7e-m/fpv4-sp/hard/bits/gthr-default.h ****   return 0;
 226:/home/zht/stm32tools/arm-gcc/arm-none-eabi/include/c++/7.3.1/arm-none-eabi/thumb/v7e-m/fpv4-sp/hard/bits/gthr-default.h **** }
 227:/home/zht/stm32tools/arm-gcc/arm-none-eabi/include/c++/7.3.1/arm-none-eabi/thumb/v7e-m/fpv4-sp/hard/bits/gthr-default.h **** 
 228:/home/zht/stm32tools/arm-gcc/arm-none-eabi/include/c++/7.3.1/arm-none-eabi/thumb/v7e-m/fpv4-sp/hard/bits/gthr-default.h **** static int _GLIBCXX_UNUSED
 229:/home/zht/stm32tools/arm-gcc/arm-none-eabi/include/c++/7.3.1/arm-none-eabi/thumb/v7e-m/fpv4-sp/hard/bits/gthr-default.h **** __gthread_key_delete (__gthread_key_t __key _GLIBCXX_UNUSED)
 230:/home/zht/stm32tools/arm-gcc/arm-none-eabi/include/c++/7.3.1/arm-none-eabi/thumb/v7e-m/fpv4-sp/hard/bits/gthr-default.h **** {
  33              		.loc 1 230 0
  34              		.cfi_startproc
  35              		@ args = 0, pretend = 0, frame = 8
  36              		@ frame_needed = 1, uses_anonymous_args = 0
  37              		@ link register save eliminated.
  38 0000 80B4     		push	{r7}
  39              	.LCFI0:
  40              		.cfi_def_cfa_offset 4
  41              		.cfi_offset 7, -4
  42 0002 83B0     		sub	sp, sp, #12
  43              	.LCFI1:
  44              		.cfi_def_cfa_offset 16
  45 0004 00AF     		add	r7, sp, #0
  46              	.LCFI2:
  47              		.cfi_def_cfa_register 7
  48 0006 7860     		str	r0, [r7, #4]
 231:/home/zht/stm32tools/arm-gcc/arm-none-eabi/include/c++/7.3.1/arm-none-eabi/thumb/v7e-m/fpv4-sp/hard/bits/gthr-default.h ****   return 0;
  49              		.loc 1 231 0
  50 0008 0023     		movs	r3, #0
 232:/home/zht/stm32tools/arm-gcc/arm-none-eabi/include/c++/7.3.1/arm-none-eabi/thumb/v7e-m/fpv4-sp/hard/bits/gthr-default.h **** }
  51              		.loc 1 232 0
  52 000a 1846     		mov	r0, r3
  53 000c 0C37     		adds	r7, r7, #12
  54              	.LCFI3:
  55              		.cfi_def_cfa_offset 4
  56 000e BD46     		mov	sp, r7
ARM GAS  /tmp/cczUr7WU.s 			page 6


  57              	.LCFI4:
  58              		.cfi_def_cfa_register 13
  59              		@ sp needed
  60 0010 5DF8047B 		ldr	r7, [sp], #4
  61              	.LCFI5:
  62              		.cfi_restore 7
  63              		.cfi_def_cfa_offset 0
  64 0014 7047     		bx	lr
  65              		.cfi_endproc
  66              	.LFE584:
  68              		.section	.bss._ZStL8__ioinit,"aw",%nobits
  69              		.align	2
  72              	_ZStL8__ioinit:
  73 0000 00       		.space	1
  74              		.section	.text._Z14throwExceptionNSt7__cxx1112basic_stringIcSt11char_traitsIcESaIcEEE,"ax",%progbi
  75              		.align	1
  76              		.weak	_Z14throwExceptionNSt7__cxx1112basic_stringIcSt11char_traitsIcESaIcEEE
  77              		.syntax unified
  78              		.thumb
  79              		.thumb_func
  80              		.fpu fpv4-sp-d16
  82              	_Z14throwExceptionNSt7__cxx1112basic_stringIcSt11char_traitsIcESaIcEEE:
  83              	.LFB2283:
  84              		.file 2 "STM32CubeRobotics-Framework/Drivers/inc/scr_dependancy.h"
   1:STM32CubeRobotics-Framework/Drivers/inc/scr_dependancy.h **** #ifndef __SCR_DEPENDANCY_H
   2:STM32CubeRobotics-Framework/Drivers/inc/scr_dependancy.h **** #define __SCR_DEPENDANCY_H
   3:STM32CubeRobotics-Framework/Drivers/inc/scr_dependancy.h **** 
   4:STM32CubeRobotics-Framework/Drivers/inc/scr_dependancy.h **** 
   5:STM32CubeRobotics-Framework/Drivers/inc/scr_dependancy.h **** /*========================================================================*/
   6:STM32CubeRobotics-Framework/Drivers/inc/scr_dependancy.h **** #define DEVICE_FAMILY_STM32F4
   7:STM32CubeRobotics-Framework/Drivers/inc/scr_dependancy.h **** /*========================================================================*/
   8:STM32CubeRobotics-Framework/Drivers/inc/scr_dependancy.h **** 
   9:STM32CubeRobotics-Framework/Drivers/inc/scr_dependancy.h **** /*========================================================================*/
  10:STM32CubeRobotics-Framework/Drivers/inc/scr_dependancy.h ****     /*C includes*/
  11:STM32CubeRobotics-Framework/Drivers/inc/scr_dependancy.h **** extern "C" {
  12:STM32CubeRobotics-Framework/Drivers/inc/scr_dependancy.h **** 
  13:STM32CubeRobotics-Framework/Drivers/inc/scr_dependancy.h **** #ifdef DEVICE_FAMILY_STM32F1
  14:STM32CubeRobotics-Framework/Drivers/inc/scr_dependancy.h ****     #include "stm32f1xx_hal.h"
  15:STM32CubeRobotics-Framework/Drivers/inc/scr_dependancy.h **** #endif
  16:STM32CubeRobotics-Framework/Drivers/inc/scr_dependancy.h **** 
  17:STM32CubeRobotics-Framework/Drivers/inc/scr_dependancy.h **** #ifdef DEVICE_FAMILY_STM32F3
  18:STM32CubeRobotics-Framework/Drivers/inc/scr_dependancy.h ****     #include "stm32f3xx_hal.h"
  19:STM32CubeRobotics-Framework/Drivers/inc/scr_dependancy.h **** #endif
  20:STM32CubeRobotics-Framework/Drivers/inc/scr_dependancy.h **** 
  21:STM32CubeRobotics-Framework/Drivers/inc/scr_dependancy.h **** #ifdef DEVICE_FAMILY_STM32F4
  22:STM32CubeRobotics-Framework/Drivers/inc/scr_dependancy.h ****     #include "stm32f4xx_hal.h"
  23:STM32CubeRobotics-Framework/Drivers/inc/scr_dependancy.h **** #endif
  24:STM32CubeRobotics-Framework/Drivers/inc/scr_dependancy.h **** 
  25:STM32CubeRobotics-Framework/Drivers/inc/scr_dependancy.h **** #ifdef DEVICE_FAMILY_STM32F7
  26:STM32CubeRobotics-Framework/Drivers/inc/scr_dependancy.h ****     #include "stm32f7xx_hal.h"
  27:STM32CubeRobotics-Framework/Drivers/inc/scr_dependancy.h **** #endif
  28:STM32CubeRobotics-Framework/Drivers/inc/scr_dependancy.h **** 
  29:STM32CubeRobotics-Framework/Drivers/inc/scr_dependancy.h ****     #include "cmsis_os.h"
  30:STM32CubeRobotics-Framework/Drivers/inc/scr_dependancy.h **** }
  31:STM32CubeRobotics-Framework/Drivers/inc/scr_dependancy.h **** /*========================================================================*/
  32:STM32CubeRobotics-Framework/Drivers/inc/scr_dependancy.h **** 
  33:STM32CubeRobotics-Framework/Drivers/inc/scr_dependancy.h **** 
ARM GAS  /tmp/cczUr7WU.s 			page 7


  34:STM32CubeRobotics-Framework/Drivers/inc/scr_dependancy.h **** /*========================================================================*/
  35:STM32CubeRobotics-Framework/Drivers/inc/scr_dependancy.h ****     /*C++ includes*/
  36:STM32CubeRobotics-Framework/Drivers/inc/scr_dependancy.h **** 
  37:STM32CubeRobotics-Framework/Drivers/inc/scr_dependancy.h **** #include <iostream>
  38:STM32CubeRobotics-Framework/Drivers/inc/scr_dependancy.h **** #include <atomic>
  39:STM32CubeRobotics-Framework/Drivers/inc/scr_dependancy.h **** #include <cstring>
  40:STM32CubeRobotics-Framework/Drivers/inc/scr_dependancy.h **** #include <vector>
  41:STM32CubeRobotics-Framework/Drivers/inc/scr_dependancy.h **** #include <sstream>
  42:STM32CubeRobotics-Framework/Drivers/inc/scr_dependancy.h **** 
  43:STM32CubeRobotics-Framework/Drivers/inc/scr_dependancy.h **** /*========================================================================*/
  44:STM32CubeRobotics-Framework/Drivers/inc/scr_dependancy.h **** 
  45:STM32CubeRobotics-Framework/Drivers/inc/scr_dependancy.h **** namespace scr {
  46:STM32CubeRobotics-Framework/Drivers/inc/scr_dependancy.h ****     enum logic_level : int {High, Low};
  47:STM32CubeRobotics-Framework/Drivers/inc/scr_dependancy.h ****     enum periph_status : int
  48:STM32CubeRobotics-Framework/Drivers/inc/scr_dependancy.h ****     {	
  49:STM32CubeRobotics-Framework/Drivers/inc/scr_dependancy.h ****         NotReady,
  50:STM32CubeRobotics-Framework/Drivers/inc/scr_dependancy.h ****         Initialized,
  51:STM32CubeRobotics-Framework/Drivers/inc/scr_dependancy.h ****         InProgress,
  52:STM32CubeRobotics-Framework/Drivers/inc/scr_dependancy.h ****         Completed,
  53:STM32CubeRobotics-Framework/Drivers/inc/scr_dependancy.h ****         TimeOut,
  54:STM32CubeRobotics-Framework/Drivers/inc/scr_dependancy.h ****         Error
  55:STM32CubeRobotics-Framework/Drivers/inc/scr_dependancy.h ****     };
  56:STM32CubeRobotics-Framework/Drivers/inc/scr_dependancy.h ****     enum periph_mode {
  57:STM32CubeRobotics-Framework/Drivers/inc/scr_dependancy.h ****         Polling,
  58:STM32CubeRobotics-Framework/Drivers/inc/scr_dependancy.h ****         Interrupt,
  59:STM32CubeRobotics-Framework/Drivers/inc/scr_dependancy.h ****         DMA // direct memory access
  60:STM32CubeRobotics-Framework/Drivers/inc/scr_dependancy.h ****     };
  61:STM32CubeRobotics-Framework/Drivers/inc/scr_dependancy.h ****     enum delay_mode {
  62:STM32CubeRobotics-Framework/Drivers/inc/scr_dependancy.h ****         HAL,
  63:STM32CubeRobotics-Framework/Drivers/inc/scr_dependancy.h ****         RTOS
  64:STM32CubeRobotics-Framework/Drivers/inc/scr_dependancy.h ****     };
  65:STM32CubeRobotics-Framework/Drivers/inc/scr_dependancy.h **** }
  66:STM32CubeRobotics-Framework/Drivers/inc/scr_dependancy.h **** 
  67:STM32CubeRobotics-Framework/Drivers/inc/scr_dependancy.h **** typedef uint8_t byte_t;
  68:STM32CubeRobotics-Framework/Drivers/inc/scr_dependancy.h **** 
  69:STM32CubeRobotics-Framework/Drivers/inc/scr_dependancy.h **** 
  70:STM32CubeRobotics-Framework/Drivers/inc/scr_dependancy.h **** __weak void throwException(std::string str) {
  85              		.loc 2 70 0
  86              		.cfi_startproc
  87              		@ args = 0, pretend = 0, frame = 8
  88              		@ frame_needed = 1, uses_anonymous_args = 0
  89              		@ link register save eliminated.
  90 0000 80B4     		push	{r7}
  91              	.LCFI6:
  92              		.cfi_def_cfa_offset 4
  93              		.cfi_offset 7, -4
  94 0002 83B0     		sub	sp, sp, #12
  95              	.LCFI7:
  96              		.cfi_def_cfa_offset 16
  97 0004 00AF     		add	r7, sp, #0
  98              	.LCFI8:
  99              		.cfi_def_cfa_register 7
 100 0006 7860     		str	r0, [r7, #4]
  71:STM32CubeRobotics-Framework/Drivers/inc/scr_dependancy.h ****     UNUSED(str);
  72:STM32CubeRobotics-Framework/Drivers/inc/scr_dependancy.h **** }
 101              		.loc 2 72 0
 102 0008 00BF     		nop
ARM GAS  /tmp/cczUr7WU.s 			page 8


 103 000a 0C37     		adds	r7, r7, #12
 104              	.LCFI9:
 105              		.cfi_def_cfa_offset 4
 106 000c BD46     		mov	sp, r7
 107              	.LCFI10:
 108              		.cfi_def_cfa_register 13
 109              		@ sp needed
 110 000e 5DF8047B 		ldr	r7, [sp], #4
 111              	.LCFI11:
 112              		.cfi_restore 7
 113              		.cfi_def_cfa_offset 0
 114 0012 7047     		bx	lr
 115              		.cfi_endproc
 116              	.LFE2283:
 118              		.section	.text._ZN3scr5USART10get_huartxEv,"axG",%progbits,_ZN3scr5USART10get_huartxEv,comdat
 119              		.align	1
 120              		.weak	_ZN3scr5USART10get_huartxEv
 121              		.syntax unified
 122              		.thumb
 123              		.thumb_func
 124              		.fpu fpv4-sp-d16
 126              	_ZN3scr5USART10get_huartxEv:
 127              	.LFB2284:
 128              		.file 3 "STM32CubeRobotics-Framework/Drivers/inc/scr_usart.h"
   1:STM32CubeRobotics-Framework/Drivers/inc/scr_usart.h **** #ifndef __SCR_USART_H
   2:STM32CubeRobotics-Framework/Drivers/inc/scr_usart.h **** #define __SCR_USART_H 
   3:STM32CubeRobotics-Framework/Drivers/inc/scr_usart.h **** 
   4:STM32CubeRobotics-Framework/Drivers/inc/scr_usart.h **** 
   5:STM32CubeRobotics-Framework/Drivers/inc/scr_usart.h **** #include "scr_dependancy.h"
   6:STM32CubeRobotics-Framework/Drivers/inc/scr_usart.h **** 
   7:STM32CubeRobotics-Framework/Drivers/inc/scr_usart.h **** 
   8:STM32CubeRobotics-Framework/Drivers/inc/scr_usart.h **** #ifdef HAL_UART_MODULE_ENABLED
   9:STM32CubeRobotics-Framework/Drivers/inc/scr_usart.h **** 
  10:STM32CubeRobotics-Framework/Drivers/inc/scr_usart.h **** #define USART_Default_TxTimeOut 1000000; // 1 second 
  11:STM32CubeRobotics-Framework/Drivers/inc/scr_usart.h **** #define USART_Default_RxTimeOut 1000000000; // 1000 seconds
  12:STM32CubeRobotics-Framework/Drivers/inc/scr_usart.h **** 
  13:STM32CubeRobotics-Framework/Drivers/inc/scr_usart.h **** 
  14:STM32CubeRobotics-Framework/Drivers/inc/scr_usart.h **** #define USART_Default_BufferSize 30
  15:STM32CubeRobotics-Framework/Drivers/inc/scr_usart.h **** #define Max_Num_USARTs 10 
  16:STM32CubeRobotics-Framework/Drivers/inc/scr_usart.h **** 
  17:STM32CubeRobotics-Framework/Drivers/inc/scr_usart.h **** 
  18:STM32CubeRobotics-Framework/Drivers/inc/scr_usart.h **** 
  19:STM32CubeRobotics-Framework/Drivers/inc/scr_usart.h **** namespace scr {
  20:STM32CubeRobotics-Framework/Drivers/inc/scr_usart.h ****     class USART {
  21:STM32CubeRobotics-Framework/Drivers/inc/scr_usart.h ****     private:
  22:STM32CubeRobotics-Framework/Drivers/inc/scr_usart.h ****         UART_HandleTypeDef *huartx;
  23:STM32CubeRobotics-Framework/Drivers/inc/scr_usart.h **** 
  24:STM32CubeRobotics-Framework/Drivers/inc/scr_usart.h ****         // time-out default
  25:STM32CubeRobotics-Framework/Drivers/inc/scr_usart.h ****         uint32_t tx_timeout = USART_Default_TxTimeOut;
  26:STM32CubeRobotics-Framework/Drivers/inc/scr_usart.h ****         uint32_t rx_timeout = USART_Default_RxTimeOut;
  27:STM32CubeRobotics-Framework/Drivers/inc/scr_usart.h **** 
  28:STM32CubeRobotics-Framework/Drivers/inc/scr_usart.h ****         volatile periph_status tx_status = NotReady;
  29:STM32CubeRobotics-Framework/Drivers/inc/scr_usart.h ****         volatile periph_status rx_status = NotReady;
  30:STM32CubeRobotics-Framework/Drivers/inc/scr_usart.h **** 
  31:STM32CubeRobotics-Framework/Drivers/inc/scr_usart.h ****         char *tx_buffer;
  32:STM32CubeRobotics-Framework/Drivers/inc/scr_usart.h ****         char *rx_buffer;
  33:STM32CubeRobotics-Framework/Drivers/inc/scr_usart.h **** 
ARM GAS  /tmp/cczUr7WU.s 			page 9


  34:STM32CubeRobotics-Framework/Drivers/inc/scr_usart.h ****         void hal_transmit(char* str_ptr, periph_mode mode);
  35:STM32CubeRobotics-Framework/Drivers/inc/scr_usart.h **** 
  36:STM32CubeRobotics-Framework/Drivers/inc/scr_usart.h ****     public:
  37:STM32CubeRobotics-Framework/Drivers/inc/scr_usart.h ****         USART(UART_HandleTypeDef *huartx, uint32_t tx_buffer_size = USART_Default_BufferSize, 
  38:STM32CubeRobotics-Framework/Drivers/inc/scr_usart.h ****                                           uint32_t rx_buffer_size = USART_Default_BufferSize);
  39:STM32CubeRobotics-Framework/Drivers/inc/scr_usart.h ****         ~USART();
  40:STM32CubeRobotics-Framework/Drivers/inc/scr_usart.h **** 
  41:STM32CubeRobotics-Framework/Drivers/inc/scr_usart.h **** 
  42:STM32CubeRobotics-Framework/Drivers/inc/scr_usart.h ****         void transmit(std::string& str, periph_mode mode = Polling);
  43:STM32CubeRobotics-Framework/Drivers/inc/scr_usart.h ****         void transmit(char* str_ptr, periph_mode mode = Polling);
  44:STM32CubeRobotics-Framework/Drivers/inc/scr_usart.h ****         void transmit(byte_t byte, periph_mode mode = Polling);
  45:STM32CubeRobotics-Framework/Drivers/inc/scr_usart.h **** 
  46:STM32CubeRobotics-Framework/Drivers/inc/scr_usart.h ****         char* receive(uint16_t size, periph_mode mode = Polling);
  47:STM32CubeRobotics-Framework/Drivers/inc/scr_usart.h **** 
  48:STM32CubeRobotics-Framework/Drivers/inc/scr_usart.h ****         inline UART_HandleTypeDef *get_huartx(void) {
 129              		.loc 3 48 0
 130              		.cfi_startproc
 131              		@ args = 0, pretend = 0, frame = 8
 132              		@ frame_needed = 1, uses_anonymous_args = 0
 133              		@ link register save eliminated.
 134 0000 80B4     		push	{r7}
 135              	.LCFI12:
 136              		.cfi_def_cfa_offset 4
 137              		.cfi_offset 7, -4
 138 0002 83B0     		sub	sp, sp, #12
 139              	.LCFI13:
 140              		.cfi_def_cfa_offset 16
 141 0004 00AF     		add	r7, sp, #0
 142              	.LCFI14:
 143              		.cfi_def_cfa_register 7
 144 0006 7860     		str	r0, [r7, #4]
  49:STM32CubeRobotics-Framework/Drivers/inc/scr_usart.h ****             return huartx;
 145              		.loc 3 49 0
 146 0008 7B68     		ldr	r3, [r7, #4]
 147 000a 1B68     		ldr	r3, [r3]
  50:STM32CubeRobotics-Framework/Drivers/inc/scr_usart.h ****         }
 148              		.loc 3 50 0
 149 000c 1846     		mov	r0, r3
 150 000e 0C37     		adds	r7, r7, #12
 151              	.LCFI15:
 152              		.cfi_def_cfa_offset 4
 153 0010 BD46     		mov	sp, r7
 154              	.LCFI16:
 155              		.cfi_def_cfa_register 13
 156              		@ sp needed
 157 0012 5DF8047B 		ldr	r7, [sp], #4
 158              	.LCFI17:
 159              		.cfi_restore 7
 160              		.cfi_def_cfa_offset 0
 161 0016 7047     		bx	lr
 162              		.cfi_endproc
 163              	.LFE2284:
 165              		.section	.text._ZN3scr5USART13set_tx_statusENS_13periph_statusE,"axG",%progbits,_ZN3scr5USART13set
 166              		.align	1
 167              		.weak	_ZN3scr5USART13set_tx_statusENS_13periph_statusE
 168              		.syntax unified
 169              		.thumb
ARM GAS  /tmp/cczUr7WU.s 			page 10


 170              		.thumb_func
 171              		.fpu fpv4-sp-d16
 173              	_ZN3scr5USART13set_tx_statusENS_13periph_statusE:
 174              	.LFB2289:
  51:STM32CubeRobotics-Framework/Drivers/inc/scr_usart.h **** 
  52:STM32CubeRobotics-Framework/Drivers/inc/scr_usart.h ****         inline void set_tx_timeout(uint32_t t) {
  53:STM32CubeRobotics-Framework/Drivers/inc/scr_usart.h ****             tx_timeout = t;
  54:STM32CubeRobotics-Framework/Drivers/inc/scr_usart.h ****         }
  55:STM32CubeRobotics-Framework/Drivers/inc/scr_usart.h **** 
  56:STM32CubeRobotics-Framework/Drivers/inc/scr_usart.h ****         inline void set_rx_timeout(uint32_t t) {
  57:STM32CubeRobotics-Framework/Drivers/inc/scr_usart.h ****             rx_timeout = t;
  58:STM32CubeRobotics-Framework/Drivers/inc/scr_usart.h ****         }
  59:STM32CubeRobotics-Framework/Drivers/inc/scr_usart.h **** 
  60:STM32CubeRobotics-Framework/Drivers/inc/scr_usart.h ****         inline periph_status get_tx_status() {
  61:STM32CubeRobotics-Framework/Drivers/inc/scr_usart.h ****             return tx_status;
  62:STM32CubeRobotics-Framework/Drivers/inc/scr_usart.h ****         }
  63:STM32CubeRobotics-Framework/Drivers/inc/scr_usart.h **** 
  64:STM32CubeRobotics-Framework/Drivers/inc/scr_usart.h ****         inline periph_status get_rx_status() {
  65:STM32CubeRobotics-Framework/Drivers/inc/scr_usart.h ****             return rx_status;
  66:STM32CubeRobotics-Framework/Drivers/inc/scr_usart.h ****         }
  67:STM32CubeRobotics-Framework/Drivers/inc/scr_usart.h **** 
  68:STM32CubeRobotics-Framework/Drivers/inc/scr_usart.h ****         inline void set_tx_status(periph_status status) {
 175              		.loc 3 68 0
 176              		.cfi_startproc
 177              		@ args = 0, pretend = 0, frame = 8
 178              		@ frame_needed = 1, uses_anonymous_args = 0
 179              		@ link register save eliminated.
 180 0000 80B4     		push	{r7}
 181              	.LCFI18:
 182              		.cfi_def_cfa_offset 4
 183              		.cfi_offset 7, -4
 184 0002 83B0     		sub	sp, sp, #12
 185              	.LCFI19:
 186              		.cfi_def_cfa_offset 16
 187 0004 00AF     		add	r7, sp, #0
 188              	.LCFI20:
 189              		.cfi_def_cfa_register 7
 190 0006 7860     		str	r0, [r7, #4]
 191 0008 3960     		str	r1, [r7]
  69:STM32CubeRobotics-Framework/Drivers/inc/scr_usart.h ****             tx_status = status;
 192              		.loc 3 69 0
 193 000a 7B68     		ldr	r3, [r7, #4]
 194 000c 3A68     		ldr	r2, [r7]
 195 000e DA60     		str	r2, [r3, #12]
  70:STM32CubeRobotics-Framework/Drivers/inc/scr_usart.h ****         }
 196              		.loc 3 70 0
 197 0010 00BF     		nop
 198 0012 0C37     		adds	r7, r7, #12
 199              	.LCFI21:
 200              		.cfi_def_cfa_offset 4
 201 0014 BD46     		mov	sp, r7
 202              	.LCFI22:
 203              		.cfi_def_cfa_register 13
 204              		@ sp needed
 205 0016 5DF8047B 		ldr	r7, [sp], #4
 206              	.LCFI23:
 207              		.cfi_restore 7
ARM GAS  /tmp/cczUr7WU.s 			page 11


 208              		.cfi_def_cfa_offset 0
 209 001a 7047     		bx	lr
 210              		.cfi_endproc
 211              	.LFE2289:
 213              		.global	num_usarts
 214              		.section	.bss.num_usarts,"aw",%nobits
 215              		.align	2
 218              	num_usarts:
 219 0000 00000000 		.space	4
 220              		.global	active_usarts
 221              		.section	.bss.active_usarts,"aw",%nobits
 222              		.align	2
 225              	active_usarts:
 226 0000 00000000 		.space	40
 226      00000000 
 226      00000000 
 226      00000000 
 226      00000000 
 227              		.section	.text._ZN3scr5USARTC2EP20__UART_HandleTypeDefmm,"ax",%progbits
 228              		.align	1
 229              		.global	_ZN3scr5USARTC2EP20__UART_HandleTypeDefmm
 230              		.syntax unified
 231              		.thumb
 232              		.thumb_func
 233              		.fpu fpv4-sp-d16
 235              	_ZN3scr5USARTC2EP20__UART_HandleTypeDefmm:
 236              	.LFB2293:
 237              		.file 4 "STM32CubeRobotics-Framework/Drivers/src/scr_usart.cpp"
   1:STM32CubeRobotics-Framework/Drivers/src/scr_usart.cpp **** #include "scr_usart.h"
   2:STM32CubeRobotics-Framework/Drivers/src/scr_usart.cpp **** #include "scr_systick.h"
   3:STM32CubeRobotics-Framework/Drivers/src/scr_usart.cpp **** 
   4:STM32CubeRobotics-Framework/Drivers/src/scr_usart.cpp **** #ifdef HAL_UART_MODULE_ENABLED
   5:STM32CubeRobotics-Framework/Drivers/src/scr_usart.cpp **** 
   6:STM32CubeRobotics-Framework/Drivers/src/scr_usart.cpp **** using namespace scr;
   7:STM32CubeRobotics-Framework/Drivers/src/scr_usart.cpp **** 
   8:STM32CubeRobotics-Framework/Drivers/src/scr_usart.cpp **** /*==================================================================*/
   9:STM32CubeRobotics-Framework/Drivers/src/scr_usart.cpp **** /* active_usarts store pointers to all instantiated USART objects
  10:STM32CubeRobotics-Framework/Drivers/src/scr_usart.cpp ****  * globally, for ISR(interrupt service routine) extern functions to assign 
  11:STM32CubeRobotics-Framework/Drivers/src/scr_usart.cpp ****  * interrupt task for each different usart object. Ideally a hashtable or 
  12:STM32CubeRobotics-Framework/Drivers/src/scr_usart.cpp ****  * vector container should be implemented instead of a pointer array with 
  13:STM32CubeRobotics-Framework/Drivers/src/scr_usart.cpp ****  * a magic number of capacity, but ISR only support simple C-style 
  14:STM32CubeRobotics-Framework/Drivers/src/scr_usart.cpp ****  * operations, let's stick with the old-school fashion!
  15:STM32CubeRobotics-Framework/Drivers/src/scr_usart.cpp ****  * */
  16:STM32CubeRobotics-Framework/Drivers/src/scr_usart.cpp **** uint32_t num_usarts = 0;
  17:STM32CubeRobotics-Framework/Drivers/src/scr_usart.cpp **** USART* active_usarts[Max_Num_USARTs];
  18:STM32CubeRobotics-Framework/Drivers/src/scr_usart.cpp **** /*==================================================================*/
  19:STM32CubeRobotics-Framework/Drivers/src/scr_usart.cpp **** 
  20:STM32CubeRobotics-Framework/Drivers/src/scr_usart.cpp **** 
  21:STM32CubeRobotics-Framework/Drivers/src/scr_usart.cpp **** USART::USART(UART_HandleTypeDef *huartx, uint32_t tx_buffer_size, uint32_t rx_buffer_size) {
 238              		.loc 4 21 0
 239              		.cfi_startproc
 240              		@ args = 0, pretend = 0, frame = 16
 241              		@ frame_needed = 1, uses_anonymous_args = 0
 242 0000 80B5     		push	{r7, lr}
 243              	.LCFI24:
 244              		.cfi_def_cfa_offset 8
 245              		.cfi_offset 7, -8
ARM GAS  /tmp/cczUr7WU.s 			page 12


 246              		.cfi_offset 14, -4
 247 0002 84B0     		sub	sp, sp, #16
 248              	.LCFI25:
 249              		.cfi_def_cfa_offset 24
 250 0004 00AF     		add	r7, sp, #0
 251              	.LCFI26:
 252              		.cfi_def_cfa_register 7
 253 0006 F860     		str	r0, [r7, #12]
 254 0008 B960     		str	r1, [r7, #8]
 255 000a 7A60     		str	r2, [r7, #4]
 256 000c 3B60     		str	r3, [r7]
 257              	.LBB2:
 258              		.loc 4 21 0
 259 000e FB68     		ldr	r3, [r7, #12]
 260 0010 194A     		ldr	r2, .L9
 261 0012 5A60     		str	r2, [r3, #4]
 262 0014 FB68     		ldr	r3, [r7, #12]
 263 0016 194A     		ldr	r2, .L9+4
 264 0018 9A60     		str	r2, [r3, #8]
 265 001a FB68     		ldr	r3, [r7, #12]
 266 001c 0022     		movs	r2, #0
 267 001e DA60     		str	r2, [r3, #12]
 268 0020 FB68     		ldr	r3, [r7, #12]
 269 0022 0022     		movs	r2, #0
 270 0024 1A61     		str	r2, [r3, #16]
  22:STM32CubeRobotics-Framework/Drivers/src/scr_usart.cpp ****     this->huartx = huartx;
 271              		.loc 4 22 0
 272 0026 FB68     		ldr	r3, [r7, #12]
 273 0028 BA68     		ldr	r2, [r7, #8]
 274 002a 1A60     		str	r2, [r3]
  23:STM32CubeRobotics-Framework/Drivers/src/scr_usart.cpp **** 
  24:STM32CubeRobotics-Framework/Drivers/src/scr_usart.cpp ****     tx_buffer = new char(tx_buffer_size);
 275              		.loc 4 24 0
 276 002c 0120     		movs	r0, #1
 277 002e FFF7FEFF 		bl	_Znwj
 278 0032 0346     		mov	r3, r0
 279 0034 7A68     		ldr	r2, [r7, #4]
 280 0036 D2B2     		uxtb	r2, r2
 281 0038 1A70     		strb	r2, [r3]
 282 003a FA68     		ldr	r2, [r7, #12]
 283 003c 5361     		str	r3, [r2, #20]
  25:STM32CubeRobotics-Framework/Drivers/src/scr_usart.cpp ****     rx_buffer = new char(rx_buffer_size);
 284              		.loc 4 25 0
 285 003e 0120     		movs	r0, #1
 286 0040 FFF7FEFF 		bl	_Znwj
 287 0044 0346     		mov	r3, r0
 288 0046 3A68     		ldr	r2, [r7]
 289 0048 D2B2     		uxtb	r2, r2
 290 004a 1A70     		strb	r2, [r3]
 291 004c FA68     		ldr	r2, [r7, #12]
 292 004e 9361     		str	r3, [r2, #24]
  26:STM32CubeRobotics-Framework/Drivers/src/scr_usart.cpp **** 
  27:STM32CubeRobotics-Framework/Drivers/src/scr_usart.cpp ****     tx_status = Initialized;
 293              		.loc 4 27 0
 294 0050 FB68     		ldr	r3, [r7, #12]
 295 0052 0122     		movs	r2, #1
 296 0054 DA60     		str	r2, [r3, #12]
ARM GAS  /tmp/cczUr7WU.s 			page 13


  28:STM32CubeRobotics-Framework/Drivers/src/scr_usart.cpp ****     rx_status = Initialized;
 297              		.loc 4 28 0
 298 0056 FB68     		ldr	r3, [r7, #12]
 299 0058 0122     		movs	r2, #1
 300 005a 1A61     		str	r2, [r3, #16]
  29:STM32CubeRobotics-Framework/Drivers/src/scr_usart.cpp ****     active_usarts[num_usarts++] = this;
 301              		.loc 4 29 0
 302 005c 084B     		ldr	r3, .L9+8
 303 005e 1B68     		ldr	r3, [r3]
 304 0060 5A1C     		adds	r2, r3, #1
 305 0062 0749     		ldr	r1, .L9+8
 306 0064 0A60     		str	r2, [r1]
 307 0066 0749     		ldr	r1, .L9+12
 308 0068 FA68     		ldr	r2, [r7, #12]
 309 006a 41F82320 		str	r2, [r1, r3, lsl #2]
 310              	.LBE2:
  30:STM32CubeRobotics-Framework/Drivers/src/scr_usart.cpp **** }
 311              		.loc 4 30 0
 312 006e FB68     		ldr	r3, [r7, #12]
 313 0070 1846     		mov	r0, r3
 314 0072 1037     		adds	r7, r7, #16
 315              	.LCFI27:
 316              		.cfi_def_cfa_offset 8
 317 0074 BD46     		mov	sp, r7
 318              	.LCFI28:
 319              		.cfi_def_cfa_register 13
 320              		@ sp needed
 321 0076 80BD     		pop	{r7, pc}
 322              	.L10:
 323              		.align	2
 324              	.L9:
 325 0078 40420F00 		.word	1000000
 326 007c 00CA9A3B 		.word	1000000000
 327 0080 00000000 		.word	num_usarts
 328 0084 00000000 		.word	active_usarts
 329              		.cfi_endproc
 330              	.LFE2293:
 332              		.global	_ZN3scr5USARTC1EP20__UART_HandleTypeDefmm
 333              		.thumb_set _ZN3scr5USARTC1EP20__UART_HandleTypeDefmm,_ZN3scr5USARTC2EP20__UART_HandleTypeDefmm
 334              		.section	.text._ZN3scr5USARTD2Ev,"ax",%progbits
 335              		.align	1
 336              		.global	_ZN3scr5USARTD2Ev
 337              		.syntax unified
 338              		.thumb
 339              		.thumb_func
 340              		.fpu fpv4-sp-d16
 342              	_ZN3scr5USARTD2Ev:
 343              	.LFB2296:
  31:STM32CubeRobotics-Framework/Drivers/src/scr_usart.cpp **** 
  32:STM32CubeRobotics-Framework/Drivers/src/scr_usart.cpp **** USART::~USART() {
 344              		.loc 4 32 0
 345              		.cfi_startproc
 346              		@ args = 0, pretend = 0, frame = 8
 347              		@ frame_needed = 1, uses_anonymous_args = 0
 348 0000 80B5     		push	{r7, lr}
 349              	.LCFI29:
 350              		.cfi_def_cfa_offset 8
ARM GAS  /tmp/cczUr7WU.s 			page 14


 351              		.cfi_offset 7, -8
 352              		.cfi_offset 14, -4
 353 0002 82B0     		sub	sp, sp, #8
 354              	.LCFI30:
 355              		.cfi_def_cfa_offset 16
 356 0004 00AF     		add	r7, sp, #0
 357              	.LCFI31:
 358              		.cfi_def_cfa_register 7
 359 0006 7860     		str	r0, [r7, #4]
 360              	.LBB3:
  33:STM32CubeRobotics-Framework/Drivers/src/scr_usart.cpp ****     delete tx_buffer;
 361              		.loc 4 33 0
 362 0008 7B68     		ldr	r3, [r7, #4]
 363 000a 5B69     		ldr	r3, [r3, #20]
 364 000c 0121     		movs	r1, #1
 365 000e 1846     		mov	r0, r3
 366 0010 FFF7FEFF 		bl	_ZdlPvj
  34:STM32CubeRobotics-Framework/Drivers/src/scr_usart.cpp ****     delete rx_buffer;
 367              		.loc 4 34 0
 368 0014 7B68     		ldr	r3, [r7, #4]
 369 0016 9B69     		ldr	r3, [r3, #24]
 370 0018 0121     		movs	r1, #1
 371 001a 1846     		mov	r0, r3
 372 001c FFF7FEFF 		bl	_ZdlPvj
 373              	.LBE3:
  35:STM32CubeRobotics-Framework/Drivers/src/scr_usart.cpp **** }
 374              		.loc 4 35 0
 375 0020 7B68     		ldr	r3, [r7, #4]
 376 0022 1846     		mov	r0, r3
 377 0024 0837     		adds	r7, r7, #8
 378              	.LCFI32:
 379              		.cfi_def_cfa_offset 8
 380 0026 BD46     		mov	sp, r7
 381              	.LCFI33:
 382              		.cfi_def_cfa_register 13
 383              		@ sp needed
 384 0028 80BD     		pop	{r7, pc}
 385              		.cfi_endproc
 386              	.LFE2296:
 388              		.global	_ZN3scr5USARTD1Ev
 389              		.thumb_set _ZN3scr5USARTD1Ev,_ZN3scr5USARTD2Ev
 390              		.section	.rodata
 391              		.align	2
 392              	.LC0:
 393 0000 75736172 		.ascii	"usart_transmit Polling | TimeOut\000"
 393      745F7472 
 393      616E736D 
 393      69742050 
 393      6F6C6C69 
 394 0021 000000   		.align	2
 395              	.LC1:
 396 0024 75736172 		.ascii	"usart_transmit Polling | Error\000"
 396      745F7472 
 396      616E736D 
 396      69742050 
 396      6F6C6C69 
 397 0043 00       		.align	2
ARM GAS  /tmp/cczUr7WU.s 			page 15


 398              	.LC2:
 399 0044 75736172 		.ascii	"usart_transmit interrupt | Error\000"
 399      745F7472 
 399      616E736D 
 399      69742069 
 399      6E746572 
 400 0065 000000   		.align	2
 401              	.LC3:
 402 0068 75736172 		.ascii	"usart_transmit DMA | Error\000"
 402      745F7472 
 402      616E736D 
 402      69742044 
 402      4D41207C 
 403              		.section	.text._ZN3scr5USART12hal_transmitEPcNS_11periph_modeE,"ax",%progbits
 404              		.align	1
 405              		.global	_ZN3scr5USART12hal_transmitEPcNS_11periph_modeE
 406              		.syntax unified
 407              		.thumb
 408              		.thumb_func
 409              		.fpu fpv4-sp-d16
 411              	_ZN3scr5USART12hal_transmitEPcNS_11periph_modeE:
 412              	.LFB2298:
  36:STM32CubeRobotics-Framework/Drivers/src/scr_usart.cpp **** 
  37:STM32CubeRobotics-Framework/Drivers/src/scr_usart.cpp **** 
  38:STM32CubeRobotics-Framework/Drivers/src/scr_usart.cpp **** 
  39:STM32CubeRobotics-Framework/Drivers/src/scr_usart.cpp **** void USART::hal_transmit(char* str_ptr, periph_mode mode) {
 413              		.loc 4 39 0
 414              		.cfi_startproc
 415              		@ args = 0, pretend = 0, frame = 128
 416              		@ frame_needed = 1, uses_anonymous_args = 0
 417 0000 B0B5     		push	{r4, r5, r7, lr}
 418              	.LCFI34:
 419              		.cfi_def_cfa_offset 16
 420              		.cfi_offset 4, -16
 421              		.cfi_offset 5, -12
 422              		.cfi_offset 7, -8
 423              		.cfi_offset 14, -4
 424 0002 A0B0     		sub	sp, sp, #128
 425              	.LCFI35:
 426              		.cfi_def_cfa_offset 144
 427 0004 00AF     		add	r7, sp, #0
 428              	.LCFI36:
 429              		.cfi_def_cfa_register 7
 430 0006 F860     		str	r0, [r7, #12]
 431 0008 B960     		str	r1, [r7, #8]
 432 000a 1346     		mov	r3, r2
 433 000c FB71     		strb	r3, [r7, #7]
  40:STM32CubeRobotics-Framework/Drivers/src/scr_usart.cpp **** 	if(tx_status == NotReady) return;
 434              		.loc 4 40 0
 435 000e FB68     		ldr	r3, [r7, #12]
 436 0010 DB68     		ldr	r3, [r3, #12]
 437 0012 002B     		cmp	r3, #0
 438 0014 0CBF     		ite	eq
 439 0016 0123     		moveq	r3, #1
 440 0018 0023     		movne	r3, #0
 441 001a DBB2     		uxtb	r3, r3
 442 001c 002B     		cmp	r3, #0
ARM GAS  /tmp/cczUr7WU.s 			page 16


 443 001e 40F0FF80 		bne	.L25
  41:STM32CubeRobotics-Framework/Drivers/src/scr_usart.cpp **** 
  42:STM32CubeRobotics-Framework/Drivers/src/scr_usart.cpp ****     HAL_StatusTypeDef status;
  43:STM32CubeRobotics-Framework/Drivers/src/scr_usart.cpp ****     if(mode == Polling) {
 444              		.loc 4 43 0
 445 0022 FB79     		ldrb	r3, [r7, #7]	@ zero_extendqisi2
 446 0024 002B     		cmp	r3, #0
 447 0026 72D1     		bne	.L16
  44:STM32CubeRobotics-Framework/Drivers/src/scr_usart.cpp ****         status = HAL_UART_Transmit(huartx, (uint8_t*)(str_ptr), strlen(str_ptr), tx_timeout);
 448              		.loc 4 44 0
 449 0028 FB68     		ldr	r3, [r7, #12]
 450 002a 1C68     		ldr	r4, [r3]
 451 002c BD68     		ldr	r5, [r7, #8]
 452 002e BB68     		ldr	r3, [r7, #8]
 453 0030 1846     		mov	r0, r3
 454 0032 FFF7FEFF 		bl	strlen
 455 0036 0346     		mov	r3, r0
 456 0038 9AB2     		uxth	r2, r3
 457 003a FB68     		ldr	r3, [r7, #12]
 458 003c 5B68     		ldr	r3, [r3, #4]
 459 003e 2946     		mov	r1, r5
 460 0040 2046     		mov	r0, r4
 461 0042 FFF7FEFF 		bl	HAL_UART_Transmit
 462 0046 0346     		mov	r3, r0
 463 0048 87F87F30 		strb	r3, [r7, #127]
  45:STM32CubeRobotics-Framework/Drivers/src/scr_usart.cpp ****         if(status == HAL_BUSY) tx_status = InProgress;
 464              		.loc 4 45 0
 465 004c 97F87F30 		ldrb	r3, [r7, #127]	@ zero_extendqisi2
 466 0050 022B     		cmp	r3, #2
 467 0052 03D1     		bne	.L17
 468              		.loc 4 45 0 is_stmt 0 discriminator 1
 469 0054 FB68     		ldr	r3, [r7, #12]
 470 0056 0222     		movs	r2, #2
 471 0058 DA60     		str	r2, [r3, #12]
 472 005a 58E0     		b	.L16
 473              	.L17:
  46:STM32CubeRobotics-Framework/Drivers/src/scr_usart.cpp ****         else if(status == HAL_TIMEOUT) {
 474              		.loc 4 46 0 is_stmt 1
 475 005c 97F87F30 		ldrb	r3, [r7, #127]	@ zero_extendqisi2
 476 0060 032B     		cmp	r3, #3
 477 0062 29D1     		bne	.L18
  47:STM32CubeRobotics-Framework/Drivers/src/scr_usart.cpp ****             tx_status = TimeOut;
 478              		.loc 4 47 0
 479 0064 FB68     		ldr	r3, [r7, #12]
 480 0066 0422     		movs	r2, #4
 481 0068 DA60     		str	r2, [r3, #12]
  48:STM32CubeRobotics-Framework/Drivers/src/scr_usart.cpp **** 
  49:STM32CubeRobotics-Framework/Drivers/src/scr_usart.cpp ****             //Unlock Usart
  50:STM32CubeRobotics-Framework/Drivers/src/scr_usart.cpp ****             __HAL_UNLOCK(huartx);
 482              		.loc 4 50 0
 483 006a FB68     		ldr	r3, [r7, #12]
 484 006c 1B68     		ldr	r3, [r3]
 485 006e 0022     		movs	r2, #0
 486 0070 83F83820 		strb	r2, [r3, #56]
  51:STM32CubeRobotics-Framework/Drivers/src/scr_usart.cpp ****             huartx->gState = HAL_UART_STATE_READY;
 487              		.loc 4 51 0
 488 0074 FB68     		ldr	r3, [r7, #12]
ARM GAS  /tmp/cczUr7WU.s 			page 17


 489 0076 1B68     		ldr	r3, [r3]
 490 0078 2022     		movs	r2, #32
 491 007a 83F83920 		strb	r2, [r3, #57]
  52:STM32CubeRobotics-Framework/Drivers/src/scr_usart.cpp ****             
  53:STM32CubeRobotics-Framework/Drivers/src/scr_usart.cpp ****             throwException("usart_transmit Polling | TimeOut");
 492              		.loc 4 53 0
 493 007e 07F12803 		add	r3, r7, #40
 494 0082 1846     		mov	r0, r3
 495 0084 FFF7FEFF 		bl	_ZNSaIcEC1Ev
 496 0088 07F12802 		add	r2, r7, #40
 497 008c 07F11003 		add	r3, r7, #16
 498 0090 6749     		ldr	r1, .L28
 499 0092 1846     		mov	r0, r3
 500 0094 FFF7FEFF 		bl	_ZNSt7__cxx1112basic_stringIcSt11char_traitsIcESaIcEEC1EPKcRKS3_
 501 0098 07F11003 		add	r3, r7, #16
 502 009c 1846     		mov	r0, r3
 503 009e FFF7FEFF 		bl	_Z14throwExceptionNSt7__cxx1112basic_stringIcSt11char_traitsIcESaIcEEE
 504 00a2 07F11003 		add	r3, r7, #16
 505 00a6 1846     		mov	r0, r3
 506 00a8 FFF7FEFF 		bl	_ZNSt7__cxx1112basic_stringIcSt11char_traitsIcESaIcEED1Ev
 507 00ac 07F12803 		add	r3, r7, #40
 508 00b0 1846     		mov	r0, r3
 509 00b2 FFF7FEFF 		bl	_ZNSaIcED1Ev
 510 00b6 2AE0     		b	.L16
 511              	.L18:
  54:STM32CubeRobotics-Framework/Drivers/src/scr_usart.cpp ****         }
  55:STM32CubeRobotics-Framework/Drivers/src/scr_usart.cpp ****         else if(status == HAL_ERROR) {
 512              		.loc 4 55 0
 513 00b8 97F87F30 		ldrb	r3, [r7, #127]	@ zero_extendqisi2
 514 00bc 012B     		cmp	r3, #1
 515 00be 1FD1     		bne	.L19
  56:STM32CubeRobotics-Framework/Drivers/src/scr_usart.cpp ****             tx_status = Error;
 516              		.loc 4 56 0
 517 00c0 FB68     		ldr	r3, [r7, #12]
 518 00c2 0522     		movs	r2, #5
 519 00c4 DA60     		str	r2, [r3, #12]
  57:STM32CubeRobotics-Framework/Drivers/src/scr_usart.cpp ****             throwException("usart_transmit Polling | Error");
 520              		.loc 4 57 0
 521 00c6 07F14403 		add	r3, r7, #68
 522 00ca 1846     		mov	r0, r3
 523 00cc FFF7FEFF 		bl	_ZNSaIcEC1Ev
 524 00d0 07F14402 		add	r2, r7, #68
 525 00d4 07F12C03 		add	r3, r7, #44
 526 00d8 5649     		ldr	r1, .L28+4
 527 00da 1846     		mov	r0, r3
 528 00dc FFF7FEFF 		bl	_ZNSt7__cxx1112basic_stringIcSt11char_traitsIcESaIcEEC1EPKcRKS3_
 529 00e0 07F12C03 		add	r3, r7, #44
 530 00e4 1846     		mov	r0, r3
 531 00e6 FFF7FEFF 		bl	_Z14throwExceptionNSt7__cxx1112basic_stringIcSt11char_traitsIcESaIcEEE
 532 00ea 07F12C03 		add	r3, r7, #44
 533 00ee 1846     		mov	r0, r3
 534 00f0 FFF7FEFF 		bl	_ZNSt7__cxx1112basic_stringIcSt11char_traitsIcESaIcEED1Ev
 535 00f4 07F14403 		add	r3, r7, #68
 536 00f8 1846     		mov	r0, r3
 537 00fa FFF7FEFF 		bl	_ZNSaIcED1Ev
 538 00fe 06E0     		b	.L16
 539              	.L19:
ARM GAS  /tmp/cczUr7WU.s 			page 18


  58:STM32CubeRobotics-Framework/Drivers/src/scr_usart.cpp ****         }
  59:STM32CubeRobotics-Framework/Drivers/src/scr_usart.cpp ****         else if(status == HAL_OK) {
 540              		.loc 4 59 0
 541 0100 97F87F30 		ldrb	r3, [r7, #127]	@ zero_extendqisi2
 542 0104 002B     		cmp	r3, #0
 543 0106 02D1     		bne	.L16
  60:STM32CubeRobotics-Framework/Drivers/src/scr_usart.cpp ****             tx_status = Completed;
 544              		.loc 4 60 0
 545 0108 FB68     		ldr	r3, [r7, #12]
 546 010a 0322     		movs	r2, #3
 547 010c DA60     		str	r2, [r3, #12]
 548              	.L16:
  61:STM32CubeRobotics-Framework/Drivers/src/scr_usart.cpp ****         }
  62:STM32CubeRobotics-Framework/Drivers/src/scr_usart.cpp ****     }
  63:STM32CubeRobotics-Framework/Drivers/src/scr_usart.cpp **** 
  64:STM32CubeRobotics-Framework/Drivers/src/scr_usart.cpp ****     // Make sure interrupt is enabled within CubeMx software
  65:STM32CubeRobotics-Framework/Drivers/src/scr_usart.cpp ****     if(mode == Interrupt) {
 549              		.loc 4 65 0
 550 010e FB79     		ldrb	r3, [r7, #7]	@ zero_extendqisi2
 551 0110 012B     		cmp	r3, #1
 552 0112 40D1     		bne	.L20
  66:STM32CubeRobotics-Framework/Drivers/src/scr_usart.cpp ****         //check if the previous transmission is completed
  67:STM32CubeRobotics-Framework/Drivers/src/scr_usart.cpp ****         if(tx_status == InProgress) return;
 553              		.loc 4 67 0
 554 0114 FB68     		ldr	r3, [r7, #12]
 555 0116 DB68     		ldr	r3, [r3, #12]
 556 0118 022B     		cmp	r3, #2
 557 011a 0CBF     		ite	eq
 558 011c 0123     		moveq	r3, #1
 559 011e 0023     		movne	r3, #0
 560 0120 DBB2     		uxtb	r3, r3
 561 0122 002B     		cmp	r3, #0
 562 0124 7ED1     		bne	.L26
  68:STM32CubeRobotics-Framework/Drivers/src/scr_usart.cpp ****         status = HAL_UART_Transmit_IT(huartx, (uint8_t*)str_ptr, strlen(str_ptr));
 563              		.loc 4 68 0
 564 0126 FB68     		ldr	r3, [r7, #12]
 565 0128 1C68     		ldr	r4, [r3]
 566 012a BD68     		ldr	r5, [r7, #8]
 567 012c BB68     		ldr	r3, [r7, #8]
 568 012e 1846     		mov	r0, r3
 569 0130 FFF7FEFF 		bl	strlen
 570 0134 0346     		mov	r3, r0
 571 0136 9BB2     		uxth	r3, r3
 572 0138 1A46     		mov	r2, r3
 573 013a 2946     		mov	r1, r5
 574 013c 2046     		mov	r0, r4
 575 013e FFF7FEFF 		bl	HAL_UART_Transmit_IT
 576 0142 0346     		mov	r3, r0
 577 0144 87F87F30 		strb	r3, [r7, #127]
  69:STM32CubeRobotics-Framework/Drivers/src/scr_usart.cpp ****         if(status == HAL_ERROR) {
 578              		.loc 4 69 0
 579 0148 97F87F30 		ldrb	r3, [r7, #127]	@ zero_extendqisi2
 580 014c 012B     		cmp	r3, #1
 581 014e 1FD1     		bne	.L22
  70:STM32CubeRobotics-Framework/Drivers/src/scr_usart.cpp ****             tx_status = Error;
 582              		.loc 4 70 0
 583 0150 FB68     		ldr	r3, [r7, #12]
ARM GAS  /tmp/cczUr7WU.s 			page 19


 584 0152 0522     		movs	r2, #5
 585 0154 DA60     		str	r2, [r3, #12]
  71:STM32CubeRobotics-Framework/Drivers/src/scr_usart.cpp ****             throwException("usart_transmit interrupt | Error");
 586              		.loc 4 71 0
 587 0156 07F16003 		add	r3, r7, #96
 588 015a 1846     		mov	r0, r3
 589 015c FFF7FEFF 		bl	_ZNSaIcEC1Ev
 590 0160 07F16002 		add	r2, r7, #96
 591 0164 07F14803 		add	r3, r7, #72
 592 0168 3349     		ldr	r1, .L28+8
 593 016a 1846     		mov	r0, r3
 594 016c FFF7FEFF 		bl	_ZNSt7__cxx1112basic_stringIcSt11char_traitsIcESaIcEEC1EPKcRKS3_
 595 0170 07F14803 		add	r3, r7, #72
 596 0174 1846     		mov	r0, r3
 597 0176 FFF7FEFF 		bl	_Z14throwExceptionNSt7__cxx1112basic_stringIcSt11char_traitsIcESaIcEEE
 598 017a 07F14803 		add	r3, r7, #72
 599 017e 1846     		mov	r0, r3
 600 0180 FFF7FEFF 		bl	_ZNSt7__cxx1112basic_stringIcSt11char_traitsIcESaIcEED1Ev
 601 0184 07F16003 		add	r3, r7, #96
 602 0188 1846     		mov	r0, r3
 603 018a FFF7FEFF 		bl	_ZNSaIcED1Ev
  72:STM32CubeRobotics-Framework/Drivers/src/scr_usart.cpp ****             return;
 604              		.loc 4 72 0
 605 018e 4CE0     		b	.L13
 606              	.L22:
  73:STM32CubeRobotics-Framework/Drivers/src/scr_usart.cpp ****         }
  74:STM32CubeRobotics-Framework/Drivers/src/scr_usart.cpp ****         tx_status = InProgress;
 607              		.loc 4 74 0
 608 0190 FB68     		ldr	r3, [r7, #12]
 609 0192 0222     		movs	r2, #2
 610 0194 DA60     		str	r2, [r3, #12]
 611              	.L20:
  75:STM32CubeRobotics-Framework/Drivers/src/scr_usart.cpp ****     }
  76:STM32CubeRobotics-Framework/Drivers/src/scr_usart.cpp **** 
  77:STM32CubeRobotics-Framework/Drivers/src/scr_usart.cpp ****     // Make sure DMA and interrupt are both enabled within CubeMx software
  78:STM32CubeRobotics-Framework/Drivers/src/scr_usart.cpp ****     if(mode == DMA) {
 612              		.loc 4 78 0
 613 0196 FB79     		ldrb	r3, [r7, #7]	@ zero_extendqisi2
 614 0198 022B     		cmp	r3, #2
 615 019a 46D1     		bne	.L13
  79:STM32CubeRobotics-Framework/Drivers/src/scr_usart.cpp ****         //check if the previous transmission is completed
  80:STM32CubeRobotics-Framework/Drivers/src/scr_usart.cpp ****         if(tx_status == InProgress) return;
 616              		.loc 4 80 0
 617 019c FB68     		ldr	r3, [r7, #12]
 618 019e DB68     		ldr	r3, [r3, #12]
 619 01a0 022B     		cmp	r3, #2
 620 01a2 0CBF     		ite	eq
 621 01a4 0123     		moveq	r3, #1
 622 01a6 0023     		movne	r3, #0
 623 01a8 DBB2     		uxtb	r3, r3
 624 01aa 002B     		cmp	r3, #0
 625 01ac 3CD1     		bne	.L27
  81:STM32CubeRobotics-Framework/Drivers/src/scr_usart.cpp ****         status = HAL_UART_Transmit_DMA(huartx, (uint8_t*)str_ptr, strlen(str_ptr));
 626              		.loc 4 81 0
 627 01ae FB68     		ldr	r3, [r7, #12]
 628 01b0 1C68     		ldr	r4, [r3]
 629 01b2 BD68     		ldr	r5, [r7, #8]
ARM GAS  /tmp/cczUr7WU.s 			page 20


 630 01b4 BB68     		ldr	r3, [r7, #8]
 631 01b6 1846     		mov	r0, r3
 632 01b8 FFF7FEFF 		bl	strlen
 633 01bc 0346     		mov	r3, r0
 634 01be 9BB2     		uxth	r3, r3
 635 01c0 1A46     		mov	r2, r3
 636 01c2 2946     		mov	r1, r5
 637 01c4 2046     		mov	r0, r4
 638 01c6 FFF7FEFF 		bl	HAL_UART_Transmit_DMA
 639 01ca 0346     		mov	r3, r0
 640 01cc 87F87F30 		strb	r3, [r7, #127]
  82:STM32CubeRobotics-Framework/Drivers/src/scr_usart.cpp ****         if(status == HAL_ERROR) {
 641              		.loc 4 82 0
 642 01d0 97F87F30 		ldrb	r3, [r7, #127]	@ zero_extendqisi2
 643 01d4 012B     		cmp	r3, #1
 644 01d6 1FD1     		bne	.L24
  83:STM32CubeRobotics-Framework/Drivers/src/scr_usart.cpp ****             tx_status = Error;
 645              		.loc 4 83 0
 646 01d8 FB68     		ldr	r3, [r7, #12]
 647 01da 0522     		movs	r2, #5
 648 01dc DA60     		str	r2, [r3, #12]
  84:STM32CubeRobotics-Framework/Drivers/src/scr_usart.cpp ****             throwException("usart_transmit DMA | Error");
 649              		.loc 4 84 0
 650 01de 07F17C03 		add	r3, r7, #124
 651 01e2 1846     		mov	r0, r3
 652 01e4 FFF7FEFF 		bl	_ZNSaIcEC1Ev
 653 01e8 07F17C02 		add	r2, r7, #124
 654 01ec 07F16403 		add	r3, r7, #100
 655 01f0 1249     		ldr	r1, .L28+12
 656 01f2 1846     		mov	r0, r3
 657 01f4 FFF7FEFF 		bl	_ZNSt7__cxx1112basic_stringIcSt11char_traitsIcESaIcEEC1EPKcRKS3_
 658 01f8 07F16403 		add	r3, r7, #100
 659 01fc 1846     		mov	r0, r3
 660 01fe FFF7FEFF 		bl	_Z14throwExceptionNSt7__cxx1112basic_stringIcSt11char_traitsIcESaIcEEE
 661 0202 07F16403 		add	r3, r7, #100
 662 0206 1846     		mov	r0, r3
 663 0208 FFF7FEFF 		bl	_ZNSt7__cxx1112basic_stringIcSt11char_traitsIcESaIcEED1Ev
 664 020c 07F17C03 		add	r3, r7, #124
 665 0210 1846     		mov	r0, r3
 666 0212 FFF7FEFF 		bl	_ZNSaIcED1Ev
  85:STM32CubeRobotics-Framework/Drivers/src/scr_usart.cpp ****             return;
 667              		.loc 4 85 0
 668 0216 08E0     		b	.L13
 669              	.L24:
  86:STM32CubeRobotics-Framework/Drivers/src/scr_usart.cpp ****         }
  87:STM32CubeRobotics-Framework/Drivers/src/scr_usart.cpp ****         tx_status = InProgress;
 670              		.loc 4 87 0
 671 0218 FB68     		ldr	r3, [r7, #12]
 672 021a 0222     		movs	r2, #2
 673 021c DA60     		str	r2, [r3, #12]
 674 021e 04E0     		b	.L13
 675              	.L25:
  40:STM32CubeRobotics-Framework/Drivers/src/scr_usart.cpp **** 
 676              		.loc 4 40 0
 677 0220 00BF     		nop
 678 0222 02E0     		b	.L13
 679              	.L26:
ARM GAS  /tmp/cczUr7WU.s 			page 21


  67:STM32CubeRobotics-Framework/Drivers/src/scr_usart.cpp ****         status = HAL_UART_Transmit_IT(huartx, (uint8_t*)str_ptr, strlen(str_ptr));
 680              		.loc 4 67 0
 681 0224 00BF     		nop
 682 0226 00E0     		b	.L13
 683              	.L27:
  80:STM32CubeRobotics-Framework/Drivers/src/scr_usart.cpp ****         status = HAL_UART_Transmit_DMA(huartx, (uint8_t*)str_ptr, strlen(str_ptr));
 684              		.loc 4 80 0
 685 0228 00BF     		nop
 686              	.L13:
  88:STM32CubeRobotics-Framework/Drivers/src/scr_usart.cpp ****     }
  89:STM32CubeRobotics-Framework/Drivers/src/scr_usart.cpp **** }
 687              		.loc 4 89 0
 688 022a 8037     		adds	r7, r7, #128
 689              	.LCFI37:
 690              		.cfi_def_cfa_offset 16
 691 022c BD46     		mov	sp, r7
 692              	.LCFI38:
 693              		.cfi_def_cfa_register 13
 694              		@ sp needed
 695 022e B0BD     		pop	{r4, r5, r7, pc}
 696              	.L29:
 697              		.align	2
 698              	.L28:
 699 0230 00000000 		.word	.LC0
 700 0234 24000000 		.word	.LC1
 701 0238 44000000 		.word	.LC2
 702 023c 68000000 		.word	.LC3
 703              		.cfi_endproc
 704              	.LFE2298:
 706              		.section	.text._ZN3scr5USART8transmitERNSt7__cxx1112basic_stringIcSt11char_traitsIcESaIcEEENS_11pe
 707              		.align	1
 708              		.global	_ZN3scr5USART8transmitERNSt7__cxx1112basic_stringIcSt11char_traitsIcESaIcEEENS_11periph_mo
 709              		.syntax unified
 710              		.thumb
 711              		.thumb_func
 712              		.fpu fpv4-sp-d16
 714              	_ZN3scr5USART8transmitERNSt7__cxx1112basic_stringIcSt11char_traitsIcESaIcEEENS_11periph_modeE:
 715              	.LFB2299:
  90:STM32CubeRobotics-Framework/Drivers/src/scr_usart.cpp **** 
  91:STM32CubeRobotics-Framework/Drivers/src/scr_usart.cpp **** 
  92:STM32CubeRobotics-Framework/Drivers/src/scr_usart.cpp **** /* */
  93:STM32CubeRobotics-Framework/Drivers/src/scr_usart.cpp **** void USART::transmit(std::string& str, periph_mode mode) {
 716              		.loc 4 93 0
 717              		.cfi_startproc
 718              		@ args = 0, pretend = 0, frame = 16
 719              		@ frame_needed = 1, uses_anonymous_args = 0
 720 0000 80B5     		push	{r7, lr}
 721              	.LCFI39:
 722              		.cfi_def_cfa_offset 8
 723              		.cfi_offset 7, -8
 724              		.cfi_offset 14, -4
 725 0002 84B0     		sub	sp, sp, #16
 726              	.LCFI40:
 727              		.cfi_def_cfa_offset 24
 728 0004 00AF     		add	r7, sp, #0
 729              	.LCFI41:
 730              		.cfi_def_cfa_register 7
ARM GAS  /tmp/cczUr7WU.s 			page 22


 731 0006 F860     		str	r0, [r7, #12]
 732 0008 B960     		str	r1, [r7, #8]
 733 000a 1346     		mov	r3, r2
 734 000c FB71     		strb	r3, [r7, #7]
  94:STM32CubeRobotics-Framework/Drivers/src/scr_usart.cpp **** 	hal_transmit((char*)str.c_str(), mode);
 735              		.loc 4 94 0
 736 000e B868     		ldr	r0, [r7, #8]
 737 0010 FFF7FEFF 		bl	_ZNKSt7__cxx1112basic_stringIcSt11char_traitsIcESaIcEE5c_strEv
 738 0014 0146     		mov	r1, r0
 739 0016 FB79     		ldrb	r3, [r7, #7]	@ zero_extendqisi2
 740 0018 1A46     		mov	r2, r3
 741 001a F868     		ldr	r0, [r7, #12]
 742 001c FFF7FEFF 		bl	_ZN3scr5USART12hal_transmitEPcNS_11periph_modeE
  95:STM32CubeRobotics-Framework/Drivers/src/scr_usart.cpp **** }
 743              		.loc 4 95 0
 744 0020 00BF     		nop
 745 0022 1037     		adds	r7, r7, #16
 746              	.LCFI42:
 747              		.cfi_def_cfa_offset 8
 748 0024 BD46     		mov	sp, r7
 749              	.LCFI43:
 750              		.cfi_def_cfa_register 13
 751              		@ sp needed
 752 0026 80BD     		pop	{r7, pc}
 753              		.cfi_endproc
 754              	.LFE2299:
 756              		.section	.text._ZN3scr5USART8transmitEPcNS_11periph_modeE,"ax",%progbits
 757              		.align	1
 758              		.global	_ZN3scr5USART8transmitEPcNS_11periph_modeE
 759              		.syntax unified
 760              		.thumb
 761              		.thumb_func
 762              		.fpu fpv4-sp-d16
 764              	_ZN3scr5USART8transmitEPcNS_11periph_modeE:
 765              	.LFB2300:
  96:STM32CubeRobotics-Framework/Drivers/src/scr_usart.cpp **** 
  97:STM32CubeRobotics-Framework/Drivers/src/scr_usart.cpp **** 
  98:STM32CubeRobotics-Framework/Drivers/src/scr_usart.cpp **** void USART::transmit(char* str_ptr, periph_mode mode) {
 766              		.loc 4 98 0
 767              		.cfi_startproc
 768              		@ args = 0, pretend = 0, frame = 16
 769              		@ frame_needed = 1, uses_anonymous_args = 0
 770 0000 80B5     		push	{r7, lr}
 771              	.LCFI44:
 772              		.cfi_def_cfa_offset 8
 773              		.cfi_offset 7, -8
 774              		.cfi_offset 14, -4
 775 0002 84B0     		sub	sp, sp, #16
 776              	.LCFI45:
 777              		.cfi_def_cfa_offset 24
 778 0004 00AF     		add	r7, sp, #0
 779              	.LCFI46:
 780              		.cfi_def_cfa_register 7
 781 0006 F860     		str	r0, [r7, #12]
 782 0008 B960     		str	r1, [r7, #8]
 783 000a 1346     		mov	r3, r2
 784 000c FB71     		strb	r3, [r7, #7]
ARM GAS  /tmp/cczUr7WU.s 			page 23


  99:STM32CubeRobotics-Framework/Drivers/src/scr_usart.cpp ****     hal_transmit(str_ptr, mode);
 785              		.loc 4 99 0
 786 000e FB79     		ldrb	r3, [r7, #7]	@ zero_extendqisi2
 787 0010 1A46     		mov	r2, r3
 788 0012 B968     		ldr	r1, [r7, #8]
 789 0014 F868     		ldr	r0, [r7, #12]
 790 0016 FFF7FEFF 		bl	_ZN3scr5USART12hal_transmitEPcNS_11periph_modeE
 100:STM32CubeRobotics-Framework/Drivers/src/scr_usart.cpp **** }
 791              		.loc 4 100 0
 792 001a 00BF     		nop
 793 001c 1037     		adds	r7, r7, #16
 794              	.LCFI47:
 795              		.cfi_def_cfa_offset 8
 796 001e BD46     		mov	sp, r7
 797              	.LCFI48:
 798              		.cfi_def_cfa_register 13
 799              		@ sp needed
 800 0020 80BD     		pop	{r7, pc}
 801              		.cfi_endproc
 802              	.LFE2300:
 804              		.section	.text._ZN3scr5USART8transmitEhNS_11periph_modeE,"ax",%progbits
 805              		.align	1
 806              		.global	_ZN3scr5USART8transmitEhNS_11periph_modeE
 807              		.syntax unified
 808              		.thumb
 809              		.thumb_func
 810              		.fpu fpv4-sp-d16
 812              	_ZN3scr5USART8transmitEhNS_11periph_modeE:
 813              	.LFB2301:
 101:STM32CubeRobotics-Framework/Drivers/src/scr_usart.cpp **** 
 102:STM32CubeRobotics-Framework/Drivers/src/scr_usart.cpp **** void USART::transmit(byte_t byte, periph_mode mode) {
 814              		.loc 4 102 0
 815              		.cfi_startproc
 816              		@ args = 0, pretend = 0, frame = 8
 817              		@ frame_needed = 1, uses_anonymous_args = 0
 818 0000 80B5     		push	{r7, lr}
 819              	.LCFI49:
 820              		.cfi_def_cfa_offset 8
 821              		.cfi_offset 7, -8
 822              		.cfi_offset 14, -4
 823 0002 82B0     		sub	sp, sp, #8
 824              	.LCFI50:
 825              		.cfi_def_cfa_offset 16
 826 0004 00AF     		add	r7, sp, #0
 827              	.LCFI51:
 828              		.cfi_def_cfa_register 7
 829 0006 7860     		str	r0, [r7, #4]
 830 0008 0B46     		mov	r3, r1
 831 000a FB70     		strb	r3, [r7, #3]
 832 000c 1346     		mov	r3, r2
 833 000e BB70     		strb	r3, [r7, #2]
 103:STM32CubeRobotics-Framework/Drivers/src/scr_usart.cpp ****     tx_buffer[0] = (char)byte;
 834              		.loc 4 103 0
 835 0010 7B68     		ldr	r3, [r7, #4]
 836 0012 5B69     		ldr	r3, [r3, #20]
 837 0014 FA78     		ldrb	r2, [r7, #3]
 838 0016 1A70     		strb	r2, [r3]
ARM GAS  /tmp/cczUr7WU.s 			page 24


 104:STM32CubeRobotics-Framework/Drivers/src/scr_usart.cpp ****     tx_buffer[1] = '\0';
 839              		.loc 4 104 0
 840 0018 7B68     		ldr	r3, [r7, #4]
 841 001a 5B69     		ldr	r3, [r3, #20]
 842 001c 0133     		adds	r3, r3, #1
 843 001e 0022     		movs	r2, #0
 844 0020 1A70     		strb	r2, [r3]
 105:STM32CubeRobotics-Framework/Drivers/src/scr_usart.cpp ****     hal_transmit(tx_buffer, mode);
 845              		.loc 4 105 0
 846 0022 7B68     		ldr	r3, [r7, #4]
 847 0024 5B69     		ldr	r3, [r3, #20]
 848 0026 BA78     		ldrb	r2, [r7, #2]	@ zero_extendqisi2
 849 0028 1946     		mov	r1, r3
 850 002a 7868     		ldr	r0, [r7, #4]
 851 002c FFF7FEFF 		bl	_ZN3scr5USART12hal_transmitEPcNS_11periph_modeE
 106:STM32CubeRobotics-Framework/Drivers/src/scr_usart.cpp **** }
 852              		.loc 4 106 0
 853 0030 00BF     		nop
 854 0032 0837     		adds	r7, r7, #8
 855              	.LCFI52:
 856              		.cfi_def_cfa_offset 8
 857 0034 BD46     		mov	sp, r7
 858              	.LCFI53:
 859              		.cfi_def_cfa_register 13
 860              		@ sp needed
 861 0036 80BD     		pop	{r7, pc}
 862              		.cfi_endproc
 863              	.LFE2301:
 865              		.section	.text.HAL_UART_TxCpltCallback,"ax",%progbits
 866              		.align	1
 867              		.global	HAL_UART_TxCpltCallback
 868              		.syntax unified
 869              		.thumb
 870              		.thumb_func
 871              		.fpu fpv4-sp-d16
 873              	HAL_UART_TxCpltCallback:
 874              	.LFB2302:
 107:STM32CubeRobotics-Framework/Drivers/src/scr_usart.cpp **** 
 108:STM32CubeRobotics-Framework/Drivers/src/scr_usart.cpp **** void HAL_UART_TxCpltCallback(UART_HandleTypeDef *huart) {    
 875              		.loc 4 108 0
 876              		.cfi_startproc
 877              		@ args = 0, pretend = 0, frame = 16
 878              		@ frame_needed = 1, uses_anonymous_args = 0
 879 0000 80B5     		push	{r7, lr}
 880              	.LCFI54:
 881              		.cfi_def_cfa_offset 8
 882              		.cfi_offset 7, -8
 883              		.cfi_offset 14, -4
 884 0002 84B0     		sub	sp, sp, #16
 885              	.LCFI55:
 886              		.cfi_def_cfa_offset 24
 887 0004 00AF     		add	r7, sp, #0
 888              	.LCFI56:
 889              		.cfi_def_cfa_register 7
 890 0006 7860     		str	r0, [r7, #4]
 891              	.LBB4:
 109:STM32CubeRobotics-Framework/Drivers/src/scr_usart.cpp **** 	for(uint32_t i = 0; i < num_usarts; i++) {
ARM GAS  /tmp/cczUr7WU.s 			page 25


 892              		.loc 4 109 0
 893 0008 0023     		movs	r3, #0
 894 000a FB60     		str	r3, [r7, #12]
 895              	.L36:
 896              		.loc 4 109 0 is_stmt 0 discriminator 1
 897 000c 154B     		ldr	r3, .L38
 898 000e 1B68     		ldr	r3, [r3]
 899 0010 FA68     		ldr	r2, [r7, #12]
 900 0012 9A42     		cmp	r2, r3
 901 0014 22D2     		bcs	.L37
 110:STM32CubeRobotics-Framework/Drivers/src/scr_usart.cpp **** 		if(active_usarts[i]->get_huartx() == huart) {
 902              		.loc 4 110 0 is_stmt 1
 903 0016 144A     		ldr	r2, .L38+4
 904 0018 FB68     		ldr	r3, [r7, #12]
 905 001a 52F82330 		ldr	r3, [r2, r3, lsl #2]
 906 001e 1846     		mov	r0, r3
 907 0020 FFF7FEFF 		bl	_ZN3scr5USART10get_huartxEv
 908 0024 0246     		mov	r2, r0
 909 0026 7B68     		ldr	r3, [r7, #4]
 910 0028 9342     		cmp	r3, r2
 911 002a 0CBF     		ite	eq
 912 002c 0123     		moveq	r3, #1
 913 002e 0023     		movne	r3, #0
 914 0030 DBB2     		uxtb	r3, r3
 915 0032 002B     		cmp	r3, #0
 916 0034 0ED0     		beq	.L35
 111:STM32CubeRobotics-Framework/Drivers/src/scr_usart.cpp ****             usart_transmit_completed_interrupt_task(active_usarts[i]);
 917              		.loc 4 111 0
 918 0036 0C4A     		ldr	r2, .L38+4
 919 0038 FB68     		ldr	r3, [r7, #12]
 920 003a 52F82330 		ldr	r3, [r2, r3, lsl #2]
 921 003e 1846     		mov	r0, r3
 922 0040 FFF7FEFF 		bl	_Z39usart_transmit_completed_interrupt_taskPN3scr5USARTE
 112:STM32CubeRobotics-Framework/Drivers/src/scr_usart.cpp ****             active_usarts[i]->set_tx_status(Completed);
 923              		.loc 4 112 0
 924 0044 084A     		ldr	r2, .L38+4
 925 0046 FB68     		ldr	r3, [r7, #12]
 926 0048 52F82330 		ldr	r3, [r2, r3, lsl #2]
 927 004c 0321     		movs	r1, #3
 928 004e 1846     		mov	r0, r3
 929 0050 FFF7FEFF 		bl	_ZN3scr5USART13set_tx_statusENS_13periph_statusE
 930              	.L35:
 109:STM32CubeRobotics-Framework/Drivers/src/scr_usart.cpp **** 		if(active_usarts[i]->get_huartx() == huart) {
 931              		.loc 4 109 0 discriminator 2
 932 0054 FB68     		ldr	r3, [r7, #12]
 933 0056 0133     		adds	r3, r3, #1
 934 0058 FB60     		str	r3, [r7, #12]
 935 005a D7E7     		b	.L36
 936              	.L37:
 937              	.LBE4:
 113:STM32CubeRobotics-Framework/Drivers/src/scr_usart.cpp **** 		}
 114:STM32CubeRobotics-Framework/Drivers/src/scr_usart.cpp **** 	}
 115:STM32CubeRobotics-Framework/Drivers/src/scr_usart.cpp **** }
 938              		.loc 4 115 0
 939 005c 00BF     		nop
 940 005e 1037     		adds	r7, r7, #16
 941              	.LCFI57:
ARM GAS  /tmp/cczUr7WU.s 			page 26


 942              		.cfi_def_cfa_offset 8
 943 0060 BD46     		mov	sp, r7
 944              	.LCFI58:
 945              		.cfi_def_cfa_register 13
 946              		@ sp needed
 947 0062 80BD     		pop	{r7, pc}
 948              	.L39:
 949              		.align	2
 950              	.L38:
 951 0064 00000000 		.word	num_usarts
 952 0068 00000000 		.word	active_usarts
 953              		.cfi_endproc
 954              	.LFE2302:
 956              		.section	.text._Z39usart_transmit_completed_interrupt_taskPN3scr5USARTE,"ax",%progbits
 957              		.align	1
 958              		.weak	_Z39usart_transmit_completed_interrupt_taskPN3scr5USARTE
 959              		.syntax unified
 960              		.thumb
 961              		.thumb_func
 962              		.fpu fpv4-sp-d16
 964              	_Z39usart_transmit_completed_interrupt_taskPN3scr5USARTE:
 965              	.LFB2303:
 116:STM32CubeRobotics-Framework/Drivers/src/scr_usart.cpp **** 
 117:STM32CubeRobotics-Framework/Drivers/src/scr_usart.cpp **** 
 118:STM32CubeRobotics-Framework/Drivers/src/scr_usart.cpp **** __weak void usart_transmit_completed_interrupt_task(USART* instance) {
 966              		.loc 4 118 0
 967              		.cfi_startproc
 968              		@ args = 0, pretend = 0, frame = 8
 969              		@ frame_needed = 1, uses_anonymous_args = 0
 970              		@ link register save eliminated.
 971 0000 80B4     		push	{r7}
 972              	.LCFI59:
 973              		.cfi_def_cfa_offset 4
 974              		.cfi_offset 7, -4
 975 0002 83B0     		sub	sp, sp, #12
 976              	.LCFI60:
 977              		.cfi_def_cfa_offset 16
 978 0004 00AF     		add	r7, sp, #0
 979              	.LCFI61:
 980              		.cfi_def_cfa_register 7
 981 0006 7860     		str	r0, [r7, #4]
 119:STM32CubeRobotics-Framework/Drivers/src/scr_usart.cpp ****     UNUSED(instance);
 120:STM32CubeRobotics-Framework/Drivers/src/scr_usart.cpp **** }
 982              		.loc 4 120 0
 983 0008 00BF     		nop
 984 000a 0C37     		adds	r7, r7, #12
 985              	.LCFI62:
 986              		.cfi_def_cfa_offset 4
 987 000c BD46     		mov	sp, r7
 988              	.LCFI63:
 989              		.cfi_def_cfa_register 13
 990              		@ sp needed
 991 000e 5DF8047B 		ldr	r7, [sp], #4
 992              	.LCFI64:
 993              		.cfi_restore 7
 994              		.cfi_def_cfa_offset 0
 995 0012 7047     		bx	lr
ARM GAS  /tmp/cczUr7WU.s 			page 27


 996              		.cfi_endproc
 997              	.LFE2303:
 999              		.section	.text._Z41__static_initialization_and_destruction_0ii,"ax",%progbits
 1000              		.align	1
 1001              		.syntax unified
 1002              		.thumb
 1003              		.thumb_func
 1004              		.fpu fpv4-sp-d16
 1006              	_Z41__static_initialization_and_destruction_0ii:
 1007              	.LFB2850:
 1008              		.loc 4 120 0
 1009              		.cfi_startproc
 1010              		@ args = 0, pretend = 0, frame = 8
 1011              		@ frame_needed = 1, uses_anonymous_args = 0
 1012 0000 80B5     		push	{r7, lr}
 1013              	.LCFI65:
 1014              		.cfi_def_cfa_offset 8
 1015              		.cfi_offset 7, -8
 1016              		.cfi_offset 14, -4
 1017 0002 82B0     		sub	sp, sp, #8
 1018              	.LCFI66:
 1019              		.cfi_def_cfa_offset 16
 1020 0004 00AF     		add	r7, sp, #0
 1021              	.LCFI67:
 1022              		.cfi_def_cfa_register 7
 1023 0006 7860     		str	r0, [r7, #4]
 1024 0008 3960     		str	r1, [r7]
 1025              		.loc 4 120 0
 1026 000a 7B68     		ldr	r3, [r7, #4]
 1027 000c 012B     		cmp	r3, #1
 1028 000e 07D1     		bne	.L42
 1029              		.loc 4 120 0 is_stmt 0 discriminator 1
 1030 0010 3B68     		ldr	r3, [r7]
 1031 0012 4FF6FF72 		movw	r2, #65535
 1032 0016 9342     		cmp	r3, r2
 1033 0018 02D1     		bne	.L42
 1034              		.file 5 "/home/zht/stm32tools/arm-gcc/arm-none-eabi/include/c++/7.3.1/iostream"
   1:/home/zht/stm32tools/arm-gcc/arm-none-eabi/include/c++/7.3.1/iostream **** // Standard iostream objects -*- C++ -*-
   2:/home/zht/stm32tools/arm-gcc/arm-none-eabi/include/c++/7.3.1/iostream **** 
   3:/home/zht/stm32tools/arm-gcc/arm-none-eabi/include/c++/7.3.1/iostream **** // Copyright (C) 1997-2017 Free Software Foundation, Inc.
   4:/home/zht/stm32tools/arm-gcc/arm-none-eabi/include/c++/7.3.1/iostream **** //
   5:/home/zht/stm32tools/arm-gcc/arm-none-eabi/include/c++/7.3.1/iostream **** // This file is part of the GNU ISO C++ Library.  This library is free
   6:/home/zht/stm32tools/arm-gcc/arm-none-eabi/include/c++/7.3.1/iostream **** // software; you can redistribute it and/or modify it under the
   7:/home/zht/stm32tools/arm-gcc/arm-none-eabi/include/c++/7.3.1/iostream **** // terms of the GNU General Public License as published by the
   8:/home/zht/stm32tools/arm-gcc/arm-none-eabi/include/c++/7.3.1/iostream **** // Free Software Foundation; either version 3, or (at your option)
   9:/home/zht/stm32tools/arm-gcc/arm-none-eabi/include/c++/7.3.1/iostream **** // any later version.
  10:/home/zht/stm32tools/arm-gcc/arm-none-eabi/include/c++/7.3.1/iostream **** 
  11:/home/zht/stm32tools/arm-gcc/arm-none-eabi/include/c++/7.3.1/iostream **** // This library is distributed in the hope that it will be useful,
  12:/home/zht/stm32tools/arm-gcc/arm-none-eabi/include/c++/7.3.1/iostream **** // but WITHOUT ANY WARRANTY; without even the implied warranty of
  13:/home/zht/stm32tools/arm-gcc/arm-none-eabi/include/c++/7.3.1/iostream **** // MERCHANTABILITY or FITNESS FOR A PARTICULAR PURPOSE.  See the
  14:/home/zht/stm32tools/arm-gcc/arm-none-eabi/include/c++/7.3.1/iostream **** // GNU General Public License for more details.
  15:/home/zht/stm32tools/arm-gcc/arm-none-eabi/include/c++/7.3.1/iostream **** 
  16:/home/zht/stm32tools/arm-gcc/arm-none-eabi/include/c++/7.3.1/iostream **** // Under Section 7 of GPL version 3, you are granted additional
  17:/home/zht/stm32tools/arm-gcc/arm-none-eabi/include/c++/7.3.1/iostream **** // permissions described in the GCC Runtime Library Exception, version
  18:/home/zht/stm32tools/arm-gcc/arm-none-eabi/include/c++/7.3.1/iostream **** // 3.1, as published by the Free Software Foundation.
  19:/home/zht/stm32tools/arm-gcc/arm-none-eabi/include/c++/7.3.1/iostream **** 
  20:/home/zht/stm32tools/arm-gcc/arm-none-eabi/include/c++/7.3.1/iostream **** // You should have received a copy of the GNU General Public License and
ARM GAS  /tmp/cczUr7WU.s 			page 28


  21:/home/zht/stm32tools/arm-gcc/arm-none-eabi/include/c++/7.3.1/iostream **** // a copy of the GCC Runtime Library Exception along with this program;
  22:/home/zht/stm32tools/arm-gcc/arm-none-eabi/include/c++/7.3.1/iostream **** // see the files COPYING3 and COPYING.RUNTIME respectively.  If not, see
  23:/home/zht/stm32tools/arm-gcc/arm-none-eabi/include/c++/7.3.1/iostream **** // <http://www.gnu.org/licenses/>.
  24:/home/zht/stm32tools/arm-gcc/arm-none-eabi/include/c++/7.3.1/iostream **** 
  25:/home/zht/stm32tools/arm-gcc/arm-none-eabi/include/c++/7.3.1/iostream **** /** @file include/iostream
  26:/home/zht/stm32tools/arm-gcc/arm-none-eabi/include/c++/7.3.1/iostream ****  *  This is a Standard C++ Library header.
  27:/home/zht/stm32tools/arm-gcc/arm-none-eabi/include/c++/7.3.1/iostream ****  */
  28:/home/zht/stm32tools/arm-gcc/arm-none-eabi/include/c++/7.3.1/iostream **** 
  29:/home/zht/stm32tools/arm-gcc/arm-none-eabi/include/c++/7.3.1/iostream **** //
  30:/home/zht/stm32tools/arm-gcc/arm-none-eabi/include/c++/7.3.1/iostream **** // ISO C++ 14882: 27.3  Standard iostream objects
  31:/home/zht/stm32tools/arm-gcc/arm-none-eabi/include/c++/7.3.1/iostream **** //
  32:/home/zht/stm32tools/arm-gcc/arm-none-eabi/include/c++/7.3.1/iostream **** 
  33:/home/zht/stm32tools/arm-gcc/arm-none-eabi/include/c++/7.3.1/iostream **** #ifndef _GLIBCXX_IOSTREAM
  34:/home/zht/stm32tools/arm-gcc/arm-none-eabi/include/c++/7.3.1/iostream **** #define _GLIBCXX_IOSTREAM 1
  35:/home/zht/stm32tools/arm-gcc/arm-none-eabi/include/c++/7.3.1/iostream **** 
  36:/home/zht/stm32tools/arm-gcc/arm-none-eabi/include/c++/7.3.1/iostream **** #pragma GCC system_header
  37:/home/zht/stm32tools/arm-gcc/arm-none-eabi/include/c++/7.3.1/iostream **** 
  38:/home/zht/stm32tools/arm-gcc/arm-none-eabi/include/c++/7.3.1/iostream **** #include <bits/c++config.h>
  39:/home/zht/stm32tools/arm-gcc/arm-none-eabi/include/c++/7.3.1/iostream **** #include <ostream>
  40:/home/zht/stm32tools/arm-gcc/arm-none-eabi/include/c++/7.3.1/iostream **** #include <istream>
  41:/home/zht/stm32tools/arm-gcc/arm-none-eabi/include/c++/7.3.1/iostream **** 
  42:/home/zht/stm32tools/arm-gcc/arm-none-eabi/include/c++/7.3.1/iostream **** namespace std _GLIBCXX_VISIBILITY(default)
  43:/home/zht/stm32tools/arm-gcc/arm-none-eabi/include/c++/7.3.1/iostream **** {
  44:/home/zht/stm32tools/arm-gcc/arm-none-eabi/include/c++/7.3.1/iostream **** _GLIBCXX_BEGIN_NAMESPACE_VERSION
  45:/home/zht/stm32tools/arm-gcc/arm-none-eabi/include/c++/7.3.1/iostream **** 
  46:/home/zht/stm32tools/arm-gcc/arm-none-eabi/include/c++/7.3.1/iostream ****   /**
  47:/home/zht/stm32tools/arm-gcc/arm-none-eabi/include/c++/7.3.1/iostream ****    *  @name Standard Stream Objects
  48:/home/zht/stm32tools/arm-gcc/arm-none-eabi/include/c++/7.3.1/iostream ****    *
  49:/home/zht/stm32tools/arm-gcc/arm-none-eabi/include/c++/7.3.1/iostream ****    *  The &lt;iostream&gt; header declares the eight <em>standard stream
  50:/home/zht/stm32tools/arm-gcc/arm-none-eabi/include/c++/7.3.1/iostream ****    *  objects</em>.  For other declarations, see
  51:/home/zht/stm32tools/arm-gcc/arm-none-eabi/include/c++/7.3.1/iostream ****    *  http://gcc.gnu.org/onlinedocs/libstdc++/manual/io.html
  52:/home/zht/stm32tools/arm-gcc/arm-none-eabi/include/c++/7.3.1/iostream ****    *  and the @link iosfwd I/O forward declarations @endlink
  53:/home/zht/stm32tools/arm-gcc/arm-none-eabi/include/c++/7.3.1/iostream ****    *
  54:/home/zht/stm32tools/arm-gcc/arm-none-eabi/include/c++/7.3.1/iostream ****    *  They are required by default to cooperate with the global C
  55:/home/zht/stm32tools/arm-gcc/arm-none-eabi/include/c++/7.3.1/iostream ****    *  library's @c FILE streams, and to be available during program
  56:/home/zht/stm32tools/arm-gcc/arm-none-eabi/include/c++/7.3.1/iostream ****    *  startup and termination. For more information, see the section of the
  57:/home/zht/stm32tools/arm-gcc/arm-none-eabi/include/c++/7.3.1/iostream ****    *  manual linked to above.
  58:/home/zht/stm32tools/arm-gcc/arm-none-eabi/include/c++/7.3.1/iostream ****   */
  59:/home/zht/stm32tools/arm-gcc/arm-none-eabi/include/c++/7.3.1/iostream ****   //@{
  60:/home/zht/stm32tools/arm-gcc/arm-none-eabi/include/c++/7.3.1/iostream ****   extern istream cin;		/// Linked to standard input
  61:/home/zht/stm32tools/arm-gcc/arm-none-eabi/include/c++/7.3.1/iostream ****   extern ostream cout;		/// Linked to standard output
  62:/home/zht/stm32tools/arm-gcc/arm-none-eabi/include/c++/7.3.1/iostream ****   extern ostream cerr;		/// Linked to standard error (unbuffered)
  63:/home/zht/stm32tools/arm-gcc/arm-none-eabi/include/c++/7.3.1/iostream ****   extern ostream clog;		/// Linked to standard error (buffered)
  64:/home/zht/stm32tools/arm-gcc/arm-none-eabi/include/c++/7.3.1/iostream **** 
  65:/home/zht/stm32tools/arm-gcc/arm-none-eabi/include/c++/7.3.1/iostream **** #ifdef _GLIBCXX_USE_WCHAR_T
  66:/home/zht/stm32tools/arm-gcc/arm-none-eabi/include/c++/7.3.1/iostream ****   extern wistream wcin;		/// Linked to standard input
  67:/home/zht/stm32tools/arm-gcc/arm-none-eabi/include/c++/7.3.1/iostream ****   extern wostream wcout;	/// Linked to standard output
  68:/home/zht/stm32tools/arm-gcc/arm-none-eabi/include/c++/7.3.1/iostream ****   extern wostream wcerr;	/// Linked to standard error (unbuffered)
  69:/home/zht/stm32tools/arm-gcc/arm-none-eabi/include/c++/7.3.1/iostream ****   extern wostream wclog;	/// Linked to standard error (buffered)
  70:/home/zht/stm32tools/arm-gcc/arm-none-eabi/include/c++/7.3.1/iostream **** #endif
  71:/home/zht/stm32tools/arm-gcc/arm-none-eabi/include/c++/7.3.1/iostream ****   //@}
  72:/home/zht/stm32tools/arm-gcc/arm-none-eabi/include/c++/7.3.1/iostream **** 
  73:/home/zht/stm32tools/arm-gcc/arm-none-eabi/include/c++/7.3.1/iostream ****   // For construction of filebuffers for cout, cin, cerr, clog et. al.
  74:/home/zht/stm32tools/arm-gcc/arm-none-eabi/include/c++/7.3.1/iostream ****   static ios_base::Init __ioinit;
 1035              		.loc 5 74 0 is_stmt 1
 1036 001a 0948     		ldr	r0, .L45
 1037 001c FFF7FEFF 		bl	_ZNSt8ios_base4InitC1Ev
ARM GAS  /tmp/cczUr7WU.s 			page 29


 1038              	.L42:
 1039 0020 7B68     		ldr	r3, [r7, #4]
 1040 0022 002B     		cmp	r3, #0
 1041 0024 07D1     		bne	.L44
 1042              		.loc 5 74 0 is_stmt 0 discriminator 1
 1043 0026 3B68     		ldr	r3, [r7]
 1044 0028 4FF6FF72 		movw	r2, #65535
 1045 002c 9342     		cmp	r3, r2
 1046 002e 02D1     		bne	.L44
 1047              		.loc 5 74 0 discriminator 2
 1048 0030 0348     		ldr	r0, .L45
 1049 0032 FFF7FEFF 		bl	_ZNSt8ios_base4InitD1Ev
 1050              	.L44:
 1051              		.loc 4 120 0 is_stmt 1
 1052 0036 00BF     		nop
 1053 0038 0837     		adds	r7, r7, #8
 1054              	.LCFI68:
 1055              		.cfi_def_cfa_offset 8
 1056 003a BD46     		mov	sp, r7
 1057              	.LCFI69:
 1058              		.cfi_def_cfa_register 13
 1059              		@ sp needed
 1060 003c 80BD     		pop	{r7, pc}
 1061              	.L46:
 1062 003e 00BF     		.align	2
 1063              	.L45:
 1064 0040 00000000 		.word	_ZStL8__ioinit
 1065              		.cfi_endproc
 1066              	.LFE2850:
 1068              		.section	.text._GLOBAL__sub_I_num_usarts,"ax",%progbits
 1069              		.align	1
 1070              		.syntax unified
 1071              		.thumb
 1072              		.thumb_func
 1073              		.fpu fpv4-sp-d16
 1075              	_GLOBAL__sub_I_num_usarts:
 1076              	.LFB2851:
 1077              		.loc 4 120 0
 1078              		.cfi_startproc
 1079              		@ args = 0, pretend = 0, frame = 0
 1080              		@ frame_needed = 1, uses_anonymous_args = 0
 1081 0000 80B5     		push	{r7, lr}
 1082              	.LCFI70:
 1083              		.cfi_def_cfa_offset 8
 1084              		.cfi_offset 7, -8
 1085              		.cfi_offset 14, -4
 1086 0002 00AF     		add	r7, sp, #0
 1087              	.LCFI71:
 1088              		.cfi_def_cfa_register 7
 1089              		.loc 4 120 0
 1090 0004 4FF6FF71 		movw	r1, #65535
 1091 0008 0120     		movs	r0, #1
 1092 000a FFF7FEFF 		bl	_Z41__static_initialization_and_destruction_0ii
 1093 000e 80BD     		pop	{r7, pc}
 1094              		.cfi_endproc
 1095              	.LFE2851:
 1097              		.section	.init_array,"aw",%init_array
ARM GAS  /tmp/cczUr7WU.s 			page 30


 1098              		.align	2
 1099 0000 00000000 		.word	_GLOBAL__sub_I_num_usarts(target1)
 1100              		.section	.text._GLOBAL__sub_D_num_usarts,"ax",%progbits
 1101              		.align	1
 1102              		.syntax unified
 1103              		.thumb
 1104              		.thumb_func
 1105              		.fpu fpv4-sp-d16
 1107              	_GLOBAL__sub_D_num_usarts:
 1108              	.LFB2852:
 1109              		.loc 4 120 0
 1110              		.cfi_startproc
 1111              		@ args = 0, pretend = 0, frame = 0
 1112              		@ frame_needed = 1, uses_anonymous_args = 0
 1113 0000 80B5     		push	{r7, lr}
 1114              	.LCFI72:
 1115              		.cfi_def_cfa_offset 8
 1116              		.cfi_offset 7, -8
 1117              		.cfi_offset 14, -4
 1118 0002 00AF     		add	r7, sp, #0
 1119              	.LCFI73:
 1120              		.cfi_def_cfa_register 7
 1121              		.loc 4 120 0
 1122 0004 4FF6FF71 		movw	r1, #65535
 1123 0008 0020     		movs	r0, #0
 1124 000a FFF7FEFF 		bl	_Z41__static_initialization_and_destruction_0ii
 1125 000e 80BD     		pop	{r7, pc}
 1126              		.cfi_endproc
 1127              	.LFE2852:
 1129              		.section	.fini_array,"aw",%fini_array
 1130              		.align	2
 1131 0000 00000000 		.word	_GLOBAL__sub_D_num_usarts(target1)
 1132              		.text
 1133              	.Letext0:
 1134              		.file 6 "/home/zht/stm32tools/arm-gcc/arm-none-eabi/include/machine/_default_types.h"
 1135              		.file 7 "/home/zht/stm32tools/arm-gcc/arm-none-eabi/include/sys/_stdint.h"
 1136              		.file 8 "/home/zht/stm32tools/arm-gcc/arm-none-eabi/include/stdint.h"
 1137              		.file 9 "Firmware/Drivers/CMSIS/Include/core_cm4.h"
 1138              		.file 10 "Firmware/Drivers/CMSIS/Device/ST/STM32F4xx/Include/system_stm32f4xx.h"
 1139              		.file 11 "Firmware/Drivers/CMSIS/Device/ST/STM32F4xx/Include/stm32f446xx.h"
 1140              		.file 12 "/home/zht/stm32tools/arm-gcc/lib/gcc/arm-none-eabi/7.3.1/include/stddef.h"
 1141              		.file 13 "Firmware/Drivers/STM32F4xx_HAL_Driver/Inc/stm32f4xx_hal_def.h"
 1142              		.file 14 "Firmware/Drivers/STM32F4xx_HAL_Driver/Inc/stm32f4xx_hal_dma.h"
 1143              		.file 15 "Firmware/Drivers/STM32F4xx_HAL_Driver/Inc/stm32f4xx_hal_uart.h"
 1144              		.file 16 "Firmware/Drivers/STM32F4xx_HAL_Driver/Inc/stm32f4xx_hal.h"
 1145              		.file 17 "/home/zht/stm32tools/arm-gcc/arm-none-eabi/include/c++/7.3.1/bits/basic_string.h"
 1146              		.file 18 "/home/zht/stm32tools/arm-gcc/arm-none-eabi/include/c++/7.3.1/bits/basic_string.tcc"
 1147              		.file 19 "/home/zht/stm32tools/arm-gcc/arm-none-eabi/include/c++/7.3.1/bits/stringfwd.h"
 1148              		.file 20 "/home/zht/stm32tools/arm-gcc/arm-none-eabi/include/c++/7.3.1/cwchar"
 1149              		.file 21 "/home/zht/stm32tools/arm-gcc/arm-none-eabi/include/c++/7.3.1/new"
 1150              		.file 22 "/home/zht/stm32tools/arm-gcc/arm-none-eabi/include/c++/7.3.1/arm-none-eabi/thumb/v7e-m/f
 1151              		.file 23 "/home/zht/stm32tools/arm-gcc/arm-none-eabi/include/c++/7.3.1/bits/exception_ptr.h"
 1152              		.file 24 "/home/zht/stm32tools/arm-gcc/arm-none-eabi/include/c++/7.3.1/type_traits"
 1153              		.file 25 "/home/zht/stm32tools/arm-gcc/arm-none-eabi/include/c++/7.3.1/bits/cpp_type_traits.h"
 1154              		.file 26 "/home/zht/stm32tools/arm-gcc/arm-none-eabi/include/c++/7.3.1/bits/stl_pair.h"
 1155              		.file 27 "/home/zht/stm32tools/arm-gcc/arm-none-eabi/include/c++/7.3.1/bits/stl_iterator_base_type
 1156              		.file 28 "/home/zht/stm32tools/arm-gcc/arm-none-eabi/include/c++/7.3.1/debug/debug.h"
ARM GAS  /tmp/cczUr7WU.s 			page 31


 1157              		.file 29 "/home/zht/stm32tools/arm-gcc/arm-none-eabi/include/c++/7.3.1/bits/char_traits.h"
 1158              		.file 30 "/home/zht/stm32tools/arm-gcc/arm-none-eabi/include/c++/7.3.1/cstdint"
 1159              		.file 31 "/home/zht/stm32tools/arm-gcc/arm-none-eabi/include/c++/7.3.1/clocale"
 1160              		.file 32 "/home/zht/stm32tools/arm-gcc/arm-none-eabi/include/c++/7.3.1/bits/allocator.h"
 1161              		.file 33 "/home/zht/stm32tools/arm-gcc/arm-none-eabi/include/c++/7.3.1/cstdlib"
 1162              		.file 34 "/home/zht/stm32tools/arm-gcc/arm-none-eabi/include/c++/7.3.1/cstdio"
 1163              		.file 35 "/home/zht/stm32tools/arm-gcc/arm-none-eabi/include/c++/7.3.1/bits/alloc_traits.h"
 1164              		.file 36 "/home/zht/stm32tools/arm-gcc/arm-none-eabi/include/c++/7.3.1/initializer_list"
 1165              		.file 37 "/home/zht/stm32tools/arm-gcc/arm-none-eabi/include/c++/7.3.1/system_error"
 1166              		.file 38 "/home/zht/stm32tools/arm-gcc/arm-none-eabi/include/c++/7.3.1/bits/ios_base.h"
 1167              		.file 39 "/home/zht/stm32tools/arm-gcc/arm-none-eabi/include/c++/7.3.1/cwctype"
 1168              		.file 40 "/home/zht/stm32tools/arm-gcc/arm-none-eabi/include/c++/7.3.1/iosfwd"
 1169              		.file 41 "/home/zht/stm32tools/arm-gcc/arm-none-eabi/include/c++/7.3.1/cstring"
 1170              		.file 42 "/home/zht/stm32tools/arm-gcc/arm-none-eabi/include/c++/7.3.1/bits/stl_iterator_base_func
 1171              		.file 43 "/home/zht/stm32tools/arm-gcc/arm-none-eabi/include/c++/7.3.1/bits/predefined_ops.h"
 1172              		.file 44 "/home/zht/stm32tools/arm-gcc/arm-none-eabi/include/c++/7.3.1/ext/new_allocator.h"
 1173              		.file 45 "/home/zht/stm32tools/arm-gcc/arm-none-eabi/include/c++/7.3.1/ext/numeric_traits.h"
 1174              		.file 46 "/home/zht/stm32tools/arm-gcc/arm-none-eabi/include/c++/7.3.1/ext/alloc_traits.h"
 1175              		.file 47 "/home/zht/stm32tools/arm-gcc/arm-none-eabi/include/c++/7.3.1/bits/stl_iterator.h"
 1176              		.file 48 "/home/zht/stm32tools/arm-gcc/arm-none-eabi/include/c++/7.3.1/ext/type_traits.h"
 1177              		.file 49 "/home/zht/stm32tools/arm-gcc/arm-none-eabi/include/sys/lock.h"
 1178              		.file 50 "/home/zht/stm32tools/arm-gcc/arm-none-eabi/include/sys/_types.h"
 1179              		.file 51 "/home/zht/stm32tools/arm-gcc/arm-none-eabi/include/sys/reent.h"
 1180              		.file 52 "/home/zht/stm32tools/arm-gcc/lib/gcc/arm-none-eabi/7.3.1/include/stdarg.h"
 1181              		.file 53 "<built-in>"
 1182              		.file 54 "/home/zht/stm32tools/arm-gcc/arm-none-eabi/include/wchar.h"
 1183              		.file 55 "/home/zht/stm32tools/arm-gcc/arm-none-eabi/include/locale.h"
 1184              		.file 56 "/home/zht/stm32tools/arm-gcc/arm-none-eabi/include/ctype.h"
 1185              		.file 57 "/home/zht/stm32tools/arm-gcc/arm-none-eabi/include/c++/7.3.1/arm-none-eabi/thumb/v7e-m/f
 1186              		.file 58 "/home/zht/stm32tools/arm-gcc/arm-none-eabi/include/stdlib.h"
 1187              		.file 59 "/home/zht/stm32tools/arm-gcc/arm-none-eabi/include/stdio.h"
 1188              		.file 60 "/home/zht/stm32tools/arm-gcc/arm-none-eabi/include/sys/errno.h"
 1189              		.file 61 "/home/zht/stm32tools/arm-gcc/arm-none-eabi/include/wctype.h"
 1190              		.file 62 "/home/zht/stm32tools/arm-gcc/arm-none-eabi/include/string.h"
ARM GAS  /tmp/cczUr7WU.s 			page 32

