ARM GAS  /tmp/ccGTglLX.s 			page 1


   1              		.cpu cortex-m4
   2              		.eabi_attribute 27, 1
   3              		.eabi_attribute 28, 1
   4              		.eabi_attribute 20, 1
   5              		.eabi_attribute 21, 1
   6              		.eabi_attribute 23, 3
   7              		.eabi_attribute 24, 1
   8              		.eabi_attribute 25, 1
   9              		.eabi_attribute 26, 1
  10              		.eabi_attribute 30, 6
  11              		.eabi_attribute 34, 1
  12              		.eabi_attribute 18, 4
  13              		.file	"stm32f4xx_hal_tim.c"
  14              		.text
  15              	.Ltext0:
  16              		.cfi_sections	.debug_frame
  17              		.section	.text.HAL_TIM_Base_Init,"ax",%progbits
  18              		.align	1
  19              		.global	HAL_TIM_Base_Init
  20              		.syntax unified
  21              		.thumb
  22              		.thumb_func
  23              		.fpu fpv4-sp-d16
  25              	HAL_TIM_Base_Init:
  26              	.LFB130:
  27              		.file 1 "Firmware/Drivers/STM32F4xx_HAL_Driver/Src/stm32f4xx_hal_tim.c"
   1:Firmware/Drivers/STM32F4xx_HAL_Driver/Src/stm32f4xx_hal_tim.c **** /**
   2:Firmware/Drivers/STM32F4xx_HAL_Driver/Src/stm32f4xx_hal_tim.c ****   ******************************************************************************
   3:Firmware/Drivers/STM32F4xx_HAL_Driver/Src/stm32f4xx_hal_tim.c ****   * @file    stm32f4xx_hal_tim.c
   4:Firmware/Drivers/STM32F4xx_HAL_Driver/Src/stm32f4xx_hal_tim.c ****   * @author  MCD Application Team
   5:Firmware/Drivers/STM32F4xx_HAL_Driver/Src/stm32f4xx_hal_tim.c ****   * @brief   TIM HAL module driver.
   6:Firmware/Drivers/STM32F4xx_HAL_Driver/Src/stm32f4xx_hal_tim.c ****   *          This file provides firmware functions to manage the following
   7:Firmware/Drivers/STM32F4xx_HAL_Driver/Src/stm32f4xx_hal_tim.c ****   *          functionalities of the Timer (TIM) peripheral:
   8:Firmware/Drivers/STM32F4xx_HAL_Driver/Src/stm32f4xx_hal_tim.c ****   *           + TIM Time Base Initialization
   9:Firmware/Drivers/STM32F4xx_HAL_Driver/Src/stm32f4xx_hal_tim.c ****   *           + TIM Time Base Start
  10:Firmware/Drivers/STM32F4xx_HAL_Driver/Src/stm32f4xx_hal_tim.c ****   *           + TIM Time Base Start Interruption
  11:Firmware/Drivers/STM32F4xx_HAL_Driver/Src/stm32f4xx_hal_tim.c ****   *           + TIM Time Base Start DMA
  12:Firmware/Drivers/STM32F4xx_HAL_Driver/Src/stm32f4xx_hal_tim.c ****   *           + TIM Output Compare/PWM Initialization
  13:Firmware/Drivers/STM32F4xx_HAL_Driver/Src/stm32f4xx_hal_tim.c ****   *           + TIM Output Compare/PWM Channel Configuration
  14:Firmware/Drivers/STM32F4xx_HAL_Driver/Src/stm32f4xx_hal_tim.c ****   *           + TIM Output Compare/PWM  Start
  15:Firmware/Drivers/STM32F4xx_HAL_Driver/Src/stm32f4xx_hal_tim.c ****   *           + TIM Output Compare/PWM  Start Interruption
  16:Firmware/Drivers/STM32F4xx_HAL_Driver/Src/stm32f4xx_hal_tim.c ****   *           + TIM Output Compare/PWM Start DMA
  17:Firmware/Drivers/STM32F4xx_HAL_Driver/Src/stm32f4xx_hal_tim.c ****   *           + TIM Input Capture Initialization
  18:Firmware/Drivers/STM32F4xx_HAL_Driver/Src/stm32f4xx_hal_tim.c ****   *           + TIM Input Capture Channel Configuration
  19:Firmware/Drivers/STM32F4xx_HAL_Driver/Src/stm32f4xx_hal_tim.c ****   *           + TIM Input Capture Start
  20:Firmware/Drivers/STM32F4xx_HAL_Driver/Src/stm32f4xx_hal_tim.c ****   *           + TIM Input Capture Start Interruption
  21:Firmware/Drivers/STM32F4xx_HAL_Driver/Src/stm32f4xx_hal_tim.c ****   *           + TIM Input Capture Start DMA
  22:Firmware/Drivers/STM32F4xx_HAL_Driver/Src/stm32f4xx_hal_tim.c ****   *           + TIM One Pulse Initialization
  23:Firmware/Drivers/STM32F4xx_HAL_Driver/Src/stm32f4xx_hal_tim.c ****   *           + TIM One Pulse Channel Configuration
  24:Firmware/Drivers/STM32F4xx_HAL_Driver/Src/stm32f4xx_hal_tim.c ****   *           + TIM One Pulse Start
  25:Firmware/Drivers/STM32F4xx_HAL_Driver/Src/stm32f4xx_hal_tim.c ****   *           + TIM Encoder Interface Initialization
  26:Firmware/Drivers/STM32F4xx_HAL_Driver/Src/stm32f4xx_hal_tim.c ****   *           + TIM Encoder Interface Start
  27:Firmware/Drivers/STM32F4xx_HAL_Driver/Src/stm32f4xx_hal_tim.c ****   *           + TIM Encoder Interface Start Interruption
  28:Firmware/Drivers/STM32F4xx_HAL_Driver/Src/stm32f4xx_hal_tim.c ****   *           + TIM Encoder Interface Start DMA
  29:Firmware/Drivers/STM32F4xx_HAL_Driver/Src/stm32f4xx_hal_tim.c ****   *           + Commutation Event configuration with Interruption and DMA
  30:Firmware/Drivers/STM32F4xx_HAL_Driver/Src/stm32f4xx_hal_tim.c ****   *           + TIM OCRef clear configuration
  31:Firmware/Drivers/STM32F4xx_HAL_Driver/Src/stm32f4xx_hal_tim.c ****   *           + TIM External Clock configuration
ARM GAS  /tmp/ccGTglLX.s 			page 2


  32:Firmware/Drivers/STM32F4xx_HAL_Driver/Src/stm32f4xx_hal_tim.c ****   @verbatim
  33:Firmware/Drivers/STM32F4xx_HAL_Driver/Src/stm32f4xx_hal_tim.c ****   ==============================================================================
  34:Firmware/Drivers/STM32F4xx_HAL_Driver/Src/stm32f4xx_hal_tim.c ****                       ##### TIMER Generic features #####
  35:Firmware/Drivers/STM32F4xx_HAL_Driver/Src/stm32f4xx_hal_tim.c ****   ==============================================================================
  36:Firmware/Drivers/STM32F4xx_HAL_Driver/Src/stm32f4xx_hal_tim.c ****   [..] The Timer features include:
  37:Firmware/Drivers/STM32F4xx_HAL_Driver/Src/stm32f4xx_hal_tim.c ****        (#) 16-bit up, down, up/down auto-reload counter.
  38:Firmware/Drivers/STM32F4xx_HAL_Driver/Src/stm32f4xx_hal_tim.c ****        (#) 16-bit programmable prescaler allowing dividing (also on the fly) the
  39:Firmware/Drivers/STM32F4xx_HAL_Driver/Src/stm32f4xx_hal_tim.c ****            counter clock frequency either by any factor between 1 and 65536.
  40:Firmware/Drivers/STM32F4xx_HAL_Driver/Src/stm32f4xx_hal_tim.c ****        (#) Up to 4 independent channels for:
  41:Firmware/Drivers/STM32F4xx_HAL_Driver/Src/stm32f4xx_hal_tim.c ****            (++) Input Capture
  42:Firmware/Drivers/STM32F4xx_HAL_Driver/Src/stm32f4xx_hal_tim.c ****            (++) Output Compare
  43:Firmware/Drivers/STM32F4xx_HAL_Driver/Src/stm32f4xx_hal_tim.c ****            (++) PWM generation (Edge and Center-aligned Mode)
  44:Firmware/Drivers/STM32F4xx_HAL_Driver/Src/stm32f4xx_hal_tim.c ****            (++) One-pulse mode output
  45:Firmware/Drivers/STM32F4xx_HAL_Driver/Src/stm32f4xx_hal_tim.c ****        (#) Synchronization circuit to control the timer with external signals and to interconnect
  46:Firmware/Drivers/STM32F4xx_HAL_Driver/Src/stm32f4xx_hal_tim.c ****             several timers together.
  47:Firmware/Drivers/STM32F4xx_HAL_Driver/Src/stm32f4xx_hal_tim.c ****        (#) Supports incremental encoder for positioning purposes
  48:Firmware/Drivers/STM32F4xx_HAL_Driver/Src/stm32f4xx_hal_tim.c **** 
  49:Firmware/Drivers/STM32F4xx_HAL_Driver/Src/stm32f4xx_hal_tim.c ****             ##### How to use this driver #####
  50:Firmware/Drivers/STM32F4xx_HAL_Driver/Src/stm32f4xx_hal_tim.c ****   ==============================================================================
  51:Firmware/Drivers/STM32F4xx_HAL_Driver/Src/stm32f4xx_hal_tim.c ****     [..]
  52:Firmware/Drivers/STM32F4xx_HAL_Driver/Src/stm32f4xx_hal_tim.c ****      (#) Initialize the TIM low level resources by implementing the following functions
  53:Firmware/Drivers/STM32F4xx_HAL_Driver/Src/stm32f4xx_hal_tim.c ****          depending on the selected feature:
  54:Firmware/Drivers/STM32F4xx_HAL_Driver/Src/stm32f4xx_hal_tim.c ****            (++) Time Base : HAL_TIM_Base_MspInit()
  55:Firmware/Drivers/STM32F4xx_HAL_Driver/Src/stm32f4xx_hal_tim.c ****            (++) Input Capture : HAL_TIM_IC_MspInit()
  56:Firmware/Drivers/STM32F4xx_HAL_Driver/Src/stm32f4xx_hal_tim.c ****            (++) Output Compare : HAL_TIM_OC_MspInit()
  57:Firmware/Drivers/STM32F4xx_HAL_Driver/Src/stm32f4xx_hal_tim.c ****            (++) PWM generation : HAL_TIM_PWM_MspInit()
  58:Firmware/Drivers/STM32F4xx_HAL_Driver/Src/stm32f4xx_hal_tim.c ****            (++) One-pulse mode output : HAL_TIM_OnePulse_MspInit()
  59:Firmware/Drivers/STM32F4xx_HAL_Driver/Src/stm32f4xx_hal_tim.c ****            (++) Encoder mode output : HAL_TIM_Encoder_MspInit()
  60:Firmware/Drivers/STM32F4xx_HAL_Driver/Src/stm32f4xx_hal_tim.c **** 
  61:Firmware/Drivers/STM32F4xx_HAL_Driver/Src/stm32f4xx_hal_tim.c ****      (#) Initialize the TIM low level resources :
  62:Firmware/Drivers/STM32F4xx_HAL_Driver/Src/stm32f4xx_hal_tim.c ****         (##) Enable the TIM interface clock using __HAL_RCC_TIMx_CLK_ENABLE();
  63:Firmware/Drivers/STM32F4xx_HAL_Driver/Src/stm32f4xx_hal_tim.c ****         (##) TIM pins configuration
  64:Firmware/Drivers/STM32F4xx_HAL_Driver/Src/stm32f4xx_hal_tim.c ****             (+++) Enable the clock for the TIM GPIOs using the following function:
  65:Firmware/Drivers/STM32F4xx_HAL_Driver/Src/stm32f4xx_hal_tim.c ****              __HAL_RCC_GPIOx_CLK_ENABLE();
  66:Firmware/Drivers/STM32F4xx_HAL_Driver/Src/stm32f4xx_hal_tim.c ****             (+++) Configure these TIM pins in Alternate function mode using HAL_GPIO_Init();
  67:Firmware/Drivers/STM32F4xx_HAL_Driver/Src/stm32f4xx_hal_tim.c **** 
  68:Firmware/Drivers/STM32F4xx_HAL_Driver/Src/stm32f4xx_hal_tim.c ****      (#) The external Clock can be configured, if needed (the default clock is the
  69:Firmware/Drivers/STM32F4xx_HAL_Driver/Src/stm32f4xx_hal_tim.c ****          internal clock from the APBx), using the following function:
  70:Firmware/Drivers/STM32F4xx_HAL_Driver/Src/stm32f4xx_hal_tim.c ****          HAL_TIM_ConfigClockSource, the clock configuration should be done before
  71:Firmware/Drivers/STM32F4xx_HAL_Driver/Src/stm32f4xx_hal_tim.c ****          any start function.
  72:Firmware/Drivers/STM32F4xx_HAL_Driver/Src/stm32f4xx_hal_tim.c **** 
  73:Firmware/Drivers/STM32F4xx_HAL_Driver/Src/stm32f4xx_hal_tim.c ****      (#) Configure the TIM in the desired functioning mode using one of the
  74:Firmware/Drivers/STM32F4xx_HAL_Driver/Src/stm32f4xx_hal_tim.c ****        Initialization function of this driver:
  75:Firmware/Drivers/STM32F4xx_HAL_Driver/Src/stm32f4xx_hal_tim.c ****        (++) HAL_TIM_Base_Init: to use the Timer to generate a simple time base
  76:Firmware/Drivers/STM32F4xx_HAL_Driver/Src/stm32f4xx_hal_tim.c ****        (++) HAL_TIM_OC_Init and HAL_TIM_OC_ConfigChannel: to use the Timer to generate an
  77:Firmware/Drivers/STM32F4xx_HAL_Driver/Src/stm32f4xx_hal_tim.c ****             Output Compare signal.
  78:Firmware/Drivers/STM32F4xx_HAL_Driver/Src/stm32f4xx_hal_tim.c ****        (++) HAL_TIM_PWM_Init and HAL_TIM_PWM_ConfigChannel: to use the Timer to generate a
  79:Firmware/Drivers/STM32F4xx_HAL_Driver/Src/stm32f4xx_hal_tim.c ****             PWM signal.
  80:Firmware/Drivers/STM32F4xx_HAL_Driver/Src/stm32f4xx_hal_tim.c ****        (++) HAL_TIM_IC_Init and HAL_TIM_IC_ConfigChannel: to use the Timer to measure an
  81:Firmware/Drivers/STM32F4xx_HAL_Driver/Src/stm32f4xx_hal_tim.c ****             external signal.
  82:Firmware/Drivers/STM32F4xx_HAL_Driver/Src/stm32f4xx_hal_tim.c ****        (++) HAL_TIM_OnePulse_Init and HAL_TIM_OnePulse_ConfigChannel: to use the Timer
  83:Firmware/Drivers/STM32F4xx_HAL_Driver/Src/stm32f4xx_hal_tim.c ****             in One Pulse Mode.
  84:Firmware/Drivers/STM32F4xx_HAL_Driver/Src/stm32f4xx_hal_tim.c ****        (++) HAL_TIM_Encoder_Init: to use the Timer Encoder Interface.
  85:Firmware/Drivers/STM32F4xx_HAL_Driver/Src/stm32f4xx_hal_tim.c **** 
  86:Firmware/Drivers/STM32F4xx_HAL_Driver/Src/stm32f4xx_hal_tim.c ****      (#) Activate the TIM peripheral using one of the start functions depending from the feature us
  87:Firmware/Drivers/STM32F4xx_HAL_Driver/Src/stm32f4xx_hal_tim.c ****            (++) Time Base : HAL_TIM_Base_Start(), HAL_TIM_Base_Start_DMA(), HAL_TIM_Base_Start_IT()
  88:Firmware/Drivers/STM32F4xx_HAL_Driver/Src/stm32f4xx_hal_tim.c ****            (++) Input Capture :  HAL_TIM_IC_Start(), HAL_TIM_IC_Start_DMA(), HAL_TIM_IC_Start_IT()
ARM GAS  /tmp/ccGTglLX.s 			page 3


  89:Firmware/Drivers/STM32F4xx_HAL_Driver/Src/stm32f4xx_hal_tim.c ****            (++) Output Compare : HAL_TIM_OC_Start(), HAL_TIM_OC_Start_DMA(), HAL_TIM_OC_Start_IT()
  90:Firmware/Drivers/STM32F4xx_HAL_Driver/Src/stm32f4xx_hal_tim.c ****            (++) PWM generation : HAL_TIM_PWM_Start(), HAL_TIM_PWM_Start_DMA(), HAL_TIM_PWM_Start_IT
  91:Firmware/Drivers/STM32F4xx_HAL_Driver/Src/stm32f4xx_hal_tim.c ****            (++) One-pulse mode output : HAL_TIM_OnePulse_Start(), HAL_TIM_OnePulse_Start_IT()
  92:Firmware/Drivers/STM32F4xx_HAL_Driver/Src/stm32f4xx_hal_tim.c ****            (++) Encoder mode output : HAL_TIM_Encoder_Start(), HAL_TIM_Encoder_Start_DMA(), HAL_TIM
  93:Firmware/Drivers/STM32F4xx_HAL_Driver/Src/stm32f4xx_hal_tim.c **** 
  94:Firmware/Drivers/STM32F4xx_HAL_Driver/Src/stm32f4xx_hal_tim.c ****      (#) The DMA Burst is managed with the two following functions:
  95:Firmware/Drivers/STM32F4xx_HAL_Driver/Src/stm32f4xx_hal_tim.c ****          HAL_TIM_DMABurst_WriteStart()
  96:Firmware/Drivers/STM32F4xx_HAL_Driver/Src/stm32f4xx_hal_tim.c ****          HAL_TIM_DMABurst_ReadStart()
  97:Firmware/Drivers/STM32F4xx_HAL_Driver/Src/stm32f4xx_hal_tim.c **** 
  98:Firmware/Drivers/STM32F4xx_HAL_Driver/Src/stm32f4xx_hal_tim.c ****     *** Callback registration ***
  99:Firmware/Drivers/STM32F4xx_HAL_Driver/Src/stm32f4xx_hal_tim.c ****   =============================================
 100:Firmware/Drivers/STM32F4xx_HAL_Driver/Src/stm32f4xx_hal_tim.c **** 
 101:Firmware/Drivers/STM32F4xx_HAL_Driver/Src/stm32f4xx_hal_tim.c ****   [..]
 102:Firmware/Drivers/STM32F4xx_HAL_Driver/Src/stm32f4xx_hal_tim.c ****   The compilation define  USE_HAL_TIM_REGISTER_CALLBACKS when set to 1
 103:Firmware/Drivers/STM32F4xx_HAL_Driver/Src/stm32f4xx_hal_tim.c ****   allows the user to configure dynamically the driver callbacks.
 104:Firmware/Drivers/STM32F4xx_HAL_Driver/Src/stm32f4xx_hal_tim.c **** 
 105:Firmware/Drivers/STM32F4xx_HAL_Driver/Src/stm32f4xx_hal_tim.c ****   [..]
 106:Firmware/Drivers/STM32F4xx_HAL_Driver/Src/stm32f4xx_hal_tim.c ****   Use Function @ref HAL_TIM_RegisterCallback() to register a callback.
 107:Firmware/Drivers/STM32F4xx_HAL_Driver/Src/stm32f4xx_hal_tim.c ****   @ref HAL_TIM_RegisterCallback() takes as parameters the HAL peripheral handle,
 108:Firmware/Drivers/STM32F4xx_HAL_Driver/Src/stm32f4xx_hal_tim.c ****   the Callback ID and a pointer to the user callback function.
 109:Firmware/Drivers/STM32F4xx_HAL_Driver/Src/stm32f4xx_hal_tim.c **** 
 110:Firmware/Drivers/STM32F4xx_HAL_Driver/Src/stm32f4xx_hal_tim.c ****   [..]
 111:Firmware/Drivers/STM32F4xx_HAL_Driver/Src/stm32f4xx_hal_tim.c ****   Use function @ref HAL_TIM_UnRegisterCallback() to reset a callback to the default
 112:Firmware/Drivers/STM32F4xx_HAL_Driver/Src/stm32f4xx_hal_tim.c ****   weak function.
 113:Firmware/Drivers/STM32F4xx_HAL_Driver/Src/stm32f4xx_hal_tim.c ****   @ref HAL_TIM_UnRegisterCallback takes as parameters the HAL peripheral handle,
 114:Firmware/Drivers/STM32F4xx_HAL_Driver/Src/stm32f4xx_hal_tim.c ****   and the Callback ID.
 115:Firmware/Drivers/STM32F4xx_HAL_Driver/Src/stm32f4xx_hal_tim.c **** 
 116:Firmware/Drivers/STM32F4xx_HAL_Driver/Src/stm32f4xx_hal_tim.c ****   [..]
 117:Firmware/Drivers/STM32F4xx_HAL_Driver/Src/stm32f4xx_hal_tim.c ****   These functions allow to register/unregister following callbacks:
 118:Firmware/Drivers/STM32F4xx_HAL_Driver/Src/stm32f4xx_hal_tim.c ****     (+) Base_MspInitCallback              : TIM Base Msp Init Callback.
 119:Firmware/Drivers/STM32F4xx_HAL_Driver/Src/stm32f4xx_hal_tim.c ****     (+) Base_MspDeInitCallback            : TIM Base Msp DeInit Callback.
 120:Firmware/Drivers/STM32F4xx_HAL_Driver/Src/stm32f4xx_hal_tim.c ****     (+) IC_MspInitCallback                : TIM IC Msp Init Callback.
 121:Firmware/Drivers/STM32F4xx_HAL_Driver/Src/stm32f4xx_hal_tim.c ****     (+) IC_MspDeInitCallback              : TIM IC Msp DeInit Callback.
 122:Firmware/Drivers/STM32F4xx_HAL_Driver/Src/stm32f4xx_hal_tim.c ****     (+) OC_MspInitCallback                : TIM OC Msp Init Callback.
 123:Firmware/Drivers/STM32F4xx_HAL_Driver/Src/stm32f4xx_hal_tim.c ****     (+) OC_MspDeInitCallback              : TIM OC Msp DeInit Callback.
 124:Firmware/Drivers/STM32F4xx_HAL_Driver/Src/stm32f4xx_hal_tim.c ****     (+) PWM_MspInitCallback               : TIM PWM Msp Init Callback.
 125:Firmware/Drivers/STM32F4xx_HAL_Driver/Src/stm32f4xx_hal_tim.c ****     (+) PWM_MspDeInitCallback             : TIM PWM Msp DeInit Callback.
 126:Firmware/Drivers/STM32F4xx_HAL_Driver/Src/stm32f4xx_hal_tim.c ****     (+) OnePulse_MspInitCallback          : TIM One Pulse Msp Init Callback.
 127:Firmware/Drivers/STM32F4xx_HAL_Driver/Src/stm32f4xx_hal_tim.c ****     (+) OnePulse_MspDeInitCallback        : TIM One Pulse Msp DeInit Callback.
 128:Firmware/Drivers/STM32F4xx_HAL_Driver/Src/stm32f4xx_hal_tim.c ****     (+) Encoder_MspInitCallback           : TIM Encoder Msp Init Callback.
 129:Firmware/Drivers/STM32F4xx_HAL_Driver/Src/stm32f4xx_hal_tim.c ****     (+) Encoder_MspDeInitCallback         : TIM Encoder Msp DeInit Callback.
 130:Firmware/Drivers/STM32F4xx_HAL_Driver/Src/stm32f4xx_hal_tim.c ****     (+) HallSensor_MspInitCallback        : TIM Hall Sensor Msp Init Callback.
 131:Firmware/Drivers/STM32F4xx_HAL_Driver/Src/stm32f4xx_hal_tim.c ****     (+) HallSensor_MspDeInitCallback      : TIM Hall Sensor Msp DeInit Callback.
 132:Firmware/Drivers/STM32F4xx_HAL_Driver/Src/stm32f4xx_hal_tim.c ****     (+) PeriodElapsedCallback             : TIM Period Elapsed Callback.
 133:Firmware/Drivers/STM32F4xx_HAL_Driver/Src/stm32f4xx_hal_tim.c ****     (+) PeriodElapsedHalfCpltCallback     : TIM Period Elapsed half complete Callback.
 134:Firmware/Drivers/STM32F4xx_HAL_Driver/Src/stm32f4xx_hal_tim.c ****     (+) TriggerCallback                   : TIM Trigger Callback.
 135:Firmware/Drivers/STM32F4xx_HAL_Driver/Src/stm32f4xx_hal_tim.c ****     (+) TriggerHalfCpltCallback           : TIM Trigger half complete Callback.
 136:Firmware/Drivers/STM32F4xx_HAL_Driver/Src/stm32f4xx_hal_tim.c ****     (+) IC_CaptureCallback                : TIM Input Capture Callback.
 137:Firmware/Drivers/STM32F4xx_HAL_Driver/Src/stm32f4xx_hal_tim.c ****     (+) IC_CaptureHalfCpltCallback        : TIM Input Capture half complete Callback.
 138:Firmware/Drivers/STM32F4xx_HAL_Driver/Src/stm32f4xx_hal_tim.c ****     (+) OC_DelayElapsedCallback           : TIM Output Compare Delay Elapsed Callback.
 139:Firmware/Drivers/STM32F4xx_HAL_Driver/Src/stm32f4xx_hal_tim.c ****     (+) PWM_PulseFinishedCallback         : TIM PWM Pulse Finished Callback.
 140:Firmware/Drivers/STM32F4xx_HAL_Driver/Src/stm32f4xx_hal_tim.c ****     (+) PWM_PulseFinishedHalfCpltCallback : TIM PWM Pulse Finished half complete Callback.
 141:Firmware/Drivers/STM32F4xx_HAL_Driver/Src/stm32f4xx_hal_tim.c ****     (+) ErrorCallback                     : TIM Error Callback.
 142:Firmware/Drivers/STM32F4xx_HAL_Driver/Src/stm32f4xx_hal_tim.c ****     (+) CommutationCallback               : TIM Commutation Callback.
 143:Firmware/Drivers/STM32F4xx_HAL_Driver/Src/stm32f4xx_hal_tim.c ****     (+) CommutationHalfCpltCallback       : TIM Commutation half complete Callback.
 144:Firmware/Drivers/STM32F4xx_HAL_Driver/Src/stm32f4xx_hal_tim.c ****     (+) BreakCallback                     : TIM Break Callback.
 145:Firmware/Drivers/STM32F4xx_HAL_Driver/Src/stm32f4xx_hal_tim.c **** 
ARM GAS  /tmp/ccGTglLX.s 			page 4


 146:Firmware/Drivers/STM32F4xx_HAL_Driver/Src/stm32f4xx_hal_tim.c ****   [..]
 147:Firmware/Drivers/STM32F4xx_HAL_Driver/Src/stm32f4xx_hal_tim.c **** By default, after the Init and when the state is HAL_TIM_STATE_RESET
 148:Firmware/Drivers/STM32F4xx_HAL_Driver/Src/stm32f4xx_hal_tim.c **** all interrupt callbacks are set to the corresponding weak functions:
 149:Firmware/Drivers/STM32F4xx_HAL_Driver/Src/stm32f4xx_hal_tim.c ****   examples @ref HAL_TIM_TriggerCallback(), @ref HAL_TIM_ErrorCallback().
 150:Firmware/Drivers/STM32F4xx_HAL_Driver/Src/stm32f4xx_hal_tim.c **** 
 151:Firmware/Drivers/STM32F4xx_HAL_Driver/Src/stm32f4xx_hal_tim.c ****   [..]
 152:Firmware/Drivers/STM32F4xx_HAL_Driver/Src/stm32f4xx_hal_tim.c ****   Exception done for MspInit and MspDeInit functions that are reset to the legacy weak
 153:Firmware/Drivers/STM32F4xx_HAL_Driver/Src/stm32f4xx_hal_tim.c ****   functionalities in the Init / DeInit only when these callbacks are null
 154:Firmware/Drivers/STM32F4xx_HAL_Driver/Src/stm32f4xx_hal_tim.c ****   (not registered beforehand). If not, MspInit or MspDeInit are not null, the Init / DeInit
 155:Firmware/Drivers/STM32F4xx_HAL_Driver/Src/stm32f4xx_hal_tim.c ****     keep and use the user MspInit / MspDeInit callbacks(registered beforehand)
 156:Firmware/Drivers/STM32F4xx_HAL_Driver/Src/stm32f4xx_hal_tim.c **** 
 157:Firmware/Drivers/STM32F4xx_HAL_Driver/Src/stm32f4xx_hal_tim.c ****   [..]
 158:Firmware/Drivers/STM32F4xx_HAL_Driver/Src/stm32f4xx_hal_tim.c ****     Callbacks can be registered / unregistered in HAL_TIM_STATE_READY state only.
 159:Firmware/Drivers/STM32F4xx_HAL_Driver/Src/stm32f4xx_hal_tim.c ****     Exception done MspInit / MspDeInit that can be registered / unregistered
 160:Firmware/Drivers/STM32F4xx_HAL_Driver/Src/stm32f4xx_hal_tim.c ****     in HAL_TIM_STATE_READY or HAL_TIM_STATE_RESET state,
 161:Firmware/Drivers/STM32F4xx_HAL_Driver/Src/stm32f4xx_hal_tim.c ****     thus registered(user) MspInit / DeInit callbacks can be used during the Init / DeInit.
 162:Firmware/Drivers/STM32F4xx_HAL_Driver/Src/stm32f4xx_hal_tim.c ****   In that case first register the MspInit/MspDeInit user callbacks
 163:Firmware/Drivers/STM32F4xx_HAL_Driver/Src/stm32f4xx_hal_tim.c ****       using @ref HAL_TIM_RegisterCallback() before calling DeInit or Init function.
 164:Firmware/Drivers/STM32F4xx_HAL_Driver/Src/stm32f4xx_hal_tim.c **** 
 165:Firmware/Drivers/STM32F4xx_HAL_Driver/Src/stm32f4xx_hal_tim.c ****   [..]
 166:Firmware/Drivers/STM32F4xx_HAL_Driver/Src/stm32f4xx_hal_tim.c ****       When The compilation define USE_HAL_TIM_REGISTER_CALLBACKS is set to 0 or
 167:Firmware/Drivers/STM32F4xx_HAL_Driver/Src/stm32f4xx_hal_tim.c ****       not defined, the callback registration feature is not available and all callbacks
 168:Firmware/Drivers/STM32F4xx_HAL_Driver/Src/stm32f4xx_hal_tim.c ****       are set to the corresponding weak functions.
 169:Firmware/Drivers/STM32F4xx_HAL_Driver/Src/stm32f4xx_hal_tim.c **** 
 170:Firmware/Drivers/STM32F4xx_HAL_Driver/Src/stm32f4xx_hal_tim.c ****   @endverbatim
 171:Firmware/Drivers/STM32F4xx_HAL_Driver/Src/stm32f4xx_hal_tim.c ****   ******************************************************************************
 172:Firmware/Drivers/STM32F4xx_HAL_Driver/Src/stm32f4xx_hal_tim.c ****   * @attention
 173:Firmware/Drivers/STM32F4xx_HAL_Driver/Src/stm32f4xx_hal_tim.c ****   *
 174:Firmware/Drivers/STM32F4xx_HAL_Driver/Src/stm32f4xx_hal_tim.c ****   * <h2><center>&copy; Copyright (c) 2016 STMicroelectronics.
 175:Firmware/Drivers/STM32F4xx_HAL_Driver/Src/stm32f4xx_hal_tim.c ****   * All rights reserved.</center></h2>
 176:Firmware/Drivers/STM32F4xx_HAL_Driver/Src/stm32f4xx_hal_tim.c ****   *
 177:Firmware/Drivers/STM32F4xx_HAL_Driver/Src/stm32f4xx_hal_tim.c ****   * This software component is licensed by ST under BSD 3-Clause license,
 178:Firmware/Drivers/STM32F4xx_HAL_Driver/Src/stm32f4xx_hal_tim.c ****   * the "License"; You may not use this file except in compliance with the
 179:Firmware/Drivers/STM32F4xx_HAL_Driver/Src/stm32f4xx_hal_tim.c ****   * License. You may obtain a copy of the License at:
 180:Firmware/Drivers/STM32F4xx_HAL_Driver/Src/stm32f4xx_hal_tim.c ****   *                        opensource.org/licenses/BSD-3-Clause
 181:Firmware/Drivers/STM32F4xx_HAL_Driver/Src/stm32f4xx_hal_tim.c ****   *
 182:Firmware/Drivers/STM32F4xx_HAL_Driver/Src/stm32f4xx_hal_tim.c ****   ******************************************************************************
 183:Firmware/Drivers/STM32F4xx_HAL_Driver/Src/stm32f4xx_hal_tim.c ****   */
 184:Firmware/Drivers/STM32F4xx_HAL_Driver/Src/stm32f4xx_hal_tim.c **** 
 185:Firmware/Drivers/STM32F4xx_HAL_Driver/Src/stm32f4xx_hal_tim.c **** /* Includes ------------------------------------------------------------------*/
 186:Firmware/Drivers/STM32F4xx_HAL_Driver/Src/stm32f4xx_hal_tim.c **** #include "stm32f4xx_hal.h"
 187:Firmware/Drivers/STM32F4xx_HAL_Driver/Src/stm32f4xx_hal_tim.c **** 
 188:Firmware/Drivers/STM32F4xx_HAL_Driver/Src/stm32f4xx_hal_tim.c **** /** @addtogroup STM32F4xx_HAL_Driver
 189:Firmware/Drivers/STM32F4xx_HAL_Driver/Src/stm32f4xx_hal_tim.c ****   * @{
 190:Firmware/Drivers/STM32F4xx_HAL_Driver/Src/stm32f4xx_hal_tim.c ****   */
 191:Firmware/Drivers/STM32F4xx_HAL_Driver/Src/stm32f4xx_hal_tim.c **** 
 192:Firmware/Drivers/STM32F4xx_HAL_Driver/Src/stm32f4xx_hal_tim.c **** /** @defgroup TIM TIM
 193:Firmware/Drivers/STM32F4xx_HAL_Driver/Src/stm32f4xx_hal_tim.c ****   * @brief TIM HAL module driver
 194:Firmware/Drivers/STM32F4xx_HAL_Driver/Src/stm32f4xx_hal_tim.c ****   * @{
 195:Firmware/Drivers/STM32F4xx_HAL_Driver/Src/stm32f4xx_hal_tim.c ****   */
 196:Firmware/Drivers/STM32F4xx_HAL_Driver/Src/stm32f4xx_hal_tim.c **** 
 197:Firmware/Drivers/STM32F4xx_HAL_Driver/Src/stm32f4xx_hal_tim.c **** #ifdef HAL_TIM_MODULE_ENABLED
 198:Firmware/Drivers/STM32F4xx_HAL_Driver/Src/stm32f4xx_hal_tim.c **** 
 199:Firmware/Drivers/STM32F4xx_HAL_Driver/Src/stm32f4xx_hal_tim.c **** /* Private typedef -----------------------------------------------------------*/
 200:Firmware/Drivers/STM32F4xx_HAL_Driver/Src/stm32f4xx_hal_tim.c **** /* Private define ------------------------------------------------------------*/
 201:Firmware/Drivers/STM32F4xx_HAL_Driver/Src/stm32f4xx_hal_tim.c **** /* Private macro -------------------------------------------------------------*/
 202:Firmware/Drivers/STM32F4xx_HAL_Driver/Src/stm32f4xx_hal_tim.c **** /* Private variables ---------------------------------------------------------*/
ARM GAS  /tmp/ccGTglLX.s 			page 5


 203:Firmware/Drivers/STM32F4xx_HAL_Driver/Src/stm32f4xx_hal_tim.c **** /* Private function prototypes -----------------------------------------------*/
 204:Firmware/Drivers/STM32F4xx_HAL_Driver/Src/stm32f4xx_hal_tim.c **** /** @addtogroup TIM_Private_Functions
 205:Firmware/Drivers/STM32F4xx_HAL_Driver/Src/stm32f4xx_hal_tim.c ****   * @{
 206:Firmware/Drivers/STM32F4xx_HAL_Driver/Src/stm32f4xx_hal_tim.c ****   */
 207:Firmware/Drivers/STM32F4xx_HAL_Driver/Src/stm32f4xx_hal_tim.c **** static void TIM_OC1_SetConfig(TIM_TypeDef *TIMx, TIM_OC_InitTypeDef *OC_Config);
 208:Firmware/Drivers/STM32F4xx_HAL_Driver/Src/stm32f4xx_hal_tim.c **** static void TIM_OC3_SetConfig(TIM_TypeDef *TIMx, TIM_OC_InitTypeDef *OC_Config);
 209:Firmware/Drivers/STM32F4xx_HAL_Driver/Src/stm32f4xx_hal_tim.c **** static void TIM_OC4_SetConfig(TIM_TypeDef *TIMx, TIM_OC_InitTypeDef *OC_Config);
 210:Firmware/Drivers/STM32F4xx_HAL_Driver/Src/stm32f4xx_hal_tim.c **** static void TIM_TI1_ConfigInputStage(TIM_TypeDef *TIMx, uint32_t TIM_ICPolarity, uint32_t TIM_ICFil
 211:Firmware/Drivers/STM32F4xx_HAL_Driver/Src/stm32f4xx_hal_tim.c **** static void TIM_TI2_SetConfig(TIM_TypeDef *TIMx, uint32_t TIM_ICPolarity, uint32_t TIM_ICSelection,
 212:Firmware/Drivers/STM32F4xx_HAL_Driver/Src/stm32f4xx_hal_tim.c ****                               uint32_t TIM_ICFilter);
 213:Firmware/Drivers/STM32F4xx_HAL_Driver/Src/stm32f4xx_hal_tim.c **** static void TIM_TI2_ConfigInputStage(TIM_TypeDef *TIMx, uint32_t TIM_ICPolarity, uint32_t TIM_ICFil
 214:Firmware/Drivers/STM32F4xx_HAL_Driver/Src/stm32f4xx_hal_tim.c **** static void TIM_TI3_SetConfig(TIM_TypeDef *TIMx, uint32_t TIM_ICPolarity, uint32_t TIM_ICSelection,
 215:Firmware/Drivers/STM32F4xx_HAL_Driver/Src/stm32f4xx_hal_tim.c ****                               uint32_t TIM_ICFilter);
 216:Firmware/Drivers/STM32F4xx_HAL_Driver/Src/stm32f4xx_hal_tim.c **** static void TIM_TI4_SetConfig(TIM_TypeDef *TIMx, uint32_t TIM_ICPolarity, uint32_t TIM_ICSelection,
 217:Firmware/Drivers/STM32F4xx_HAL_Driver/Src/stm32f4xx_hal_tim.c ****                               uint32_t TIM_ICFilter);
 218:Firmware/Drivers/STM32F4xx_HAL_Driver/Src/stm32f4xx_hal_tim.c **** static void TIM_ITRx_SetConfig(TIM_TypeDef *TIMx, uint32_t InputTriggerSource);
 219:Firmware/Drivers/STM32F4xx_HAL_Driver/Src/stm32f4xx_hal_tim.c **** static void TIM_DMAPeriodElapsedCplt(DMA_HandleTypeDef *hdma);
 220:Firmware/Drivers/STM32F4xx_HAL_Driver/Src/stm32f4xx_hal_tim.c **** static void TIM_DMAPeriodElapsedHalfCplt(DMA_HandleTypeDef *hdma);
 221:Firmware/Drivers/STM32F4xx_HAL_Driver/Src/stm32f4xx_hal_tim.c **** static void TIM_DMATriggerCplt(DMA_HandleTypeDef *hdma);
 222:Firmware/Drivers/STM32F4xx_HAL_Driver/Src/stm32f4xx_hal_tim.c **** static void TIM_DMATriggerHalfCplt(DMA_HandleTypeDef *hdma);
 223:Firmware/Drivers/STM32F4xx_HAL_Driver/Src/stm32f4xx_hal_tim.c **** static HAL_StatusTypeDef TIM_SlaveTimer_SetConfig(TIM_HandleTypeDef *htim,
 224:Firmware/Drivers/STM32F4xx_HAL_Driver/Src/stm32f4xx_hal_tim.c ****                                                   TIM_SlaveConfigTypeDef *sSlaveConfig);
 225:Firmware/Drivers/STM32F4xx_HAL_Driver/Src/stm32f4xx_hal_tim.c **** /**
 226:Firmware/Drivers/STM32F4xx_HAL_Driver/Src/stm32f4xx_hal_tim.c ****   * @}
 227:Firmware/Drivers/STM32F4xx_HAL_Driver/Src/stm32f4xx_hal_tim.c ****   */
 228:Firmware/Drivers/STM32F4xx_HAL_Driver/Src/stm32f4xx_hal_tim.c **** /* Exported functions --------------------------------------------------------*/
 229:Firmware/Drivers/STM32F4xx_HAL_Driver/Src/stm32f4xx_hal_tim.c **** 
 230:Firmware/Drivers/STM32F4xx_HAL_Driver/Src/stm32f4xx_hal_tim.c **** /** @defgroup TIM_Exported_Functions TIM Exported Functions
 231:Firmware/Drivers/STM32F4xx_HAL_Driver/Src/stm32f4xx_hal_tim.c ****   * @{
 232:Firmware/Drivers/STM32F4xx_HAL_Driver/Src/stm32f4xx_hal_tim.c ****   */
 233:Firmware/Drivers/STM32F4xx_HAL_Driver/Src/stm32f4xx_hal_tim.c **** 
 234:Firmware/Drivers/STM32F4xx_HAL_Driver/Src/stm32f4xx_hal_tim.c **** /** @defgroup TIM_Exported_Functions_Group1 TIM Time Base functions
 235:Firmware/Drivers/STM32F4xx_HAL_Driver/Src/stm32f4xx_hal_tim.c ****   *  @brief    Time Base functions
 236:Firmware/Drivers/STM32F4xx_HAL_Driver/Src/stm32f4xx_hal_tim.c ****   *
 237:Firmware/Drivers/STM32F4xx_HAL_Driver/Src/stm32f4xx_hal_tim.c **** @verbatim
 238:Firmware/Drivers/STM32F4xx_HAL_Driver/Src/stm32f4xx_hal_tim.c ****   ==============================================================================
 239:Firmware/Drivers/STM32F4xx_HAL_Driver/Src/stm32f4xx_hal_tim.c ****               ##### Time Base functions #####
 240:Firmware/Drivers/STM32F4xx_HAL_Driver/Src/stm32f4xx_hal_tim.c ****   ==============================================================================
 241:Firmware/Drivers/STM32F4xx_HAL_Driver/Src/stm32f4xx_hal_tim.c ****   [..]
 242:Firmware/Drivers/STM32F4xx_HAL_Driver/Src/stm32f4xx_hal_tim.c ****     This section provides functions allowing to:
 243:Firmware/Drivers/STM32F4xx_HAL_Driver/Src/stm32f4xx_hal_tim.c ****     (+) Initialize and configure the TIM base.
 244:Firmware/Drivers/STM32F4xx_HAL_Driver/Src/stm32f4xx_hal_tim.c ****     (+) De-initialize the TIM base.
 245:Firmware/Drivers/STM32F4xx_HAL_Driver/Src/stm32f4xx_hal_tim.c ****     (+) Start the Time Base.
 246:Firmware/Drivers/STM32F4xx_HAL_Driver/Src/stm32f4xx_hal_tim.c ****     (+) Stop the Time Base.
 247:Firmware/Drivers/STM32F4xx_HAL_Driver/Src/stm32f4xx_hal_tim.c ****     (+) Start the Time Base and enable interrupt.
 248:Firmware/Drivers/STM32F4xx_HAL_Driver/Src/stm32f4xx_hal_tim.c ****     (+) Stop the Time Base and disable interrupt.
 249:Firmware/Drivers/STM32F4xx_HAL_Driver/Src/stm32f4xx_hal_tim.c ****     (+) Start the Time Base and enable DMA transfer.
 250:Firmware/Drivers/STM32F4xx_HAL_Driver/Src/stm32f4xx_hal_tim.c ****     (+) Stop the Time Base and disable DMA transfer.
 251:Firmware/Drivers/STM32F4xx_HAL_Driver/Src/stm32f4xx_hal_tim.c **** 
 252:Firmware/Drivers/STM32F4xx_HAL_Driver/Src/stm32f4xx_hal_tim.c **** @endverbatim
 253:Firmware/Drivers/STM32F4xx_HAL_Driver/Src/stm32f4xx_hal_tim.c ****   * @{
 254:Firmware/Drivers/STM32F4xx_HAL_Driver/Src/stm32f4xx_hal_tim.c ****   */
 255:Firmware/Drivers/STM32F4xx_HAL_Driver/Src/stm32f4xx_hal_tim.c **** /**
 256:Firmware/Drivers/STM32F4xx_HAL_Driver/Src/stm32f4xx_hal_tim.c ****   * @brief  Initializes the TIM Time base Unit according to the specified
 257:Firmware/Drivers/STM32F4xx_HAL_Driver/Src/stm32f4xx_hal_tim.c ****   *         parameters in the TIM_HandleTypeDef and initialize the associated handle.
 258:Firmware/Drivers/STM32F4xx_HAL_Driver/Src/stm32f4xx_hal_tim.c ****   * @note   Switching from Center Aligned counter mode to Edge counter mode (or reverse)
 259:Firmware/Drivers/STM32F4xx_HAL_Driver/Src/stm32f4xx_hal_tim.c ****   *         requires a timer reset to avoid unexpected direction
ARM GAS  /tmp/ccGTglLX.s 			page 6


 260:Firmware/Drivers/STM32F4xx_HAL_Driver/Src/stm32f4xx_hal_tim.c ****   *         due to DIR bit readonly in center aligned mode.
 261:Firmware/Drivers/STM32F4xx_HAL_Driver/Src/stm32f4xx_hal_tim.c ****   *         Ex: call @ref HAL_TIM_Base_DeInit() before HAL_TIM_Base_Init()
 262:Firmware/Drivers/STM32F4xx_HAL_Driver/Src/stm32f4xx_hal_tim.c ****   * @param  htim TIM Base handle
 263:Firmware/Drivers/STM32F4xx_HAL_Driver/Src/stm32f4xx_hal_tim.c ****   * @retval HAL status
 264:Firmware/Drivers/STM32F4xx_HAL_Driver/Src/stm32f4xx_hal_tim.c ****   */
 265:Firmware/Drivers/STM32F4xx_HAL_Driver/Src/stm32f4xx_hal_tim.c **** HAL_StatusTypeDef HAL_TIM_Base_Init(TIM_HandleTypeDef *htim)
 266:Firmware/Drivers/STM32F4xx_HAL_Driver/Src/stm32f4xx_hal_tim.c **** {
  28              		.loc 1 266 0
  29              		.cfi_startproc
  30              		@ args = 0, pretend = 0, frame = 8
  31              		@ frame_needed = 1, uses_anonymous_args = 0
  32 0000 80B5     		push	{r7, lr}
  33              	.LCFI0:
  34              		.cfi_def_cfa_offset 8
  35              		.cfi_offset 7, -8
  36              		.cfi_offset 14, -4
  37 0002 82B0     		sub	sp, sp, #8
  38              	.LCFI1:
  39              		.cfi_def_cfa_offset 16
  40 0004 00AF     		add	r7, sp, #0
  41              	.LCFI2:
  42              		.cfi_def_cfa_register 7
  43 0006 7860     		str	r0, [r7, #4]
 267:Firmware/Drivers/STM32F4xx_HAL_Driver/Src/stm32f4xx_hal_tim.c ****   /* Check the TIM handle allocation */
 268:Firmware/Drivers/STM32F4xx_HAL_Driver/Src/stm32f4xx_hal_tim.c ****   if (htim == NULL)
  44              		.loc 1 268 0
  45 0008 7B68     		ldr	r3, [r7, #4]
  46 000a 002B     		cmp	r3, #0
  47 000c 01D1     		bne	.L2
 269:Firmware/Drivers/STM32F4xx_HAL_Driver/Src/stm32f4xx_hal_tim.c ****   {
 270:Firmware/Drivers/STM32F4xx_HAL_Driver/Src/stm32f4xx_hal_tim.c ****     return HAL_ERROR;
  48              		.loc 1 270 0
  49 000e 0123     		movs	r3, #1
  50 0010 1DE0     		b	.L3
  51              	.L2:
 271:Firmware/Drivers/STM32F4xx_HAL_Driver/Src/stm32f4xx_hal_tim.c ****   }
 272:Firmware/Drivers/STM32F4xx_HAL_Driver/Src/stm32f4xx_hal_tim.c **** 
 273:Firmware/Drivers/STM32F4xx_HAL_Driver/Src/stm32f4xx_hal_tim.c ****   /* Check the parameters */
 274:Firmware/Drivers/STM32F4xx_HAL_Driver/Src/stm32f4xx_hal_tim.c ****   assert_param(IS_TIM_INSTANCE(htim->Instance));
 275:Firmware/Drivers/STM32F4xx_HAL_Driver/Src/stm32f4xx_hal_tim.c ****   assert_param(IS_TIM_COUNTER_MODE(htim->Init.CounterMode));
 276:Firmware/Drivers/STM32F4xx_HAL_Driver/Src/stm32f4xx_hal_tim.c ****   assert_param(IS_TIM_CLOCKDIVISION_DIV(htim->Init.ClockDivision));
 277:Firmware/Drivers/STM32F4xx_HAL_Driver/Src/stm32f4xx_hal_tim.c ****   assert_param(IS_TIM_AUTORELOAD_PRELOAD(htim->Init.AutoReloadPreload));
 278:Firmware/Drivers/STM32F4xx_HAL_Driver/Src/stm32f4xx_hal_tim.c **** 
 279:Firmware/Drivers/STM32F4xx_HAL_Driver/Src/stm32f4xx_hal_tim.c ****   if (htim->State == HAL_TIM_STATE_RESET)
  52              		.loc 1 279 0
  53 0012 7B68     		ldr	r3, [r7, #4]
  54 0014 93F83D30 		ldrb	r3, [r3, #61]
  55 0018 DBB2     		uxtb	r3, r3
  56 001a 002B     		cmp	r3, #0
  57 001c 06D1     		bne	.L4
 280:Firmware/Drivers/STM32F4xx_HAL_Driver/Src/stm32f4xx_hal_tim.c ****   {
 281:Firmware/Drivers/STM32F4xx_HAL_Driver/Src/stm32f4xx_hal_tim.c ****     /* Allocate lock resource and initialize it */
 282:Firmware/Drivers/STM32F4xx_HAL_Driver/Src/stm32f4xx_hal_tim.c ****     htim->Lock = HAL_UNLOCKED;
  58              		.loc 1 282 0
  59 001e 7B68     		ldr	r3, [r7, #4]
  60 0020 0022     		movs	r2, #0
  61 0022 83F83C20 		strb	r2, [r3, #60]
ARM GAS  /tmp/ccGTglLX.s 			page 7


 283:Firmware/Drivers/STM32F4xx_HAL_Driver/Src/stm32f4xx_hal_tim.c **** 
 284:Firmware/Drivers/STM32F4xx_HAL_Driver/Src/stm32f4xx_hal_tim.c **** #if (USE_HAL_TIM_REGISTER_CALLBACKS == 1)
 285:Firmware/Drivers/STM32F4xx_HAL_Driver/Src/stm32f4xx_hal_tim.c ****     /* Reset interrupt callbacks to legacy weak callbacks */
 286:Firmware/Drivers/STM32F4xx_HAL_Driver/Src/stm32f4xx_hal_tim.c ****     TIM_ResetCallback(htim);
 287:Firmware/Drivers/STM32F4xx_HAL_Driver/Src/stm32f4xx_hal_tim.c **** 
 288:Firmware/Drivers/STM32F4xx_HAL_Driver/Src/stm32f4xx_hal_tim.c ****     if (htim->Base_MspInitCallback == NULL)
 289:Firmware/Drivers/STM32F4xx_HAL_Driver/Src/stm32f4xx_hal_tim.c ****     {
 290:Firmware/Drivers/STM32F4xx_HAL_Driver/Src/stm32f4xx_hal_tim.c ****       htim->Base_MspInitCallback = HAL_TIM_Base_MspInit;
 291:Firmware/Drivers/STM32F4xx_HAL_Driver/Src/stm32f4xx_hal_tim.c ****     }
 292:Firmware/Drivers/STM32F4xx_HAL_Driver/Src/stm32f4xx_hal_tim.c ****     /* Init the low level hardware : GPIO, CLOCK, NVIC */
 293:Firmware/Drivers/STM32F4xx_HAL_Driver/Src/stm32f4xx_hal_tim.c ****     htim->Base_MspInitCallback(htim);
 294:Firmware/Drivers/STM32F4xx_HAL_Driver/Src/stm32f4xx_hal_tim.c **** #else
 295:Firmware/Drivers/STM32F4xx_HAL_Driver/Src/stm32f4xx_hal_tim.c ****     /* Init the low level hardware : GPIO, CLOCK, NVIC */
 296:Firmware/Drivers/STM32F4xx_HAL_Driver/Src/stm32f4xx_hal_tim.c ****     HAL_TIM_Base_MspInit(htim);
  62              		.loc 1 296 0
  63 0026 7868     		ldr	r0, [r7, #4]
  64 0028 FFF7FEFF 		bl	HAL_TIM_Base_MspInit
  65              	.L4:
 297:Firmware/Drivers/STM32F4xx_HAL_Driver/Src/stm32f4xx_hal_tim.c **** #endif /* USE_HAL_TIM_REGISTER_CALLBACKS */
 298:Firmware/Drivers/STM32F4xx_HAL_Driver/Src/stm32f4xx_hal_tim.c ****   }
 299:Firmware/Drivers/STM32F4xx_HAL_Driver/Src/stm32f4xx_hal_tim.c **** 
 300:Firmware/Drivers/STM32F4xx_HAL_Driver/Src/stm32f4xx_hal_tim.c ****   /* Set the TIM state */
 301:Firmware/Drivers/STM32F4xx_HAL_Driver/Src/stm32f4xx_hal_tim.c ****   htim->State = HAL_TIM_STATE_BUSY;
  66              		.loc 1 301 0
  67 002c 7B68     		ldr	r3, [r7, #4]
  68 002e 0222     		movs	r2, #2
  69 0030 83F83D20 		strb	r2, [r3, #61]
 302:Firmware/Drivers/STM32F4xx_HAL_Driver/Src/stm32f4xx_hal_tim.c **** 
 303:Firmware/Drivers/STM32F4xx_HAL_Driver/Src/stm32f4xx_hal_tim.c ****   /* Set the Time Base configuration */
 304:Firmware/Drivers/STM32F4xx_HAL_Driver/Src/stm32f4xx_hal_tim.c ****   TIM_Base_SetConfig(htim->Instance, &htim->Init);
  70              		.loc 1 304 0
  71 0034 7B68     		ldr	r3, [r7, #4]
  72 0036 1A68     		ldr	r2, [r3]
  73 0038 7B68     		ldr	r3, [r7, #4]
  74 003a 0433     		adds	r3, r3, #4
  75 003c 1946     		mov	r1, r3
  76 003e 1046     		mov	r0, r2
  77 0040 FFF7FEFF 		bl	TIM_Base_SetConfig
 305:Firmware/Drivers/STM32F4xx_HAL_Driver/Src/stm32f4xx_hal_tim.c **** 
 306:Firmware/Drivers/STM32F4xx_HAL_Driver/Src/stm32f4xx_hal_tim.c ****   /* Initialize the TIM state*/
 307:Firmware/Drivers/STM32F4xx_HAL_Driver/Src/stm32f4xx_hal_tim.c ****   htim->State = HAL_TIM_STATE_READY;
  78              		.loc 1 307 0
  79 0044 7B68     		ldr	r3, [r7, #4]
  80 0046 0122     		movs	r2, #1
  81 0048 83F83D20 		strb	r2, [r3, #61]
 308:Firmware/Drivers/STM32F4xx_HAL_Driver/Src/stm32f4xx_hal_tim.c **** 
 309:Firmware/Drivers/STM32F4xx_HAL_Driver/Src/stm32f4xx_hal_tim.c ****   return HAL_OK;
  82              		.loc 1 309 0
  83 004c 0023     		movs	r3, #0
  84              	.L3:
 310:Firmware/Drivers/STM32F4xx_HAL_Driver/Src/stm32f4xx_hal_tim.c **** }
  85              		.loc 1 310 0
  86 004e 1846     		mov	r0, r3
  87 0050 0837     		adds	r7, r7, #8
  88              	.LCFI3:
  89              		.cfi_def_cfa_offset 8
  90 0052 BD46     		mov	sp, r7
ARM GAS  /tmp/ccGTglLX.s 			page 8


  91              	.LCFI4:
  92              		.cfi_def_cfa_register 13
  93              		@ sp needed
  94 0054 80BD     		pop	{r7, pc}
  95              		.cfi_endproc
  96              	.LFE130:
  98              		.section	.text.HAL_TIM_Base_DeInit,"ax",%progbits
  99              		.align	1
 100              		.global	HAL_TIM_Base_DeInit
 101              		.syntax unified
 102              		.thumb
 103              		.thumb_func
 104              		.fpu fpv4-sp-d16
 106              	HAL_TIM_Base_DeInit:
 107              	.LFB131:
 311:Firmware/Drivers/STM32F4xx_HAL_Driver/Src/stm32f4xx_hal_tim.c **** 
 312:Firmware/Drivers/STM32F4xx_HAL_Driver/Src/stm32f4xx_hal_tim.c **** /**
 313:Firmware/Drivers/STM32F4xx_HAL_Driver/Src/stm32f4xx_hal_tim.c ****   * @brief  DeInitializes the TIM Base peripheral
 314:Firmware/Drivers/STM32F4xx_HAL_Driver/Src/stm32f4xx_hal_tim.c ****   * @param  htim TIM Base handle
 315:Firmware/Drivers/STM32F4xx_HAL_Driver/Src/stm32f4xx_hal_tim.c ****   * @retval HAL status
 316:Firmware/Drivers/STM32F4xx_HAL_Driver/Src/stm32f4xx_hal_tim.c ****   */
 317:Firmware/Drivers/STM32F4xx_HAL_Driver/Src/stm32f4xx_hal_tim.c **** HAL_StatusTypeDef HAL_TIM_Base_DeInit(TIM_HandleTypeDef *htim)
 318:Firmware/Drivers/STM32F4xx_HAL_Driver/Src/stm32f4xx_hal_tim.c **** {
 108              		.loc 1 318 0
 109              		.cfi_startproc
 110              		@ args = 0, pretend = 0, frame = 8
 111              		@ frame_needed = 1, uses_anonymous_args = 0
 112 0000 80B5     		push	{r7, lr}
 113              	.LCFI5:
 114              		.cfi_def_cfa_offset 8
 115              		.cfi_offset 7, -8
 116              		.cfi_offset 14, -4
 117 0002 82B0     		sub	sp, sp, #8
 118              	.LCFI6:
 119              		.cfi_def_cfa_offset 16
 120 0004 00AF     		add	r7, sp, #0
 121              	.LCFI7:
 122              		.cfi_def_cfa_register 7
 123 0006 7860     		str	r0, [r7, #4]
 319:Firmware/Drivers/STM32F4xx_HAL_Driver/Src/stm32f4xx_hal_tim.c ****   /* Check the parameters */
 320:Firmware/Drivers/STM32F4xx_HAL_Driver/Src/stm32f4xx_hal_tim.c ****   assert_param(IS_TIM_INSTANCE(htim->Instance));
 321:Firmware/Drivers/STM32F4xx_HAL_Driver/Src/stm32f4xx_hal_tim.c **** 
 322:Firmware/Drivers/STM32F4xx_HAL_Driver/Src/stm32f4xx_hal_tim.c ****   htim->State = HAL_TIM_STATE_BUSY;
 124              		.loc 1 322 0
 125 0008 7B68     		ldr	r3, [r7, #4]
 126 000a 0222     		movs	r2, #2
 127 000c 83F83D20 		strb	r2, [r3, #61]
 323:Firmware/Drivers/STM32F4xx_HAL_Driver/Src/stm32f4xx_hal_tim.c **** 
 324:Firmware/Drivers/STM32F4xx_HAL_Driver/Src/stm32f4xx_hal_tim.c ****   /* Disable the TIM Peripheral Clock */
 325:Firmware/Drivers/STM32F4xx_HAL_Driver/Src/stm32f4xx_hal_tim.c ****   __HAL_TIM_DISABLE(htim);
 128              		.loc 1 325 0
 129 0010 7B68     		ldr	r3, [r7, #4]
 130 0012 1B68     		ldr	r3, [r3]
 131 0014 1A6A     		ldr	r2, [r3, #32]
 132 0016 41F21113 		movw	r3, #4369
 133 001a 1340     		ands	r3, r3, r2
 134 001c 002B     		cmp	r3, #0
ARM GAS  /tmp/ccGTglLX.s 			page 9


 135 001e 0FD1     		bne	.L6
 136              		.loc 1 325 0 is_stmt 0 discriminator 1
 137 0020 7B68     		ldr	r3, [r7, #4]
 138 0022 1B68     		ldr	r3, [r3]
 139 0024 1A6A     		ldr	r2, [r3, #32]
 140 0026 40F24443 		movw	r3, #1092
 141 002a 1340     		ands	r3, r3, r2
 142 002c 002B     		cmp	r3, #0
 143 002e 07D1     		bne	.L6
 144              		.loc 1 325 0 discriminator 2
 145 0030 7B68     		ldr	r3, [r7, #4]
 146 0032 1B68     		ldr	r3, [r3]
 147 0034 1A68     		ldr	r2, [r3]
 148 0036 7B68     		ldr	r3, [r7, #4]
 149 0038 1B68     		ldr	r3, [r3]
 150 003a 22F00102 		bic	r2, r2, #1
 151 003e 1A60     		str	r2, [r3]
 152              	.L6:
 326:Firmware/Drivers/STM32F4xx_HAL_Driver/Src/stm32f4xx_hal_tim.c **** 
 327:Firmware/Drivers/STM32F4xx_HAL_Driver/Src/stm32f4xx_hal_tim.c **** #if (USE_HAL_TIM_REGISTER_CALLBACKS == 1)
 328:Firmware/Drivers/STM32F4xx_HAL_Driver/Src/stm32f4xx_hal_tim.c ****   if (htim->Base_MspDeInitCallback == NULL)
 329:Firmware/Drivers/STM32F4xx_HAL_Driver/Src/stm32f4xx_hal_tim.c ****   {
 330:Firmware/Drivers/STM32F4xx_HAL_Driver/Src/stm32f4xx_hal_tim.c ****     htim->Base_MspDeInitCallback = HAL_TIM_Base_MspDeInit;
 331:Firmware/Drivers/STM32F4xx_HAL_Driver/Src/stm32f4xx_hal_tim.c ****   }
 332:Firmware/Drivers/STM32F4xx_HAL_Driver/Src/stm32f4xx_hal_tim.c ****   /* DeInit the low level hardware */
 333:Firmware/Drivers/STM32F4xx_HAL_Driver/Src/stm32f4xx_hal_tim.c ****   htim->Base_MspDeInitCallback(htim);
 334:Firmware/Drivers/STM32F4xx_HAL_Driver/Src/stm32f4xx_hal_tim.c **** #else
 335:Firmware/Drivers/STM32F4xx_HAL_Driver/Src/stm32f4xx_hal_tim.c ****   /* DeInit the low level hardware: GPIO, CLOCK, NVIC */
 336:Firmware/Drivers/STM32F4xx_HAL_Driver/Src/stm32f4xx_hal_tim.c ****   HAL_TIM_Base_MspDeInit(htim);
 153              		.loc 1 336 0 is_stmt 1
 154 0040 7868     		ldr	r0, [r7, #4]
 155 0042 FFF7FEFF 		bl	HAL_TIM_Base_MspDeInit
 337:Firmware/Drivers/STM32F4xx_HAL_Driver/Src/stm32f4xx_hal_tim.c **** #endif /* USE_HAL_TIM_REGISTER_CALLBACKS */
 338:Firmware/Drivers/STM32F4xx_HAL_Driver/Src/stm32f4xx_hal_tim.c **** 
 339:Firmware/Drivers/STM32F4xx_HAL_Driver/Src/stm32f4xx_hal_tim.c ****   /* Change TIM state */
 340:Firmware/Drivers/STM32F4xx_HAL_Driver/Src/stm32f4xx_hal_tim.c ****   htim->State = HAL_TIM_STATE_RESET;
 156              		.loc 1 340 0
 157 0046 7B68     		ldr	r3, [r7, #4]
 158 0048 0022     		movs	r2, #0
 159 004a 83F83D20 		strb	r2, [r3, #61]
 341:Firmware/Drivers/STM32F4xx_HAL_Driver/Src/stm32f4xx_hal_tim.c **** 
 342:Firmware/Drivers/STM32F4xx_HAL_Driver/Src/stm32f4xx_hal_tim.c ****   /* Release Lock */
 343:Firmware/Drivers/STM32F4xx_HAL_Driver/Src/stm32f4xx_hal_tim.c ****   __HAL_UNLOCK(htim);
 160              		.loc 1 343 0
 161 004e 7B68     		ldr	r3, [r7, #4]
 162 0050 0022     		movs	r2, #0
 163 0052 83F83C20 		strb	r2, [r3, #60]
 344:Firmware/Drivers/STM32F4xx_HAL_Driver/Src/stm32f4xx_hal_tim.c **** 
 345:Firmware/Drivers/STM32F4xx_HAL_Driver/Src/stm32f4xx_hal_tim.c ****   return HAL_OK;
 164              		.loc 1 345 0
 165 0056 0023     		movs	r3, #0
 346:Firmware/Drivers/STM32F4xx_HAL_Driver/Src/stm32f4xx_hal_tim.c **** }
 166              		.loc 1 346 0
 167 0058 1846     		mov	r0, r3
 168 005a 0837     		adds	r7, r7, #8
 169              	.LCFI8:
 170              		.cfi_def_cfa_offset 8
ARM GAS  /tmp/ccGTglLX.s 			page 10


 171 005c BD46     		mov	sp, r7
 172              	.LCFI9:
 173              		.cfi_def_cfa_register 13
 174              		@ sp needed
 175 005e 80BD     		pop	{r7, pc}
 176              		.cfi_endproc
 177              	.LFE131:
 179              		.section	.text.HAL_TIM_Base_MspInit,"ax",%progbits
 180              		.align	1
 181              		.weak	HAL_TIM_Base_MspInit
 182              		.syntax unified
 183              		.thumb
 184              		.thumb_func
 185              		.fpu fpv4-sp-d16
 187              	HAL_TIM_Base_MspInit:
 188              	.LFB132:
 347:Firmware/Drivers/STM32F4xx_HAL_Driver/Src/stm32f4xx_hal_tim.c **** 
 348:Firmware/Drivers/STM32F4xx_HAL_Driver/Src/stm32f4xx_hal_tim.c **** /**
 349:Firmware/Drivers/STM32F4xx_HAL_Driver/Src/stm32f4xx_hal_tim.c ****   * @brief  Initializes the TIM Base MSP.
 350:Firmware/Drivers/STM32F4xx_HAL_Driver/Src/stm32f4xx_hal_tim.c ****   * @param  htim TIM Base handle
 351:Firmware/Drivers/STM32F4xx_HAL_Driver/Src/stm32f4xx_hal_tim.c ****   * @retval None
 352:Firmware/Drivers/STM32F4xx_HAL_Driver/Src/stm32f4xx_hal_tim.c ****   */
 353:Firmware/Drivers/STM32F4xx_HAL_Driver/Src/stm32f4xx_hal_tim.c **** __weak void HAL_TIM_Base_MspInit(TIM_HandleTypeDef *htim)
 354:Firmware/Drivers/STM32F4xx_HAL_Driver/Src/stm32f4xx_hal_tim.c **** {
 189              		.loc 1 354 0
 190              		.cfi_startproc
 191              		@ args = 0, pretend = 0, frame = 8
 192              		@ frame_needed = 1, uses_anonymous_args = 0
 193              		@ link register save eliminated.
 194 0000 80B4     		push	{r7}
 195              	.LCFI10:
 196              		.cfi_def_cfa_offset 4
 197              		.cfi_offset 7, -4
 198 0002 83B0     		sub	sp, sp, #12
 199              	.LCFI11:
 200              		.cfi_def_cfa_offset 16
 201 0004 00AF     		add	r7, sp, #0
 202              	.LCFI12:
 203              		.cfi_def_cfa_register 7
 204 0006 7860     		str	r0, [r7, #4]
 355:Firmware/Drivers/STM32F4xx_HAL_Driver/Src/stm32f4xx_hal_tim.c ****   /* Prevent unused argument(s) compilation warning */
 356:Firmware/Drivers/STM32F4xx_HAL_Driver/Src/stm32f4xx_hal_tim.c ****   UNUSED(htim);
 357:Firmware/Drivers/STM32F4xx_HAL_Driver/Src/stm32f4xx_hal_tim.c **** 
 358:Firmware/Drivers/STM32F4xx_HAL_Driver/Src/stm32f4xx_hal_tim.c ****   /* NOTE : This function should not be modified, when the callback is needed,
 359:Firmware/Drivers/STM32F4xx_HAL_Driver/Src/stm32f4xx_hal_tim.c ****             the HAL_TIM_Base_MspInit could be implemented in the user file
 360:Firmware/Drivers/STM32F4xx_HAL_Driver/Src/stm32f4xx_hal_tim.c ****    */
 361:Firmware/Drivers/STM32F4xx_HAL_Driver/Src/stm32f4xx_hal_tim.c **** }
 205              		.loc 1 361 0
 206 0008 00BF     		nop
 207 000a 0C37     		adds	r7, r7, #12
 208              	.LCFI13:
 209              		.cfi_def_cfa_offset 4
 210 000c BD46     		mov	sp, r7
 211              	.LCFI14:
 212              		.cfi_def_cfa_register 13
 213              		@ sp needed
 214 000e 5DF8047B 		ldr	r7, [sp], #4
ARM GAS  /tmp/ccGTglLX.s 			page 11


 215              	.LCFI15:
 216              		.cfi_restore 7
 217              		.cfi_def_cfa_offset 0
 218 0012 7047     		bx	lr
 219              		.cfi_endproc
 220              	.LFE132:
 222              		.section	.text.HAL_TIM_Base_MspDeInit,"ax",%progbits
 223              		.align	1
 224              		.weak	HAL_TIM_Base_MspDeInit
 225              		.syntax unified
 226              		.thumb
 227              		.thumb_func
 228              		.fpu fpv4-sp-d16
 230              	HAL_TIM_Base_MspDeInit:
 231              	.LFB133:
 362:Firmware/Drivers/STM32F4xx_HAL_Driver/Src/stm32f4xx_hal_tim.c **** 
 363:Firmware/Drivers/STM32F4xx_HAL_Driver/Src/stm32f4xx_hal_tim.c **** /**
 364:Firmware/Drivers/STM32F4xx_HAL_Driver/Src/stm32f4xx_hal_tim.c ****   * @brief  DeInitializes TIM Base MSP.
 365:Firmware/Drivers/STM32F4xx_HAL_Driver/Src/stm32f4xx_hal_tim.c ****   * @param  htim TIM Base handle
 366:Firmware/Drivers/STM32F4xx_HAL_Driver/Src/stm32f4xx_hal_tim.c ****   * @retval None
 367:Firmware/Drivers/STM32F4xx_HAL_Driver/Src/stm32f4xx_hal_tim.c ****   */
 368:Firmware/Drivers/STM32F4xx_HAL_Driver/Src/stm32f4xx_hal_tim.c **** __weak void HAL_TIM_Base_MspDeInit(TIM_HandleTypeDef *htim)
 369:Firmware/Drivers/STM32F4xx_HAL_Driver/Src/stm32f4xx_hal_tim.c **** {
 232              		.loc 1 369 0
 233              		.cfi_startproc
 234              		@ args = 0, pretend = 0, frame = 8
 235              		@ frame_needed = 1, uses_anonymous_args = 0
 236              		@ link register save eliminated.
 237 0000 80B4     		push	{r7}
 238              	.LCFI16:
 239              		.cfi_def_cfa_offset 4
 240              		.cfi_offset 7, -4
 241 0002 83B0     		sub	sp, sp, #12
 242              	.LCFI17:
 243              		.cfi_def_cfa_offset 16
 244 0004 00AF     		add	r7, sp, #0
 245              	.LCFI18:
 246              		.cfi_def_cfa_register 7
 247 0006 7860     		str	r0, [r7, #4]
 370:Firmware/Drivers/STM32F4xx_HAL_Driver/Src/stm32f4xx_hal_tim.c ****   /* Prevent unused argument(s) compilation warning */
 371:Firmware/Drivers/STM32F4xx_HAL_Driver/Src/stm32f4xx_hal_tim.c ****   UNUSED(htim);
 372:Firmware/Drivers/STM32F4xx_HAL_Driver/Src/stm32f4xx_hal_tim.c **** 
 373:Firmware/Drivers/STM32F4xx_HAL_Driver/Src/stm32f4xx_hal_tim.c ****   /* NOTE : This function should not be modified, when the callback is needed,
 374:Firmware/Drivers/STM32F4xx_HAL_Driver/Src/stm32f4xx_hal_tim.c ****             the HAL_TIM_Base_MspDeInit could be implemented in the user file
 375:Firmware/Drivers/STM32F4xx_HAL_Driver/Src/stm32f4xx_hal_tim.c ****    */
 376:Firmware/Drivers/STM32F4xx_HAL_Driver/Src/stm32f4xx_hal_tim.c **** }
 248              		.loc 1 376 0
 249 0008 00BF     		nop
 250 000a 0C37     		adds	r7, r7, #12
 251              	.LCFI19:
 252              		.cfi_def_cfa_offset 4
 253 000c BD46     		mov	sp, r7
 254              	.LCFI20:
 255              		.cfi_def_cfa_register 13
 256              		@ sp needed
 257 000e 5DF8047B 		ldr	r7, [sp], #4
 258              	.LCFI21:
ARM GAS  /tmp/ccGTglLX.s 			page 12


 259              		.cfi_restore 7
 260              		.cfi_def_cfa_offset 0
 261 0012 7047     		bx	lr
 262              		.cfi_endproc
 263              	.LFE133:
 265              		.section	.text.HAL_TIM_Base_Start,"ax",%progbits
 266              		.align	1
 267              		.global	HAL_TIM_Base_Start
 268              		.syntax unified
 269              		.thumb
 270              		.thumb_func
 271              		.fpu fpv4-sp-d16
 273              	HAL_TIM_Base_Start:
 274              	.LFB134:
 377:Firmware/Drivers/STM32F4xx_HAL_Driver/Src/stm32f4xx_hal_tim.c **** 
 378:Firmware/Drivers/STM32F4xx_HAL_Driver/Src/stm32f4xx_hal_tim.c **** 
 379:Firmware/Drivers/STM32F4xx_HAL_Driver/Src/stm32f4xx_hal_tim.c **** /**
 380:Firmware/Drivers/STM32F4xx_HAL_Driver/Src/stm32f4xx_hal_tim.c ****   * @brief  Starts the TIM Base generation.
 381:Firmware/Drivers/STM32F4xx_HAL_Driver/Src/stm32f4xx_hal_tim.c ****   * @param  htim TIM Base handle
 382:Firmware/Drivers/STM32F4xx_HAL_Driver/Src/stm32f4xx_hal_tim.c ****   * @retval HAL status
 383:Firmware/Drivers/STM32F4xx_HAL_Driver/Src/stm32f4xx_hal_tim.c ****   */
 384:Firmware/Drivers/STM32F4xx_HAL_Driver/Src/stm32f4xx_hal_tim.c **** HAL_StatusTypeDef HAL_TIM_Base_Start(TIM_HandleTypeDef *htim)
 385:Firmware/Drivers/STM32F4xx_HAL_Driver/Src/stm32f4xx_hal_tim.c **** {
 275              		.loc 1 385 0
 276              		.cfi_startproc
 277              		@ args = 0, pretend = 0, frame = 16
 278              		@ frame_needed = 1, uses_anonymous_args = 0
 279              		@ link register save eliminated.
 280 0000 80B4     		push	{r7}
 281              	.LCFI22:
 282              		.cfi_def_cfa_offset 4
 283              		.cfi_offset 7, -4
 284 0002 85B0     		sub	sp, sp, #20
 285              	.LCFI23:
 286              		.cfi_def_cfa_offset 24
 287 0004 00AF     		add	r7, sp, #0
 288              	.LCFI24:
 289              		.cfi_def_cfa_register 7
 290 0006 7860     		str	r0, [r7, #4]
 386:Firmware/Drivers/STM32F4xx_HAL_Driver/Src/stm32f4xx_hal_tim.c ****   uint32_t tmpsmcr;
 387:Firmware/Drivers/STM32F4xx_HAL_Driver/Src/stm32f4xx_hal_tim.c **** 
 388:Firmware/Drivers/STM32F4xx_HAL_Driver/Src/stm32f4xx_hal_tim.c ****   /* Check the parameters */
 389:Firmware/Drivers/STM32F4xx_HAL_Driver/Src/stm32f4xx_hal_tim.c ****   assert_param(IS_TIM_INSTANCE(htim->Instance));
 390:Firmware/Drivers/STM32F4xx_HAL_Driver/Src/stm32f4xx_hal_tim.c **** 
 391:Firmware/Drivers/STM32F4xx_HAL_Driver/Src/stm32f4xx_hal_tim.c ****   /* Set the TIM state */
 392:Firmware/Drivers/STM32F4xx_HAL_Driver/Src/stm32f4xx_hal_tim.c ****   htim->State = HAL_TIM_STATE_BUSY;
 291              		.loc 1 392 0
 292 0008 7B68     		ldr	r3, [r7, #4]
 293 000a 0222     		movs	r2, #2
 294 000c 83F83D20 		strb	r2, [r3, #61]
 393:Firmware/Drivers/STM32F4xx_HAL_Driver/Src/stm32f4xx_hal_tim.c **** 
 394:Firmware/Drivers/STM32F4xx_HAL_Driver/Src/stm32f4xx_hal_tim.c ****   /* Enable the Peripheral, except in trigger mode where enable is automatically done with trigger 
 395:Firmware/Drivers/STM32F4xx_HAL_Driver/Src/stm32f4xx_hal_tim.c ****   tmpsmcr = htim->Instance->SMCR & TIM_SMCR_SMS;
 295              		.loc 1 395 0
 296 0010 7B68     		ldr	r3, [r7, #4]
 297 0012 1B68     		ldr	r3, [r3]
 298 0014 9B68     		ldr	r3, [r3, #8]
ARM GAS  /tmp/ccGTglLX.s 			page 13


 299 0016 03F00703 		and	r3, r3, #7
 300 001a FB60     		str	r3, [r7, #12]
 396:Firmware/Drivers/STM32F4xx_HAL_Driver/Src/stm32f4xx_hal_tim.c ****   if (!IS_TIM_SLAVEMODE_TRIGGER_ENABLED(tmpsmcr))
 301              		.loc 1 396 0
 302 001c FB68     		ldr	r3, [r7, #12]
 303 001e 062B     		cmp	r3, #6
 304 0020 07D0     		beq	.L11
 397:Firmware/Drivers/STM32F4xx_HAL_Driver/Src/stm32f4xx_hal_tim.c ****   {
 398:Firmware/Drivers/STM32F4xx_HAL_Driver/Src/stm32f4xx_hal_tim.c ****     __HAL_TIM_ENABLE(htim);
 305              		.loc 1 398 0
 306 0022 7B68     		ldr	r3, [r7, #4]
 307 0024 1B68     		ldr	r3, [r3]
 308 0026 1A68     		ldr	r2, [r3]
 309 0028 7B68     		ldr	r3, [r7, #4]
 310 002a 1B68     		ldr	r3, [r3]
 311 002c 42F00102 		orr	r2, r2, #1
 312 0030 1A60     		str	r2, [r3]
 313              	.L11:
 399:Firmware/Drivers/STM32F4xx_HAL_Driver/Src/stm32f4xx_hal_tim.c ****   }
 400:Firmware/Drivers/STM32F4xx_HAL_Driver/Src/stm32f4xx_hal_tim.c **** 
 401:Firmware/Drivers/STM32F4xx_HAL_Driver/Src/stm32f4xx_hal_tim.c ****   /* Change the TIM state*/
 402:Firmware/Drivers/STM32F4xx_HAL_Driver/Src/stm32f4xx_hal_tim.c ****   htim->State = HAL_TIM_STATE_READY;
 314              		.loc 1 402 0
 315 0032 7B68     		ldr	r3, [r7, #4]
 316 0034 0122     		movs	r2, #1
 317 0036 83F83D20 		strb	r2, [r3, #61]
 403:Firmware/Drivers/STM32F4xx_HAL_Driver/Src/stm32f4xx_hal_tim.c **** 
 404:Firmware/Drivers/STM32F4xx_HAL_Driver/Src/stm32f4xx_hal_tim.c ****   /* Return function status */
 405:Firmware/Drivers/STM32F4xx_HAL_Driver/Src/stm32f4xx_hal_tim.c ****   return HAL_OK;
 318              		.loc 1 405 0
 319 003a 0023     		movs	r3, #0
 406:Firmware/Drivers/STM32F4xx_HAL_Driver/Src/stm32f4xx_hal_tim.c **** }
 320              		.loc 1 406 0
 321 003c 1846     		mov	r0, r3
 322 003e 1437     		adds	r7, r7, #20
 323              	.LCFI25:
 324              		.cfi_def_cfa_offset 4
 325 0040 BD46     		mov	sp, r7
 326              	.LCFI26:
 327              		.cfi_def_cfa_register 13
 328              		@ sp needed
 329 0042 5DF8047B 		ldr	r7, [sp], #4
 330              	.LCFI27:
 331              		.cfi_restore 7
 332              		.cfi_def_cfa_offset 0
 333 0046 7047     		bx	lr
 334              		.cfi_endproc
 335              	.LFE134:
 337              		.section	.text.HAL_TIM_Base_Stop,"ax",%progbits
 338              		.align	1
 339              		.global	HAL_TIM_Base_Stop
 340              		.syntax unified
 341              		.thumb
 342              		.thumb_func
 343              		.fpu fpv4-sp-d16
 345              	HAL_TIM_Base_Stop:
 346              	.LFB135:
ARM GAS  /tmp/ccGTglLX.s 			page 14


 407:Firmware/Drivers/STM32F4xx_HAL_Driver/Src/stm32f4xx_hal_tim.c **** 
 408:Firmware/Drivers/STM32F4xx_HAL_Driver/Src/stm32f4xx_hal_tim.c **** /**
 409:Firmware/Drivers/STM32F4xx_HAL_Driver/Src/stm32f4xx_hal_tim.c ****   * @brief  Stops the TIM Base generation.
 410:Firmware/Drivers/STM32F4xx_HAL_Driver/Src/stm32f4xx_hal_tim.c ****   * @param  htim TIM Base handle
 411:Firmware/Drivers/STM32F4xx_HAL_Driver/Src/stm32f4xx_hal_tim.c ****   * @retval HAL status
 412:Firmware/Drivers/STM32F4xx_HAL_Driver/Src/stm32f4xx_hal_tim.c ****   */
 413:Firmware/Drivers/STM32F4xx_HAL_Driver/Src/stm32f4xx_hal_tim.c **** HAL_StatusTypeDef HAL_TIM_Base_Stop(TIM_HandleTypeDef *htim)
 414:Firmware/Drivers/STM32F4xx_HAL_Driver/Src/stm32f4xx_hal_tim.c **** {
 347              		.loc 1 414 0
 348              		.cfi_startproc
 349              		@ args = 0, pretend = 0, frame = 8
 350              		@ frame_needed = 1, uses_anonymous_args = 0
 351              		@ link register save eliminated.
 352 0000 80B4     		push	{r7}
 353              	.LCFI28:
 354              		.cfi_def_cfa_offset 4
 355              		.cfi_offset 7, -4
 356 0002 83B0     		sub	sp, sp, #12
 357              	.LCFI29:
 358              		.cfi_def_cfa_offset 16
 359 0004 00AF     		add	r7, sp, #0
 360              	.LCFI30:
 361              		.cfi_def_cfa_register 7
 362 0006 7860     		str	r0, [r7, #4]
 415:Firmware/Drivers/STM32F4xx_HAL_Driver/Src/stm32f4xx_hal_tim.c ****   /* Check the parameters */
 416:Firmware/Drivers/STM32F4xx_HAL_Driver/Src/stm32f4xx_hal_tim.c ****   assert_param(IS_TIM_INSTANCE(htim->Instance));
 417:Firmware/Drivers/STM32F4xx_HAL_Driver/Src/stm32f4xx_hal_tim.c **** 
 418:Firmware/Drivers/STM32F4xx_HAL_Driver/Src/stm32f4xx_hal_tim.c ****   /* Set the TIM state */
 419:Firmware/Drivers/STM32F4xx_HAL_Driver/Src/stm32f4xx_hal_tim.c ****   htim->State = HAL_TIM_STATE_BUSY;
 363              		.loc 1 419 0
 364 0008 7B68     		ldr	r3, [r7, #4]
 365 000a 0222     		movs	r2, #2
 366 000c 83F83D20 		strb	r2, [r3, #61]
 420:Firmware/Drivers/STM32F4xx_HAL_Driver/Src/stm32f4xx_hal_tim.c **** 
 421:Firmware/Drivers/STM32F4xx_HAL_Driver/Src/stm32f4xx_hal_tim.c ****   /* Disable the Peripheral */
 422:Firmware/Drivers/STM32F4xx_HAL_Driver/Src/stm32f4xx_hal_tim.c ****   __HAL_TIM_DISABLE(htim);
 367              		.loc 1 422 0
 368 0010 7B68     		ldr	r3, [r7, #4]
 369 0012 1B68     		ldr	r3, [r3]
 370 0014 1A6A     		ldr	r2, [r3, #32]
 371 0016 41F21113 		movw	r3, #4369
 372 001a 1340     		ands	r3, r3, r2
 373 001c 002B     		cmp	r3, #0
 374 001e 0FD1     		bne	.L14
 375              		.loc 1 422 0 is_stmt 0 discriminator 1
 376 0020 7B68     		ldr	r3, [r7, #4]
 377 0022 1B68     		ldr	r3, [r3]
 378 0024 1A6A     		ldr	r2, [r3, #32]
 379 0026 40F24443 		movw	r3, #1092
 380 002a 1340     		ands	r3, r3, r2
 381 002c 002B     		cmp	r3, #0
 382 002e 07D1     		bne	.L14
 383              		.loc 1 422 0 discriminator 2
 384 0030 7B68     		ldr	r3, [r7, #4]
 385 0032 1B68     		ldr	r3, [r3]
 386 0034 1A68     		ldr	r2, [r3]
 387 0036 7B68     		ldr	r3, [r7, #4]
ARM GAS  /tmp/ccGTglLX.s 			page 15


 388 0038 1B68     		ldr	r3, [r3]
 389 003a 22F00102 		bic	r2, r2, #1
 390 003e 1A60     		str	r2, [r3]
 391              	.L14:
 423:Firmware/Drivers/STM32F4xx_HAL_Driver/Src/stm32f4xx_hal_tim.c **** 
 424:Firmware/Drivers/STM32F4xx_HAL_Driver/Src/stm32f4xx_hal_tim.c ****   /* Change the TIM state*/
 425:Firmware/Drivers/STM32F4xx_HAL_Driver/Src/stm32f4xx_hal_tim.c ****   htim->State = HAL_TIM_STATE_READY;
 392              		.loc 1 425 0 is_stmt 1
 393 0040 7B68     		ldr	r3, [r7, #4]
 394 0042 0122     		movs	r2, #1
 395 0044 83F83D20 		strb	r2, [r3, #61]
 426:Firmware/Drivers/STM32F4xx_HAL_Driver/Src/stm32f4xx_hal_tim.c **** 
 427:Firmware/Drivers/STM32F4xx_HAL_Driver/Src/stm32f4xx_hal_tim.c ****   /* Return function status */
 428:Firmware/Drivers/STM32F4xx_HAL_Driver/Src/stm32f4xx_hal_tim.c ****   return HAL_OK;
 396              		.loc 1 428 0
 397 0048 0023     		movs	r3, #0
 429:Firmware/Drivers/STM32F4xx_HAL_Driver/Src/stm32f4xx_hal_tim.c **** }
 398              		.loc 1 429 0
 399 004a 1846     		mov	r0, r3
 400 004c 0C37     		adds	r7, r7, #12
 401              	.LCFI31:
 402              		.cfi_def_cfa_offset 4
 403 004e BD46     		mov	sp, r7
 404              	.LCFI32:
 405              		.cfi_def_cfa_register 13
 406              		@ sp needed
 407 0050 5DF8047B 		ldr	r7, [sp], #4
 408              	.LCFI33:
 409              		.cfi_restore 7
 410              		.cfi_def_cfa_offset 0
 411 0054 7047     		bx	lr
 412              		.cfi_endproc
 413              	.LFE135:
 415              		.section	.text.HAL_TIM_Base_Start_IT,"ax",%progbits
 416              		.align	1
 417              		.global	HAL_TIM_Base_Start_IT
 418              		.syntax unified
 419              		.thumb
 420              		.thumb_func
 421              		.fpu fpv4-sp-d16
 423              	HAL_TIM_Base_Start_IT:
 424              	.LFB136:
 430:Firmware/Drivers/STM32F4xx_HAL_Driver/Src/stm32f4xx_hal_tim.c **** 
 431:Firmware/Drivers/STM32F4xx_HAL_Driver/Src/stm32f4xx_hal_tim.c **** /**
 432:Firmware/Drivers/STM32F4xx_HAL_Driver/Src/stm32f4xx_hal_tim.c ****   * @brief  Starts the TIM Base generation in interrupt mode.
 433:Firmware/Drivers/STM32F4xx_HAL_Driver/Src/stm32f4xx_hal_tim.c ****   * @param  htim TIM Base handle
 434:Firmware/Drivers/STM32F4xx_HAL_Driver/Src/stm32f4xx_hal_tim.c ****   * @retval HAL status
 435:Firmware/Drivers/STM32F4xx_HAL_Driver/Src/stm32f4xx_hal_tim.c ****   */
 436:Firmware/Drivers/STM32F4xx_HAL_Driver/Src/stm32f4xx_hal_tim.c **** HAL_StatusTypeDef HAL_TIM_Base_Start_IT(TIM_HandleTypeDef *htim)
 437:Firmware/Drivers/STM32F4xx_HAL_Driver/Src/stm32f4xx_hal_tim.c **** {
 425              		.loc 1 437 0
 426              		.cfi_startproc
 427              		@ args = 0, pretend = 0, frame = 16
 428              		@ frame_needed = 1, uses_anonymous_args = 0
 429              		@ link register save eliminated.
 430 0000 80B4     		push	{r7}
 431              	.LCFI34:
ARM GAS  /tmp/ccGTglLX.s 			page 16


 432              		.cfi_def_cfa_offset 4
 433              		.cfi_offset 7, -4
 434 0002 85B0     		sub	sp, sp, #20
 435              	.LCFI35:
 436              		.cfi_def_cfa_offset 24
 437 0004 00AF     		add	r7, sp, #0
 438              	.LCFI36:
 439              		.cfi_def_cfa_register 7
 440 0006 7860     		str	r0, [r7, #4]
 438:Firmware/Drivers/STM32F4xx_HAL_Driver/Src/stm32f4xx_hal_tim.c ****   uint32_t tmpsmcr;
 439:Firmware/Drivers/STM32F4xx_HAL_Driver/Src/stm32f4xx_hal_tim.c **** 
 440:Firmware/Drivers/STM32F4xx_HAL_Driver/Src/stm32f4xx_hal_tim.c ****   /* Check the parameters */
 441:Firmware/Drivers/STM32F4xx_HAL_Driver/Src/stm32f4xx_hal_tim.c ****   assert_param(IS_TIM_INSTANCE(htim->Instance));
 442:Firmware/Drivers/STM32F4xx_HAL_Driver/Src/stm32f4xx_hal_tim.c **** 
 443:Firmware/Drivers/STM32F4xx_HAL_Driver/Src/stm32f4xx_hal_tim.c ****   /* Enable the TIM Update interrupt */
 444:Firmware/Drivers/STM32F4xx_HAL_Driver/Src/stm32f4xx_hal_tim.c ****   __HAL_TIM_ENABLE_IT(htim, TIM_IT_UPDATE);
 441              		.loc 1 444 0
 442 0008 7B68     		ldr	r3, [r7, #4]
 443 000a 1B68     		ldr	r3, [r3]
 444 000c DA68     		ldr	r2, [r3, #12]
 445 000e 7B68     		ldr	r3, [r7, #4]
 446 0010 1B68     		ldr	r3, [r3]
 447 0012 42F00102 		orr	r2, r2, #1
 448 0016 DA60     		str	r2, [r3, #12]
 445:Firmware/Drivers/STM32F4xx_HAL_Driver/Src/stm32f4xx_hal_tim.c **** 
 446:Firmware/Drivers/STM32F4xx_HAL_Driver/Src/stm32f4xx_hal_tim.c ****   /* Enable the Peripheral, except in trigger mode where enable is automatically done with trigger 
 447:Firmware/Drivers/STM32F4xx_HAL_Driver/Src/stm32f4xx_hal_tim.c ****   tmpsmcr = htim->Instance->SMCR & TIM_SMCR_SMS;
 449              		.loc 1 447 0
 450 0018 7B68     		ldr	r3, [r7, #4]
 451 001a 1B68     		ldr	r3, [r3]
 452 001c 9B68     		ldr	r3, [r3, #8]
 453 001e 03F00703 		and	r3, r3, #7
 454 0022 FB60     		str	r3, [r7, #12]
 448:Firmware/Drivers/STM32F4xx_HAL_Driver/Src/stm32f4xx_hal_tim.c ****   if (!IS_TIM_SLAVEMODE_TRIGGER_ENABLED(tmpsmcr))
 455              		.loc 1 448 0
 456 0024 FB68     		ldr	r3, [r7, #12]
 457 0026 062B     		cmp	r3, #6
 458 0028 07D0     		beq	.L17
 449:Firmware/Drivers/STM32F4xx_HAL_Driver/Src/stm32f4xx_hal_tim.c ****   {
 450:Firmware/Drivers/STM32F4xx_HAL_Driver/Src/stm32f4xx_hal_tim.c ****     __HAL_TIM_ENABLE(htim);
 459              		.loc 1 450 0
 460 002a 7B68     		ldr	r3, [r7, #4]
 461 002c 1B68     		ldr	r3, [r3]
 462 002e 1A68     		ldr	r2, [r3]
 463 0030 7B68     		ldr	r3, [r7, #4]
 464 0032 1B68     		ldr	r3, [r3]
 465 0034 42F00102 		orr	r2, r2, #1
 466 0038 1A60     		str	r2, [r3]
 467              	.L17:
 451:Firmware/Drivers/STM32F4xx_HAL_Driver/Src/stm32f4xx_hal_tim.c ****   }
 452:Firmware/Drivers/STM32F4xx_HAL_Driver/Src/stm32f4xx_hal_tim.c **** 
 453:Firmware/Drivers/STM32F4xx_HAL_Driver/Src/stm32f4xx_hal_tim.c ****   /* Return function status */
 454:Firmware/Drivers/STM32F4xx_HAL_Driver/Src/stm32f4xx_hal_tim.c ****   return HAL_OK;
 468              		.loc 1 454 0
 469 003a 0023     		movs	r3, #0
 455:Firmware/Drivers/STM32F4xx_HAL_Driver/Src/stm32f4xx_hal_tim.c **** }
 470              		.loc 1 455 0
ARM GAS  /tmp/ccGTglLX.s 			page 17


 471 003c 1846     		mov	r0, r3
 472 003e 1437     		adds	r7, r7, #20
 473              	.LCFI37:
 474              		.cfi_def_cfa_offset 4
 475 0040 BD46     		mov	sp, r7
 476              	.LCFI38:
 477              		.cfi_def_cfa_register 13
 478              		@ sp needed
 479 0042 5DF8047B 		ldr	r7, [sp], #4
 480              	.LCFI39:
 481              		.cfi_restore 7
 482              		.cfi_def_cfa_offset 0
 483 0046 7047     		bx	lr
 484              		.cfi_endproc
 485              	.LFE136:
 487              		.section	.text.HAL_TIM_Base_Stop_IT,"ax",%progbits
 488              		.align	1
 489              		.global	HAL_TIM_Base_Stop_IT
 490              		.syntax unified
 491              		.thumb
 492              		.thumb_func
 493              		.fpu fpv4-sp-d16
 495              	HAL_TIM_Base_Stop_IT:
 496              	.LFB137:
 456:Firmware/Drivers/STM32F4xx_HAL_Driver/Src/stm32f4xx_hal_tim.c **** 
 457:Firmware/Drivers/STM32F4xx_HAL_Driver/Src/stm32f4xx_hal_tim.c **** /**
 458:Firmware/Drivers/STM32F4xx_HAL_Driver/Src/stm32f4xx_hal_tim.c ****   * @brief  Stops the TIM Base generation in interrupt mode.
 459:Firmware/Drivers/STM32F4xx_HAL_Driver/Src/stm32f4xx_hal_tim.c ****   * @param  htim TIM Base handle
 460:Firmware/Drivers/STM32F4xx_HAL_Driver/Src/stm32f4xx_hal_tim.c ****   * @retval HAL status
 461:Firmware/Drivers/STM32F4xx_HAL_Driver/Src/stm32f4xx_hal_tim.c ****   */
 462:Firmware/Drivers/STM32F4xx_HAL_Driver/Src/stm32f4xx_hal_tim.c **** HAL_StatusTypeDef HAL_TIM_Base_Stop_IT(TIM_HandleTypeDef *htim)
 463:Firmware/Drivers/STM32F4xx_HAL_Driver/Src/stm32f4xx_hal_tim.c **** {
 497              		.loc 1 463 0
 498              		.cfi_startproc
 499              		@ args = 0, pretend = 0, frame = 8
 500              		@ frame_needed = 1, uses_anonymous_args = 0
 501              		@ link register save eliminated.
 502 0000 80B4     		push	{r7}
 503              	.LCFI40:
 504              		.cfi_def_cfa_offset 4
 505              		.cfi_offset 7, -4
 506 0002 83B0     		sub	sp, sp, #12
 507              	.LCFI41:
 508              		.cfi_def_cfa_offset 16
 509 0004 00AF     		add	r7, sp, #0
 510              	.LCFI42:
 511              		.cfi_def_cfa_register 7
 512 0006 7860     		str	r0, [r7, #4]
 464:Firmware/Drivers/STM32F4xx_HAL_Driver/Src/stm32f4xx_hal_tim.c ****   /* Check the parameters */
 465:Firmware/Drivers/STM32F4xx_HAL_Driver/Src/stm32f4xx_hal_tim.c ****   assert_param(IS_TIM_INSTANCE(htim->Instance));
 466:Firmware/Drivers/STM32F4xx_HAL_Driver/Src/stm32f4xx_hal_tim.c ****   /* Disable the TIM Update interrupt */
 467:Firmware/Drivers/STM32F4xx_HAL_Driver/Src/stm32f4xx_hal_tim.c ****   __HAL_TIM_DISABLE_IT(htim, TIM_IT_UPDATE);
 513              		.loc 1 467 0
 514 0008 7B68     		ldr	r3, [r7, #4]
 515 000a 1B68     		ldr	r3, [r3]
 516 000c DA68     		ldr	r2, [r3, #12]
 517 000e 7B68     		ldr	r3, [r7, #4]
ARM GAS  /tmp/ccGTglLX.s 			page 18


 518 0010 1B68     		ldr	r3, [r3]
 519 0012 22F00102 		bic	r2, r2, #1
 520 0016 DA60     		str	r2, [r3, #12]
 468:Firmware/Drivers/STM32F4xx_HAL_Driver/Src/stm32f4xx_hal_tim.c **** 
 469:Firmware/Drivers/STM32F4xx_HAL_Driver/Src/stm32f4xx_hal_tim.c ****   /* Disable the Peripheral */
 470:Firmware/Drivers/STM32F4xx_HAL_Driver/Src/stm32f4xx_hal_tim.c ****   __HAL_TIM_DISABLE(htim);
 521              		.loc 1 470 0
 522 0018 7B68     		ldr	r3, [r7, #4]
 523 001a 1B68     		ldr	r3, [r3]
 524 001c 1A6A     		ldr	r2, [r3, #32]
 525 001e 41F21113 		movw	r3, #4369
 526 0022 1340     		ands	r3, r3, r2
 527 0024 002B     		cmp	r3, #0
 528 0026 0FD1     		bne	.L20
 529              		.loc 1 470 0 is_stmt 0 discriminator 1
 530 0028 7B68     		ldr	r3, [r7, #4]
 531 002a 1B68     		ldr	r3, [r3]
 532 002c 1A6A     		ldr	r2, [r3, #32]
 533 002e 40F24443 		movw	r3, #1092
 534 0032 1340     		ands	r3, r3, r2
 535 0034 002B     		cmp	r3, #0
 536 0036 07D1     		bne	.L20
 537              		.loc 1 470 0 discriminator 2
 538 0038 7B68     		ldr	r3, [r7, #4]
 539 003a 1B68     		ldr	r3, [r3]
 540 003c 1A68     		ldr	r2, [r3]
 541 003e 7B68     		ldr	r3, [r7, #4]
 542 0040 1B68     		ldr	r3, [r3]
 543 0042 22F00102 		bic	r2, r2, #1
 544 0046 1A60     		str	r2, [r3]
 545              	.L20:
 471:Firmware/Drivers/STM32F4xx_HAL_Driver/Src/stm32f4xx_hal_tim.c **** 
 472:Firmware/Drivers/STM32F4xx_HAL_Driver/Src/stm32f4xx_hal_tim.c ****   /* Return function status */
 473:Firmware/Drivers/STM32F4xx_HAL_Driver/Src/stm32f4xx_hal_tim.c ****   return HAL_OK;
 546              		.loc 1 473 0 is_stmt 1
 547 0048 0023     		movs	r3, #0
 474:Firmware/Drivers/STM32F4xx_HAL_Driver/Src/stm32f4xx_hal_tim.c **** }
 548              		.loc 1 474 0
 549 004a 1846     		mov	r0, r3
 550 004c 0C37     		adds	r7, r7, #12
 551              	.LCFI43:
 552              		.cfi_def_cfa_offset 4
 553 004e BD46     		mov	sp, r7
 554              	.LCFI44:
 555              		.cfi_def_cfa_register 13
 556              		@ sp needed
 557 0050 5DF8047B 		ldr	r7, [sp], #4
 558              	.LCFI45:
 559              		.cfi_restore 7
 560              		.cfi_def_cfa_offset 0
 561 0054 7047     		bx	lr
 562              		.cfi_endproc
 563              	.LFE137:
 565              		.section	.text.HAL_TIM_Base_Start_DMA,"ax",%progbits
 566              		.align	1
 567              		.global	HAL_TIM_Base_Start_DMA
 568              		.syntax unified
ARM GAS  /tmp/ccGTglLX.s 			page 19


 569              		.thumb
 570              		.thumb_func
 571              		.fpu fpv4-sp-d16
 573              	HAL_TIM_Base_Start_DMA:
 574              	.LFB138:
 475:Firmware/Drivers/STM32F4xx_HAL_Driver/Src/stm32f4xx_hal_tim.c **** 
 476:Firmware/Drivers/STM32F4xx_HAL_Driver/Src/stm32f4xx_hal_tim.c **** /**
 477:Firmware/Drivers/STM32F4xx_HAL_Driver/Src/stm32f4xx_hal_tim.c ****   * @brief  Starts the TIM Base generation in DMA mode.
 478:Firmware/Drivers/STM32F4xx_HAL_Driver/Src/stm32f4xx_hal_tim.c ****   * @param  htim TIM Base handle
 479:Firmware/Drivers/STM32F4xx_HAL_Driver/Src/stm32f4xx_hal_tim.c ****   * @param  pData The source Buffer address.
 480:Firmware/Drivers/STM32F4xx_HAL_Driver/Src/stm32f4xx_hal_tim.c ****   * @param  Length The length of data to be transferred from memory to peripheral.
 481:Firmware/Drivers/STM32F4xx_HAL_Driver/Src/stm32f4xx_hal_tim.c ****   * @retval HAL status
 482:Firmware/Drivers/STM32F4xx_HAL_Driver/Src/stm32f4xx_hal_tim.c ****   */
 483:Firmware/Drivers/STM32F4xx_HAL_Driver/Src/stm32f4xx_hal_tim.c **** HAL_StatusTypeDef HAL_TIM_Base_Start_DMA(TIM_HandleTypeDef *htim, uint32_t *pData, uint16_t Length)
 484:Firmware/Drivers/STM32F4xx_HAL_Driver/Src/stm32f4xx_hal_tim.c **** {
 575              		.loc 1 484 0
 576              		.cfi_startproc
 577              		@ args = 0, pretend = 0, frame = 24
 578              		@ frame_needed = 1, uses_anonymous_args = 0
 579 0000 80B5     		push	{r7, lr}
 580              	.LCFI46:
 581              		.cfi_def_cfa_offset 8
 582              		.cfi_offset 7, -8
 583              		.cfi_offset 14, -4
 584 0002 86B0     		sub	sp, sp, #24
 585              	.LCFI47:
 586              		.cfi_def_cfa_offset 32
 587 0004 00AF     		add	r7, sp, #0
 588              	.LCFI48:
 589              		.cfi_def_cfa_register 7
 590 0006 F860     		str	r0, [r7, #12]
 591 0008 B960     		str	r1, [r7, #8]
 592 000a 1346     		mov	r3, r2
 593 000c FB80     		strh	r3, [r7, #6]	@ movhi
 485:Firmware/Drivers/STM32F4xx_HAL_Driver/Src/stm32f4xx_hal_tim.c ****   uint32_t tmpsmcr;
 486:Firmware/Drivers/STM32F4xx_HAL_Driver/Src/stm32f4xx_hal_tim.c **** 
 487:Firmware/Drivers/STM32F4xx_HAL_Driver/Src/stm32f4xx_hal_tim.c ****   /* Check the parameters */
 488:Firmware/Drivers/STM32F4xx_HAL_Driver/Src/stm32f4xx_hal_tim.c ****   assert_param(IS_TIM_DMA_INSTANCE(htim->Instance));
 489:Firmware/Drivers/STM32F4xx_HAL_Driver/Src/stm32f4xx_hal_tim.c **** 
 490:Firmware/Drivers/STM32F4xx_HAL_Driver/Src/stm32f4xx_hal_tim.c ****   if (htim->State == HAL_TIM_STATE_BUSY)
 594              		.loc 1 490 0
 595 000e FB68     		ldr	r3, [r7, #12]
 596 0010 93F83D30 		ldrb	r3, [r3, #61]
 597 0014 DBB2     		uxtb	r3, r3
 598 0016 022B     		cmp	r3, #2
 599 0018 01D1     		bne	.L23
 491:Firmware/Drivers/STM32F4xx_HAL_Driver/Src/stm32f4xx_hal_tim.c ****   {
 492:Firmware/Drivers/STM32F4xx_HAL_Driver/Src/stm32f4xx_hal_tim.c ****     return HAL_BUSY;
 600              		.loc 1 492 0
 601 001a 0223     		movs	r3, #2
 602 001c 46E0     		b	.L24
 603              	.L23:
 493:Firmware/Drivers/STM32F4xx_HAL_Driver/Src/stm32f4xx_hal_tim.c ****   }
 494:Firmware/Drivers/STM32F4xx_HAL_Driver/Src/stm32f4xx_hal_tim.c ****   else if (htim->State == HAL_TIM_STATE_READY)
 604              		.loc 1 494 0
 605 001e FB68     		ldr	r3, [r7, #12]
 606 0020 93F83D30 		ldrb	r3, [r3, #61]
ARM GAS  /tmp/ccGTglLX.s 			page 20


 607 0024 DBB2     		uxtb	r3, r3
 608 0026 012B     		cmp	r3, #1
 609 0028 0BD1     		bne	.L25
 495:Firmware/Drivers/STM32F4xx_HAL_Driver/Src/stm32f4xx_hal_tim.c ****   {
 496:Firmware/Drivers/STM32F4xx_HAL_Driver/Src/stm32f4xx_hal_tim.c ****     if ((pData == NULL) && (Length > 0U))
 610              		.loc 1 496 0
 611 002a BB68     		ldr	r3, [r7, #8]
 612 002c 002B     		cmp	r3, #0
 613 002e 04D1     		bne	.L26
 614              		.loc 1 496 0 is_stmt 0 discriminator 1
 615 0030 FB88     		ldrh	r3, [r7, #6]
 616 0032 002B     		cmp	r3, #0
 617 0034 01D0     		beq	.L26
 497:Firmware/Drivers/STM32F4xx_HAL_Driver/Src/stm32f4xx_hal_tim.c ****     {
 498:Firmware/Drivers/STM32F4xx_HAL_Driver/Src/stm32f4xx_hal_tim.c ****       return HAL_ERROR;
 618              		.loc 1 498 0 is_stmt 1
 619 0036 0123     		movs	r3, #1
 620 0038 38E0     		b	.L24
 621              	.L26:
 499:Firmware/Drivers/STM32F4xx_HAL_Driver/Src/stm32f4xx_hal_tim.c ****     }
 500:Firmware/Drivers/STM32F4xx_HAL_Driver/Src/stm32f4xx_hal_tim.c ****     else
 501:Firmware/Drivers/STM32F4xx_HAL_Driver/Src/stm32f4xx_hal_tim.c ****     {
 502:Firmware/Drivers/STM32F4xx_HAL_Driver/Src/stm32f4xx_hal_tim.c ****       htim->State = HAL_TIM_STATE_BUSY;
 622              		.loc 1 502 0
 623 003a FB68     		ldr	r3, [r7, #12]
 624 003c 0222     		movs	r2, #2
 625 003e 83F83D20 		strb	r2, [r3, #61]
 626              	.L25:
 503:Firmware/Drivers/STM32F4xx_HAL_Driver/Src/stm32f4xx_hal_tim.c ****     }
 504:Firmware/Drivers/STM32F4xx_HAL_Driver/Src/stm32f4xx_hal_tim.c ****   }
 505:Firmware/Drivers/STM32F4xx_HAL_Driver/Src/stm32f4xx_hal_tim.c ****   else
 506:Firmware/Drivers/STM32F4xx_HAL_Driver/Src/stm32f4xx_hal_tim.c ****   {
 507:Firmware/Drivers/STM32F4xx_HAL_Driver/Src/stm32f4xx_hal_tim.c ****     /* nothing to do */
 508:Firmware/Drivers/STM32F4xx_HAL_Driver/Src/stm32f4xx_hal_tim.c ****   }
 509:Firmware/Drivers/STM32F4xx_HAL_Driver/Src/stm32f4xx_hal_tim.c **** 
 510:Firmware/Drivers/STM32F4xx_HAL_Driver/Src/stm32f4xx_hal_tim.c ****   /* Set the DMA Period elapsed callbacks */
 511:Firmware/Drivers/STM32F4xx_HAL_Driver/Src/stm32f4xx_hal_tim.c ****   htim->hdma[TIM_DMA_ID_UPDATE]->XferCpltCallback = TIM_DMAPeriodElapsedCplt;
 627              		.loc 1 511 0
 628 0042 FB68     		ldr	r3, [r7, #12]
 629 0044 1B6A     		ldr	r3, [r3, #32]
 630 0046 1B4A     		ldr	r2, .L29
 631 0048 DA63     		str	r2, [r3, #60]
 512:Firmware/Drivers/STM32F4xx_HAL_Driver/Src/stm32f4xx_hal_tim.c ****   htim->hdma[TIM_DMA_ID_UPDATE]->XferHalfCpltCallback = TIM_DMAPeriodElapsedHalfCplt;
 632              		.loc 1 512 0
 633 004a FB68     		ldr	r3, [r7, #12]
 634 004c 1B6A     		ldr	r3, [r3, #32]
 635 004e 1A4A     		ldr	r2, .L29+4
 636 0050 1A64     		str	r2, [r3, #64]
 513:Firmware/Drivers/STM32F4xx_HAL_Driver/Src/stm32f4xx_hal_tim.c **** 
 514:Firmware/Drivers/STM32F4xx_HAL_Driver/Src/stm32f4xx_hal_tim.c ****   /* Set the DMA error callback */
 515:Firmware/Drivers/STM32F4xx_HAL_Driver/Src/stm32f4xx_hal_tim.c ****   htim->hdma[TIM_DMA_ID_UPDATE]->XferErrorCallback = TIM_DMAError ;
 637              		.loc 1 515 0
 638 0052 FB68     		ldr	r3, [r7, #12]
 639 0054 1B6A     		ldr	r3, [r3, #32]
 640 0056 194A     		ldr	r2, .L29+8
 641 0058 DA64     		str	r2, [r3, #76]
 516:Firmware/Drivers/STM32F4xx_HAL_Driver/Src/stm32f4xx_hal_tim.c **** 
ARM GAS  /tmp/ccGTglLX.s 			page 21


 517:Firmware/Drivers/STM32F4xx_HAL_Driver/Src/stm32f4xx_hal_tim.c ****   /* Enable the DMA stream */
 518:Firmware/Drivers/STM32F4xx_HAL_Driver/Src/stm32f4xx_hal_tim.c ****   if (HAL_DMA_Start_IT(htim->hdma[TIM_DMA_ID_UPDATE], (uint32_t)pData, (uint32_t)&htim->Instance->A
 642              		.loc 1 518 0
 643 005a FB68     		ldr	r3, [r7, #12]
 644 005c 186A     		ldr	r0, [r3, #32]
 645 005e B968     		ldr	r1, [r7, #8]
 646 0060 FB68     		ldr	r3, [r7, #12]
 647 0062 1B68     		ldr	r3, [r3]
 648 0064 2C33     		adds	r3, r3, #44
 649 0066 1A46     		mov	r2, r3
 650 0068 FB88     		ldrh	r3, [r7, #6]
 651 006a FFF7FEFF 		bl	HAL_DMA_Start_IT
 652 006e 0346     		mov	r3, r0
 653 0070 002B     		cmp	r3, #0
 654 0072 01D0     		beq	.L27
 519:Firmware/Drivers/STM32F4xx_HAL_Driver/Src/stm32f4xx_hal_tim.c ****   {
 520:Firmware/Drivers/STM32F4xx_HAL_Driver/Src/stm32f4xx_hal_tim.c ****     return HAL_ERROR;
 655              		.loc 1 520 0
 656 0074 0123     		movs	r3, #1
 657 0076 19E0     		b	.L24
 658              	.L27:
 521:Firmware/Drivers/STM32F4xx_HAL_Driver/Src/stm32f4xx_hal_tim.c ****   }
 522:Firmware/Drivers/STM32F4xx_HAL_Driver/Src/stm32f4xx_hal_tim.c **** 
 523:Firmware/Drivers/STM32F4xx_HAL_Driver/Src/stm32f4xx_hal_tim.c ****   /* Enable the TIM Update DMA request */
 524:Firmware/Drivers/STM32F4xx_HAL_Driver/Src/stm32f4xx_hal_tim.c ****   __HAL_TIM_ENABLE_DMA(htim, TIM_DMA_UPDATE);
 659              		.loc 1 524 0
 660 0078 FB68     		ldr	r3, [r7, #12]
 661 007a 1B68     		ldr	r3, [r3]
 662 007c DA68     		ldr	r2, [r3, #12]
 663 007e FB68     		ldr	r3, [r7, #12]
 664 0080 1B68     		ldr	r3, [r3]
 665 0082 42F48072 		orr	r2, r2, #256
 666 0086 DA60     		str	r2, [r3, #12]
 525:Firmware/Drivers/STM32F4xx_HAL_Driver/Src/stm32f4xx_hal_tim.c **** 
 526:Firmware/Drivers/STM32F4xx_HAL_Driver/Src/stm32f4xx_hal_tim.c ****   /* Enable the Peripheral, except in trigger mode where enable is automatically done with trigger 
 527:Firmware/Drivers/STM32F4xx_HAL_Driver/Src/stm32f4xx_hal_tim.c ****   tmpsmcr = htim->Instance->SMCR & TIM_SMCR_SMS;
 667              		.loc 1 527 0
 668 0088 FB68     		ldr	r3, [r7, #12]
 669 008a 1B68     		ldr	r3, [r3]
 670 008c 9B68     		ldr	r3, [r3, #8]
 671 008e 03F00703 		and	r3, r3, #7
 672 0092 7B61     		str	r3, [r7, #20]
 528:Firmware/Drivers/STM32F4xx_HAL_Driver/Src/stm32f4xx_hal_tim.c ****   if (!IS_TIM_SLAVEMODE_TRIGGER_ENABLED(tmpsmcr))
 673              		.loc 1 528 0
 674 0094 7B69     		ldr	r3, [r7, #20]
 675 0096 062B     		cmp	r3, #6
 676 0098 07D0     		beq	.L28
 529:Firmware/Drivers/STM32F4xx_HAL_Driver/Src/stm32f4xx_hal_tim.c ****   {
 530:Firmware/Drivers/STM32F4xx_HAL_Driver/Src/stm32f4xx_hal_tim.c ****     __HAL_TIM_ENABLE(htim);
 677              		.loc 1 530 0
 678 009a FB68     		ldr	r3, [r7, #12]
 679 009c 1B68     		ldr	r3, [r3]
 680 009e 1A68     		ldr	r2, [r3]
 681 00a0 FB68     		ldr	r3, [r7, #12]
 682 00a2 1B68     		ldr	r3, [r3]
 683 00a4 42F00102 		orr	r2, r2, #1
 684 00a8 1A60     		str	r2, [r3]
ARM GAS  /tmp/ccGTglLX.s 			page 22


 685              	.L28:
 531:Firmware/Drivers/STM32F4xx_HAL_Driver/Src/stm32f4xx_hal_tim.c ****   }
 532:Firmware/Drivers/STM32F4xx_HAL_Driver/Src/stm32f4xx_hal_tim.c **** 
 533:Firmware/Drivers/STM32F4xx_HAL_Driver/Src/stm32f4xx_hal_tim.c ****   /* Return function status */
 534:Firmware/Drivers/STM32F4xx_HAL_Driver/Src/stm32f4xx_hal_tim.c ****   return HAL_OK;
 686              		.loc 1 534 0
 687 00aa 0023     		movs	r3, #0
 688              	.L24:
 535:Firmware/Drivers/STM32F4xx_HAL_Driver/Src/stm32f4xx_hal_tim.c **** }
 689              		.loc 1 535 0
 690 00ac 1846     		mov	r0, r3
 691 00ae 1837     		adds	r7, r7, #24
 692              	.LCFI49:
 693              		.cfi_def_cfa_offset 8
 694 00b0 BD46     		mov	sp, r7
 695              	.LCFI50:
 696              		.cfi_def_cfa_register 13
 697              		@ sp needed
 698 00b2 80BD     		pop	{r7, pc}
 699              	.L30:
 700              		.align	2
 701              	.L29:
 702 00b4 00000000 		.word	TIM_DMAPeriodElapsedCplt
 703 00b8 00000000 		.word	TIM_DMAPeriodElapsedHalfCplt
 704 00bc 00000000 		.word	TIM_DMAError
 705              		.cfi_endproc
 706              	.LFE138:
 708              		.section	.text.HAL_TIM_Base_Stop_DMA,"ax",%progbits
 709              		.align	1
 710              		.global	HAL_TIM_Base_Stop_DMA
 711              		.syntax unified
 712              		.thumb
 713              		.thumb_func
 714              		.fpu fpv4-sp-d16
 716              	HAL_TIM_Base_Stop_DMA:
 717              	.LFB139:
 536:Firmware/Drivers/STM32F4xx_HAL_Driver/Src/stm32f4xx_hal_tim.c **** 
 537:Firmware/Drivers/STM32F4xx_HAL_Driver/Src/stm32f4xx_hal_tim.c **** /**
 538:Firmware/Drivers/STM32F4xx_HAL_Driver/Src/stm32f4xx_hal_tim.c ****   * @brief  Stops the TIM Base generation in DMA mode.
 539:Firmware/Drivers/STM32F4xx_HAL_Driver/Src/stm32f4xx_hal_tim.c ****   * @param  htim TIM Base handle
 540:Firmware/Drivers/STM32F4xx_HAL_Driver/Src/stm32f4xx_hal_tim.c ****   * @retval HAL status
 541:Firmware/Drivers/STM32F4xx_HAL_Driver/Src/stm32f4xx_hal_tim.c ****   */
 542:Firmware/Drivers/STM32F4xx_HAL_Driver/Src/stm32f4xx_hal_tim.c **** HAL_StatusTypeDef HAL_TIM_Base_Stop_DMA(TIM_HandleTypeDef *htim)
 543:Firmware/Drivers/STM32F4xx_HAL_Driver/Src/stm32f4xx_hal_tim.c **** {
 718              		.loc 1 543 0
 719              		.cfi_startproc
 720              		@ args = 0, pretend = 0, frame = 8
 721              		@ frame_needed = 1, uses_anonymous_args = 0
 722 0000 80B5     		push	{r7, lr}
 723              	.LCFI51:
 724              		.cfi_def_cfa_offset 8
 725              		.cfi_offset 7, -8
 726              		.cfi_offset 14, -4
 727 0002 82B0     		sub	sp, sp, #8
 728              	.LCFI52:
 729              		.cfi_def_cfa_offset 16
 730 0004 00AF     		add	r7, sp, #0
ARM GAS  /tmp/ccGTglLX.s 			page 23


 731              	.LCFI53:
 732              		.cfi_def_cfa_register 7
 733 0006 7860     		str	r0, [r7, #4]
 544:Firmware/Drivers/STM32F4xx_HAL_Driver/Src/stm32f4xx_hal_tim.c ****   /* Check the parameters */
 545:Firmware/Drivers/STM32F4xx_HAL_Driver/Src/stm32f4xx_hal_tim.c ****   assert_param(IS_TIM_DMA_INSTANCE(htim->Instance));
 546:Firmware/Drivers/STM32F4xx_HAL_Driver/Src/stm32f4xx_hal_tim.c **** 
 547:Firmware/Drivers/STM32F4xx_HAL_Driver/Src/stm32f4xx_hal_tim.c ****   /* Disable the TIM Update DMA request */
 548:Firmware/Drivers/STM32F4xx_HAL_Driver/Src/stm32f4xx_hal_tim.c ****   __HAL_TIM_DISABLE_DMA(htim, TIM_DMA_UPDATE);
 734              		.loc 1 548 0
 735 0008 7B68     		ldr	r3, [r7, #4]
 736 000a 1B68     		ldr	r3, [r3]
 737 000c DA68     		ldr	r2, [r3, #12]
 738 000e 7B68     		ldr	r3, [r7, #4]
 739 0010 1B68     		ldr	r3, [r3]
 740 0012 22F48072 		bic	r2, r2, #256
 741 0016 DA60     		str	r2, [r3, #12]
 549:Firmware/Drivers/STM32F4xx_HAL_Driver/Src/stm32f4xx_hal_tim.c **** 
 550:Firmware/Drivers/STM32F4xx_HAL_Driver/Src/stm32f4xx_hal_tim.c ****   (void)HAL_DMA_Abort_IT(htim->hdma[TIM_DMA_ID_UPDATE]);
 742              		.loc 1 550 0
 743 0018 7B68     		ldr	r3, [r7, #4]
 744 001a 1B6A     		ldr	r3, [r3, #32]
 745 001c 1846     		mov	r0, r3
 746 001e FFF7FEFF 		bl	HAL_DMA_Abort_IT
 551:Firmware/Drivers/STM32F4xx_HAL_Driver/Src/stm32f4xx_hal_tim.c **** 
 552:Firmware/Drivers/STM32F4xx_HAL_Driver/Src/stm32f4xx_hal_tim.c ****   /* Disable the Peripheral */
 553:Firmware/Drivers/STM32F4xx_HAL_Driver/Src/stm32f4xx_hal_tim.c ****   __HAL_TIM_DISABLE(htim);
 747              		.loc 1 553 0
 748 0022 7B68     		ldr	r3, [r7, #4]
 749 0024 1B68     		ldr	r3, [r3]
 750 0026 1A6A     		ldr	r2, [r3, #32]
 751 0028 41F21113 		movw	r3, #4369
 752 002c 1340     		ands	r3, r3, r2
 753 002e 002B     		cmp	r3, #0
 754 0030 0FD1     		bne	.L32
 755              		.loc 1 553 0 is_stmt 0 discriminator 1
 756 0032 7B68     		ldr	r3, [r7, #4]
 757 0034 1B68     		ldr	r3, [r3]
 758 0036 1A6A     		ldr	r2, [r3, #32]
 759 0038 40F24443 		movw	r3, #1092
 760 003c 1340     		ands	r3, r3, r2
 761 003e 002B     		cmp	r3, #0
 762 0040 07D1     		bne	.L32
 763              		.loc 1 553 0 discriminator 2
 764 0042 7B68     		ldr	r3, [r7, #4]
 765 0044 1B68     		ldr	r3, [r3]
 766 0046 1A68     		ldr	r2, [r3]
 767 0048 7B68     		ldr	r3, [r7, #4]
 768 004a 1B68     		ldr	r3, [r3]
 769 004c 22F00102 		bic	r2, r2, #1
 770 0050 1A60     		str	r2, [r3]
 771              	.L32:
 554:Firmware/Drivers/STM32F4xx_HAL_Driver/Src/stm32f4xx_hal_tim.c **** 
 555:Firmware/Drivers/STM32F4xx_HAL_Driver/Src/stm32f4xx_hal_tim.c ****   /* Change the htim state */
 556:Firmware/Drivers/STM32F4xx_HAL_Driver/Src/stm32f4xx_hal_tim.c ****   htim->State = HAL_TIM_STATE_READY;
 772              		.loc 1 556 0 is_stmt 1
 773 0052 7B68     		ldr	r3, [r7, #4]
 774 0054 0122     		movs	r2, #1
ARM GAS  /tmp/ccGTglLX.s 			page 24


 775 0056 83F83D20 		strb	r2, [r3, #61]
 557:Firmware/Drivers/STM32F4xx_HAL_Driver/Src/stm32f4xx_hal_tim.c **** 
 558:Firmware/Drivers/STM32F4xx_HAL_Driver/Src/stm32f4xx_hal_tim.c ****   /* Return function status */
 559:Firmware/Drivers/STM32F4xx_HAL_Driver/Src/stm32f4xx_hal_tim.c ****   return HAL_OK;
 776              		.loc 1 559 0
 777 005a 0023     		movs	r3, #0
 560:Firmware/Drivers/STM32F4xx_HAL_Driver/Src/stm32f4xx_hal_tim.c **** }
 778              		.loc 1 560 0
 779 005c 1846     		mov	r0, r3
 780 005e 0837     		adds	r7, r7, #8
 781              	.LCFI54:
 782              		.cfi_def_cfa_offset 8
 783 0060 BD46     		mov	sp, r7
 784              	.LCFI55:
 785              		.cfi_def_cfa_register 13
 786              		@ sp needed
 787 0062 80BD     		pop	{r7, pc}
 788              		.cfi_endproc
 789              	.LFE139:
 791              		.section	.text.HAL_TIM_OC_Init,"ax",%progbits
 792              		.align	1
 793              		.global	HAL_TIM_OC_Init
 794              		.syntax unified
 795              		.thumb
 796              		.thumb_func
 797              		.fpu fpv4-sp-d16
 799              	HAL_TIM_OC_Init:
 800              	.LFB140:
 561:Firmware/Drivers/STM32F4xx_HAL_Driver/Src/stm32f4xx_hal_tim.c **** 
 562:Firmware/Drivers/STM32F4xx_HAL_Driver/Src/stm32f4xx_hal_tim.c **** /**
 563:Firmware/Drivers/STM32F4xx_HAL_Driver/Src/stm32f4xx_hal_tim.c ****   * @}
 564:Firmware/Drivers/STM32F4xx_HAL_Driver/Src/stm32f4xx_hal_tim.c ****   */
 565:Firmware/Drivers/STM32F4xx_HAL_Driver/Src/stm32f4xx_hal_tim.c **** 
 566:Firmware/Drivers/STM32F4xx_HAL_Driver/Src/stm32f4xx_hal_tim.c **** /** @defgroup TIM_Exported_Functions_Group2 TIM Output Compare functions
 567:Firmware/Drivers/STM32F4xx_HAL_Driver/Src/stm32f4xx_hal_tim.c ****   *  @brief    TIM Output Compare functions
 568:Firmware/Drivers/STM32F4xx_HAL_Driver/Src/stm32f4xx_hal_tim.c ****   *
 569:Firmware/Drivers/STM32F4xx_HAL_Driver/Src/stm32f4xx_hal_tim.c **** @verbatim
 570:Firmware/Drivers/STM32F4xx_HAL_Driver/Src/stm32f4xx_hal_tim.c ****   ==============================================================================
 571:Firmware/Drivers/STM32F4xx_HAL_Driver/Src/stm32f4xx_hal_tim.c ****                   ##### TIM Output Compare functions #####
 572:Firmware/Drivers/STM32F4xx_HAL_Driver/Src/stm32f4xx_hal_tim.c ****   ==============================================================================
 573:Firmware/Drivers/STM32F4xx_HAL_Driver/Src/stm32f4xx_hal_tim.c ****   [..]
 574:Firmware/Drivers/STM32F4xx_HAL_Driver/Src/stm32f4xx_hal_tim.c ****     This section provides functions allowing to:
 575:Firmware/Drivers/STM32F4xx_HAL_Driver/Src/stm32f4xx_hal_tim.c ****     (+) Initialize and configure the TIM Output Compare.
 576:Firmware/Drivers/STM32F4xx_HAL_Driver/Src/stm32f4xx_hal_tim.c ****     (+) De-initialize the TIM Output Compare.
 577:Firmware/Drivers/STM32F4xx_HAL_Driver/Src/stm32f4xx_hal_tim.c ****     (+) Start the TIM Output Compare.
 578:Firmware/Drivers/STM32F4xx_HAL_Driver/Src/stm32f4xx_hal_tim.c ****     (+) Stop the TIM Output Compare.
 579:Firmware/Drivers/STM32F4xx_HAL_Driver/Src/stm32f4xx_hal_tim.c ****     (+) Start the TIM Output Compare and enable interrupt.
 580:Firmware/Drivers/STM32F4xx_HAL_Driver/Src/stm32f4xx_hal_tim.c ****     (+) Stop the TIM Output Compare and disable interrupt.
 581:Firmware/Drivers/STM32F4xx_HAL_Driver/Src/stm32f4xx_hal_tim.c ****     (+) Start the TIM Output Compare and enable DMA transfer.
 582:Firmware/Drivers/STM32F4xx_HAL_Driver/Src/stm32f4xx_hal_tim.c ****     (+) Stop the TIM Output Compare and disable DMA transfer.
 583:Firmware/Drivers/STM32F4xx_HAL_Driver/Src/stm32f4xx_hal_tim.c **** 
 584:Firmware/Drivers/STM32F4xx_HAL_Driver/Src/stm32f4xx_hal_tim.c **** @endverbatim
 585:Firmware/Drivers/STM32F4xx_HAL_Driver/Src/stm32f4xx_hal_tim.c ****   * @{
 586:Firmware/Drivers/STM32F4xx_HAL_Driver/Src/stm32f4xx_hal_tim.c ****   */
 587:Firmware/Drivers/STM32F4xx_HAL_Driver/Src/stm32f4xx_hal_tim.c **** /**
 588:Firmware/Drivers/STM32F4xx_HAL_Driver/Src/stm32f4xx_hal_tim.c ****   * @brief  Initializes the TIM Output Compare according to the specified
 589:Firmware/Drivers/STM32F4xx_HAL_Driver/Src/stm32f4xx_hal_tim.c ****   *         parameters in the TIM_HandleTypeDef and initializes the associated handle.
ARM GAS  /tmp/ccGTglLX.s 			page 25


 590:Firmware/Drivers/STM32F4xx_HAL_Driver/Src/stm32f4xx_hal_tim.c ****   * @note   Switching from Center Aligned counter mode to Edge counter mode (or reverse)
 591:Firmware/Drivers/STM32F4xx_HAL_Driver/Src/stm32f4xx_hal_tim.c ****   *         requires a timer reset to avoid unexpected direction
 592:Firmware/Drivers/STM32F4xx_HAL_Driver/Src/stm32f4xx_hal_tim.c ****   *         due to DIR bit readonly in center aligned mode.
 593:Firmware/Drivers/STM32F4xx_HAL_Driver/Src/stm32f4xx_hal_tim.c ****   *         Ex: call @ref HAL_TIM_OC_DeInit() before HAL_TIM_OC_Init()
 594:Firmware/Drivers/STM32F4xx_HAL_Driver/Src/stm32f4xx_hal_tim.c ****   * @param  htim TIM Output Compare handle
 595:Firmware/Drivers/STM32F4xx_HAL_Driver/Src/stm32f4xx_hal_tim.c ****   * @retval HAL status
 596:Firmware/Drivers/STM32F4xx_HAL_Driver/Src/stm32f4xx_hal_tim.c ****   */
 597:Firmware/Drivers/STM32F4xx_HAL_Driver/Src/stm32f4xx_hal_tim.c **** HAL_StatusTypeDef HAL_TIM_OC_Init(TIM_HandleTypeDef *htim)
 598:Firmware/Drivers/STM32F4xx_HAL_Driver/Src/stm32f4xx_hal_tim.c **** {
 801              		.loc 1 598 0
 802              		.cfi_startproc
 803              		@ args = 0, pretend = 0, frame = 8
 804              		@ frame_needed = 1, uses_anonymous_args = 0
 805 0000 80B5     		push	{r7, lr}
 806              	.LCFI56:
 807              		.cfi_def_cfa_offset 8
 808              		.cfi_offset 7, -8
 809              		.cfi_offset 14, -4
 810 0002 82B0     		sub	sp, sp, #8
 811              	.LCFI57:
 812              		.cfi_def_cfa_offset 16
 813 0004 00AF     		add	r7, sp, #0
 814              	.LCFI58:
 815              		.cfi_def_cfa_register 7
 816 0006 7860     		str	r0, [r7, #4]
 599:Firmware/Drivers/STM32F4xx_HAL_Driver/Src/stm32f4xx_hal_tim.c ****   /* Check the TIM handle allocation */
 600:Firmware/Drivers/STM32F4xx_HAL_Driver/Src/stm32f4xx_hal_tim.c ****   if (htim == NULL)
 817              		.loc 1 600 0
 818 0008 7B68     		ldr	r3, [r7, #4]
 819 000a 002B     		cmp	r3, #0
 820 000c 01D1     		bne	.L35
 601:Firmware/Drivers/STM32F4xx_HAL_Driver/Src/stm32f4xx_hal_tim.c ****   {
 602:Firmware/Drivers/STM32F4xx_HAL_Driver/Src/stm32f4xx_hal_tim.c ****     return HAL_ERROR;
 821              		.loc 1 602 0
 822 000e 0123     		movs	r3, #1
 823 0010 1DE0     		b	.L36
 824              	.L35:
 603:Firmware/Drivers/STM32F4xx_HAL_Driver/Src/stm32f4xx_hal_tim.c ****   }
 604:Firmware/Drivers/STM32F4xx_HAL_Driver/Src/stm32f4xx_hal_tim.c **** 
 605:Firmware/Drivers/STM32F4xx_HAL_Driver/Src/stm32f4xx_hal_tim.c ****   /* Check the parameters */
 606:Firmware/Drivers/STM32F4xx_HAL_Driver/Src/stm32f4xx_hal_tim.c ****   assert_param(IS_TIM_INSTANCE(htim->Instance));
 607:Firmware/Drivers/STM32F4xx_HAL_Driver/Src/stm32f4xx_hal_tim.c ****   assert_param(IS_TIM_COUNTER_MODE(htim->Init.CounterMode));
 608:Firmware/Drivers/STM32F4xx_HAL_Driver/Src/stm32f4xx_hal_tim.c ****   assert_param(IS_TIM_CLOCKDIVISION_DIV(htim->Init.ClockDivision));
 609:Firmware/Drivers/STM32F4xx_HAL_Driver/Src/stm32f4xx_hal_tim.c ****   assert_param(IS_TIM_AUTORELOAD_PRELOAD(htim->Init.AutoReloadPreload));
 610:Firmware/Drivers/STM32F4xx_HAL_Driver/Src/stm32f4xx_hal_tim.c **** 
 611:Firmware/Drivers/STM32F4xx_HAL_Driver/Src/stm32f4xx_hal_tim.c ****   if (htim->State == HAL_TIM_STATE_RESET)
 825              		.loc 1 611 0
 826 0012 7B68     		ldr	r3, [r7, #4]
 827 0014 93F83D30 		ldrb	r3, [r3, #61]
 828 0018 DBB2     		uxtb	r3, r3
 829 001a 002B     		cmp	r3, #0
 830 001c 06D1     		bne	.L37
 612:Firmware/Drivers/STM32F4xx_HAL_Driver/Src/stm32f4xx_hal_tim.c ****   {
 613:Firmware/Drivers/STM32F4xx_HAL_Driver/Src/stm32f4xx_hal_tim.c ****     /* Allocate lock resource and initialize it */
 614:Firmware/Drivers/STM32F4xx_HAL_Driver/Src/stm32f4xx_hal_tim.c ****     htim->Lock = HAL_UNLOCKED;
 831              		.loc 1 614 0
 832 001e 7B68     		ldr	r3, [r7, #4]
ARM GAS  /tmp/ccGTglLX.s 			page 26


 833 0020 0022     		movs	r2, #0
 834 0022 83F83C20 		strb	r2, [r3, #60]
 615:Firmware/Drivers/STM32F4xx_HAL_Driver/Src/stm32f4xx_hal_tim.c **** 
 616:Firmware/Drivers/STM32F4xx_HAL_Driver/Src/stm32f4xx_hal_tim.c **** #if (USE_HAL_TIM_REGISTER_CALLBACKS == 1)
 617:Firmware/Drivers/STM32F4xx_HAL_Driver/Src/stm32f4xx_hal_tim.c ****     /* Reset interrupt callbacks to legacy weak callbacks */
 618:Firmware/Drivers/STM32F4xx_HAL_Driver/Src/stm32f4xx_hal_tim.c ****     TIM_ResetCallback(htim);
 619:Firmware/Drivers/STM32F4xx_HAL_Driver/Src/stm32f4xx_hal_tim.c **** 
 620:Firmware/Drivers/STM32F4xx_HAL_Driver/Src/stm32f4xx_hal_tim.c ****     if (htim->OC_MspInitCallback == NULL)
 621:Firmware/Drivers/STM32F4xx_HAL_Driver/Src/stm32f4xx_hal_tim.c ****     {
 622:Firmware/Drivers/STM32F4xx_HAL_Driver/Src/stm32f4xx_hal_tim.c ****       htim->OC_MspInitCallback = HAL_TIM_OC_MspInit;
 623:Firmware/Drivers/STM32F4xx_HAL_Driver/Src/stm32f4xx_hal_tim.c ****     }
 624:Firmware/Drivers/STM32F4xx_HAL_Driver/Src/stm32f4xx_hal_tim.c ****     /* Init the low level hardware : GPIO, CLOCK, NVIC */
 625:Firmware/Drivers/STM32F4xx_HAL_Driver/Src/stm32f4xx_hal_tim.c ****     htim->OC_MspInitCallback(htim);
 626:Firmware/Drivers/STM32F4xx_HAL_Driver/Src/stm32f4xx_hal_tim.c **** #else
 627:Firmware/Drivers/STM32F4xx_HAL_Driver/Src/stm32f4xx_hal_tim.c ****     /* Init the low level hardware : GPIO, CLOCK, NVIC and DMA */
 628:Firmware/Drivers/STM32F4xx_HAL_Driver/Src/stm32f4xx_hal_tim.c ****     HAL_TIM_OC_MspInit(htim);
 835              		.loc 1 628 0
 836 0026 7868     		ldr	r0, [r7, #4]
 837 0028 FFF7FEFF 		bl	HAL_TIM_OC_MspInit
 838              	.L37:
 629:Firmware/Drivers/STM32F4xx_HAL_Driver/Src/stm32f4xx_hal_tim.c **** #endif /* USE_HAL_TIM_REGISTER_CALLBACKS */
 630:Firmware/Drivers/STM32F4xx_HAL_Driver/Src/stm32f4xx_hal_tim.c ****   }
 631:Firmware/Drivers/STM32F4xx_HAL_Driver/Src/stm32f4xx_hal_tim.c **** 
 632:Firmware/Drivers/STM32F4xx_HAL_Driver/Src/stm32f4xx_hal_tim.c ****   /* Set the TIM state */
 633:Firmware/Drivers/STM32F4xx_HAL_Driver/Src/stm32f4xx_hal_tim.c ****   htim->State = HAL_TIM_STATE_BUSY;
 839              		.loc 1 633 0
 840 002c 7B68     		ldr	r3, [r7, #4]
 841 002e 0222     		movs	r2, #2
 842 0030 83F83D20 		strb	r2, [r3, #61]
 634:Firmware/Drivers/STM32F4xx_HAL_Driver/Src/stm32f4xx_hal_tim.c **** 
 635:Firmware/Drivers/STM32F4xx_HAL_Driver/Src/stm32f4xx_hal_tim.c ****   /* Init the base time for the Output Compare */
 636:Firmware/Drivers/STM32F4xx_HAL_Driver/Src/stm32f4xx_hal_tim.c ****   TIM_Base_SetConfig(htim->Instance,  &htim->Init);
 843              		.loc 1 636 0
 844 0034 7B68     		ldr	r3, [r7, #4]
 845 0036 1A68     		ldr	r2, [r3]
 846 0038 7B68     		ldr	r3, [r7, #4]
 847 003a 0433     		adds	r3, r3, #4
 848 003c 1946     		mov	r1, r3
 849 003e 1046     		mov	r0, r2
 850 0040 FFF7FEFF 		bl	TIM_Base_SetConfig
 637:Firmware/Drivers/STM32F4xx_HAL_Driver/Src/stm32f4xx_hal_tim.c **** 
 638:Firmware/Drivers/STM32F4xx_HAL_Driver/Src/stm32f4xx_hal_tim.c ****   /* Initialize the TIM state*/
 639:Firmware/Drivers/STM32F4xx_HAL_Driver/Src/stm32f4xx_hal_tim.c ****   htim->State = HAL_TIM_STATE_READY;
 851              		.loc 1 639 0
 852 0044 7B68     		ldr	r3, [r7, #4]
 853 0046 0122     		movs	r2, #1
 854 0048 83F83D20 		strb	r2, [r3, #61]
 640:Firmware/Drivers/STM32F4xx_HAL_Driver/Src/stm32f4xx_hal_tim.c **** 
 641:Firmware/Drivers/STM32F4xx_HAL_Driver/Src/stm32f4xx_hal_tim.c ****   return HAL_OK;
 855              		.loc 1 641 0
 856 004c 0023     		movs	r3, #0
 857              	.L36:
 642:Firmware/Drivers/STM32F4xx_HAL_Driver/Src/stm32f4xx_hal_tim.c **** }
 858              		.loc 1 642 0
 859 004e 1846     		mov	r0, r3
 860 0050 0837     		adds	r7, r7, #8
 861              	.LCFI59:
ARM GAS  /tmp/ccGTglLX.s 			page 27


 862              		.cfi_def_cfa_offset 8
 863 0052 BD46     		mov	sp, r7
 864              	.LCFI60:
 865              		.cfi_def_cfa_register 13
 866              		@ sp needed
 867 0054 80BD     		pop	{r7, pc}
 868              		.cfi_endproc
 869              	.LFE140:
 871              		.section	.text.HAL_TIM_OC_DeInit,"ax",%progbits
 872              		.align	1
 873              		.global	HAL_TIM_OC_DeInit
 874              		.syntax unified
 875              		.thumb
 876              		.thumb_func
 877              		.fpu fpv4-sp-d16
 879              	HAL_TIM_OC_DeInit:
 880              	.LFB141:
 643:Firmware/Drivers/STM32F4xx_HAL_Driver/Src/stm32f4xx_hal_tim.c **** 
 644:Firmware/Drivers/STM32F4xx_HAL_Driver/Src/stm32f4xx_hal_tim.c **** /**
 645:Firmware/Drivers/STM32F4xx_HAL_Driver/Src/stm32f4xx_hal_tim.c ****   * @brief  DeInitializes the TIM peripheral
 646:Firmware/Drivers/STM32F4xx_HAL_Driver/Src/stm32f4xx_hal_tim.c ****   * @param  htim TIM Output Compare handle
 647:Firmware/Drivers/STM32F4xx_HAL_Driver/Src/stm32f4xx_hal_tim.c ****   * @retval HAL status
 648:Firmware/Drivers/STM32F4xx_HAL_Driver/Src/stm32f4xx_hal_tim.c ****   */
 649:Firmware/Drivers/STM32F4xx_HAL_Driver/Src/stm32f4xx_hal_tim.c **** HAL_StatusTypeDef HAL_TIM_OC_DeInit(TIM_HandleTypeDef *htim)
 650:Firmware/Drivers/STM32F4xx_HAL_Driver/Src/stm32f4xx_hal_tim.c **** {
 881              		.loc 1 650 0
 882              		.cfi_startproc
 883              		@ args = 0, pretend = 0, frame = 8
 884              		@ frame_needed = 1, uses_anonymous_args = 0
 885 0000 80B5     		push	{r7, lr}
 886              	.LCFI61:
 887              		.cfi_def_cfa_offset 8
 888              		.cfi_offset 7, -8
 889              		.cfi_offset 14, -4
 890 0002 82B0     		sub	sp, sp, #8
 891              	.LCFI62:
 892              		.cfi_def_cfa_offset 16
 893 0004 00AF     		add	r7, sp, #0
 894              	.LCFI63:
 895              		.cfi_def_cfa_register 7
 896 0006 7860     		str	r0, [r7, #4]
 651:Firmware/Drivers/STM32F4xx_HAL_Driver/Src/stm32f4xx_hal_tim.c ****   /* Check the parameters */
 652:Firmware/Drivers/STM32F4xx_HAL_Driver/Src/stm32f4xx_hal_tim.c ****   assert_param(IS_TIM_INSTANCE(htim->Instance));
 653:Firmware/Drivers/STM32F4xx_HAL_Driver/Src/stm32f4xx_hal_tim.c **** 
 654:Firmware/Drivers/STM32F4xx_HAL_Driver/Src/stm32f4xx_hal_tim.c ****   htim->State = HAL_TIM_STATE_BUSY;
 897              		.loc 1 654 0
 898 0008 7B68     		ldr	r3, [r7, #4]
 899 000a 0222     		movs	r2, #2
 900 000c 83F83D20 		strb	r2, [r3, #61]
 655:Firmware/Drivers/STM32F4xx_HAL_Driver/Src/stm32f4xx_hal_tim.c **** 
 656:Firmware/Drivers/STM32F4xx_HAL_Driver/Src/stm32f4xx_hal_tim.c ****   /* Disable the TIM Peripheral Clock */
 657:Firmware/Drivers/STM32F4xx_HAL_Driver/Src/stm32f4xx_hal_tim.c ****   __HAL_TIM_DISABLE(htim);
 901              		.loc 1 657 0
 902 0010 7B68     		ldr	r3, [r7, #4]
 903 0012 1B68     		ldr	r3, [r3]
 904 0014 1A6A     		ldr	r2, [r3, #32]
 905 0016 41F21113 		movw	r3, #4369
ARM GAS  /tmp/ccGTglLX.s 			page 28


 906 001a 1340     		ands	r3, r3, r2
 907 001c 002B     		cmp	r3, #0
 908 001e 0FD1     		bne	.L39
 909              		.loc 1 657 0 is_stmt 0 discriminator 1
 910 0020 7B68     		ldr	r3, [r7, #4]
 911 0022 1B68     		ldr	r3, [r3]
 912 0024 1A6A     		ldr	r2, [r3, #32]
 913 0026 40F24443 		movw	r3, #1092
 914 002a 1340     		ands	r3, r3, r2
 915 002c 002B     		cmp	r3, #0
 916 002e 07D1     		bne	.L39
 917              		.loc 1 657 0 discriminator 2
 918 0030 7B68     		ldr	r3, [r7, #4]
 919 0032 1B68     		ldr	r3, [r3]
 920 0034 1A68     		ldr	r2, [r3]
 921 0036 7B68     		ldr	r3, [r7, #4]
 922 0038 1B68     		ldr	r3, [r3]
 923 003a 22F00102 		bic	r2, r2, #1
 924 003e 1A60     		str	r2, [r3]
 925              	.L39:
 658:Firmware/Drivers/STM32F4xx_HAL_Driver/Src/stm32f4xx_hal_tim.c **** 
 659:Firmware/Drivers/STM32F4xx_HAL_Driver/Src/stm32f4xx_hal_tim.c **** #if (USE_HAL_TIM_REGISTER_CALLBACKS == 1)
 660:Firmware/Drivers/STM32F4xx_HAL_Driver/Src/stm32f4xx_hal_tim.c ****   if (htim->OC_MspDeInitCallback == NULL)
 661:Firmware/Drivers/STM32F4xx_HAL_Driver/Src/stm32f4xx_hal_tim.c ****   {
 662:Firmware/Drivers/STM32F4xx_HAL_Driver/Src/stm32f4xx_hal_tim.c ****     htim->OC_MspDeInitCallback = HAL_TIM_OC_MspDeInit;
 663:Firmware/Drivers/STM32F4xx_HAL_Driver/Src/stm32f4xx_hal_tim.c ****   }
 664:Firmware/Drivers/STM32F4xx_HAL_Driver/Src/stm32f4xx_hal_tim.c ****   /* DeInit the low level hardware */
 665:Firmware/Drivers/STM32F4xx_HAL_Driver/Src/stm32f4xx_hal_tim.c ****   htim->OC_MspDeInitCallback(htim);
 666:Firmware/Drivers/STM32F4xx_HAL_Driver/Src/stm32f4xx_hal_tim.c **** #else
 667:Firmware/Drivers/STM32F4xx_HAL_Driver/Src/stm32f4xx_hal_tim.c ****   /* DeInit the low level hardware: GPIO, CLOCK, NVIC and DMA */
 668:Firmware/Drivers/STM32F4xx_HAL_Driver/Src/stm32f4xx_hal_tim.c ****   HAL_TIM_OC_MspDeInit(htim);
 926              		.loc 1 668 0 is_stmt 1
 927 0040 7868     		ldr	r0, [r7, #4]
 928 0042 FFF7FEFF 		bl	HAL_TIM_OC_MspDeInit
 669:Firmware/Drivers/STM32F4xx_HAL_Driver/Src/stm32f4xx_hal_tim.c **** #endif /* USE_HAL_TIM_REGISTER_CALLBACKS */
 670:Firmware/Drivers/STM32F4xx_HAL_Driver/Src/stm32f4xx_hal_tim.c **** 
 671:Firmware/Drivers/STM32F4xx_HAL_Driver/Src/stm32f4xx_hal_tim.c ****   /* Change TIM state */
 672:Firmware/Drivers/STM32F4xx_HAL_Driver/Src/stm32f4xx_hal_tim.c ****   htim->State = HAL_TIM_STATE_RESET;
 929              		.loc 1 672 0
 930 0046 7B68     		ldr	r3, [r7, #4]
 931 0048 0022     		movs	r2, #0
 932 004a 83F83D20 		strb	r2, [r3, #61]
 673:Firmware/Drivers/STM32F4xx_HAL_Driver/Src/stm32f4xx_hal_tim.c **** 
 674:Firmware/Drivers/STM32F4xx_HAL_Driver/Src/stm32f4xx_hal_tim.c ****   /* Release Lock */
 675:Firmware/Drivers/STM32F4xx_HAL_Driver/Src/stm32f4xx_hal_tim.c ****   __HAL_UNLOCK(htim);
 933              		.loc 1 675 0
 934 004e 7B68     		ldr	r3, [r7, #4]
 935 0050 0022     		movs	r2, #0
 936 0052 83F83C20 		strb	r2, [r3, #60]
 676:Firmware/Drivers/STM32F4xx_HAL_Driver/Src/stm32f4xx_hal_tim.c **** 
 677:Firmware/Drivers/STM32F4xx_HAL_Driver/Src/stm32f4xx_hal_tim.c ****   return HAL_OK;
 937              		.loc 1 677 0
 938 0056 0023     		movs	r3, #0
 678:Firmware/Drivers/STM32F4xx_HAL_Driver/Src/stm32f4xx_hal_tim.c **** }
 939              		.loc 1 678 0
 940 0058 1846     		mov	r0, r3
 941 005a 0837     		adds	r7, r7, #8
ARM GAS  /tmp/ccGTglLX.s 			page 29


 942              	.LCFI64:
 943              		.cfi_def_cfa_offset 8
 944 005c BD46     		mov	sp, r7
 945              	.LCFI65:
 946              		.cfi_def_cfa_register 13
 947              		@ sp needed
 948 005e 80BD     		pop	{r7, pc}
 949              		.cfi_endproc
 950              	.LFE141:
 952              		.section	.text.HAL_TIM_OC_MspInit,"ax",%progbits
 953              		.align	1
 954              		.weak	HAL_TIM_OC_MspInit
 955              		.syntax unified
 956              		.thumb
 957              		.thumb_func
 958              		.fpu fpv4-sp-d16
 960              	HAL_TIM_OC_MspInit:
 961              	.LFB142:
 679:Firmware/Drivers/STM32F4xx_HAL_Driver/Src/stm32f4xx_hal_tim.c **** 
 680:Firmware/Drivers/STM32F4xx_HAL_Driver/Src/stm32f4xx_hal_tim.c **** /**
 681:Firmware/Drivers/STM32F4xx_HAL_Driver/Src/stm32f4xx_hal_tim.c ****   * @brief  Initializes the TIM Output Compare MSP.
 682:Firmware/Drivers/STM32F4xx_HAL_Driver/Src/stm32f4xx_hal_tim.c ****   * @param  htim TIM Output Compare handle
 683:Firmware/Drivers/STM32F4xx_HAL_Driver/Src/stm32f4xx_hal_tim.c ****   * @retval None
 684:Firmware/Drivers/STM32F4xx_HAL_Driver/Src/stm32f4xx_hal_tim.c ****   */
 685:Firmware/Drivers/STM32F4xx_HAL_Driver/Src/stm32f4xx_hal_tim.c **** __weak void HAL_TIM_OC_MspInit(TIM_HandleTypeDef *htim)
 686:Firmware/Drivers/STM32F4xx_HAL_Driver/Src/stm32f4xx_hal_tim.c **** {
 962              		.loc 1 686 0
 963              		.cfi_startproc
 964              		@ args = 0, pretend = 0, frame = 8
 965              		@ frame_needed = 1, uses_anonymous_args = 0
 966              		@ link register save eliminated.
 967 0000 80B4     		push	{r7}
 968              	.LCFI66:
 969              		.cfi_def_cfa_offset 4
 970              		.cfi_offset 7, -4
 971 0002 83B0     		sub	sp, sp, #12
 972              	.LCFI67:
 973              		.cfi_def_cfa_offset 16
 974 0004 00AF     		add	r7, sp, #0
 975              	.LCFI68:
 976              		.cfi_def_cfa_register 7
 977 0006 7860     		str	r0, [r7, #4]
 687:Firmware/Drivers/STM32F4xx_HAL_Driver/Src/stm32f4xx_hal_tim.c ****   /* Prevent unused argument(s) compilation warning */
 688:Firmware/Drivers/STM32F4xx_HAL_Driver/Src/stm32f4xx_hal_tim.c ****   UNUSED(htim);
 689:Firmware/Drivers/STM32F4xx_HAL_Driver/Src/stm32f4xx_hal_tim.c **** 
 690:Firmware/Drivers/STM32F4xx_HAL_Driver/Src/stm32f4xx_hal_tim.c ****   /* NOTE : This function should not be modified, when the callback is needed,
 691:Firmware/Drivers/STM32F4xx_HAL_Driver/Src/stm32f4xx_hal_tim.c ****             the HAL_TIM_OC_MspInit could be implemented in the user file
 692:Firmware/Drivers/STM32F4xx_HAL_Driver/Src/stm32f4xx_hal_tim.c ****    */
 693:Firmware/Drivers/STM32F4xx_HAL_Driver/Src/stm32f4xx_hal_tim.c **** }
 978              		.loc 1 693 0
 979 0008 00BF     		nop
 980 000a 0C37     		adds	r7, r7, #12
 981              	.LCFI69:
 982              		.cfi_def_cfa_offset 4
 983 000c BD46     		mov	sp, r7
 984              	.LCFI70:
 985              		.cfi_def_cfa_register 13
ARM GAS  /tmp/ccGTglLX.s 			page 30


 986              		@ sp needed
 987 000e 5DF8047B 		ldr	r7, [sp], #4
 988              	.LCFI71:
 989              		.cfi_restore 7
 990              		.cfi_def_cfa_offset 0
 991 0012 7047     		bx	lr
 992              		.cfi_endproc
 993              	.LFE142:
 995              		.section	.text.HAL_TIM_OC_MspDeInit,"ax",%progbits
 996              		.align	1
 997              		.weak	HAL_TIM_OC_MspDeInit
 998              		.syntax unified
 999              		.thumb
 1000              		.thumb_func
 1001              		.fpu fpv4-sp-d16
 1003              	HAL_TIM_OC_MspDeInit:
 1004              	.LFB143:
 694:Firmware/Drivers/STM32F4xx_HAL_Driver/Src/stm32f4xx_hal_tim.c **** 
 695:Firmware/Drivers/STM32F4xx_HAL_Driver/Src/stm32f4xx_hal_tim.c **** /**
 696:Firmware/Drivers/STM32F4xx_HAL_Driver/Src/stm32f4xx_hal_tim.c ****   * @brief  DeInitializes TIM Output Compare MSP.
 697:Firmware/Drivers/STM32F4xx_HAL_Driver/Src/stm32f4xx_hal_tim.c ****   * @param  htim TIM Output Compare handle
 698:Firmware/Drivers/STM32F4xx_HAL_Driver/Src/stm32f4xx_hal_tim.c ****   * @retval None
 699:Firmware/Drivers/STM32F4xx_HAL_Driver/Src/stm32f4xx_hal_tim.c ****   */
 700:Firmware/Drivers/STM32F4xx_HAL_Driver/Src/stm32f4xx_hal_tim.c **** __weak void HAL_TIM_OC_MspDeInit(TIM_HandleTypeDef *htim)
 701:Firmware/Drivers/STM32F4xx_HAL_Driver/Src/stm32f4xx_hal_tim.c **** {
 1005              		.loc 1 701 0
 1006              		.cfi_startproc
 1007              		@ args = 0, pretend = 0, frame = 8
 1008              		@ frame_needed = 1, uses_anonymous_args = 0
 1009              		@ link register save eliminated.
 1010 0000 80B4     		push	{r7}
 1011              	.LCFI72:
 1012              		.cfi_def_cfa_offset 4
 1013              		.cfi_offset 7, -4
 1014 0002 83B0     		sub	sp, sp, #12
 1015              	.LCFI73:
 1016              		.cfi_def_cfa_offset 16
 1017 0004 00AF     		add	r7, sp, #0
 1018              	.LCFI74:
 1019              		.cfi_def_cfa_register 7
 1020 0006 7860     		str	r0, [r7, #4]
 702:Firmware/Drivers/STM32F4xx_HAL_Driver/Src/stm32f4xx_hal_tim.c ****   /* Prevent unused argument(s) compilation warning */
 703:Firmware/Drivers/STM32F4xx_HAL_Driver/Src/stm32f4xx_hal_tim.c ****   UNUSED(htim);
 704:Firmware/Drivers/STM32F4xx_HAL_Driver/Src/stm32f4xx_hal_tim.c **** 
 705:Firmware/Drivers/STM32F4xx_HAL_Driver/Src/stm32f4xx_hal_tim.c ****   /* NOTE : This function should not be modified, when the callback is needed,
 706:Firmware/Drivers/STM32F4xx_HAL_Driver/Src/stm32f4xx_hal_tim.c ****             the HAL_TIM_OC_MspDeInit could be implemented in the user file
 707:Firmware/Drivers/STM32F4xx_HAL_Driver/Src/stm32f4xx_hal_tim.c ****    */
 708:Firmware/Drivers/STM32F4xx_HAL_Driver/Src/stm32f4xx_hal_tim.c **** }
 1021              		.loc 1 708 0
 1022 0008 00BF     		nop
 1023 000a 0C37     		adds	r7, r7, #12
 1024              	.LCFI75:
 1025              		.cfi_def_cfa_offset 4
 1026 000c BD46     		mov	sp, r7
 1027              	.LCFI76:
 1028              		.cfi_def_cfa_register 13
 1029              		@ sp needed
ARM GAS  /tmp/ccGTglLX.s 			page 31


 1030 000e 5DF8047B 		ldr	r7, [sp], #4
 1031              	.LCFI77:
 1032              		.cfi_restore 7
 1033              		.cfi_def_cfa_offset 0
 1034 0012 7047     		bx	lr
 1035              		.cfi_endproc
 1036              	.LFE143:
 1038              		.section	.text.HAL_TIM_OC_Start,"ax",%progbits
 1039              		.align	1
 1040              		.global	HAL_TIM_OC_Start
 1041              		.syntax unified
 1042              		.thumb
 1043              		.thumb_func
 1044              		.fpu fpv4-sp-d16
 1046              	HAL_TIM_OC_Start:
 1047              	.LFB144:
 709:Firmware/Drivers/STM32F4xx_HAL_Driver/Src/stm32f4xx_hal_tim.c **** 
 710:Firmware/Drivers/STM32F4xx_HAL_Driver/Src/stm32f4xx_hal_tim.c **** /**
 711:Firmware/Drivers/STM32F4xx_HAL_Driver/Src/stm32f4xx_hal_tim.c ****   * @brief  Starts the TIM Output Compare signal generation.
 712:Firmware/Drivers/STM32F4xx_HAL_Driver/Src/stm32f4xx_hal_tim.c ****   * @param  htim TIM Output Compare handle
 713:Firmware/Drivers/STM32F4xx_HAL_Driver/Src/stm32f4xx_hal_tim.c ****   * @param  Channel TIM Channel to be enabled
 714:Firmware/Drivers/STM32F4xx_HAL_Driver/Src/stm32f4xx_hal_tim.c ****   *          This parameter can be one of the following values:
 715:Firmware/Drivers/STM32F4xx_HAL_Driver/Src/stm32f4xx_hal_tim.c ****   *            @arg TIM_CHANNEL_1: TIM Channel 1 selected
 716:Firmware/Drivers/STM32F4xx_HAL_Driver/Src/stm32f4xx_hal_tim.c ****   *            @arg TIM_CHANNEL_2: TIM Channel 2 selected
 717:Firmware/Drivers/STM32F4xx_HAL_Driver/Src/stm32f4xx_hal_tim.c ****   *            @arg TIM_CHANNEL_3: TIM Channel 3 selected
 718:Firmware/Drivers/STM32F4xx_HAL_Driver/Src/stm32f4xx_hal_tim.c ****   *            @arg TIM_CHANNEL_4: TIM Channel 4 selected
 719:Firmware/Drivers/STM32F4xx_HAL_Driver/Src/stm32f4xx_hal_tim.c ****   * @retval HAL status
 720:Firmware/Drivers/STM32F4xx_HAL_Driver/Src/stm32f4xx_hal_tim.c ****   */
 721:Firmware/Drivers/STM32F4xx_HAL_Driver/Src/stm32f4xx_hal_tim.c **** HAL_StatusTypeDef HAL_TIM_OC_Start(TIM_HandleTypeDef *htim, uint32_t Channel)
 722:Firmware/Drivers/STM32F4xx_HAL_Driver/Src/stm32f4xx_hal_tim.c **** {
 1048              		.loc 1 722 0
 1049              		.cfi_startproc
 1050              		@ args = 0, pretend = 0, frame = 16
 1051              		@ frame_needed = 1, uses_anonymous_args = 0
 1052 0000 80B5     		push	{r7, lr}
 1053              	.LCFI78:
 1054              		.cfi_def_cfa_offset 8
 1055              		.cfi_offset 7, -8
 1056              		.cfi_offset 14, -4
 1057 0002 84B0     		sub	sp, sp, #16
 1058              	.LCFI79:
 1059              		.cfi_def_cfa_offset 24
 1060 0004 00AF     		add	r7, sp, #0
 1061              	.LCFI80:
 1062              		.cfi_def_cfa_register 7
 1063 0006 7860     		str	r0, [r7, #4]
 1064 0008 3960     		str	r1, [r7]
 723:Firmware/Drivers/STM32F4xx_HAL_Driver/Src/stm32f4xx_hal_tim.c ****   uint32_t tmpsmcr;
 724:Firmware/Drivers/STM32F4xx_HAL_Driver/Src/stm32f4xx_hal_tim.c **** 
 725:Firmware/Drivers/STM32F4xx_HAL_Driver/Src/stm32f4xx_hal_tim.c ****   /* Check the parameters */
 726:Firmware/Drivers/STM32F4xx_HAL_Driver/Src/stm32f4xx_hal_tim.c ****   assert_param(IS_TIM_CCX_INSTANCE(htim->Instance, Channel));
 727:Firmware/Drivers/STM32F4xx_HAL_Driver/Src/stm32f4xx_hal_tim.c **** 
 728:Firmware/Drivers/STM32F4xx_HAL_Driver/Src/stm32f4xx_hal_tim.c ****   /* Enable the Output compare channel */
 729:Firmware/Drivers/STM32F4xx_HAL_Driver/Src/stm32f4xx_hal_tim.c ****   TIM_CCxChannelCmd(htim->Instance, Channel, TIM_CCx_ENABLE);
 1065              		.loc 1 729 0
 1066 000a 7B68     		ldr	r3, [r7, #4]
 1067 000c 1B68     		ldr	r3, [r3]
ARM GAS  /tmp/ccGTglLX.s 			page 32


 1068 000e 0122     		movs	r2, #1
 1069 0010 3968     		ldr	r1, [r7]
 1070 0012 1846     		mov	r0, r3
 1071 0014 FFF7FEFF 		bl	TIM_CCxChannelCmd
 730:Firmware/Drivers/STM32F4xx_HAL_Driver/Src/stm32f4xx_hal_tim.c **** 
 731:Firmware/Drivers/STM32F4xx_HAL_Driver/Src/stm32f4xx_hal_tim.c ****   if (IS_TIM_BREAK_INSTANCE(htim->Instance) != RESET)
 1072              		.loc 1 731 0
 1073 0018 7B68     		ldr	r3, [r7, #4]
 1074 001a 1B68     		ldr	r3, [r3]
 1075 001c 154A     		ldr	r2, .L50
 1076 001e 9342     		cmp	r3, r2
 1077 0020 04D0     		beq	.L44
 1078              		.loc 1 731 0 is_stmt 0 discriminator 2
 1079 0022 7B68     		ldr	r3, [r7, #4]
 1080 0024 1B68     		ldr	r3, [r3]
 1081 0026 144A     		ldr	r2, .L50+4
 1082 0028 9342     		cmp	r3, r2
 1083 002a 01D1     		bne	.L45
 1084              	.L44:
 1085              		.loc 1 731 0 discriminator 3
 1086 002c 0123     		movs	r3, #1
 1087 002e 00E0     		b	.L46
 1088              	.L45:
 1089              		.loc 1 731 0 discriminator 4
 1090 0030 0023     		movs	r3, #0
 1091              	.L46:
 1092              		.loc 1 731 0 discriminator 6
 1093 0032 002B     		cmp	r3, #0
 1094 0034 07D0     		beq	.L47
 732:Firmware/Drivers/STM32F4xx_HAL_Driver/Src/stm32f4xx_hal_tim.c ****   {
 733:Firmware/Drivers/STM32F4xx_HAL_Driver/Src/stm32f4xx_hal_tim.c ****     /* Enable the main output */
 734:Firmware/Drivers/STM32F4xx_HAL_Driver/Src/stm32f4xx_hal_tim.c ****     __HAL_TIM_MOE_ENABLE(htim);
 1095              		.loc 1 734 0 is_stmt 1
 1096 0036 7B68     		ldr	r3, [r7, #4]
 1097 0038 1B68     		ldr	r3, [r3]
 1098 003a 5A6C     		ldr	r2, [r3, #68]
 1099 003c 7B68     		ldr	r3, [r7, #4]
 1100 003e 1B68     		ldr	r3, [r3]
 1101 0040 42F40042 		orr	r2, r2, #32768
 1102 0044 5A64     		str	r2, [r3, #68]
 1103              	.L47:
 735:Firmware/Drivers/STM32F4xx_HAL_Driver/Src/stm32f4xx_hal_tim.c ****   }
 736:Firmware/Drivers/STM32F4xx_HAL_Driver/Src/stm32f4xx_hal_tim.c **** 
 737:Firmware/Drivers/STM32F4xx_HAL_Driver/Src/stm32f4xx_hal_tim.c ****   /* Enable the Peripheral, except in trigger mode where enable is automatically done with trigger 
 738:Firmware/Drivers/STM32F4xx_HAL_Driver/Src/stm32f4xx_hal_tim.c ****   tmpsmcr = htim->Instance->SMCR & TIM_SMCR_SMS;
 1104              		.loc 1 738 0
 1105 0046 7B68     		ldr	r3, [r7, #4]
 1106 0048 1B68     		ldr	r3, [r3]
 1107 004a 9B68     		ldr	r3, [r3, #8]
 1108 004c 03F00703 		and	r3, r3, #7
 1109 0050 FB60     		str	r3, [r7, #12]
 739:Firmware/Drivers/STM32F4xx_HAL_Driver/Src/stm32f4xx_hal_tim.c ****   if (!IS_TIM_SLAVEMODE_TRIGGER_ENABLED(tmpsmcr))
 1110              		.loc 1 739 0
 1111 0052 FB68     		ldr	r3, [r7, #12]
 1112 0054 062B     		cmp	r3, #6
 1113 0056 07D0     		beq	.L48
 740:Firmware/Drivers/STM32F4xx_HAL_Driver/Src/stm32f4xx_hal_tim.c ****   {
ARM GAS  /tmp/ccGTglLX.s 			page 33


 741:Firmware/Drivers/STM32F4xx_HAL_Driver/Src/stm32f4xx_hal_tim.c ****     __HAL_TIM_ENABLE(htim);
 1114              		.loc 1 741 0
 1115 0058 7B68     		ldr	r3, [r7, #4]
 1116 005a 1B68     		ldr	r3, [r3]
 1117 005c 1A68     		ldr	r2, [r3]
 1118 005e 7B68     		ldr	r3, [r7, #4]
 1119 0060 1B68     		ldr	r3, [r3]
 1120 0062 42F00102 		orr	r2, r2, #1
 1121 0066 1A60     		str	r2, [r3]
 1122              	.L48:
 742:Firmware/Drivers/STM32F4xx_HAL_Driver/Src/stm32f4xx_hal_tim.c ****   }
 743:Firmware/Drivers/STM32F4xx_HAL_Driver/Src/stm32f4xx_hal_tim.c **** 
 744:Firmware/Drivers/STM32F4xx_HAL_Driver/Src/stm32f4xx_hal_tim.c ****   /* Return function status */
 745:Firmware/Drivers/STM32F4xx_HAL_Driver/Src/stm32f4xx_hal_tim.c ****   return HAL_OK;
 1123              		.loc 1 745 0
 1124 0068 0023     		movs	r3, #0
 746:Firmware/Drivers/STM32F4xx_HAL_Driver/Src/stm32f4xx_hal_tim.c **** }
 1125              		.loc 1 746 0
 1126 006a 1846     		mov	r0, r3
 1127 006c 1037     		adds	r7, r7, #16
 1128              	.LCFI81:
 1129              		.cfi_def_cfa_offset 8
 1130 006e BD46     		mov	sp, r7
 1131              	.LCFI82:
 1132              		.cfi_def_cfa_register 13
 1133              		@ sp needed
 1134 0070 80BD     		pop	{r7, pc}
 1135              	.L51:
 1136 0072 00BF     		.align	2
 1137              	.L50:
 1138 0074 00000140 		.word	1073807360
 1139 0078 00040140 		.word	1073808384
 1140              		.cfi_endproc
 1141              	.LFE144:
 1143              		.section	.text.HAL_TIM_OC_Stop,"ax",%progbits
 1144              		.align	1
 1145              		.global	HAL_TIM_OC_Stop
 1146              		.syntax unified
 1147              		.thumb
 1148              		.thumb_func
 1149              		.fpu fpv4-sp-d16
 1151              	HAL_TIM_OC_Stop:
 1152              	.LFB145:
 747:Firmware/Drivers/STM32F4xx_HAL_Driver/Src/stm32f4xx_hal_tim.c **** 
 748:Firmware/Drivers/STM32F4xx_HAL_Driver/Src/stm32f4xx_hal_tim.c **** /**
 749:Firmware/Drivers/STM32F4xx_HAL_Driver/Src/stm32f4xx_hal_tim.c ****   * @brief  Stops the TIM Output Compare signal generation.
 750:Firmware/Drivers/STM32F4xx_HAL_Driver/Src/stm32f4xx_hal_tim.c ****   * @param  htim TIM Output Compare handle
 751:Firmware/Drivers/STM32F4xx_HAL_Driver/Src/stm32f4xx_hal_tim.c ****   * @param  Channel TIM Channel to be disabled
 752:Firmware/Drivers/STM32F4xx_HAL_Driver/Src/stm32f4xx_hal_tim.c ****   *          This parameter can be one of the following values:
 753:Firmware/Drivers/STM32F4xx_HAL_Driver/Src/stm32f4xx_hal_tim.c ****   *            @arg TIM_CHANNEL_1: TIM Channel 1 selected
 754:Firmware/Drivers/STM32F4xx_HAL_Driver/Src/stm32f4xx_hal_tim.c ****   *            @arg TIM_CHANNEL_2: TIM Channel 2 selected
 755:Firmware/Drivers/STM32F4xx_HAL_Driver/Src/stm32f4xx_hal_tim.c ****   *            @arg TIM_CHANNEL_3: TIM Channel 3 selected
 756:Firmware/Drivers/STM32F4xx_HAL_Driver/Src/stm32f4xx_hal_tim.c ****   *            @arg TIM_CHANNEL_4: TIM Channel 4 selected
 757:Firmware/Drivers/STM32F4xx_HAL_Driver/Src/stm32f4xx_hal_tim.c ****   * @retval HAL status
 758:Firmware/Drivers/STM32F4xx_HAL_Driver/Src/stm32f4xx_hal_tim.c ****   */
 759:Firmware/Drivers/STM32F4xx_HAL_Driver/Src/stm32f4xx_hal_tim.c **** HAL_StatusTypeDef HAL_TIM_OC_Stop(TIM_HandleTypeDef *htim, uint32_t Channel)
 760:Firmware/Drivers/STM32F4xx_HAL_Driver/Src/stm32f4xx_hal_tim.c **** {
ARM GAS  /tmp/ccGTglLX.s 			page 34


 1153              		.loc 1 760 0
 1154              		.cfi_startproc
 1155              		@ args = 0, pretend = 0, frame = 8
 1156              		@ frame_needed = 1, uses_anonymous_args = 0
 1157 0000 80B5     		push	{r7, lr}
 1158              	.LCFI83:
 1159              		.cfi_def_cfa_offset 8
 1160              		.cfi_offset 7, -8
 1161              		.cfi_offset 14, -4
 1162 0002 82B0     		sub	sp, sp, #8
 1163              	.LCFI84:
 1164              		.cfi_def_cfa_offset 16
 1165 0004 00AF     		add	r7, sp, #0
 1166              	.LCFI85:
 1167              		.cfi_def_cfa_register 7
 1168 0006 7860     		str	r0, [r7, #4]
 1169 0008 3960     		str	r1, [r7]
 761:Firmware/Drivers/STM32F4xx_HAL_Driver/Src/stm32f4xx_hal_tim.c ****   /* Check the parameters */
 762:Firmware/Drivers/STM32F4xx_HAL_Driver/Src/stm32f4xx_hal_tim.c ****   assert_param(IS_TIM_CCX_INSTANCE(htim->Instance, Channel));
 763:Firmware/Drivers/STM32F4xx_HAL_Driver/Src/stm32f4xx_hal_tim.c **** 
 764:Firmware/Drivers/STM32F4xx_HAL_Driver/Src/stm32f4xx_hal_tim.c ****   /* Disable the Output compare channel */
 765:Firmware/Drivers/STM32F4xx_HAL_Driver/Src/stm32f4xx_hal_tim.c ****   TIM_CCxChannelCmd(htim->Instance, Channel, TIM_CCx_DISABLE);
 1170              		.loc 1 765 0
 1171 000a 7B68     		ldr	r3, [r7, #4]
 1172 000c 1B68     		ldr	r3, [r3]
 1173 000e 0022     		movs	r2, #0
 1174 0010 3968     		ldr	r1, [r7]
 1175 0012 1846     		mov	r0, r3
 1176 0014 FFF7FEFF 		bl	TIM_CCxChannelCmd
 766:Firmware/Drivers/STM32F4xx_HAL_Driver/Src/stm32f4xx_hal_tim.c **** 
 767:Firmware/Drivers/STM32F4xx_HAL_Driver/Src/stm32f4xx_hal_tim.c ****   if (IS_TIM_BREAK_INSTANCE(htim->Instance) != RESET)
 1177              		.loc 1 767 0
 1178 0018 7B68     		ldr	r3, [r7, #4]
 1179 001a 1B68     		ldr	r3, [r3]
 1180 001c 204A     		ldr	r2, .L59
 1181 001e 9342     		cmp	r3, r2
 1182 0020 04D0     		beq	.L53
 1183              		.loc 1 767 0 is_stmt 0 discriminator 2
 1184 0022 7B68     		ldr	r3, [r7, #4]
 1185 0024 1B68     		ldr	r3, [r3]
 1186 0026 1F4A     		ldr	r2, .L59+4
 1187 0028 9342     		cmp	r3, r2
 1188 002a 01D1     		bne	.L54
 1189              	.L53:
 1190              		.loc 1 767 0 discriminator 3
 1191 002c 0123     		movs	r3, #1
 1192 002e 00E0     		b	.L55
 1193              	.L54:
 1194              		.loc 1 767 0 discriminator 4
 1195 0030 0023     		movs	r3, #0
 1196              	.L55:
 1197              		.loc 1 767 0 discriminator 6
 1198 0032 002B     		cmp	r3, #0
 1199 0034 17D0     		beq	.L56
 768:Firmware/Drivers/STM32F4xx_HAL_Driver/Src/stm32f4xx_hal_tim.c ****   {
 769:Firmware/Drivers/STM32F4xx_HAL_Driver/Src/stm32f4xx_hal_tim.c ****     /* Disable the Main Output */
 770:Firmware/Drivers/STM32F4xx_HAL_Driver/Src/stm32f4xx_hal_tim.c ****     __HAL_TIM_MOE_DISABLE(htim);
ARM GAS  /tmp/ccGTglLX.s 			page 35


 1200              		.loc 1 770 0 is_stmt 1
 1201 0036 7B68     		ldr	r3, [r7, #4]
 1202 0038 1B68     		ldr	r3, [r3]
 1203 003a 1A6A     		ldr	r2, [r3, #32]
 1204 003c 41F21113 		movw	r3, #4369
 1205 0040 1340     		ands	r3, r3, r2
 1206 0042 002B     		cmp	r3, #0
 1207 0044 0FD1     		bne	.L56
 1208              		.loc 1 770 0 is_stmt 0 discriminator 1
 1209 0046 7B68     		ldr	r3, [r7, #4]
 1210 0048 1B68     		ldr	r3, [r3]
 1211 004a 1A6A     		ldr	r2, [r3, #32]
 1212 004c 40F24443 		movw	r3, #1092
 1213 0050 1340     		ands	r3, r3, r2
 1214 0052 002B     		cmp	r3, #0
 1215 0054 07D1     		bne	.L56
 1216              		.loc 1 770 0 discriminator 2
 1217 0056 7B68     		ldr	r3, [r7, #4]
 1218 0058 1B68     		ldr	r3, [r3]
 1219 005a 5A6C     		ldr	r2, [r3, #68]
 1220 005c 7B68     		ldr	r3, [r7, #4]
 1221 005e 1B68     		ldr	r3, [r3]
 1222 0060 22F40042 		bic	r2, r2, #32768
 1223 0064 5A64     		str	r2, [r3, #68]
 1224              	.L56:
 771:Firmware/Drivers/STM32F4xx_HAL_Driver/Src/stm32f4xx_hal_tim.c ****   }
 772:Firmware/Drivers/STM32F4xx_HAL_Driver/Src/stm32f4xx_hal_tim.c **** 
 773:Firmware/Drivers/STM32F4xx_HAL_Driver/Src/stm32f4xx_hal_tim.c ****   /* Disable the Peripheral */
 774:Firmware/Drivers/STM32F4xx_HAL_Driver/Src/stm32f4xx_hal_tim.c ****   __HAL_TIM_DISABLE(htim);
 1225              		.loc 1 774 0 is_stmt 1
 1226 0066 7B68     		ldr	r3, [r7, #4]
 1227 0068 1B68     		ldr	r3, [r3]
 1228 006a 1A6A     		ldr	r2, [r3, #32]
 1229 006c 41F21113 		movw	r3, #4369
 1230 0070 1340     		ands	r3, r3, r2
 1231 0072 002B     		cmp	r3, #0
 1232 0074 0FD1     		bne	.L57
 1233              		.loc 1 774 0 is_stmt 0 discriminator 1
 1234 0076 7B68     		ldr	r3, [r7, #4]
 1235 0078 1B68     		ldr	r3, [r3]
 1236 007a 1A6A     		ldr	r2, [r3, #32]
 1237 007c 40F24443 		movw	r3, #1092
 1238 0080 1340     		ands	r3, r3, r2
 1239 0082 002B     		cmp	r3, #0
 1240 0084 07D1     		bne	.L57
 1241              		.loc 1 774 0 discriminator 2
 1242 0086 7B68     		ldr	r3, [r7, #4]
 1243 0088 1B68     		ldr	r3, [r3]
 1244 008a 1A68     		ldr	r2, [r3]
 1245 008c 7B68     		ldr	r3, [r7, #4]
 1246 008e 1B68     		ldr	r3, [r3]
 1247 0090 22F00102 		bic	r2, r2, #1
 1248 0094 1A60     		str	r2, [r3]
 1249              	.L57:
 775:Firmware/Drivers/STM32F4xx_HAL_Driver/Src/stm32f4xx_hal_tim.c **** 
 776:Firmware/Drivers/STM32F4xx_HAL_Driver/Src/stm32f4xx_hal_tim.c ****   /* Return function status */
 777:Firmware/Drivers/STM32F4xx_HAL_Driver/Src/stm32f4xx_hal_tim.c ****   return HAL_OK;
ARM GAS  /tmp/ccGTglLX.s 			page 36


 1250              		.loc 1 777 0 is_stmt 1
 1251 0096 0023     		movs	r3, #0
 778:Firmware/Drivers/STM32F4xx_HAL_Driver/Src/stm32f4xx_hal_tim.c **** }
 1252              		.loc 1 778 0
 1253 0098 1846     		mov	r0, r3
 1254 009a 0837     		adds	r7, r7, #8
 1255              	.LCFI86:
 1256              		.cfi_def_cfa_offset 8
 1257 009c BD46     		mov	sp, r7
 1258              	.LCFI87:
 1259              		.cfi_def_cfa_register 13
 1260              		@ sp needed
 1261 009e 80BD     		pop	{r7, pc}
 1262              	.L60:
 1263              		.align	2
 1264              	.L59:
 1265 00a0 00000140 		.word	1073807360
 1266 00a4 00040140 		.word	1073808384
 1267              		.cfi_endproc
 1268              	.LFE145:
 1270              		.section	.text.HAL_TIM_OC_Start_IT,"ax",%progbits
 1271              		.align	1
 1272              		.global	HAL_TIM_OC_Start_IT
 1273              		.syntax unified
 1274              		.thumb
 1275              		.thumb_func
 1276              		.fpu fpv4-sp-d16
 1278              	HAL_TIM_OC_Start_IT:
 1279              	.LFB146:
 779:Firmware/Drivers/STM32F4xx_HAL_Driver/Src/stm32f4xx_hal_tim.c **** 
 780:Firmware/Drivers/STM32F4xx_HAL_Driver/Src/stm32f4xx_hal_tim.c **** /**
 781:Firmware/Drivers/STM32F4xx_HAL_Driver/Src/stm32f4xx_hal_tim.c ****   * @brief  Starts the TIM Output Compare signal generation in interrupt mode.
 782:Firmware/Drivers/STM32F4xx_HAL_Driver/Src/stm32f4xx_hal_tim.c ****   * @param  htim TIM Output Compare handle
 783:Firmware/Drivers/STM32F4xx_HAL_Driver/Src/stm32f4xx_hal_tim.c ****   * @param  Channel TIM Channel to be enabled
 784:Firmware/Drivers/STM32F4xx_HAL_Driver/Src/stm32f4xx_hal_tim.c ****   *          This parameter can be one of the following values:
 785:Firmware/Drivers/STM32F4xx_HAL_Driver/Src/stm32f4xx_hal_tim.c ****   *            @arg TIM_CHANNEL_1: TIM Channel 1 selected
 786:Firmware/Drivers/STM32F4xx_HAL_Driver/Src/stm32f4xx_hal_tim.c ****   *            @arg TIM_CHANNEL_2: TIM Channel 2 selected
 787:Firmware/Drivers/STM32F4xx_HAL_Driver/Src/stm32f4xx_hal_tim.c ****   *            @arg TIM_CHANNEL_3: TIM Channel 3 selected
 788:Firmware/Drivers/STM32F4xx_HAL_Driver/Src/stm32f4xx_hal_tim.c ****   *            @arg TIM_CHANNEL_4: TIM Channel 4 selected
 789:Firmware/Drivers/STM32F4xx_HAL_Driver/Src/stm32f4xx_hal_tim.c ****   * @retval HAL status
 790:Firmware/Drivers/STM32F4xx_HAL_Driver/Src/stm32f4xx_hal_tim.c ****   */
 791:Firmware/Drivers/STM32F4xx_HAL_Driver/Src/stm32f4xx_hal_tim.c **** HAL_StatusTypeDef HAL_TIM_OC_Start_IT(TIM_HandleTypeDef *htim, uint32_t Channel)
 792:Firmware/Drivers/STM32F4xx_HAL_Driver/Src/stm32f4xx_hal_tim.c **** {
 1280              		.loc 1 792 0
 1281              		.cfi_startproc
 1282              		@ args = 0, pretend = 0, frame = 16
 1283              		@ frame_needed = 1, uses_anonymous_args = 0
 1284 0000 80B5     		push	{r7, lr}
 1285              	.LCFI88:
 1286              		.cfi_def_cfa_offset 8
 1287              		.cfi_offset 7, -8
 1288              		.cfi_offset 14, -4
 1289 0002 84B0     		sub	sp, sp, #16
 1290              	.LCFI89:
 1291              		.cfi_def_cfa_offset 24
 1292 0004 00AF     		add	r7, sp, #0
 1293              	.LCFI90:
ARM GAS  /tmp/ccGTglLX.s 			page 37


 1294              		.cfi_def_cfa_register 7
 1295 0006 7860     		str	r0, [r7, #4]
 1296 0008 3960     		str	r1, [r7]
 793:Firmware/Drivers/STM32F4xx_HAL_Driver/Src/stm32f4xx_hal_tim.c ****   uint32_t tmpsmcr;
 794:Firmware/Drivers/STM32F4xx_HAL_Driver/Src/stm32f4xx_hal_tim.c **** 
 795:Firmware/Drivers/STM32F4xx_HAL_Driver/Src/stm32f4xx_hal_tim.c ****   /* Check the parameters */
 796:Firmware/Drivers/STM32F4xx_HAL_Driver/Src/stm32f4xx_hal_tim.c ****   assert_param(IS_TIM_CCX_INSTANCE(htim->Instance, Channel));
 797:Firmware/Drivers/STM32F4xx_HAL_Driver/Src/stm32f4xx_hal_tim.c **** 
 798:Firmware/Drivers/STM32F4xx_HAL_Driver/Src/stm32f4xx_hal_tim.c ****   switch (Channel)
 1297              		.loc 1 798 0
 1298 000a 3B68     		ldr	r3, [r7]
 1299 000c 0C2B     		cmp	r3, #12
 1300 000e 41D8     		bhi	.L75
 1301 0010 01A2     		adr	r2, .L64
 1302 0012 52F823F0 		ldr	pc, [r2, r3, lsl #2]
 1303 0016 00BF     		.p2align 2
 1304              	.L64:
 1305 0018 4D000000 		.word	.L63+1
 1306 001c 95000000 		.word	.L75+1
 1307 0020 95000000 		.word	.L75+1
 1308 0024 95000000 		.word	.L75+1
 1309 0028 5F000000 		.word	.L65+1
 1310 002c 95000000 		.word	.L75+1
 1311 0030 95000000 		.word	.L75+1
 1312 0034 95000000 		.word	.L75+1
 1313 0038 71000000 		.word	.L66+1
 1314 003c 95000000 		.word	.L75+1
 1315 0040 95000000 		.word	.L75+1
 1316 0044 95000000 		.word	.L75+1
 1317 0048 83000000 		.word	.L67+1
 1318              		.p2align 1
 1319              	.L63:
 799:Firmware/Drivers/STM32F4xx_HAL_Driver/Src/stm32f4xx_hal_tim.c ****   {
 800:Firmware/Drivers/STM32F4xx_HAL_Driver/Src/stm32f4xx_hal_tim.c ****     case TIM_CHANNEL_1:
 801:Firmware/Drivers/STM32F4xx_HAL_Driver/Src/stm32f4xx_hal_tim.c ****     {
 802:Firmware/Drivers/STM32F4xx_HAL_Driver/Src/stm32f4xx_hal_tim.c ****       /* Enable the TIM Capture/Compare 1 interrupt */
 803:Firmware/Drivers/STM32F4xx_HAL_Driver/Src/stm32f4xx_hal_tim.c ****       __HAL_TIM_ENABLE_IT(htim, TIM_IT_CC1);
 1320              		.loc 1 803 0
 1321 004c 7B68     		ldr	r3, [r7, #4]
 1322 004e 1B68     		ldr	r3, [r3]
 1323 0050 DA68     		ldr	r2, [r3, #12]
 1324 0052 7B68     		ldr	r3, [r7, #4]
 1325 0054 1B68     		ldr	r3, [r3]
 1326 0056 42F00202 		orr	r2, r2, #2
 1327 005a DA60     		str	r2, [r3, #12]
 804:Firmware/Drivers/STM32F4xx_HAL_Driver/Src/stm32f4xx_hal_tim.c ****       break;
 1328              		.loc 1 804 0
 1329 005c 1BE0     		b	.L68
 1330              	.L65:
 805:Firmware/Drivers/STM32F4xx_HAL_Driver/Src/stm32f4xx_hal_tim.c ****     }
 806:Firmware/Drivers/STM32F4xx_HAL_Driver/Src/stm32f4xx_hal_tim.c **** 
 807:Firmware/Drivers/STM32F4xx_HAL_Driver/Src/stm32f4xx_hal_tim.c ****     case TIM_CHANNEL_2:
 808:Firmware/Drivers/STM32F4xx_HAL_Driver/Src/stm32f4xx_hal_tim.c ****     {
 809:Firmware/Drivers/STM32F4xx_HAL_Driver/Src/stm32f4xx_hal_tim.c ****       /* Enable the TIM Capture/Compare 2 interrupt */
 810:Firmware/Drivers/STM32F4xx_HAL_Driver/Src/stm32f4xx_hal_tim.c ****       __HAL_TIM_ENABLE_IT(htim, TIM_IT_CC2);
 1331              		.loc 1 810 0
 1332 005e 7B68     		ldr	r3, [r7, #4]
ARM GAS  /tmp/ccGTglLX.s 			page 38


 1333 0060 1B68     		ldr	r3, [r3]
 1334 0062 DA68     		ldr	r2, [r3, #12]
 1335 0064 7B68     		ldr	r3, [r7, #4]
 1336 0066 1B68     		ldr	r3, [r3]
 1337 0068 42F00402 		orr	r2, r2, #4
 1338 006c DA60     		str	r2, [r3, #12]
 811:Firmware/Drivers/STM32F4xx_HAL_Driver/Src/stm32f4xx_hal_tim.c ****       break;
 1339              		.loc 1 811 0
 1340 006e 12E0     		b	.L68
 1341              	.L66:
 812:Firmware/Drivers/STM32F4xx_HAL_Driver/Src/stm32f4xx_hal_tim.c ****     }
 813:Firmware/Drivers/STM32F4xx_HAL_Driver/Src/stm32f4xx_hal_tim.c **** 
 814:Firmware/Drivers/STM32F4xx_HAL_Driver/Src/stm32f4xx_hal_tim.c ****     case TIM_CHANNEL_3:
 815:Firmware/Drivers/STM32F4xx_HAL_Driver/Src/stm32f4xx_hal_tim.c ****     {
 816:Firmware/Drivers/STM32F4xx_HAL_Driver/Src/stm32f4xx_hal_tim.c ****       /* Enable the TIM Capture/Compare 3 interrupt */
 817:Firmware/Drivers/STM32F4xx_HAL_Driver/Src/stm32f4xx_hal_tim.c ****       __HAL_TIM_ENABLE_IT(htim, TIM_IT_CC3);
 1342              		.loc 1 817 0
 1343 0070 7B68     		ldr	r3, [r7, #4]
 1344 0072 1B68     		ldr	r3, [r3]
 1345 0074 DA68     		ldr	r2, [r3, #12]
 1346 0076 7B68     		ldr	r3, [r7, #4]
 1347 0078 1B68     		ldr	r3, [r3]
 1348 007a 42F00802 		orr	r2, r2, #8
 1349 007e DA60     		str	r2, [r3, #12]
 818:Firmware/Drivers/STM32F4xx_HAL_Driver/Src/stm32f4xx_hal_tim.c ****       break;
 1350              		.loc 1 818 0
 1351 0080 09E0     		b	.L68
 1352              	.L67:
 819:Firmware/Drivers/STM32F4xx_HAL_Driver/Src/stm32f4xx_hal_tim.c ****     }
 820:Firmware/Drivers/STM32F4xx_HAL_Driver/Src/stm32f4xx_hal_tim.c **** 
 821:Firmware/Drivers/STM32F4xx_HAL_Driver/Src/stm32f4xx_hal_tim.c ****     case TIM_CHANNEL_4:
 822:Firmware/Drivers/STM32F4xx_HAL_Driver/Src/stm32f4xx_hal_tim.c ****     {
 823:Firmware/Drivers/STM32F4xx_HAL_Driver/Src/stm32f4xx_hal_tim.c ****       /* Enable the TIM Capture/Compare 4 interrupt */
 824:Firmware/Drivers/STM32F4xx_HAL_Driver/Src/stm32f4xx_hal_tim.c ****       __HAL_TIM_ENABLE_IT(htim, TIM_IT_CC4);
 1353              		.loc 1 824 0
 1354 0082 7B68     		ldr	r3, [r7, #4]
 1355 0084 1B68     		ldr	r3, [r3]
 1356 0086 DA68     		ldr	r2, [r3, #12]
 1357 0088 7B68     		ldr	r3, [r7, #4]
 1358 008a 1B68     		ldr	r3, [r3]
 1359 008c 42F01002 		orr	r2, r2, #16
 1360 0090 DA60     		str	r2, [r3, #12]
 825:Firmware/Drivers/STM32F4xx_HAL_Driver/Src/stm32f4xx_hal_tim.c ****       break;
 1361              		.loc 1 825 0
 1362 0092 00E0     		b	.L68
 1363              	.L75:
 826:Firmware/Drivers/STM32F4xx_HAL_Driver/Src/stm32f4xx_hal_tim.c ****     }
 827:Firmware/Drivers/STM32F4xx_HAL_Driver/Src/stm32f4xx_hal_tim.c **** 
 828:Firmware/Drivers/STM32F4xx_HAL_Driver/Src/stm32f4xx_hal_tim.c ****     default:
 829:Firmware/Drivers/STM32F4xx_HAL_Driver/Src/stm32f4xx_hal_tim.c ****       break;
 1364              		.loc 1 829 0
 1365 0094 00BF     		nop
 1366              	.L68:
 830:Firmware/Drivers/STM32F4xx_HAL_Driver/Src/stm32f4xx_hal_tim.c ****   }
 831:Firmware/Drivers/STM32F4xx_HAL_Driver/Src/stm32f4xx_hal_tim.c **** 
 832:Firmware/Drivers/STM32F4xx_HAL_Driver/Src/stm32f4xx_hal_tim.c ****   /* Enable the Output compare channel */
 833:Firmware/Drivers/STM32F4xx_HAL_Driver/Src/stm32f4xx_hal_tim.c ****   TIM_CCxChannelCmd(htim->Instance, Channel, TIM_CCx_ENABLE);
ARM GAS  /tmp/ccGTglLX.s 			page 39


 1367              		.loc 1 833 0
 1368 0096 7B68     		ldr	r3, [r7, #4]
 1369 0098 1B68     		ldr	r3, [r3]
 1370 009a 0122     		movs	r2, #1
 1371 009c 3968     		ldr	r1, [r7]
 1372 009e 1846     		mov	r0, r3
 1373 00a0 FFF7FEFF 		bl	TIM_CCxChannelCmd
 834:Firmware/Drivers/STM32F4xx_HAL_Driver/Src/stm32f4xx_hal_tim.c **** 
 835:Firmware/Drivers/STM32F4xx_HAL_Driver/Src/stm32f4xx_hal_tim.c ****   if (IS_TIM_BREAK_INSTANCE(htim->Instance) != RESET)
 1374              		.loc 1 835 0
 1375 00a4 7B68     		ldr	r3, [r7, #4]
 1376 00a6 1B68     		ldr	r3, [r3]
 1377 00a8 154A     		ldr	r2, .L76
 1378 00aa 9342     		cmp	r3, r2
 1379 00ac 04D0     		beq	.L69
 1380              		.loc 1 835 0 is_stmt 0 discriminator 2
 1381 00ae 7B68     		ldr	r3, [r7, #4]
 1382 00b0 1B68     		ldr	r3, [r3]
 1383 00b2 144A     		ldr	r2, .L76+4
 1384 00b4 9342     		cmp	r3, r2
 1385 00b6 01D1     		bne	.L70
 1386              	.L69:
 1387              		.loc 1 835 0 discriminator 3
 1388 00b8 0123     		movs	r3, #1
 1389 00ba 00E0     		b	.L71
 1390              	.L70:
 1391              		.loc 1 835 0 discriminator 4
 1392 00bc 0023     		movs	r3, #0
 1393              	.L71:
 1394              		.loc 1 835 0 discriminator 6
 1395 00be 002B     		cmp	r3, #0
 1396 00c0 07D0     		beq	.L72
 836:Firmware/Drivers/STM32F4xx_HAL_Driver/Src/stm32f4xx_hal_tim.c ****   {
 837:Firmware/Drivers/STM32F4xx_HAL_Driver/Src/stm32f4xx_hal_tim.c ****     /* Enable the main output */
 838:Firmware/Drivers/STM32F4xx_HAL_Driver/Src/stm32f4xx_hal_tim.c ****     __HAL_TIM_MOE_ENABLE(htim);
 1397              		.loc 1 838 0 is_stmt 1
 1398 00c2 7B68     		ldr	r3, [r7, #4]
 1399 00c4 1B68     		ldr	r3, [r3]
 1400 00c6 5A6C     		ldr	r2, [r3, #68]
 1401 00c8 7B68     		ldr	r3, [r7, #4]
 1402 00ca 1B68     		ldr	r3, [r3]
 1403 00cc 42F40042 		orr	r2, r2, #32768
 1404 00d0 5A64     		str	r2, [r3, #68]
 1405              	.L72:
 839:Firmware/Drivers/STM32F4xx_HAL_Driver/Src/stm32f4xx_hal_tim.c ****   }
 840:Firmware/Drivers/STM32F4xx_HAL_Driver/Src/stm32f4xx_hal_tim.c **** 
 841:Firmware/Drivers/STM32F4xx_HAL_Driver/Src/stm32f4xx_hal_tim.c ****   /* Enable the Peripheral, except in trigger mode where enable is automatically done with trigger 
 842:Firmware/Drivers/STM32F4xx_HAL_Driver/Src/stm32f4xx_hal_tim.c ****   tmpsmcr = htim->Instance->SMCR & TIM_SMCR_SMS;
 1406              		.loc 1 842 0
 1407 00d2 7B68     		ldr	r3, [r7, #4]
 1408 00d4 1B68     		ldr	r3, [r3]
 1409 00d6 9B68     		ldr	r3, [r3, #8]
 1410 00d8 03F00703 		and	r3, r3, #7
 1411 00dc FB60     		str	r3, [r7, #12]
 843:Firmware/Drivers/STM32F4xx_HAL_Driver/Src/stm32f4xx_hal_tim.c ****   if (!IS_TIM_SLAVEMODE_TRIGGER_ENABLED(tmpsmcr))
 1412              		.loc 1 843 0
 1413 00de FB68     		ldr	r3, [r7, #12]
ARM GAS  /tmp/ccGTglLX.s 			page 40


 1414 00e0 062B     		cmp	r3, #6
 1415 00e2 07D0     		beq	.L73
 844:Firmware/Drivers/STM32F4xx_HAL_Driver/Src/stm32f4xx_hal_tim.c ****   {
 845:Firmware/Drivers/STM32F4xx_HAL_Driver/Src/stm32f4xx_hal_tim.c ****     __HAL_TIM_ENABLE(htim);
 1416              		.loc 1 845 0
 1417 00e4 7B68     		ldr	r3, [r7, #4]
 1418 00e6 1B68     		ldr	r3, [r3]
 1419 00e8 1A68     		ldr	r2, [r3]
 1420 00ea 7B68     		ldr	r3, [r7, #4]
 1421 00ec 1B68     		ldr	r3, [r3]
 1422 00ee 42F00102 		orr	r2, r2, #1
 1423 00f2 1A60     		str	r2, [r3]
 1424              	.L73:
 846:Firmware/Drivers/STM32F4xx_HAL_Driver/Src/stm32f4xx_hal_tim.c ****   }
 847:Firmware/Drivers/STM32F4xx_HAL_Driver/Src/stm32f4xx_hal_tim.c **** 
 848:Firmware/Drivers/STM32F4xx_HAL_Driver/Src/stm32f4xx_hal_tim.c ****   /* Return function status */
 849:Firmware/Drivers/STM32F4xx_HAL_Driver/Src/stm32f4xx_hal_tim.c ****   return HAL_OK;
 1425              		.loc 1 849 0
 1426 00f4 0023     		movs	r3, #0
 850:Firmware/Drivers/STM32F4xx_HAL_Driver/Src/stm32f4xx_hal_tim.c **** }
 1427              		.loc 1 850 0
 1428 00f6 1846     		mov	r0, r3
 1429 00f8 1037     		adds	r7, r7, #16
 1430              	.LCFI91:
 1431              		.cfi_def_cfa_offset 8
 1432 00fa BD46     		mov	sp, r7
 1433              	.LCFI92:
 1434              		.cfi_def_cfa_register 13
 1435              		@ sp needed
 1436 00fc 80BD     		pop	{r7, pc}
 1437              	.L77:
 1438 00fe 00BF     		.align	2
 1439              	.L76:
 1440 0100 00000140 		.word	1073807360
 1441 0104 00040140 		.word	1073808384
 1442              		.cfi_endproc
 1443              	.LFE146:
 1445              		.section	.text.HAL_TIM_OC_Stop_IT,"ax",%progbits
 1446              		.align	1
 1447              		.global	HAL_TIM_OC_Stop_IT
 1448              		.syntax unified
 1449              		.thumb
 1450              		.thumb_func
 1451              		.fpu fpv4-sp-d16
 1453              	HAL_TIM_OC_Stop_IT:
 1454              	.LFB147:
 851:Firmware/Drivers/STM32F4xx_HAL_Driver/Src/stm32f4xx_hal_tim.c **** 
 852:Firmware/Drivers/STM32F4xx_HAL_Driver/Src/stm32f4xx_hal_tim.c **** /**
 853:Firmware/Drivers/STM32F4xx_HAL_Driver/Src/stm32f4xx_hal_tim.c ****   * @brief  Stops the TIM Output Compare signal generation in interrupt mode.
 854:Firmware/Drivers/STM32F4xx_HAL_Driver/Src/stm32f4xx_hal_tim.c ****   * @param  htim TIM Output Compare handle
 855:Firmware/Drivers/STM32F4xx_HAL_Driver/Src/stm32f4xx_hal_tim.c ****   * @param  Channel TIM Channel to be disabled
 856:Firmware/Drivers/STM32F4xx_HAL_Driver/Src/stm32f4xx_hal_tim.c ****   *          This parameter can be one of the following values:
 857:Firmware/Drivers/STM32F4xx_HAL_Driver/Src/stm32f4xx_hal_tim.c ****   *            @arg TIM_CHANNEL_1: TIM Channel 1 selected
 858:Firmware/Drivers/STM32F4xx_HAL_Driver/Src/stm32f4xx_hal_tim.c ****   *            @arg TIM_CHANNEL_2: TIM Channel 2 selected
 859:Firmware/Drivers/STM32F4xx_HAL_Driver/Src/stm32f4xx_hal_tim.c ****   *            @arg TIM_CHANNEL_3: TIM Channel 3 selected
 860:Firmware/Drivers/STM32F4xx_HAL_Driver/Src/stm32f4xx_hal_tim.c ****   *            @arg TIM_CHANNEL_4: TIM Channel 4 selected
 861:Firmware/Drivers/STM32F4xx_HAL_Driver/Src/stm32f4xx_hal_tim.c ****   * @retval HAL status
ARM GAS  /tmp/ccGTglLX.s 			page 41


 862:Firmware/Drivers/STM32F4xx_HAL_Driver/Src/stm32f4xx_hal_tim.c ****   */
 863:Firmware/Drivers/STM32F4xx_HAL_Driver/Src/stm32f4xx_hal_tim.c **** HAL_StatusTypeDef HAL_TIM_OC_Stop_IT(TIM_HandleTypeDef *htim, uint32_t Channel)
 864:Firmware/Drivers/STM32F4xx_HAL_Driver/Src/stm32f4xx_hal_tim.c **** {
 1455              		.loc 1 864 0
 1456              		.cfi_startproc
 1457              		@ args = 0, pretend = 0, frame = 8
 1458              		@ frame_needed = 1, uses_anonymous_args = 0
 1459 0000 80B5     		push	{r7, lr}
 1460              	.LCFI93:
 1461              		.cfi_def_cfa_offset 8
 1462              		.cfi_offset 7, -8
 1463              		.cfi_offset 14, -4
 1464 0002 82B0     		sub	sp, sp, #8
 1465              	.LCFI94:
 1466              		.cfi_def_cfa_offset 16
 1467 0004 00AF     		add	r7, sp, #0
 1468              	.LCFI95:
 1469              		.cfi_def_cfa_register 7
 1470 0006 7860     		str	r0, [r7, #4]
 1471 0008 3960     		str	r1, [r7]
 865:Firmware/Drivers/STM32F4xx_HAL_Driver/Src/stm32f4xx_hal_tim.c ****   /* Check the parameters */
 866:Firmware/Drivers/STM32F4xx_HAL_Driver/Src/stm32f4xx_hal_tim.c ****   assert_param(IS_TIM_CCX_INSTANCE(htim->Instance, Channel));
 867:Firmware/Drivers/STM32F4xx_HAL_Driver/Src/stm32f4xx_hal_tim.c **** 
 868:Firmware/Drivers/STM32F4xx_HAL_Driver/Src/stm32f4xx_hal_tim.c ****   switch (Channel)
 1472              		.loc 1 868 0
 1473 000a 3B68     		ldr	r3, [r7]
 1474 000c 0C2B     		cmp	r3, #12
 1475 000e 41D8     		bhi	.L92
 1476 0010 01A2     		adr	r2, .L81
 1477 0012 52F823F0 		ldr	pc, [r2, r3, lsl #2]
 1478 0016 00BF     		.p2align 2
 1479              	.L81:
 1480 0018 4D000000 		.word	.L80+1
 1481 001c 95000000 		.word	.L92+1
 1482 0020 95000000 		.word	.L92+1
 1483 0024 95000000 		.word	.L92+1
 1484 0028 5F000000 		.word	.L82+1
 1485 002c 95000000 		.word	.L92+1
 1486 0030 95000000 		.word	.L92+1
 1487 0034 95000000 		.word	.L92+1
 1488 0038 71000000 		.word	.L83+1
 1489 003c 95000000 		.word	.L92+1
 1490 0040 95000000 		.word	.L92+1
 1491 0044 95000000 		.word	.L92+1
 1492 0048 83000000 		.word	.L84+1
 1493              		.p2align 1
 1494              	.L80:
 869:Firmware/Drivers/STM32F4xx_HAL_Driver/Src/stm32f4xx_hal_tim.c ****   {
 870:Firmware/Drivers/STM32F4xx_HAL_Driver/Src/stm32f4xx_hal_tim.c ****     case TIM_CHANNEL_1:
 871:Firmware/Drivers/STM32F4xx_HAL_Driver/Src/stm32f4xx_hal_tim.c ****     {
 872:Firmware/Drivers/STM32F4xx_HAL_Driver/Src/stm32f4xx_hal_tim.c ****       /* Disable the TIM Capture/Compare 1 interrupt */
 873:Firmware/Drivers/STM32F4xx_HAL_Driver/Src/stm32f4xx_hal_tim.c ****       __HAL_TIM_DISABLE_IT(htim, TIM_IT_CC1);
 1495              		.loc 1 873 0
 1496 004c 7B68     		ldr	r3, [r7, #4]
 1497 004e 1B68     		ldr	r3, [r3]
 1498 0050 DA68     		ldr	r2, [r3, #12]
 1499 0052 7B68     		ldr	r3, [r7, #4]
ARM GAS  /tmp/ccGTglLX.s 			page 42


 1500 0054 1B68     		ldr	r3, [r3]
 1501 0056 22F00202 		bic	r2, r2, #2
 1502 005a DA60     		str	r2, [r3, #12]
 874:Firmware/Drivers/STM32F4xx_HAL_Driver/Src/stm32f4xx_hal_tim.c ****       break;
 1503              		.loc 1 874 0
 1504 005c 1BE0     		b	.L85
 1505              	.L82:
 875:Firmware/Drivers/STM32F4xx_HAL_Driver/Src/stm32f4xx_hal_tim.c ****     }
 876:Firmware/Drivers/STM32F4xx_HAL_Driver/Src/stm32f4xx_hal_tim.c **** 
 877:Firmware/Drivers/STM32F4xx_HAL_Driver/Src/stm32f4xx_hal_tim.c ****     case TIM_CHANNEL_2:
 878:Firmware/Drivers/STM32F4xx_HAL_Driver/Src/stm32f4xx_hal_tim.c ****     {
 879:Firmware/Drivers/STM32F4xx_HAL_Driver/Src/stm32f4xx_hal_tim.c ****       /* Disable the TIM Capture/Compare 2 interrupt */
 880:Firmware/Drivers/STM32F4xx_HAL_Driver/Src/stm32f4xx_hal_tim.c ****       __HAL_TIM_DISABLE_IT(htim, TIM_IT_CC2);
 1506              		.loc 1 880 0
 1507 005e 7B68     		ldr	r3, [r7, #4]
 1508 0060 1B68     		ldr	r3, [r3]
 1509 0062 DA68     		ldr	r2, [r3, #12]
 1510 0064 7B68     		ldr	r3, [r7, #4]
 1511 0066 1B68     		ldr	r3, [r3]
 1512 0068 22F00402 		bic	r2, r2, #4
 1513 006c DA60     		str	r2, [r3, #12]
 881:Firmware/Drivers/STM32F4xx_HAL_Driver/Src/stm32f4xx_hal_tim.c ****       break;
 1514              		.loc 1 881 0
 1515 006e 12E0     		b	.L85
 1516              	.L83:
 882:Firmware/Drivers/STM32F4xx_HAL_Driver/Src/stm32f4xx_hal_tim.c ****     }
 883:Firmware/Drivers/STM32F4xx_HAL_Driver/Src/stm32f4xx_hal_tim.c **** 
 884:Firmware/Drivers/STM32F4xx_HAL_Driver/Src/stm32f4xx_hal_tim.c ****     case TIM_CHANNEL_3:
 885:Firmware/Drivers/STM32F4xx_HAL_Driver/Src/stm32f4xx_hal_tim.c ****     {
 886:Firmware/Drivers/STM32F4xx_HAL_Driver/Src/stm32f4xx_hal_tim.c ****       /* Disable the TIM Capture/Compare 3 interrupt */
 887:Firmware/Drivers/STM32F4xx_HAL_Driver/Src/stm32f4xx_hal_tim.c ****       __HAL_TIM_DISABLE_IT(htim, TIM_IT_CC3);
 1517              		.loc 1 887 0
 1518 0070 7B68     		ldr	r3, [r7, #4]
 1519 0072 1B68     		ldr	r3, [r3]
 1520 0074 DA68     		ldr	r2, [r3, #12]
 1521 0076 7B68     		ldr	r3, [r7, #4]
 1522 0078 1B68     		ldr	r3, [r3]
 1523 007a 22F00802 		bic	r2, r2, #8
 1524 007e DA60     		str	r2, [r3, #12]
 888:Firmware/Drivers/STM32F4xx_HAL_Driver/Src/stm32f4xx_hal_tim.c ****       break;
 1525              		.loc 1 888 0
 1526 0080 09E0     		b	.L85
 1527              	.L84:
 889:Firmware/Drivers/STM32F4xx_HAL_Driver/Src/stm32f4xx_hal_tim.c ****     }
 890:Firmware/Drivers/STM32F4xx_HAL_Driver/Src/stm32f4xx_hal_tim.c **** 
 891:Firmware/Drivers/STM32F4xx_HAL_Driver/Src/stm32f4xx_hal_tim.c ****     case TIM_CHANNEL_4:
 892:Firmware/Drivers/STM32F4xx_HAL_Driver/Src/stm32f4xx_hal_tim.c ****     {
 893:Firmware/Drivers/STM32F4xx_HAL_Driver/Src/stm32f4xx_hal_tim.c ****       /* Disable the TIM Capture/Compare 4 interrupt */
 894:Firmware/Drivers/STM32F4xx_HAL_Driver/Src/stm32f4xx_hal_tim.c ****       __HAL_TIM_DISABLE_IT(htim, TIM_IT_CC4);
 1528              		.loc 1 894 0
 1529 0082 7B68     		ldr	r3, [r7, #4]
 1530 0084 1B68     		ldr	r3, [r3]
 1531 0086 DA68     		ldr	r2, [r3, #12]
 1532 0088 7B68     		ldr	r3, [r7, #4]
 1533 008a 1B68     		ldr	r3, [r3]
 1534 008c 22F01002 		bic	r2, r2, #16
 1535 0090 DA60     		str	r2, [r3, #12]
ARM GAS  /tmp/ccGTglLX.s 			page 43


 895:Firmware/Drivers/STM32F4xx_HAL_Driver/Src/stm32f4xx_hal_tim.c ****       break;
 1536              		.loc 1 895 0
 1537 0092 00E0     		b	.L85
 1538              	.L92:
 896:Firmware/Drivers/STM32F4xx_HAL_Driver/Src/stm32f4xx_hal_tim.c ****     }
 897:Firmware/Drivers/STM32F4xx_HAL_Driver/Src/stm32f4xx_hal_tim.c **** 
 898:Firmware/Drivers/STM32F4xx_HAL_Driver/Src/stm32f4xx_hal_tim.c ****     default:
 899:Firmware/Drivers/STM32F4xx_HAL_Driver/Src/stm32f4xx_hal_tim.c ****       break;
 1539              		.loc 1 899 0
 1540 0094 00BF     		nop
 1541              	.L85:
 900:Firmware/Drivers/STM32F4xx_HAL_Driver/Src/stm32f4xx_hal_tim.c ****   }
 901:Firmware/Drivers/STM32F4xx_HAL_Driver/Src/stm32f4xx_hal_tim.c **** 
 902:Firmware/Drivers/STM32F4xx_HAL_Driver/Src/stm32f4xx_hal_tim.c ****   /* Disable the Output compare channel */
 903:Firmware/Drivers/STM32F4xx_HAL_Driver/Src/stm32f4xx_hal_tim.c ****   TIM_CCxChannelCmd(htim->Instance, Channel, TIM_CCx_DISABLE);
 1542              		.loc 1 903 0
 1543 0096 7B68     		ldr	r3, [r7, #4]
 1544 0098 1B68     		ldr	r3, [r3]
 1545 009a 0022     		movs	r2, #0
 1546 009c 3968     		ldr	r1, [r7]
 1547 009e 1846     		mov	r0, r3
 1548 00a0 FFF7FEFF 		bl	TIM_CCxChannelCmd
 904:Firmware/Drivers/STM32F4xx_HAL_Driver/Src/stm32f4xx_hal_tim.c **** 
 905:Firmware/Drivers/STM32F4xx_HAL_Driver/Src/stm32f4xx_hal_tim.c ****   if (IS_TIM_BREAK_INSTANCE(htim->Instance) != RESET)
 1549              		.loc 1 905 0
 1550 00a4 7B68     		ldr	r3, [r7, #4]
 1551 00a6 1B68     		ldr	r3, [r3]
 1552 00a8 204A     		ldr	r2, .L93
 1553 00aa 9342     		cmp	r3, r2
 1554 00ac 04D0     		beq	.L86
 1555              		.loc 1 905 0 is_stmt 0 discriminator 2
 1556 00ae 7B68     		ldr	r3, [r7, #4]
 1557 00b0 1B68     		ldr	r3, [r3]
 1558 00b2 1F4A     		ldr	r2, .L93+4
 1559 00b4 9342     		cmp	r3, r2
 1560 00b6 01D1     		bne	.L87
 1561              	.L86:
 1562              		.loc 1 905 0 discriminator 3
 1563 00b8 0123     		movs	r3, #1
 1564 00ba 00E0     		b	.L88
 1565              	.L87:
 1566              		.loc 1 905 0 discriminator 4
 1567 00bc 0023     		movs	r3, #0
 1568              	.L88:
 1569              		.loc 1 905 0 discriminator 6
 1570 00be 002B     		cmp	r3, #0
 1571 00c0 17D0     		beq	.L89
 906:Firmware/Drivers/STM32F4xx_HAL_Driver/Src/stm32f4xx_hal_tim.c ****   {
 907:Firmware/Drivers/STM32F4xx_HAL_Driver/Src/stm32f4xx_hal_tim.c ****     /* Disable the Main Output */
 908:Firmware/Drivers/STM32F4xx_HAL_Driver/Src/stm32f4xx_hal_tim.c ****     __HAL_TIM_MOE_DISABLE(htim);
 1572              		.loc 1 908 0 is_stmt 1
 1573 00c2 7B68     		ldr	r3, [r7, #4]
 1574 00c4 1B68     		ldr	r3, [r3]
 1575 00c6 1A6A     		ldr	r2, [r3, #32]
 1576 00c8 41F21113 		movw	r3, #4369
 1577 00cc 1340     		ands	r3, r3, r2
 1578 00ce 002B     		cmp	r3, #0
ARM GAS  /tmp/ccGTglLX.s 			page 44


 1579 00d0 0FD1     		bne	.L89
 1580              		.loc 1 908 0 is_stmt 0 discriminator 1
 1581 00d2 7B68     		ldr	r3, [r7, #4]
 1582 00d4 1B68     		ldr	r3, [r3]
 1583 00d6 1A6A     		ldr	r2, [r3, #32]
 1584 00d8 40F24443 		movw	r3, #1092
 1585 00dc 1340     		ands	r3, r3, r2
 1586 00de 002B     		cmp	r3, #0
 1587 00e0 07D1     		bne	.L89
 1588              		.loc 1 908 0 discriminator 2
 1589 00e2 7B68     		ldr	r3, [r7, #4]
 1590 00e4 1B68     		ldr	r3, [r3]
 1591 00e6 5A6C     		ldr	r2, [r3, #68]
 1592 00e8 7B68     		ldr	r3, [r7, #4]
 1593 00ea 1B68     		ldr	r3, [r3]
 1594 00ec 22F40042 		bic	r2, r2, #32768
 1595 00f0 5A64     		str	r2, [r3, #68]
 1596              	.L89:
 909:Firmware/Drivers/STM32F4xx_HAL_Driver/Src/stm32f4xx_hal_tim.c ****   }
 910:Firmware/Drivers/STM32F4xx_HAL_Driver/Src/stm32f4xx_hal_tim.c **** 
 911:Firmware/Drivers/STM32F4xx_HAL_Driver/Src/stm32f4xx_hal_tim.c ****   /* Disable the Peripheral */
 912:Firmware/Drivers/STM32F4xx_HAL_Driver/Src/stm32f4xx_hal_tim.c ****   __HAL_TIM_DISABLE(htim);
 1597              		.loc 1 912 0 is_stmt 1
 1598 00f2 7B68     		ldr	r3, [r7, #4]
 1599 00f4 1B68     		ldr	r3, [r3]
 1600 00f6 1A6A     		ldr	r2, [r3, #32]
 1601 00f8 41F21113 		movw	r3, #4369
 1602 00fc 1340     		ands	r3, r3, r2
 1603 00fe 002B     		cmp	r3, #0
 1604 0100 0FD1     		bne	.L90
 1605              		.loc 1 912 0 is_stmt 0 discriminator 1
 1606 0102 7B68     		ldr	r3, [r7, #4]
 1607 0104 1B68     		ldr	r3, [r3]
 1608 0106 1A6A     		ldr	r2, [r3, #32]
 1609 0108 40F24443 		movw	r3, #1092
 1610 010c 1340     		ands	r3, r3, r2
 1611 010e 002B     		cmp	r3, #0
 1612 0110 07D1     		bne	.L90
 1613              		.loc 1 912 0 discriminator 2
 1614 0112 7B68     		ldr	r3, [r7, #4]
 1615 0114 1B68     		ldr	r3, [r3]
 1616 0116 1A68     		ldr	r2, [r3]
 1617 0118 7B68     		ldr	r3, [r7, #4]
 1618 011a 1B68     		ldr	r3, [r3]
 1619 011c 22F00102 		bic	r2, r2, #1
 1620 0120 1A60     		str	r2, [r3]
 1621              	.L90:
 913:Firmware/Drivers/STM32F4xx_HAL_Driver/Src/stm32f4xx_hal_tim.c **** 
 914:Firmware/Drivers/STM32F4xx_HAL_Driver/Src/stm32f4xx_hal_tim.c ****   /* Return function status */
 915:Firmware/Drivers/STM32F4xx_HAL_Driver/Src/stm32f4xx_hal_tim.c ****   return HAL_OK;
 1622              		.loc 1 915 0 is_stmt 1
 1623 0122 0023     		movs	r3, #0
 916:Firmware/Drivers/STM32F4xx_HAL_Driver/Src/stm32f4xx_hal_tim.c **** }
 1624              		.loc 1 916 0
 1625 0124 1846     		mov	r0, r3
 1626 0126 0837     		adds	r7, r7, #8
 1627              	.LCFI96:
ARM GAS  /tmp/ccGTglLX.s 			page 45


 1628              		.cfi_def_cfa_offset 8
 1629 0128 BD46     		mov	sp, r7
 1630              	.LCFI97:
 1631              		.cfi_def_cfa_register 13
 1632              		@ sp needed
 1633 012a 80BD     		pop	{r7, pc}
 1634              	.L94:
 1635              		.align	2
 1636              	.L93:
 1637 012c 00000140 		.word	1073807360
 1638 0130 00040140 		.word	1073808384
 1639              		.cfi_endproc
 1640              	.LFE147:
 1642              		.section	.text.HAL_TIM_OC_Start_DMA,"ax",%progbits
 1643              		.align	1
 1644              		.global	HAL_TIM_OC_Start_DMA
 1645              		.syntax unified
 1646              		.thumb
 1647              		.thumb_func
 1648              		.fpu fpv4-sp-d16
 1650              	HAL_TIM_OC_Start_DMA:
 1651              	.LFB148:
 917:Firmware/Drivers/STM32F4xx_HAL_Driver/Src/stm32f4xx_hal_tim.c **** 
 918:Firmware/Drivers/STM32F4xx_HAL_Driver/Src/stm32f4xx_hal_tim.c **** /**
 919:Firmware/Drivers/STM32F4xx_HAL_Driver/Src/stm32f4xx_hal_tim.c ****   * @brief  Starts the TIM Output Compare signal generation in DMA mode.
 920:Firmware/Drivers/STM32F4xx_HAL_Driver/Src/stm32f4xx_hal_tim.c ****   * @param  htim TIM Output Compare handle
 921:Firmware/Drivers/STM32F4xx_HAL_Driver/Src/stm32f4xx_hal_tim.c ****   * @param  Channel TIM Channel to be enabled
 922:Firmware/Drivers/STM32F4xx_HAL_Driver/Src/stm32f4xx_hal_tim.c ****   *          This parameter can be one of the following values:
 923:Firmware/Drivers/STM32F4xx_HAL_Driver/Src/stm32f4xx_hal_tim.c ****   *            @arg TIM_CHANNEL_1: TIM Channel 1 selected
 924:Firmware/Drivers/STM32F4xx_HAL_Driver/Src/stm32f4xx_hal_tim.c ****   *            @arg TIM_CHANNEL_2: TIM Channel 2 selected
 925:Firmware/Drivers/STM32F4xx_HAL_Driver/Src/stm32f4xx_hal_tim.c ****   *            @arg TIM_CHANNEL_3: TIM Channel 3 selected
 926:Firmware/Drivers/STM32F4xx_HAL_Driver/Src/stm32f4xx_hal_tim.c ****   *            @arg TIM_CHANNEL_4: TIM Channel 4 selected
 927:Firmware/Drivers/STM32F4xx_HAL_Driver/Src/stm32f4xx_hal_tim.c ****   * @param  pData The source Buffer address.
 928:Firmware/Drivers/STM32F4xx_HAL_Driver/Src/stm32f4xx_hal_tim.c ****   * @param  Length The length of data to be transferred from memory to TIM peripheral
 929:Firmware/Drivers/STM32F4xx_HAL_Driver/Src/stm32f4xx_hal_tim.c ****   * @retval HAL status
 930:Firmware/Drivers/STM32F4xx_HAL_Driver/Src/stm32f4xx_hal_tim.c ****   */
 931:Firmware/Drivers/STM32F4xx_HAL_Driver/Src/stm32f4xx_hal_tim.c **** HAL_StatusTypeDef HAL_TIM_OC_Start_DMA(TIM_HandleTypeDef *htim, uint32_t Channel, uint32_t *pData, 
 932:Firmware/Drivers/STM32F4xx_HAL_Driver/Src/stm32f4xx_hal_tim.c **** {
 1652              		.loc 1 932 0
 1653              		.cfi_startproc
 1654              		@ args = 0, pretend = 0, frame = 24
 1655              		@ frame_needed = 1, uses_anonymous_args = 0
 1656 0000 80B5     		push	{r7, lr}
 1657              	.LCFI98:
 1658              		.cfi_def_cfa_offset 8
 1659              		.cfi_offset 7, -8
 1660              		.cfi_offset 14, -4
 1661 0002 86B0     		sub	sp, sp, #24
 1662              	.LCFI99:
 1663              		.cfi_def_cfa_offset 32
 1664 0004 00AF     		add	r7, sp, #0
 1665              	.LCFI100:
 1666              		.cfi_def_cfa_register 7
 1667 0006 F860     		str	r0, [r7, #12]
 1668 0008 B960     		str	r1, [r7, #8]
 1669 000a 7A60     		str	r2, [r7, #4]
 1670 000c 7B80     		strh	r3, [r7, #2]	@ movhi
ARM GAS  /tmp/ccGTglLX.s 			page 46


 933:Firmware/Drivers/STM32F4xx_HAL_Driver/Src/stm32f4xx_hal_tim.c ****   uint32_t tmpsmcr;
 934:Firmware/Drivers/STM32F4xx_HAL_Driver/Src/stm32f4xx_hal_tim.c **** 
 935:Firmware/Drivers/STM32F4xx_HAL_Driver/Src/stm32f4xx_hal_tim.c ****   /* Check the parameters */
 936:Firmware/Drivers/STM32F4xx_HAL_Driver/Src/stm32f4xx_hal_tim.c ****   assert_param(IS_TIM_CCX_INSTANCE(htim->Instance, Channel));
 937:Firmware/Drivers/STM32F4xx_HAL_Driver/Src/stm32f4xx_hal_tim.c **** 
 938:Firmware/Drivers/STM32F4xx_HAL_Driver/Src/stm32f4xx_hal_tim.c ****   if (htim->State == HAL_TIM_STATE_BUSY)
 1671              		.loc 1 938 0
 1672 000e FB68     		ldr	r3, [r7, #12]
 1673 0010 93F83D30 		ldrb	r3, [r3, #61]
 1674 0014 DBB2     		uxtb	r3, r3
 1675 0016 022B     		cmp	r3, #2
 1676 0018 01D1     		bne	.L96
 939:Firmware/Drivers/STM32F4xx_HAL_Driver/Src/stm32f4xx_hal_tim.c ****   {
 940:Firmware/Drivers/STM32F4xx_HAL_Driver/Src/stm32f4xx_hal_tim.c ****     return HAL_BUSY;
 1677              		.loc 1 940 0
 1678 001a 0223     		movs	r3, #2
 1679 001c F3E0     		b	.L97
 1680              	.L96:
 941:Firmware/Drivers/STM32F4xx_HAL_Driver/Src/stm32f4xx_hal_tim.c ****   }
 942:Firmware/Drivers/STM32F4xx_HAL_Driver/Src/stm32f4xx_hal_tim.c ****   else if (htim->State == HAL_TIM_STATE_READY)
 1681              		.loc 1 942 0
 1682 001e FB68     		ldr	r3, [r7, #12]
 1683 0020 93F83D30 		ldrb	r3, [r3, #61]
 1684 0024 DBB2     		uxtb	r3, r3
 1685 0026 012B     		cmp	r3, #1
 1686 0028 0BD1     		bne	.L98
 943:Firmware/Drivers/STM32F4xx_HAL_Driver/Src/stm32f4xx_hal_tim.c ****   {
 944:Firmware/Drivers/STM32F4xx_HAL_Driver/Src/stm32f4xx_hal_tim.c ****     if ((pData == NULL) && (Length > 0U))
 1687              		.loc 1 944 0
 1688 002a 7B68     		ldr	r3, [r7, #4]
 1689 002c 002B     		cmp	r3, #0
 1690 002e 04D1     		bne	.L99
 1691              		.loc 1 944 0 is_stmt 0 discriminator 1
 1692 0030 7B88     		ldrh	r3, [r7, #2]
 1693 0032 002B     		cmp	r3, #0
 1694 0034 01D0     		beq	.L99
 945:Firmware/Drivers/STM32F4xx_HAL_Driver/Src/stm32f4xx_hal_tim.c ****     {
 946:Firmware/Drivers/STM32F4xx_HAL_Driver/Src/stm32f4xx_hal_tim.c ****       return HAL_ERROR;
 1695              		.loc 1 946 0 is_stmt 1
 1696 0036 0123     		movs	r3, #1
 1697 0038 E5E0     		b	.L97
 1698              	.L99:
 947:Firmware/Drivers/STM32F4xx_HAL_Driver/Src/stm32f4xx_hal_tim.c ****     }
 948:Firmware/Drivers/STM32F4xx_HAL_Driver/Src/stm32f4xx_hal_tim.c ****     else
 949:Firmware/Drivers/STM32F4xx_HAL_Driver/Src/stm32f4xx_hal_tim.c ****     {
 950:Firmware/Drivers/STM32F4xx_HAL_Driver/Src/stm32f4xx_hal_tim.c ****       htim->State = HAL_TIM_STATE_BUSY;
 1699              		.loc 1 950 0
 1700 003a FB68     		ldr	r3, [r7, #12]
 1701 003c 0222     		movs	r2, #2
 1702 003e 83F83D20 		strb	r2, [r3, #61]
 1703              	.L98:
 951:Firmware/Drivers/STM32F4xx_HAL_Driver/Src/stm32f4xx_hal_tim.c ****     }
 952:Firmware/Drivers/STM32F4xx_HAL_Driver/Src/stm32f4xx_hal_tim.c ****   }
 953:Firmware/Drivers/STM32F4xx_HAL_Driver/Src/stm32f4xx_hal_tim.c ****   else
 954:Firmware/Drivers/STM32F4xx_HAL_Driver/Src/stm32f4xx_hal_tim.c ****   {
 955:Firmware/Drivers/STM32F4xx_HAL_Driver/Src/stm32f4xx_hal_tim.c ****     /* nothing to do */
 956:Firmware/Drivers/STM32F4xx_HAL_Driver/Src/stm32f4xx_hal_tim.c ****   }
ARM GAS  /tmp/ccGTglLX.s 			page 47


 957:Firmware/Drivers/STM32F4xx_HAL_Driver/Src/stm32f4xx_hal_tim.c **** 
 958:Firmware/Drivers/STM32F4xx_HAL_Driver/Src/stm32f4xx_hal_tim.c ****   switch (Channel)
 1704              		.loc 1 958 0
 1705 0042 BB68     		ldr	r3, [r7, #8]
 1706 0044 0C2B     		cmp	r3, #12
 1707 0046 00F2AD80 		bhi	.L116
 1708 004a 01A2     		adr	r2, .L102
 1709 004c 52F823F0 		ldr	pc, [r2, r3, lsl #2]
 1710              		.p2align 2
 1711              	.L102:
 1712 0050 85000000 		.word	.L101+1
 1713 0054 A5010000 		.word	.L116+1
 1714 0058 A5010000 		.word	.L116+1
 1715 005c A5010000 		.word	.L116+1
 1716 0060 CD000000 		.word	.L103+1
 1717 0064 A5010000 		.word	.L116+1
 1718 0068 A5010000 		.word	.L116+1
 1719 006c A5010000 		.word	.L116+1
 1720 0070 15010000 		.word	.L104+1
 1721 0074 A5010000 		.word	.L116+1
 1722 0078 A5010000 		.word	.L116+1
 1723 007c A5010000 		.word	.L116+1
 1724 0080 5D010000 		.word	.L105+1
 1725              		.p2align 1
 1726              	.L101:
 959:Firmware/Drivers/STM32F4xx_HAL_Driver/Src/stm32f4xx_hal_tim.c ****   {
 960:Firmware/Drivers/STM32F4xx_HAL_Driver/Src/stm32f4xx_hal_tim.c ****     case TIM_CHANNEL_1:
 961:Firmware/Drivers/STM32F4xx_HAL_Driver/Src/stm32f4xx_hal_tim.c ****     {
 962:Firmware/Drivers/STM32F4xx_HAL_Driver/Src/stm32f4xx_hal_tim.c ****       /* Set the DMA compare callbacks */
 963:Firmware/Drivers/STM32F4xx_HAL_Driver/Src/stm32f4xx_hal_tim.c ****       htim->hdma[TIM_DMA_ID_CC1]->XferCpltCallback = TIM_DMADelayPulseCplt;
 1727              		.loc 1 963 0
 1728 0084 FB68     		ldr	r3, [r7, #12]
 1729 0086 5B6A     		ldr	r3, [r3, #36]
 1730 0088 614A     		ldr	r2, .L117
 1731 008a DA63     		str	r2, [r3, #60]
 964:Firmware/Drivers/STM32F4xx_HAL_Driver/Src/stm32f4xx_hal_tim.c ****       htim->hdma[TIM_DMA_ID_CC1]->XferHalfCpltCallback = TIM_DMADelayPulseHalfCplt;
 1732              		.loc 1 964 0
 1733 008c FB68     		ldr	r3, [r7, #12]
 1734 008e 5B6A     		ldr	r3, [r3, #36]
 1735 0090 604A     		ldr	r2, .L117+4
 1736 0092 1A64     		str	r2, [r3, #64]
 965:Firmware/Drivers/STM32F4xx_HAL_Driver/Src/stm32f4xx_hal_tim.c **** 
 966:Firmware/Drivers/STM32F4xx_HAL_Driver/Src/stm32f4xx_hal_tim.c ****       /* Set the DMA error callback */
 967:Firmware/Drivers/STM32F4xx_HAL_Driver/Src/stm32f4xx_hal_tim.c ****       htim->hdma[TIM_DMA_ID_CC1]->XferErrorCallback = TIM_DMAError ;
 1737              		.loc 1 967 0
 1738 0094 FB68     		ldr	r3, [r7, #12]
 1739 0096 5B6A     		ldr	r3, [r3, #36]
 1740 0098 5F4A     		ldr	r2, .L117+8
 1741 009a DA64     		str	r2, [r3, #76]
 968:Firmware/Drivers/STM32F4xx_HAL_Driver/Src/stm32f4xx_hal_tim.c **** 
 969:Firmware/Drivers/STM32F4xx_HAL_Driver/Src/stm32f4xx_hal_tim.c ****       /* Enable the DMA stream */
 970:Firmware/Drivers/STM32F4xx_HAL_Driver/Src/stm32f4xx_hal_tim.c ****       if (HAL_DMA_Start_IT(htim->hdma[TIM_DMA_ID_CC1], (uint32_t)pData, (uint32_t)&htim->Instance->
 1742              		.loc 1 970 0
 1743 009c FB68     		ldr	r3, [r7, #12]
 1744 009e 586A     		ldr	r0, [r3, #36]
 1745 00a0 7968     		ldr	r1, [r7, #4]
 1746 00a2 FB68     		ldr	r3, [r7, #12]
ARM GAS  /tmp/ccGTglLX.s 			page 48


 1747 00a4 1B68     		ldr	r3, [r3]
 1748 00a6 3433     		adds	r3, r3, #52
 1749 00a8 1A46     		mov	r2, r3
 1750 00aa 7B88     		ldrh	r3, [r7, #2]
 1751 00ac FFF7FEFF 		bl	HAL_DMA_Start_IT
 1752 00b0 0346     		mov	r3, r0
 1753 00b2 002B     		cmp	r3, #0
 1754 00b4 01D0     		beq	.L106
 971:Firmware/Drivers/STM32F4xx_HAL_Driver/Src/stm32f4xx_hal_tim.c ****       {
 972:Firmware/Drivers/STM32F4xx_HAL_Driver/Src/stm32f4xx_hal_tim.c ****         return HAL_ERROR;
 1755              		.loc 1 972 0
 1756 00b6 0123     		movs	r3, #1
 1757 00b8 A5E0     		b	.L97
 1758              	.L106:
 973:Firmware/Drivers/STM32F4xx_HAL_Driver/Src/stm32f4xx_hal_tim.c ****       }
 974:Firmware/Drivers/STM32F4xx_HAL_Driver/Src/stm32f4xx_hal_tim.c **** 
 975:Firmware/Drivers/STM32F4xx_HAL_Driver/Src/stm32f4xx_hal_tim.c ****       /* Enable the TIM Capture/Compare 1 DMA request */
 976:Firmware/Drivers/STM32F4xx_HAL_Driver/Src/stm32f4xx_hal_tim.c ****       __HAL_TIM_ENABLE_DMA(htim, TIM_DMA_CC1);
 1759              		.loc 1 976 0
 1760 00ba FB68     		ldr	r3, [r7, #12]
 1761 00bc 1B68     		ldr	r3, [r3]
 1762 00be DA68     		ldr	r2, [r3, #12]
 1763 00c0 FB68     		ldr	r3, [r7, #12]
 1764 00c2 1B68     		ldr	r3, [r3]
 1765 00c4 42F40072 		orr	r2, r2, #512
 1766 00c8 DA60     		str	r2, [r3, #12]
 977:Firmware/Drivers/STM32F4xx_HAL_Driver/Src/stm32f4xx_hal_tim.c ****       break;
 1767              		.loc 1 977 0
 1768 00ca 6CE0     		b	.L107
 1769              	.L103:
 978:Firmware/Drivers/STM32F4xx_HAL_Driver/Src/stm32f4xx_hal_tim.c ****     }
 979:Firmware/Drivers/STM32F4xx_HAL_Driver/Src/stm32f4xx_hal_tim.c **** 
 980:Firmware/Drivers/STM32F4xx_HAL_Driver/Src/stm32f4xx_hal_tim.c ****     case TIM_CHANNEL_2:
 981:Firmware/Drivers/STM32F4xx_HAL_Driver/Src/stm32f4xx_hal_tim.c ****     {
 982:Firmware/Drivers/STM32F4xx_HAL_Driver/Src/stm32f4xx_hal_tim.c ****       /* Set the DMA compare callbacks */
 983:Firmware/Drivers/STM32F4xx_HAL_Driver/Src/stm32f4xx_hal_tim.c ****       htim->hdma[TIM_DMA_ID_CC2]->XferCpltCallback = TIM_DMADelayPulseCplt;
 1770              		.loc 1 983 0
 1771 00cc FB68     		ldr	r3, [r7, #12]
 1772 00ce 9B6A     		ldr	r3, [r3, #40]
 1773 00d0 4F4A     		ldr	r2, .L117
 1774 00d2 DA63     		str	r2, [r3, #60]
 984:Firmware/Drivers/STM32F4xx_HAL_Driver/Src/stm32f4xx_hal_tim.c ****       htim->hdma[TIM_DMA_ID_CC2]->XferHalfCpltCallback = TIM_DMADelayPulseHalfCplt;
 1775              		.loc 1 984 0
 1776 00d4 FB68     		ldr	r3, [r7, #12]
 1777 00d6 9B6A     		ldr	r3, [r3, #40]
 1778 00d8 4E4A     		ldr	r2, .L117+4
 1779 00da 1A64     		str	r2, [r3, #64]
 985:Firmware/Drivers/STM32F4xx_HAL_Driver/Src/stm32f4xx_hal_tim.c **** 
 986:Firmware/Drivers/STM32F4xx_HAL_Driver/Src/stm32f4xx_hal_tim.c ****       /* Set the DMA error callback */
 987:Firmware/Drivers/STM32F4xx_HAL_Driver/Src/stm32f4xx_hal_tim.c ****       htim->hdma[TIM_DMA_ID_CC2]->XferErrorCallback = TIM_DMAError ;
 1780              		.loc 1 987 0
 1781 00dc FB68     		ldr	r3, [r7, #12]
 1782 00de 9B6A     		ldr	r3, [r3, #40]
 1783 00e0 4D4A     		ldr	r2, .L117+8
 1784 00e2 DA64     		str	r2, [r3, #76]
 988:Firmware/Drivers/STM32F4xx_HAL_Driver/Src/stm32f4xx_hal_tim.c **** 
 989:Firmware/Drivers/STM32F4xx_HAL_Driver/Src/stm32f4xx_hal_tim.c ****       /* Enable the DMA stream */
ARM GAS  /tmp/ccGTglLX.s 			page 49


 990:Firmware/Drivers/STM32F4xx_HAL_Driver/Src/stm32f4xx_hal_tim.c ****       if (HAL_DMA_Start_IT(htim->hdma[TIM_DMA_ID_CC2], (uint32_t)pData, (uint32_t)&htim->Instance->
 1785              		.loc 1 990 0
 1786 00e4 FB68     		ldr	r3, [r7, #12]
 1787 00e6 986A     		ldr	r0, [r3, #40]
 1788 00e8 7968     		ldr	r1, [r7, #4]
 1789 00ea FB68     		ldr	r3, [r7, #12]
 1790 00ec 1B68     		ldr	r3, [r3]
 1791 00ee 3833     		adds	r3, r3, #56
 1792 00f0 1A46     		mov	r2, r3
 1793 00f2 7B88     		ldrh	r3, [r7, #2]
 1794 00f4 FFF7FEFF 		bl	HAL_DMA_Start_IT
 1795 00f8 0346     		mov	r3, r0
 1796 00fa 002B     		cmp	r3, #0
 1797 00fc 01D0     		beq	.L108
 991:Firmware/Drivers/STM32F4xx_HAL_Driver/Src/stm32f4xx_hal_tim.c ****       {
 992:Firmware/Drivers/STM32F4xx_HAL_Driver/Src/stm32f4xx_hal_tim.c ****         return HAL_ERROR;
 1798              		.loc 1 992 0
 1799 00fe 0123     		movs	r3, #1
 1800 0100 81E0     		b	.L97
 1801              	.L108:
 993:Firmware/Drivers/STM32F4xx_HAL_Driver/Src/stm32f4xx_hal_tim.c ****       }
 994:Firmware/Drivers/STM32F4xx_HAL_Driver/Src/stm32f4xx_hal_tim.c **** 
 995:Firmware/Drivers/STM32F4xx_HAL_Driver/Src/stm32f4xx_hal_tim.c ****       /* Enable the TIM Capture/Compare 2 DMA request */
 996:Firmware/Drivers/STM32F4xx_HAL_Driver/Src/stm32f4xx_hal_tim.c ****       __HAL_TIM_ENABLE_DMA(htim, TIM_DMA_CC2);
 1802              		.loc 1 996 0
 1803 0102 FB68     		ldr	r3, [r7, #12]
 1804 0104 1B68     		ldr	r3, [r3]
 1805 0106 DA68     		ldr	r2, [r3, #12]
 1806 0108 FB68     		ldr	r3, [r7, #12]
 1807 010a 1B68     		ldr	r3, [r3]
 1808 010c 42F48062 		orr	r2, r2, #1024
 1809 0110 DA60     		str	r2, [r3, #12]
 997:Firmware/Drivers/STM32F4xx_HAL_Driver/Src/stm32f4xx_hal_tim.c ****       break;
 1810              		.loc 1 997 0
 1811 0112 48E0     		b	.L107
 1812              	.L104:
 998:Firmware/Drivers/STM32F4xx_HAL_Driver/Src/stm32f4xx_hal_tim.c ****     }
 999:Firmware/Drivers/STM32F4xx_HAL_Driver/Src/stm32f4xx_hal_tim.c **** 
1000:Firmware/Drivers/STM32F4xx_HAL_Driver/Src/stm32f4xx_hal_tim.c ****     case TIM_CHANNEL_3:
1001:Firmware/Drivers/STM32F4xx_HAL_Driver/Src/stm32f4xx_hal_tim.c ****     {
1002:Firmware/Drivers/STM32F4xx_HAL_Driver/Src/stm32f4xx_hal_tim.c ****       /* Set the DMA compare callbacks */
1003:Firmware/Drivers/STM32F4xx_HAL_Driver/Src/stm32f4xx_hal_tim.c ****       htim->hdma[TIM_DMA_ID_CC3]->XferCpltCallback = TIM_DMADelayPulseCplt;
 1813              		.loc 1 1003 0
 1814 0114 FB68     		ldr	r3, [r7, #12]
 1815 0116 DB6A     		ldr	r3, [r3, #44]
 1816 0118 3D4A     		ldr	r2, .L117
 1817 011a DA63     		str	r2, [r3, #60]
1004:Firmware/Drivers/STM32F4xx_HAL_Driver/Src/stm32f4xx_hal_tim.c ****       htim->hdma[TIM_DMA_ID_CC3]->XferHalfCpltCallback = TIM_DMADelayPulseHalfCplt;
 1818              		.loc 1 1004 0
 1819 011c FB68     		ldr	r3, [r7, #12]
 1820 011e DB6A     		ldr	r3, [r3, #44]
 1821 0120 3C4A     		ldr	r2, .L117+4
 1822 0122 1A64     		str	r2, [r3, #64]
1005:Firmware/Drivers/STM32F4xx_HAL_Driver/Src/stm32f4xx_hal_tim.c **** 
1006:Firmware/Drivers/STM32F4xx_HAL_Driver/Src/stm32f4xx_hal_tim.c ****       /* Set the DMA error callback */
1007:Firmware/Drivers/STM32F4xx_HAL_Driver/Src/stm32f4xx_hal_tim.c ****       htim->hdma[TIM_DMA_ID_CC3]->XferErrorCallback = TIM_DMAError ;
 1823              		.loc 1 1007 0
ARM GAS  /tmp/ccGTglLX.s 			page 50


 1824 0124 FB68     		ldr	r3, [r7, #12]
 1825 0126 DB6A     		ldr	r3, [r3, #44]
 1826 0128 3B4A     		ldr	r2, .L117+8
 1827 012a DA64     		str	r2, [r3, #76]
1008:Firmware/Drivers/STM32F4xx_HAL_Driver/Src/stm32f4xx_hal_tim.c **** 
1009:Firmware/Drivers/STM32F4xx_HAL_Driver/Src/stm32f4xx_hal_tim.c ****       /* Enable the DMA stream */
1010:Firmware/Drivers/STM32F4xx_HAL_Driver/Src/stm32f4xx_hal_tim.c ****       if (HAL_DMA_Start_IT(htim->hdma[TIM_DMA_ID_CC3], (uint32_t)pData, (uint32_t)&htim->Instance->
 1828              		.loc 1 1010 0
 1829 012c FB68     		ldr	r3, [r7, #12]
 1830 012e D86A     		ldr	r0, [r3, #44]
 1831 0130 7968     		ldr	r1, [r7, #4]
 1832 0132 FB68     		ldr	r3, [r7, #12]
 1833 0134 1B68     		ldr	r3, [r3]
 1834 0136 3C33     		adds	r3, r3, #60
 1835 0138 1A46     		mov	r2, r3
 1836 013a 7B88     		ldrh	r3, [r7, #2]
 1837 013c FFF7FEFF 		bl	HAL_DMA_Start_IT
 1838 0140 0346     		mov	r3, r0
 1839 0142 002B     		cmp	r3, #0
 1840 0144 01D0     		beq	.L109
1011:Firmware/Drivers/STM32F4xx_HAL_Driver/Src/stm32f4xx_hal_tim.c ****       {
1012:Firmware/Drivers/STM32F4xx_HAL_Driver/Src/stm32f4xx_hal_tim.c ****         return HAL_ERROR;
 1841              		.loc 1 1012 0
 1842 0146 0123     		movs	r3, #1
 1843 0148 5DE0     		b	.L97
 1844              	.L109:
1013:Firmware/Drivers/STM32F4xx_HAL_Driver/Src/stm32f4xx_hal_tim.c ****       }
1014:Firmware/Drivers/STM32F4xx_HAL_Driver/Src/stm32f4xx_hal_tim.c ****       /* Enable the TIM Capture/Compare 3 DMA request */
1015:Firmware/Drivers/STM32F4xx_HAL_Driver/Src/stm32f4xx_hal_tim.c ****       __HAL_TIM_ENABLE_DMA(htim, TIM_DMA_CC3);
 1845              		.loc 1 1015 0
 1846 014a FB68     		ldr	r3, [r7, #12]
 1847 014c 1B68     		ldr	r3, [r3]
 1848 014e DA68     		ldr	r2, [r3, #12]
 1849 0150 FB68     		ldr	r3, [r7, #12]
 1850 0152 1B68     		ldr	r3, [r3]
 1851 0154 42F40062 		orr	r2, r2, #2048
 1852 0158 DA60     		str	r2, [r3, #12]
1016:Firmware/Drivers/STM32F4xx_HAL_Driver/Src/stm32f4xx_hal_tim.c ****       break;
 1853              		.loc 1 1016 0
 1854 015a 24E0     		b	.L107
 1855              	.L105:
1017:Firmware/Drivers/STM32F4xx_HAL_Driver/Src/stm32f4xx_hal_tim.c ****     }
1018:Firmware/Drivers/STM32F4xx_HAL_Driver/Src/stm32f4xx_hal_tim.c **** 
1019:Firmware/Drivers/STM32F4xx_HAL_Driver/Src/stm32f4xx_hal_tim.c ****     case TIM_CHANNEL_4:
1020:Firmware/Drivers/STM32F4xx_HAL_Driver/Src/stm32f4xx_hal_tim.c ****     {
1021:Firmware/Drivers/STM32F4xx_HAL_Driver/Src/stm32f4xx_hal_tim.c ****       /* Set the DMA compare callbacks */
1022:Firmware/Drivers/STM32F4xx_HAL_Driver/Src/stm32f4xx_hal_tim.c ****       htim->hdma[TIM_DMA_ID_CC4]->XferCpltCallback = TIM_DMADelayPulseCplt;
 1856              		.loc 1 1022 0
 1857 015c FB68     		ldr	r3, [r7, #12]
 1858 015e 1B6B     		ldr	r3, [r3, #48]
 1859 0160 2B4A     		ldr	r2, .L117
 1860 0162 DA63     		str	r2, [r3, #60]
1023:Firmware/Drivers/STM32F4xx_HAL_Driver/Src/stm32f4xx_hal_tim.c ****       htim->hdma[TIM_DMA_ID_CC4]->XferHalfCpltCallback = TIM_DMADelayPulseHalfCplt;
 1861              		.loc 1 1023 0
 1862 0164 FB68     		ldr	r3, [r7, #12]
 1863 0166 1B6B     		ldr	r3, [r3, #48]
 1864 0168 2A4A     		ldr	r2, .L117+4
ARM GAS  /tmp/ccGTglLX.s 			page 51


 1865 016a 1A64     		str	r2, [r3, #64]
1024:Firmware/Drivers/STM32F4xx_HAL_Driver/Src/stm32f4xx_hal_tim.c **** 
1025:Firmware/Drivers/STM32F4xx_HAL_Driver/Src/stm32f4xx_hal_tim.c ****       /* Set the DMA error callback */
1026:Firmware/Drivers/STM32F4xx_HAL_Driver/Src/stm32f4xx_hal_tim.c ****       htim->hdma[TIM_DMA_ID_CC4]->XferErrorCallback = TIM_DMAError ;
 1866              		.loc 1 1026 0
 1867 016c FB68     		ldr	r3, [r7, #12]
 1868 016e 1B6B     		ldr	r3, [r3, #48]
 1869 0170 294A     		ldr	r2, .L117+8
 1870 0172 DA64     		str	r2, [r3, #76]
1027:Firmware/Drivers/STM32F4xx_HAL_Driver/Src/stm32f4xx_hal_tim.c **** 
1028:Firmware/Drivers/STM32F4xx_HAL_Driver/Src/stm32f4xx_hal_tim.c ****       /* Enable the DMA stream */
1029:Firmware/Drivers/STM32F4xx_HAL_Driver/Src/stm32f4xx_hal_tim.c ****       if (HAL_DMA_Start_IT(htim->hdma[TIM_DMA_ID_CC4], (uint32_t)pData, (uint32_t)&htim->Instance->
 1871              		.loc 1 1029 0
 1872 0174 FB68     		ldr	r3, [r7, #12]
 1873 0176 186B     		ldr	r0, [r3, #48]
 1874 0178 7968     		ldr	r1, [r7, #4]
 1875 017a FB68     		ldr	r3, [r7, #12]
 1876 017c 1B68     		ldr	r3, [r3]
 1877 017e 4033     		adds	r3, r3, #64
 1878 0180 1A46     		mov	r2, r3
 1879 0182 7B88     		ldrh	r3, [r7, #2]
 1880 0184 FFF7FEFF 		bl	HAL_DMA_Start_IT
 1881 0188 0346     		mov	r3, r0
 1882 018a 002B     		cmp	r3, #0
 1883 018c 01D0     		beq	.L110
1030:Firmware/Drivers/STM32F4xx_HAL_Driver/Src/stm32f4xx_hal_tim.c ****       {
1031:Firmware/Drivers/STM32F4xx_HAL_Driver/Src/stm32f4xx_hal_tim.c ****         return HAL_ERROR;
 1884              		.loc 1 1031 0
 1885 018e 0123     		movs	r3, #1
 1886 0190 39E0     		b	.L97
 1887              	.L110:
1032:Firmware/Drivers/STM32F4xx_HAL_Driver/Src/stm32f4xx_hal_tim.c ****       }
1033:Firmware/Drivers/STM32F4xx_HAL_Driver/Src/stm32f4xx_hal_tim.c ****       /* Enable the TIM Capture/Compare 4 DMA request */
1034:Firmware/Drivers/STM32F4xx_HAL_Driver/Src/stm32f4xx_hal_tim.c ****       __HAL_TIM_ENABLE_DMA(htim, TIM_DMA_CC4);
 1888              		.loc 1 1034 0
 1889 0192 FB68     		ldr	r3, [r7, #12]
 1890 0194 1B68     		ldr	r3, [r3]
 1891 0196 DA68     		ldr	r2, [r3, #12]
 1892 0198 FB68     		ldr	r3, [r7, #12]
 1893 019a 1B68     		ldr	r3, [r3]
 1894 019c 42F48052 		orr	r2, r2, #4096
 1895 01a0 DA60     		str	r2, [r3, #12]
1035:Firmware/Drivers/STM32F4xx_HAL_Driver/Src/stm32f4xx_hal_tim.c ****       break;
 1896              		.loc 1 1035 0
 1897 01a2 00E0     		b	.L107
 1898              	.L116:
1036:Firmware/Drivers/STM32F4xx_HAL_Driver/Src/stm32f4xx_hal_tim.c ****     }
1037:Firmware/Drivers/STM32F4xx_HAL_Driver/Src/stm32f4xx_hal_tim.c **** 
1038:Firmware/Drivers/STM32F4xx_HAL_Driver/Src/stm32f4xx_hal_tim.c ****     default:
1039:Firmware/Drivers/STM32F4xx_HAL_Driver/Src/stm32f4xx_hal_tim.c ****       break;
 1899              		.loc 1 1039 0
 1900 01a4 00BF     		nop
 1901              	.L107:
1040:Firmware/Drivers/STM32F4xx_HAL_Driver/Src/stm32f4xx_hal_tim.c ****   }
1041:Firmware/Drivers/STM32F4xx_HAL_Driver/Src/stm32f4xx_hal_tim.c **** 
1042:Firmware/Drivers/STM32F4xx_HAL_Driver/Src/stm32f4xx_hal_tim.c ****   /* Enable the Output compare channel */
1043:Firmware/Drivers/STM32F4xx_HAL_Driver/Src/stm32f4xx_hal_tim.c ****   TIM_CCxChannelCmd(htim->Instance, Channel, TIM_CCx_ENABLE);
ARM GAS  /tmp/ccGTglLX.s 			page 52


 1902              		.loc 1 1043 0
 1903 01a6 FB68     		ldr	r3, [r7, #12]
 1904 01a8 1B68     		ldr	r3, [r3]
 1905 01aa 0122     		movs	r2, #1
 1906 01ac B968     		ldr	r1, [r7, #8]
 1907 01ae 1846     		mov	r0, r3
 1908 01b0 FFF7FEFF 		bl	TIM_CCxChannelCmd
1044:Firmware/Drivers/STM32F4xx_HAL_Driver/Src/stm32f4xx_hal_tim.c **** 
1045:Firmware/Drivers/STM32F4xx_HAL_Driver/Src/stm32f4xx_hal_tim.c ****   if (IS_TIM_BREAK_INSTANCE(htim->Instance) != RESET)
 1909              		.loc 1 1045 0
 1910 01b4 FB68     		ldr	r3, [r7, #12]
 1911 01b6 1B68     		ldr	r3, [r3]
 1912 01b8 184A     		ldr	r2, .L117+12
 1913 01ba 9342     		cmp	r3, r2
 1914 01bc 04D0     		beq	.L111
 1915              		.loc 1 1045 0 is_stmt 0 discriminator 2
 1916 01be FB68     		ldr	r3, [r7, #12]
 1917 01c0 1B68     		ldr	r3, [r3]
 1918 01c2 174A     		ldr	r2, .L117+16
 1919 01c4 9342     		cmp	r3, r2
 1920 01c6 01D1     		bne	.L112
 1921              	.L111:
 1922              		.loc 1 1045 0 discriminator 3
 1923 01c8 0123     		movs	r3, #1
 1924 01ca 00E0     		b	.L113
 1925              	.L112:
 1926              		.loc 1 1045 0 discriminator 4
 1927 01cc 0023     		movs	r3, #0
 1928              	.L113:
 1929              		.loc 1 1045 0 discriminator 6
 1930 01ce 002B     		cmp	r3, #0
 1931 01d0 07D0     		beq	.L114
1046:Firmware/Drivers/STM32F4xx_HAL_Driver/Src/stm32f4xx_hal_tim.c ****   {
1047:Firmware/Drivers/STM32F4xx_HAL_Driver/Src/stm32f4xx_hal_tim.c ****     /* Enable the main output */
1048:Firmware/Drivers/STM32F4xx_HAL_Driver/Src/stm32f4xx_hal_tim.c ****     __HAL_TIM_MOE_ENABLE(htim);
 1932              		.loc 1 1048 0 is_stmt 1
 1933 01d2 FB68     		ldr	r3, [r7, #12]
 1934 01d4 1B68     		ldr	r3, [r3]
 1935 01d6 5A6C     		ldr	r2, [r3, #68]
 1936 01d8 FB68     		ldr	r3, [r7, #12]
 1937 01da 1B68     		ldr	r3, [r3]
 1938 01dc 42F40042 		orr	r2, r2, #32768
 1939 01e0 5A64     		str	r2, [r3, #68]
 1940              	.L114:
1049:Firmware/Drivers/STM32F4xx_HAL_Driver/Src/stm32f4xx_hal_tim.c ****   }
1050:Firmware/Drivers/STM32F4xx_HAL_Driver/Src/stm32f4xx_hal_tim.c **** 
1051:Firmware/Drivers/STM32F4xx_HAL_Driver/Src/stm32f4xx_hal_tim.c ****   /* Enable the Peripheral, except in trigger mode where enable is automatically done with trigger 
1052:Firmware/Drivers/STM32F4xx_HAL_Driver/Src/stm32f4xx_hal_tim.c ****   tmpsmcr = htim->Instance->SMCR & TIM_SMCR_SMS;
 1941              		.loc 1 1052 0
 1942 01e2 FB68     		ldr	r3, [r7, #12]
 1943 01e4 1B68     		ldr	r3, [r3]
 1944 01e6 9B68     		ldr	r3, [r3, #8]
 1945 01e8 03F00703 		and	r3, r3, #7
 1946 01ec 7B61     		str	r3, [r7, #20]
1053:Firmware/Drivers/STM32F4xx_HAL_Driver/Src/stm32f4xx_hal_tim.c ****   if (!IS_TIM_SLAVEMODE_TRIGGER_ENABLED(tmpsmcr))
 1947              		.loc 1 1053 0
 1948 01ee 7B69     		ldr	r3, [r7, #20]
ARM GAS  /tmp/ccGTglLX.s 			page 53


 1949 01f0 062B     		cmp	r3, #6
 1950 01f2 07D0     		beq	.L115
1054:Firmware/Drivers/STM32F4xx_HAL_Driver/Src/stm32f4xx_hal_tim.c ****   {
1055:Firmware/Drivers/STM32F4xx_HAL_Driver/Src/stm32f4xx_hal_tim.c ****     __HAL_TIM_ENABLE(htim);
 1951              		.loc 1 1055 0
 1952 01f4 FB68     		ldr	r3, [r7, #12]
 1953 01f6 1B68     		ldr	r3, [r3]
 1954 01f8 1A68     		ldr	r2, [r3]
 1955 01fa FB68     		ldr	r3, [r7, #12]
 1956 01fc 1B68     		ldr	r3, [r3]
 1957 01fe 42F00102 		orr	r2, r2, #1
 1958 0202 1A60     		str	r2, [r3]
 1959              	.L115:
1056:Firmware/Drivers/STM32F4xx_HAL_Driver/Src/stm32f4xx_hal_tim.c ****   }
1057:Firmware/Drivers/STM32F4xx_HAL_Driver/Src/stm32f4xx_hal_tim.c **** 
1058:Firmware/Drivers/STM32F4xx_HAL_Driver/Src/stm32f4xx_hal_tim.c ****   /* Return function status */
1059:Firmware/Drivers/STM32F4xx_HAL_Driver/Src/stm32f4xx_hal_tim.c ****   return HAL_OK;
 1960              		.loc 1 1059 0
 1961 0204 0023     		movs	r3, #0
 1962              	.L97:
1060:Firmware/Drivers/STM32F4xx_HAL_Driver/Src/stm32f4xx_hal_tim.c **** }
 1963              		.loc 1 1060 0
 1964 0206 1846     		mov	r0, r3
 1965 0208 1837     		adds	r7, r7, #24
 1966              	.LCFI101:
 1967              		.cfi_def_cfa_offset 8
 1968 020a BD46     		mov	sp, r7
 1969              	.LCFI102:
 1970              		.cfi_def_cfa_register 13
 1971              		@ sp needed
 1972 020c 80BD     		pop	{r7, pc}
 1973              	.L118:
 1974 020e 00BF     		.align	2
 1975              	.L117:
 1976 0210 00000000 		.word	TIM_DMADelayPulseCplt
 1977 0214 00000000 		.word	TIM_DMADelayPulseHalfCplt
 1978 0218 00000000 		.word	TIM_DMAError
 1979 021c 00000140 		.word	1073807360
 1980 0220 00040140 		.word	1073808384
 1981              		.cfi_endproc
 1982              	.LFE148:
 1984              		.section	.text.HAL_TIM_OC_Stop_DMA,"ax",%progbits
 1985              		.align	1
 1986              		.global	HAL_TIM_OC_Stop_DMA
 1987              		.syntax unified
 1988              		.thumb
 1989              		.thumb_func
 1990              		.fpu fpv4-sp-d16
 1992              	HAL_TIM_OC_Stop_DMA:
 1993              	.LFB149:
1061:Firmware/Drivers/STM32F4xx_HAL_Driver/Src/stm32f4xx_hal_tim.c **** 
1062:Firmware/Drivers/STM32F4xx_HAL_Driver/Src/stm32f4xx_hal_tim.c **** /**
1063:Firmware/Drivers/STM32F4xx_HAL_Driver/Src/stm32f4xx_hal_tim.c ****   * @brief  Stops the TIM Output Compare signal generation in DMA mode.
1064:Firmware/Drivers/STM32F4xx_HAL_Driver/Src/stm32f4xx_hal_tim.c ****   * @param  htim TIM Output Compare handle
1065:Firmware/Drivers/STM32F4xx_HAL_Driver/Src/stm32f4xx_hal_tim.c ****   * @param  Channel TIM Channel to be disabled
1066:Firmware/Drivers/STM32F4xx_HAL_Driver/Src/stm32f4xx_hal_tim.c ****   *          This parameter can be one of the following values:
1067:Firmware/Drivers/STM32F4xx_HAL_Driver/Src/stm32f4xx_hal_tim.c ****   *            @arg TIM_CHANNEL_1: TIM Channel 1 selected
ARM GAS  /tmp/ccGTglLX.s 			page 54


1068:Firmware/Drivers/STM32F4xx_HAL_Driver/Src/stm32f4xx_hal_tim.c ****   *            @arg TIM_CHANNEL_2: TIM Channel 2 selected
1069:Firmware/Drivers/STM32F4xx_HAL_Driver/Src/stm32f4xx_hal_tim.c ****   *            @arg TIM_CHANNEL_3: TIM Channel 3 selected
1070:Firmware/Drivers/STM32F4xx_HAL_Driver/Src/stm32f4xx_hal_tim.c ****   *            @arg TIM_CHANNEL_4: TIM Channel 4 selected
1071:Firmware/Drivers/STM32F4xx_HAL_Driver/Src/stm32f4xx_hal_tim.c ****   * @retval HAL status
1072:Firmware/Drivers/STM32F4xx_HAL_Driver/Src/stm32f4xx_hal_tim.c ****   */
1073:Firmware/Drivers/STM32F4xx_HAL_Driver/Src/stm32f4xx_hal_tim.c **** HAL_StatusTypeDef HAL_TIM_OC_Stop_DMA(TIM_HandleTypeDef *htim, uint32_t Channel)
1074:Firmware/Drivers/STM32F4xx_HAL_Driver/Src/stm32f4xx_hal_tim.c **** {
 1994              		.loc 1 1074 0
 1995              		.cfi_startproc
 1996              		@ args = 0, pretend = 0, frame = 8
 1997              		@ frame_needed = 1, uses_anonymous_args = 0
 1998 0000 80B5     		push	{r7, lr}
 1999              	.LCFI103:
 2000              		.cfi_def_cfa_offset 8
 2001              		.cfi_offset 7, -8
 2002              		.cfi_offset 14, -4
 2003 0002 82B0     		sub	sp, sp, #8
 2004              	.LCFI104:
 2005              		.cfi_def_cfa_offset 16
 2006 0004 00AF     		add	r7, sp, #0
 2007              	.LCFI105:
 2008              		.cfi_def_cfa_register 7
 2009 0006 7860     		str	r0, [r7, #4]
 2010 0008 3960     		str	r1, [r7]
1075:Firmware/Drivers/STM32F4xx_HAL_Driver/Src/stm32f4xx_hal_tim.c ****   /* Check the parameters */
1076:Firmware/Drivers/STM32F4xx_HAL_Driver/Src/stm32f4xx_hal_tim.c ****   assert_param(IS_TIM_CCX_INSTANCE(htim->Instance, Channel));
1077:Firmware/Drivers/STM32F4xx_HAL_Driver/Src/stm32f4xx_hal_tim.c **** 
1078:Firmware/Drivers/STM32F4xx_HAL_Driver/Src/stm32f4xx_hal_tim.c ****   switch (Channel)
 2011              		.loc 1 1078 0
 2012 000a 3B68     		ldr	r3, [r7]
 2013 000c 0C2B     		cmp	r3, #12
 2014 000e 55D8     		bhi	.L133
 2015 0010 01A2     		adr	r2, .L122
 2016 0012 52F823F0 		ldr	pc, [r2, r3, lsl #2]
 2017 0016 00BF     		.p2align 2
 2018              	.L122:
 2019 0018 4D000000 		.word	.L121+1
 2020 001c BD000000 		.word	.L133+1
 2021 0020 BD000000 		.word	.L133+1
 2022 0024 BD000000 		.word	.L133+1
 2023 0028 69000000 		.word	.L123+1
 2024 002c BD000000 		.word	.L133+1
 2025 0030 BD000000 		.word	.L133+1
 2026 0034 BD000000 		.word	.L133+1
 2027 0038 85000000 		.word	.L124+1
 2028 003c BD000000 		.word	.L133+1
 2029 0040 BD000000 		.word	.L133+1
 2030 0044 BD000000 		.word	.L133+1
 2031 0048 A1000000 		.word	.L125+1
 2032              		.p2align 1
 2033              	.L121:
1079:Firmware/Drivers/STM32F4xx_HAL_Driver/Src/stm32f4xx_hal_tim.c ****   {
1080:Firmware/Drivers/STM32F4xx_HAL_Driver/Src/stm32f4xx_hal_tim.c ****     case TIM_CHANNEL_1:
1081:Firmware/Drivers/STM32F4xx_HAL_Driver/Src/stm32f4xx_hal_tim.c ****     {
1082:Firmware/Drivers/STM32F4xx_HAL_Driver/Src/stm32f4xx_hal_tim.c ****       /* Disable the TIM Capture/Compare 1 DMA request */
1083:Firmware/Drivers/STM32F4xx_HAL_Driver/Src/stm32f4xx_hal_tim.c ****       __HAL_TIM_DISABLE_DMA(htim, TIM_DMA_CC1);
 2034              		.loc 1 1083 0
ARM GAS  /tmp/ccGTglLX.s 			page 55


 2035 004c 7B68     		ldr	r3, [r7, #4]
 2036 004e 1B68     		ldr	r3, [r3]
 2037 0050 DA68     		ldr	r2, [r3, #12]
 2038 0052 7B68     		ldr	r3, [r7, #4]
 2039 0054 1B68     		ldr	r3, [r3]
 2040 0056 22F40072 		bic	r2, r2, #512
 2041 005a DA60     		str	r2, [r3, #12]
1084:Firmware/Drivers/STM32F4xx_HAL_Driver/Src/stm32f4xx_hal_tim.c ****       (void)HAL_DMA_Abort_IT(htim->hdma[TIM_DMA_ID_CC1]);
 2042              		.loc 1 1084 0
 2043 005c 7B68     		ldr	r3, [r7, #4]
 2044 005e 5B6A     		ldr	r3, [r3, #36]
 2045 0060 1846     		mov	r0, r3
 2046 0062 FFF7FEFF 		bl	HAL_DMA_Abort_IT
1085:Firmware/Drivers/STM32F4xx_HAL_Driver/Src/stm32f4xx_hal_tim.c ****       break;
 2047              		.loc 1 1085 0
 2048 0066 2AE0     		b	.L126
 2049              	.L123:
1086:Firmware/Drivers/STM32F4xx_HAL_Driver/Src/stm32f4xx_hal_tim.c ****     }
1087:Firmware/Drivers/STM32F4xx_HAL_Driver/Src/stm32f4xx_hal_tim.c **** 
1088:Firmware/Drivers/STM32F4xx_HAL_Driver/Src/stm32f4xx_hal_tim.c ****     case TIM_CHANNEL_2:
1089:Firmware/Drivers/STM32F4xx_HAL_Driver/Src/stm32f4xx_hal_tim.c ****     {
1090:Firmware/Drivers/STM32F4xx_HAL_Driver/Src/stm32f4xx_hal_tim.c ****       /* Disable the TIM Capture/Compare 2 DMA request */
1091:Firmware/Drivers/STM32F4xx_HAL_Driver/Src/stm32f4xx_hal_tim.c ****       __HAL_TIM_DISABLE_DMA(htim, TIM_DMA_CC2);
 2050              		.loc 1 1091 0
 2051 0068 7B68     		ldr	r3, [r7, #4]
 2052 006a 1B68     		ldr	r3, [r3]
 2053 006c DA68     		ldr	r2, [r3, #12]
 2054 006e 7B68     		ldr	r3, [r7, #4]
 2055 0070 1B68     		ldr	r3, [r3]
 2056 0072 22F48062 		bic	r2, r2, #1024
 2057 0076 DA60     		str	r2, [r3, #12]
1092:Firmware/Drivers/STM32F4xx_HAL_Driver/Src/stm32f4xx_hal_tim.c ****       (void)HAL_DMA_Abort_IT(htim->hdma[TIM_DMA_ID_CC2]);
 2058              		.loc 1 1092 0
 2059 0078 7B68     		ldr	r3, [r7, #4]
 2060 007a 9B6A     		ldr	r3, [r3, #40]
 2061 007c 1846     		mov	r0, r3
 2062 007e FFF7FEFF 		bl	HAL_DMA_Abort_IT
1093:Firmware/Drivers/STM32F4xx_HAL_Driver/Src/stm32f4xx_hal_tim.c ****       break;
 2063              		.loc 1 1093 0
 2064 0082 1CE0     		b	.L126
 2065              	.L124:
1094:Firmware/Drivers/STM32F4xx_HAL_Driver/Src/stm32f4xx_hal_tim.c ****     }
1095:Firmware/Drivers/STM32F4xx_HAL_Driver/Src/stm32f4xx_hal_tim.c **** 
1096:Firmware/Drivers/STM32F4xx_HAL_Driver/Src/stm32f4xx_hal_tim.c ****     case TIM_CHANNEL_3:
1097:Firmware/Drivers/STM32F4xx_HAL_Driver/Src/stm32f4xx_hal_tim.c ****     {
1098:Firmware/Drivers/STM32F4xx_HAL_Driver/Src/stm32f4xx_hal_tim.c ****       /* Disable the TIM Capture/Compare 3 DMA request */
1099:Firmware/Drivers/STM32F4xx_HAL_Driver/Src/stm32f4xx_hal_tim.c ****       __HAL_TIM_DISABLE_DMA(htim, TIM_DMA_CC3);
 2066              		.loc 1 1099 0
 2067 0084 7B68     		ldr	r3, [r7, #4]
 2068 0086 1B68     		ldr	r3, [r3]
 2069 0088 DA68     		ldr	r2, [r3, #12]
 2070 008a 7B68     		ldr	r3, [r7, #4]
 2071 008c 1B68     		ldr	r3, [r3]
 2072 008e 22F40062 		bic	r2, r2, #2048
 2073 0092 DA60     		str	r2, [r3, #12]
1100:Firmware/Drivers/STM32F4xx_HAL_Driver/Src/stm32f4xx_hal_tim.c ****       (void)HAL_DMA_Abort_IT(htim->hdma[TIM_DMA_ID_CC3]);
 2074              		.loc 1 1100 0
ARM GAS  /tmp/ccGTglLX.s 			page 56


 2075 0094 7B68     		ldr	r3, [r7, #4]
 2076 0096 DB6A     		ldr	r3, [r3, #44]
 2077 0098 1846     		mov	r0, r3
 2078 009a FFF7FEFF 		bl	HAL_DMA_Abort_IT
1101:Firmware/Drivers/STM32F4xx_HAL_Driver/Src/stm32f4xx_hal_tim.c ****       break;
 2079              		.loc 1 1101 0
 2080 009e 0EE0     		b	.L126
 2081              	.L125:
1102:Firmware/Drivers/STM32F4xx_HAL_Driver/Src/stm32f4xx_hal_tim.c ****     }
1103:Firmware/Drivers/STM32F4xx_HAL_Driver/Src/stm32f4xx_hal_tim.c **** 
1104:Firmware/Drivers/STM32F4xx_HAL_Driver/Src/stm32f4xx_hal_tim.c ****     case TIM_CHANNEL_4:
1105:Firmware/Drivers/STM32F4xx_HAL_Driver/Src/stm32f4xx_hal_tim.c ****     {
1106:Firmware/Drivers/STM32F4xx_HAL_Driver/Src/stm32f4xx_hal_tim.c ****       /* Disable the TIM Capture/Compare 4 interrupt */
1107:Firmware/Drivers/STM32F4xx_HAL_Driver/Src/stm32f4xx_hal_tim.c ****       __HAL_TIM_DISABLE_DMA(htim, TIM_DMA_CC4);
 2082              		.loc 1 1107 0
 2083 00a0 7B68     		ldr	r3, [r7, #4]
 2084 00a2 1B68     		ldr	r3, [r3]
 2085 00a4 DA68     		ldr	r2, [r3, #12]
 2086 00a6 7B68     		ldr	r3, [r7, #4]
 2087 00a8 1B68     		ldr	r3, [r3]
 2088 00aa 22F48052 		bic	r2, r2, #4096
 2089 00ae DA60     		str	r2, [r3, #12]
1108:Firmware/Drivers/STM32F4xx_HAL_Driver/Src/stm32f4xx_hal_tim.c ****       (void)HAL_DMA_Abort_IT(htim->hdma[TIM_DMA_ID_CC4]);
 2090              		.loc 1 1108 0
 2091 00b0 7B68     		ldr	r3, [r7, #4]
 2092 00b2 1B6B     		ldr	r3, [r3, #48]
 2093 00b4 1846     		mov	r0, r3
 2094 00b6 FFF7FEFF 		bl	HAL_DMA_Abort_IT
1109:Firmware/Drivers/STM32F4xx_HAL_Driver/Src/stm32f4xx_hal_tim.c ****       break;
 2095              		.loc 1 1109 0
 2096 00ba 00E0     		b	.L126
 2097              	.L133:
1110:Firmware/Drivers/STM32F4xx_HAL_Driver/Src/stm32f4xx_hal_tim.c ****     }
1111:Firmware/Drivers/STM32F4xx_HAL_Driver/Src/stm32f4xx_hal_tim.c **** 
1112:Firmware/Drivers/STM32F4xx_HAL_Driver/Src/stm32f4xx_hal_tim.c ****     default:
1113:Firmware/Drivers/STM32F4xx_HAL_Driver/Src/stm32f4xx_hal_tim.c ****       break;
 2098              		.loc 1 1113 0
 2099 00bc 00BF     		nop
 2100              	.L126:
1114:Firmware/Drivers/STM32F4xx_HAL_Driver/Src/stm32f4xx_hal_tim.c ****   }
1115:Firmware/Drivers/STM32F4xx_HAL_Driver/Src/stm32f4xx_hal_tim.c **** 
1116:Firmware/Drivers/STM32F4xx_HAL_Driver/Src/stm32f4xx_hal_tim.c ****   /* Disable the Output compare channel */
1117:Firmware/Drivers/STM32F4xx_HAL_Driver/Src/stm32f4xx_hal_tim.c ****   TIM_CCxChannelCmd(htim->Instance, Channel, TIM_CCx_DISABLE);
 2101              		.loc 1 1117 0
 2102 00be 7B68     		ldr	r3, [r7, #4]
 2103 00c0 1B68     		ldr	r3, [r3]
 2104 00c2 0022     		movs	r2, #0
 2105 00c4 3968     		ldr	r1, [r7]
 2106 00c6 1846     		mov	r0, r3
 2107 00c8 FFF7FEFF 		bl	TIM_CCxChannelCmd
1118:Firmware/Drivers/STM32F4xx_HAL_Driver/Src/stm32f4xx_hal_tim.c **** 
1119:Firmware/Drivers/STM32F4xx_HAL_Driver/Src/stm32f4xx_hal_tim.c ****   if (IS_TIM_BREAK_INSTANCE(htim->Instance) != RESET)
 2108              		.loc 1 1119 0
 2109 00cc 7B68     		ldr	r3, [r7, #4]
 2110 00ce 1B68     		ldr	r3, [r3]
 2111 00d0 224A     		ldr	r2, .L134
 2112 00d2 9342     		cmp	r3, r2
ARM GAS  /tmp/ccGTglLX.s 			page 57


 2113 00d4 04D0     		beq	.L127
 2114              		.loc 1 1119 0 is_stmt 0 discriminator 2
 2115 00d6 7B68     		ldr	r3, [r7, #4]
 2116 00d8 1B68     		ldr	r3, [r3]
 2117 00da 214A     		ldr	r2, .L134+4
 2118 00dc 9342     		cmp	r3, r2
 2119 00de 01D1     		bne	.L128
 2120              	.L127:
 2121              		.loc 1 1119 0 discriminator 3
 2122 00e0 0123     		movs	r3, #1
 2123 00e2 00E0     		b	.L129
 2124              	.L128:
 2125              		.loc 1 1119 0 discriminator 4
 2126 00e4 0023     		movs	r3, #0
 2127              	.L129:
 2128              		.loc 1 1119 0 discriminator 6
 2129 00e6 002B     		cmp	r3, #0
 2130 00e8 17D0     		beq	.L130
1120:Firmware/Drivers/STM32F4xx_HAL_Driver/Src/stm32f4xx_hal_tim.c ****   {
1121:Firmware/Drivers/STM32F4xx_HAL_Driver/Src/stm32f4xx_hal_tim.c ****     /* Disable the Main Output */
1122:Firmware/Drivers/STM32F4xx_HAL_Driver/Src/stm32f4xx_hal_tim.c ****     __HAL_TIM_MOE_DISABLE(htim);
 2131              		.loc 1 1122 0 is_stmt 1
 2132 00ea 7B68     		ldr	r3, [r7, #4]
 2133 00ec 1B68     		ldr	r3, [r3]
 2134 00ee 1A6A     		ldr	r2, [r3, #32]
 2135 00f0 41F21113 		movw	r3, #4369
 2136 00f4 1340     		ands	r3, r3, r2
 2137 00f6 002B     		cmp	r3, #0
 2138 00f8 0FD1     		bne	.L130
 2139              		.loc 1 1122 0 is_stmt 0 discriminator 1
 2140 00fa 7B68     		ldr	r3, [r7, #4]
 2141 00fc 1B68     		ldr	r3, [r3]
 2142 00fe 1A6A     		ldr	r2, [r3, #32]
 2143 0100 40F24443 		movw	r3, #1092
 2144 0104 1340     		ands	r3, r3, r2
 2145 0106 002B     		cmp	r3, #0
 2146 0108 07D1     		bne	.L130
 2147              		.loc 1 1122 0 discriminator 2
 2148 010a 7B68     		ldr	r3, [r7, #4]
 2149 010c 1B68     		ldr	r3, [r3]
 2150 010e 5A6C     		ldr	r2, [r3, #68]
 2151 0110 7B68     		ldr	r3, [r7, #4]
 2152 0112 1B68     		ldr	r3, [r3]
 2153 0114 22F40042 		bic	r2, r2, #32768
 2154 0118 5A64     		str	r2, [r3, #68]
 2155              	.L130:
1123:Firmware/Drivers/STM32F4xx_HAL_Driver/Src/stm32f4xx_hal_tim.c ****   }
1124:Firmware/Drivers/STM32F4xx_HAL_Driver/Src/stm32f4xx_hal_tim.c **** 
1125:Firmware/Drivers/STM32F4xx_HAL_Driver/Src/stm32f4xx_hal_tim.c ****   /* Disable the Peripheral */
1126:Firmware/Drivers/STM32F4xx_HAL_Driver/Src/stm32f4xx_hal_tim.c ****   __HAL_TIM_DISABLE(htim);
 2156              		.loc 1 1126 0 is_stmt 1
 2157 011a 7B68     		ldr	r3, [r7, #4]
 2158 011c 1B68     		ldr	r3, [r3]
 2159 011e 1A6A     		ldr	r2, [r3, #32]
 2160 0120 41F21113 		movw	r3, #4369
 2161 0124 1340     		ands	r3, r3, r2
 2162 0126 002B     		cmp	r3, #0
ARM GAS  /tmp/ccGTglLX.s 			page 58


 2163 0128 0FD1     		bne	.L131
 2164              		.loc 1 1126 0 is_stmt 0 discriminator 1
 2165 012a 7B68     		ldr	r3, [r7, #4]
 2166 012c 1B68     		ldr	r3, [r3]
 2167 012e 1A6A     		ldr	r2, [r3, #32]
 2168 0130 40F24443 		movw	r3, #1092
 2169 0134 1340     		ands	r3, r3, r2
 2170 0136 002B     		cmp	r3, #0
 2171 0138 07D1     		bne	.L131
 2172              		.loc 1 1126 0 discriminator 2
 2173 013a 7B68     		ldr	r3, [r7, #4]
 2174 013c 1B68     		ldr	r3, [r3]
 2175 013e 1A68     		ldr	r2, [r3]
 2176 0140 7B68     		ldr	r3, [r7, #4]
 2177 0142 1B68     		ldr	r3, [r3]
 2178 0144 22F00102 		bic	r2, r2, #1
 2179 0148 1A60     		str	r2, [r3]
 2180              	.L131:
1127:Firmware/Drivers/STM32F4xx_HAL_Driver/Src/stm32f4xx_hal_tim.c **** 
1128:Firmware/Drivers/STM32F4xx_HAL_Driver/Src/stm32f4xx_hal_tim.c ****   /* Change the htim state */
1129:Firmware/Drivers/STM32F4xx_HAL_Driver/Src/stm32f4xx_hal_tim.c ****   htim->State = HAL_TIM_STATE_READY;
 2181              		.loc 1 1129 0 is_stmt 1
 2182 014a 7B68     		ldr	r3, [r7, #4]
 2183 014c 0122     		movs	r2, #1
 2184 014e 83F83D20 		strb	r2, [r3, #61]
1130:Firmware/Drivers/STM32F4xx_HAL_Driver/Src/stm32f4xx_hal_tim.c **** 
1131:Firmware/Drivers/STM32F4xx_HAL_Driver/Src/stm32f4xx_hal_tim.c ****   /* Return function status */
1132:Firmware/Drivers/STM32F4xx_HAL_Driver/Src/stm32f4xx_hal_tim.c ****   return HAL_OK;
 2185              		.loc 1 1132 0
 2186 0152 0023     		movs	r3, #0
1133:Firmware/Drivers/STM32F4xx_HAL_Driver/Src/stm32f4xx_hal_tim.c **** }
 2187              		.loc 1 1133 0
 2188 0154 1846     		mov	r0, r3
 2189 0156 0837     		adds	r7, r7, #8
 2190              	.LCFI106:
 2191              		.cfi_def_cfa_offset 8
 2192 0158 BD46     		mov	sp, r7
 2193              	.LCFI107:
 2194              		.cfi_def_cfa_register 13
 2195              		@ sp needed
 2196 015a 80BD     		pop	{r7, pc}
 2197              	.L135:
 2198              		.align	2
 2199              	.L134:
 2200 015c 00000140 		.word	1073807360
 2201 0160 00040140 		.word	1073808384
 2202              		.cfi_endproc
 2203              	.LFE149:
 2205              		.section	.text.HAL_TIM_PWM_Init,"ax",%progbits
 2206              		.align	1
 2207              		.global	HAL_TIM_PWM_Init
 2208              		.syntax unified
 2209              		.thumb
 2210              		.thumb_func
 2211              		.fpu fpv4-sp-d16
 2213              	HAL_TIM_PWM_Init:
 2214              	.LFB150:
ARM GAS  /tmp/ccGTglLX.s 			page 59


1134:Firmware/Drivers/STM32F4xx_HAL_Driver/Src/stm32f4xx_hal_tim.c **** 
1135:Firmware/Drivers/STM32F4xx_HAL_Driver/Src/stm32f4xx_hal_tim.c **** /**
1136:Firmware/Drivers/STM32F4xx_HAL_Driver/Src/stm32f4xx_hal_tim.c ****   * @}
1137:Firmware/Drivers/STM32F4xx_HAL_Driver/Src/stm32f4xx_hal_tim.c ****   */
1138:Firmware/Drivers/STM32F4xx_HAL_Driver/Src/stm32f4xx_hal_tim.c **** 
1139:Firmware/Drivers/STM32F4xx_HAL_Driver/Src/stm32f4xx_hal_tim.c **** /** @defgroup TIM_Exported_Functions_Group3 TIM PWM functions
1140:Firmware/Drivers/STM32F4xx_HAL_Driver/Src/stm32f4xx_hal_tim.c ****   *  @brief    TIM PWM functions
1141:Firmware/Drivers/STM32F4xx_HAL_Driver/Src/stm32f4xx_hal_tim.c ****   *
1142:Firmware/Drivers/STM32F4xx_HAL_Driver/Src/stm32f4xx_hal_tim.c **** @verbatim
1143:Firmware/Drivers/STM32F4xx_HAL_Driver/Src/stm32f4xx_hal_tim.c ****   ==============================================================================
1144:Firmware/Drivers/STM32F4xx_HAL_Driver/Src/stm32f4xx_hal_tim.c ****                           ##### TIM PWM functions #####
1145:Firmware/Drivers/STM32F4xx_HAL_Driver/Src/stm32f4xx_hal_tim.c ****   ==============================================================================
1146:Firmware/Drivers/STM32F4xx_HAL_Driver/Src/stm32f4xx_hal_tim.c ****   [..]
1147:Firmware/Drivers/STM32F4xx_HAL_Driver/Src/stm32f4xx_hal_tim.c ****     This section provides functions allowing to:
1148:Firmware/Drivers/STM32F4xx_HAL_Driver/Src/stm32f4xx_hal_tim.c ****     (+) Initialize and configure the TIM PWM.
1149:Firmware/Drivers/STM32F4xx_HAL_Driver/Src/stm32f4xx_hal_tim.c ****     (+) De-initialize the TIM PWM.
1150:Firmware/Drivers/STM32F4xx_HAL_Driver/Src/stm32f4xx_hal_tim.c ****     (+) Start the TIM PWM.
1151:Firmware/Drivers/STM32F4xx_HAL_Driver/Src/stm32f4xx_hal_tim.c ****     (+) Stop the TIM PWM.
1152:Firmware/Drivers/STM32F4xx_HAL_Driver/Src/stm32f4xx_hal_tim.c ****     (+) Start the TIM PWM and enable interrupt.
1153:Firmware/Drivers/STM32F4xx_HAL_Driver/Src/stm32f4xx_hal_tim.c ****     (+) Stop the TIM PWM and disable interrupt.
1154:Firmware/Drivers/STM32F4xx_HAL_Driver/Src/stm32f4xx_hal_tim.c ****     (+) Start the TIM PWM and enable DMA transfer.
1155:Firmware/Drivers/STM32F4xx_HAL_Driver/Src/stm32f4xx_hal_tim.c ****     (+) Stop the TIM PWM and disable DMA transfer.
1156:Firmware/Drivers/STM32F4xx_HAL_Driver/Src/stm32f4xx_hal_tim.c **** 
1157:Firmware/Drivers/STM32F4xx_HAL_Driver/Src/stm32f4xx_hal_tim.c **** @endverbatim
1158:Firmware/Drivers/STM32F4xx_HAL_Driver/Src/stm32f4xx_hal_tim.c ****   * @{
1159:Firmware/Drivers/STM32F4xx_HAL_Driver/Src/stm32f4xx_hal_tim.c ****   */
1160:Firmware/Drivers/STM32F4xx_HAL_Driver/Src/stm32f4xx_hal_tim.c **** /**
1161:Firmware/Drivers/STM32F4xx_HAL_Driver/Src/stm32f4xx_hal_tim.c ****   * @brief  Initializes the TIM PWM Time Base according to the specified
1162:Firmware/Drivers/STM32F4xx_HAL_Driver/Src/stm32f4xx_hal_tim.c ****   *         parameters in the TIM_HandleTypeDef and initializes the associated handle.
1163:Firmware/Drivers/STM32F4xx_HAL_Driver/Src/stm32f4xx_hal_tim.c ****   * @note   Switching from Center Aligned counter mode to Edge counter mode (or reverse)
1164:Firmware/Drivers/STM32F4xx_HAL_Driver/Src/stm32f4xx_hal_tim.c ****   *         requires a timer reset to avoid unexpected direction
1165:Firmware/Drivers/STM32F4xx_HAL_Driver/Src/stm32f4xx_hal_tim.c ****   *         due to DIR bit readonly in center aligned mode.
1166:Firmware/Drivers/STM32F4xx_HAL_Driver/Src/stm32f4xx_hal_tim.c ****   *         Ex: call @ref HAL_TIM_PWM_DeInit() before HAL_TIM_PWM_Init()
1167:Firmware/Drivers/STM32F4xx_HAL_Driver/Src/stm32f4xx_hal_tim.c ****   * @param  htim TIM PWM handle
1168:Firmware/Drivers/STM32F4xx_HAL_Driver/Src/stm32f4xx_hal_tim.c ****   * @retval HAL status
1169:Firmware/Drivers/STM32F4xx_HAL_Driver/Src/stm32f4xx_hal_tim.c ****   */
1170:Firmware/Drivers/STM32F4xx_HAL_Driver/Src/stm32f4xx_hal_tim.c **** HAL_StatusTypeDef HAL_TIM_PWM_Init(TIM_HandleTypeDef *htim)
1171:Firmware/Drivers/STM32F4xx_HAL_Driver/Src/stm32f4xx_hal_tim.c **** {
 2215              		.loc 1 1171 0
 2216              		.cfi_startproc
 2217              		@ args = 0, pretend = 0, frame = 8
 2218              		@ frame_needed = 1, uses_anonymous_args = 0
 2219 0000 80B5     		push	{r7, lr}
 2220              	.LCFI108:
 2221              		.cfi_def_cfa_offset 8
 2222              		.cfi_offset 7, -8
 2223              		.cfi_offset 14, -4
 2224 0002 82B0     		sub	sp, sp, #8
 2225              	.LCFI109:
 2226              		.cfi_def_cfa_offset 16
 2227 0004 00AF     		add	r7, sp, #0
 2228              	.LCFI110:
 2229              		.cfi_def_cfa_register 7
 2230 0006 7860     		str	r0, [r7, #4]
1172:Firmware/Drivers/STM32F4xx_HAL_Driver/Src/stm32f4xx_hal_tim.c ****   /* Check the TIM handle allocation */
1173:Firmware/Drivers/STM32F4xx_HAL_Driver/Src/stm32f4xx_hal_tim.c ****   if (htim == NULL)
 2231              		.loc 1 1173 0
ARM GAS  /tmp/ccGTglLX.s 			page 60


 2232 0008 7B68     		ldr	r3, [r7, #4]
 2233 000a 002B     		cmp	r3, #0
 2234 000c 01D1     		bne	.L137
1174:Firmware/Drivers/STM32F4xx_HAL_Driver/Src/stm32f4xx_hal_tim.c ****   {
1175:Firmware/Drivers/STM32F4xx_HAL_Driver/Src/stm32f4xx_hal_tim.c ****     return HAL_ERROR;
 2235              		.loc 1 1175 0
 2236 000e 0123     		movs	r3, #1
 2237 0010 1DE0     		b	.L138
 2238              	.L137:
1176:Firmware/Drivers/STM32F4xx_HAL_Driver/Src/stm32f4xx_hal_tim.c ****   }
1177:Firmware/Drivers/STM32F4xx_HAL_Driver/Src/stm32f4xx_hal_tim.c **** 
1178:Firmware/Drivers/STM32F4xx_HAL_Driver/Src/stm32f4xx_hal_tim.c ****   /* Check the parameters */
1179:Firmware/Drivers/STM32F4xx_HAL_Driver/Src/stm32f4xx_hal_tim.c ****   assert_param(IS_TIM_INSTANCE(htim->Instance));
1180:Firmware/Drivers/STM32F4xx_HAL_Driver/Src/stm32f4xx_hal_tim.c ****   assert_param(IS_TIM_COUNTER_MODE(htim->Init.CounterMode));
1181:Firmware/Drivers/STM32F4xx_HAL_Driver/Src/stm32f4xx_hal_tim.c ****   assert_param(IS_TIM_CLOCKDIVISION_DIV(htim->Init.ClockDivision));
1182:Firmware/Drivers/STM32F4xx_HAL_Driver/Src/stm32f4xx_hal_tim.c ****   assert_param(IS_TIM_AUTORELOAD_PRELOAD(htim->Init.AutoReloadPreload));
1183:Firmware/Drivers/STM32F4xx_HAL_Driver/Src/stm32f4xx_hal_tim.c **** 
1184:Firmware/Drivers/STM32F4xx_HAL_Driver/Src/stm32f4xx_hal_tim.c ****   if (htim->State == HAL_TIM_STATE_RESET)
 2239              		.loc 1 1184 0
 2240 0012 7B68     		ldr	r3, [r7, #4]
 2241 0014 93F83D30 		ldrb	r3, [r3, #61]
 2242 0018 DBB2     		uxtb	r3, r3
 2243 001a 002B     		cmp	r3, #0
 2244 001c 06D1     		bne	.L139
1185:Firmware/Drivers/STM32F4xx_HAL_Driver/Src/stm32f4xx_hal_tim.c ****   {
1186:Firmware/Drivers/STM32F4xx_HAL_Driver/Src/stm32f4xx_hal_tim.c ****     /* Allocate lock resource and initialize it */
1187:Firmware/Drivers/STM32F4xx_HAL_Driver/Src/stm32f4xx_hal_tim.c ****     htim->Lock = HAL_UNLOCKED;
 2245              		.loc 1 1187 0
 2246 001e 7B68     		ldr	r3, [r7, #4]
 2247 0020 0022     		movs	r2, #0
 2248 0022 83F83C20 		strb	r2, [r3, #60]
1188:Firmware/Drivers/STM32F4xx_HAL_Driver/Src/stm32f4xx_hal_tim.c **** 
1189:Firmware/Drivers/STM32F4xx_HAL_Driver/Src/stm32f4xx_hal_tim.c **** #if (USE_HAL_TIM_REGISTER_CALLBACKS == 1)
1190:Firmware/Drivers/STM32F4xx_HAL_Driver/Src/stm32f4xx_hal_tim.c ****     /* Reset interrupt callbacks to legacy weak callbacks */
1191:Firmware/Drivers/STM32F4xx_HAL_Driver/Src/stm32f4xx_hal_tim.c ****     TIM_ResetCallback(htim);
1192:Firmware/Drivers/STM32F4xx_HAL_Driver/Src/stm32f4xx_hal_tim.c **** 
1193:Firmware/Drivers/STM32F4xx_HAL_Driver/Src/stm32f4xx_hal_tim.c ****     if (htim->PWM_MspInitCallback == NULL)
1194:Firmware/Drivers/STM32F4xx_HAL_Driver/Src/stm32f4xx_hal_tim.c ****     {
1195:Firmware/Drivers/STM32F4xx_HAL_Driver/Src/stm32f4xx_hal_tim.c ****       htim->PWM_MspInitCallback = HAL_TIM_PWM_MspInit;
1196:Firmware/Drivers/STM32F4xx_HAL_Driver/Src/stm32f4xx_hal_tim.c ****     }
1197:Firmware/Drivers/STM32F4xx_HAL_Driver/Src/stm32f4xx_hal_tim.c ****     /* Init the low level hardware : GPIO, CLOCK, NVIC */
1198:Firmware/Drivers/STM32F4xx_HAL_Driver/Src/stm32f4xx_hal_tim.c ****     htim->PWM_MspInitCallback(htim);
1199:Firmware/Drivers/STM32F4xx_HAL_Driver/Src/stm32f4xx_hal_tim.c **** #else
1200:Firmware/Drivers/STM32F4xx_HAL_Driver/Src/stm32f4xx_hal_tim.c ****     /* Init the low level hardware : GPIO, CLOCK, NVIC and DMA */
1201:Firmware/Drivers/STM32F4xx_HAL_Driver/Src/stm32f4xx_hal_tim.c ****     HAL_TIM_PWM_MspInit(htim);
 2249              		.loc 1 1201 0
 2250 0026 7868     		ldr	r0, [r7, #4]
 2251 0028 FFF7FEFF 		bl	HAL_TIM_PWM_MspInit
 2252              	.L139:
1202:Firmware/Drivers/STM32F4xx_HAL_Driver/Src/stm32f4xx_hal_tim.c **** #endif /* USE_HAL_TIM_REGISTER_CALLBACKS */
1203:Firmware/Drivers/STM32F4xx_HAL_Driver/Src/stm32f4xx_hal_tim.c ****   }
1204:Firmware/Drivers/STM32F4xx_HAL_Driver/Src/stm32f4xx_hal_tim.c **** 
1205:Firmware/Drivers/STM32F4xx_HAL_Driver/Src/stm32f4xx_hal_tim.c ****   /* Set the TIM state */
1206:Firmware/Drivers/STM32F4xx_HAL_Driver/Src/stm32f4xx_hal_tim.c ****   htim->State = HAL_TIM_STATE_BUSY;
 2253              		.loc 1 1206 0
 2254 002c 7B68     		ldr	r3, [r7, #4]
 2255 002e 0222     		movs	r2, #2
ARM GAS  /tmp/ccGTglLX.s 			page 61


 2256 0030 83F83D20 		strb	r2, [r3, #61]
1207:Firmware/Drivers/STM32F4xx_HAL_Driver/Src/stm32f4xx_hal_tim.c **** 
1208:Firmware/Drivers/STM32F4xx_HAL_Driver/Src/stm32f4xx_hal_tim.c ****   /* Init the base time for the PWM */
1209:Firmware/Drivers/STM32F4xx_HAL_Driver/Src/stm32f4xx_hal_tim.c ****   TIM_Base_SetConfig(htim->Instance, &htim->Init);
 2257              		.loc 1 1209 0
 2258 0034 7B68     		ldr	r3, [r7, #4]
 2259 0036 1A68     		ldr	r2, [r3]
 2260 0038 7B68     		ldr	r3, [r7, #4]
 2261 003a 0433     		adds	r3, r3, #4
 2262 003c 1946     		mov	r1, r3
 2263 003e 1046     		mov	r0, r2
 2264 0040 FFF7FEFF 		bl	TIM_Base_SetConfig
1210:Firmware/Drivers/STM32F4xx_HAL_Driver/Src/stm32f4xx_hal_tim.c **** 
1211:Firmware/Drivers/STM32F4xx_HAL_Driver/Src/stm32f4xx_hal_tim.c ****   /* Initialize the TIM state*/
1212:Firmware/Drivers/STM32F4xx_HAL_Driver/Src/stm32f4xx_hal_tim.c ****   htim->State = HAL_TIM_STATE_READY;
 2265              		.loc 1 1212 0
 2266 0044 7B68     		ldr	r3, [r7, #4]
 2267 0046 0122     		movs	r2, #1
 2268 0048 83F83D20 		strb	r2, [r3, #61]
1213:Firmware/Drivers/STM32F4xx_HAL_Driver/Src/stm32f4xx_hal_tim.c **** 
1214:Firmware/Drivers/STM32F4xx_HAL_Driver/Src/stm32f4xx_hal_tim.c ****   return HAL_OK;
 2269              		.loc 1 1214 0
 2270 004c 0023     		movs	r3, #0
 2271              	.L138:
1215:Firmware/Drivers/STM32F4xx_HAL_Driver/Src/stm32f4xx_hal_tim.c **** }
 2272              		.loc 1 1215 0
 2273 004e 1846     		mov	r0, r3
 2274 0050 0837     		adds	r7, r7, #8
 2275              	.LCFI111:
 2276              		.cfi_def_cfa_offset 8
 2277 0052 BD46     		mov	sp, r7
 2278              	.LCFI112:
 2279              		.cfi_def_cfa_register 13
 2280              		@ sp needed
 2281 0054 80BD     		pop	{r7, pc}
 2282              		.cfi_endproc
 2283              	.LFE150:
 2285              		.section	.text.HAL_TIM_PWM_DeInit,"ax",%progbits
 2286              		.align	1
 2287              		.global	HAL_TIM_PWM_DeInit
 2288              		.syntax unified
 2289              		.thumb
 2290              		.thumb_func
 2291              		.fpu fpv4-sp-d16
 2293              	HAL_TIM_PWM_DeInit:
 2294              	.LFB151:
1216:Firmware/Drivers/STM32F4xx_HAL_Driver/Src/stm32f4xx_hal_tim.c **** 
1217:Firmware/Drivers/STM32F4xx_HAL_Driver/Src/stm32f4xx_hal_tim.c **** /**
1218:Firmware/Drivers/STM32F4xx_HAL_Driver/Src/stm32f4xx_hal_tim.c ****   * @brief  DeInitializes the TIM peripheral
1219:Firmware/Drivers/STM32F4xx_HAL_Driver/Src/stm32f4xx_hal_tim.c ****   * @param  htim TIM PWM handle
1220:Firmware/Drivers/STM32F4xx_HAL_Driver/Src/stm32f4xx_hal_tim.c ****   * @retval HAL status
1221:Firmware/Drivers/STM32F4xx_HAL_Driver/Src/stm32f4xx_hal_tim.c ****   */
1222:Firmware/Drivers/STM32F4xx_HAL_Driver/Src/stm32f4xx_hal_tim.c **** HAL_StatusTypeDef HAL_TIM_PWM_DeInit(TIM_HandleTypeDef *htim)
1223:Firmware/Drivers/STM32F4xx_HAL_Driver/Src/stm32f4xx_hal_tim.c **** {
 2295              		.loc 1 1223 0
 2296              		.cfi_startproc
 2297              		@ args = 0, pretend = 0, frame = 8
ARM GAS  /tmp/ccGTglLX.s 			page 62


 2298              		@ frame_needed = 1, uses_anonymous_args = 0
 2299 0000 80B5     		push	{r7, lr}
 2300              	.LCFI113:
 2301              		.cfi_def_cfa_offset 8
 2302              		.cfi_offset 7, -8
 2303              		.cfi_offset 14, -4
 2304 0002 82B0     		sub	sp, sp, #8
 2305              	.LCFI114:
 2306              		.cfi_def_cfa_offset 16
 2307 0004 00AF     		add	r7, sp, #0
 2308              	.LCFI115:
 2309              		.cfi_def_cfa_register 7
 2310 0006 7860     		str	r0, [r7, #4]
1224:Firmware/Drivers/STM32F4xx_HAL_Driver/Src/stm32f4xx_hal_tim.c ****   /* Check the parameters */
1225:Firmware/Drivers/STM32F4xx_HAL_Driver/Src/stm32f4xx_hal_tim.c ****   assert_param(IS_TIM_INSTANCE(htim->Instance));
1226:Firmware/Drivers/STM32F4xx_HAL_Driver/Src/stm32f4xx_hal_tim.c **** 
1227:Firmware/Drivers/STM32F4xx_HAL_Driver/Src/stm32f4xx_hal_tim.c ****   htim->State = HAL_TIM_STATE_BUSY;
 2311              		.loc 1 1227 0
 2312 0008 7B68     		ldr	r3, [r7, #4]
 2313 000a 0222     		movs	r2, #2
 2314 000c 83F83D20 		strb	r2, [r3, #61]
1228:Firmware/Drivers/STM32F4xx_HAL_Driver/Src/stm32f4xx_hal_tim.c **** 
1229:Firmware/Drivers/STM32F4xx_HAL_Driver/Src/stm32f4xx_hal_tim.c ****   /* Disable the TIM Peripheral Clock */
1230:Firmware/Drivers/STM32F4xx_HAL_Driver/Src/stm32f4xx_hal_tim.c ****   __HAL_TIM_DISABLE(htim);
 2315              		.loc 1 1230 0
 2316 0010 7B68     		ldr	r3, [r7, #4]
 2317 0012 1B68     		ldr	r3, [r3]
 2318 0014 1A6A     		ldr	r2, [r3, #32]
 2319 0016 41F21113 		movw	r3, #4369
 2320 001a 1340     		ands	r3, r3, r2
 2321 001c 002B     		cmp	r3, #0
 2322 001e 0FD1     		bne	.L141
 2323              		.loc 1 1230 0 is_stmt 0 discriminator 1
 2324 0020 7B68     		ldr	r3, [r7, #4]
 2325 0022 1B68     		ldr	r3, [r3]
 2326 0024 1A6A     		ldr	r2, [r3, #32]
 2327 0026 40F24443 		movw	r3, #1092
 2328 002a 1340     		ands	r3, r3, r2
 2329 002c 002B     		cmp	r3, #0
 2330 002e 07D1     		bne	.L141
 2331              		.loc 1 1230 0 discriminator 2
 2332 0030 7B68     		ldr	r3, [r7, #4]
 2333 0032 1B68     		ldr	r3, [r3]
 2334 0034 1A68     		ldr	r2, [r3]
 2335 0036 7B68     		ldr	r3, [r7, #4]
 2336 0038 1B68     		ldr	r3, [r3]
 2337 003a 22F00102 		bic	r2, r2, #1
 2338 003e 1A60     		str	r2, [r3]
 2339              	.L141:
1231:Firmware/Drivers/STM32F4xx_HAL_Driver/Src/stm32f4xx_hal_tim.c **** 
1232:Firmware/Drivers/STM32F4xx_HAL_Driver/Src/stm32f4xx_hal_tim.c **** #if (USE_HAL_TIM_REGISTER_CALLBACKS == 1)
1233:Firmware/Drivers/STM32F4xx_HAL_Driver/Src/stm32f4xx_hal_tim.c ****   if (htim->PWM_MspDeInitCallback == NULL)
1234:Firmware/Drivers/STM32F4xx_HAL_Driver/Src/stm32f4xx_hal_tim.c ****   {
1235:Firmware/Drivers/STM32F4xx_HAL_Driver/Src/stm32f4xx_hal_tim.c ****     htim->PWM_MspDeInitCallback = HAL_TIM_PWM_MspDeInit;
1236:Firmware/Drivers/STM32F4xx_HAL_Driver/Src/stm32f4xx_hal_tim.c ****   }
1237:Firmware/Drivers/STM32F4xx_HAL_Driver/Src/stm32f4xx_hal_tim.c ****   /* DeInit the low level hardware */
1238:Firmware/Drivers/STM32F4xx_HAL_Driver/Src/stm32f4xx_hal_tim.c ****   htim->PWM_MspDeInitCallback(htim);
ARM GAS  /tmp/ccGTglLX.s 			page 63


1239:Firmware/Drivers/STM32F4xx_HAL_Driver/Src/stm32f4xx_hal_tim.c **** #else
1240:Firmware/Drivers/STM32F4xx_HAL_Driver/Src/stm32f4xx_hal_tim.c ****   /* DeInit the low level hardware: GPIO, CLOCK, NVIC and DMA */
1241:Firmware/Drivers/STM32F4xx_HAL_Driver/Src/stm32f4xx_hal_tim.c ****   HAL_TIM_PWM_MspDeInit(htim);
 2340              		.loc 1 1241 0 is_stmt 1
 2341 0040 7868     		ldr	r0, [r7, #4]
 2342 0042 FFF7FEFF 		bl	HAL_TIM_PWM_MspDeInit
1242:Firmware/Drivers/STM32F4xx_HAL_Driver/Src/stm32f4xx_hal_tim.c **** #endif /* USE_HAL_TIM_REGISTER_CALLBACKS */
1243:Firmware/Drivers/STM32F4xx_HAL_Driver/Src/stm32f4xx_hal_tim.c **** 
1244:Firmware/Drivers/STM32F4xx_HAL_Driver/Src/stm32f4xx_hal_tim.c ****   /* Change TIM state */
1245:Firmware/Drivers/STM32F4xx_HAL_Driver/Src/stm32f4xx_hal_tim.c ****   htim->State = HAL_TIM_STATE_RESET;
 2343              		.loc 1 1245 0
 2344 0046 7B68     		ldr	r3, [r7, #4]
 2345 0048 0022     		movs	r2, #0
 2346 004a 83F83D20 		strb	r2, [r3, #61]
1246:Firmware/Drivers/STM32F4xx_HAL_Driver/Src/stm32f4xx_hal_tim.c **** 
1247:Firmware/Drivers/STM32F4xx_HAL_Driver/Src/stm32f4xx_hal_tim.c ****   /* Release Lock */
1248:Firmware/Drivers/STM32F4xx_HAL_Driver/Src/stm32f4xx_hal_tim.c ****   __HAL_UNLOCK(htim);
 2347              		.loc 1 1248 0
 2348 004e 7B68     		ldr	r3, [r7, #4]
 2349 0050 0022     		movs	r2, #0
 2350 0052 83F83C20 		strb	r2, [r3, #60]
1249:Firmware/Drivers/STM32F4xx_HAL_Driver/Src/stm32f4xx_hal_tim.c **** 
1250:Firmware/Drivers/STM32F4xx_HAL_Driver/Src/stm32f4xx_hal_tim.c ****   return HAL_OK;
 2351              		.loc 1 1250 0
 2352 0056 0023     		movs	r3, #0
1251:Firmware/Drivers/STM32F4xx_HAL_Driver/Src/stm32f4xx_hal_tim.c **** }
 2353              		.loc 1 1251 0
 2354 0058 1846     		mov	r0, r3
 2355 005a 0837     		adds	r7, r7, #8
 2356              	.LCFI116:
 2357              		.cfi_def_cfa_offset 8
 2358 005c BD46     		mov	sp, r7
 2359              	.LCFI117:
 2360              		.cfi_def_cfa_register 13
 2361              		@ sp needed
 2362 005e 80BD     		pop	{r7, pc}
 2363              		.cfi_endproc
 2364              	.LFE151:
 2366              		.section	.text.HAL_TIM_PWM_MspInit,"ax",%progbits
 2367              		.align	1
 2368              		.weak	HAL_TIM_PWM_MspInit
 2369              		.syntax unified
 2370              		.thumb
 2371              		.thumb_func
 2372              		.fpu fpv4-sp-d16
 2374              	HAL_TIM_PWM_MspInit:
 2375              	.LFB152:
1252:Firmware/Drivers/STM32F4xx_HAL_Driver/Src/stm32f4xx_hal_tim.c **** 
1253:Firmware/Drivers/STM32F4xx_HAL_Driver/Src/stm32f4xx_hal_tim.c **** /**
1254:Firmware/Drivers/STM32F4xx_HAL_Driver/Src/stm32f4xx_hal_tim.c ****   * @brief  Initializes the TIM PWM MSP.
1255:Firmware/Drivers/STM32F4xx_HAL_Driver/Src/stm32f4xx_hal_tim.c ****   * @param  htim TIM PWM handle
1256:Firmware/Drivers/STM32F4xx_HAL_Driver/Src/stm32f4xx_hal_tim.c ****   * @retval None
1257:Firmware/Drivers/STM32F4xx_HAL_Driver/Src/stm32f4xx_hal_tim.c ****   */
1258:Firmware/Drivers/STM32F4xx_HAL_Driver/Src/stm32f4xx_hal_tim.c **** __weak void HAL_TIM_PWM_MspInit(TIM_HandleTypeDef *htim)
1259:Firmware/Drivers/STM32F4xx_HAL_Driver/Src/stm32f4xx_hal_tim.c **** {
 2376              		.loc 1 1259 0
 2377              		.cfi_startproc
ARM GAS  /tmp/ccGTglLX.s 			page 64


 2378              		@ args = 0, pretend = 0, frame = 8
 2379              		@ frame_needed = 1, uses_anonymous_args = 0
 2380              		@ link register save eliminated.
 2381 0000 80B4     		push	{r7}
 2382              	.LCFI118:
 2383              		.cfi_def_cfa_offset 4
 2384              		.cfi_offset 7, -4
 2385 0002 83B0     		sub	sp, sp, #12
 2386              	.LCFI119:
 2387              		.cfi_def_cfa_offset 16
 2388 0004 00AF     		add	r7, sp, #0
 2389              	.LCFI120:
 2390              		.cfi_def_cfa_register 7
 2391 0006 7860     		str	r0, [r7, #4]
1260:Firmware/Drivers/STM32F4xx_HAL_Driver/Src/stm32f4xx_hal_tim.c ****   /* Prevent unused argument(s) compilation warning */
1261:Firmware/Drivers/STM32F4xx_HAL_Driver/Src/stm32f4xx_hal_tim.c ****   UNUSED(htim);
1262:Firmware/Drivers/STM32F4xx_HAL_Driver/Src/stm32f4xx_hal_tim.c **** 
1263:Firmware/Drivers/STM32F4xx_HAL_Driver/Src/stm32f4xx_hal_tim.c ****   /* NOTE : This function should not be modified, when the callback is needed,
1264:Firmware/Drivers/STM32F4xx_HAL_Driver/Src/stm32f4xx_hal_tim.c ****             the HAL_TIM_PWM_MspInit could be implemented in the user file
1265:Firmware/Drivers/STM32F4xx_HAL_Driver/Src/stm32f4xx_hal_tim.c ****    */
1266:Firmware/Drivers/STM32F4xx_HAL_Driver/Src/stm32f4xx_hal_tim.c **** }
 2392              		.loc 1 1266 0
 2393 0008 00BF     		nop
 2394 000a 0C37     		adds	r7, r7, #12
 2395              	.LCFI121:
 2396              		.cfi_def_cfa_offset 4
 2397 000c BD46     		mov	sp, r7
 2398              	.LCFI122:
 2399              		.cfi_def_cfa_register 13
 2400              		@ sp needed
 2401 000e 5DF8047B 		ldr	r7, [sp], #4
 2402              	.LCFI123:
 2403              		.cfi_restore 7
 2404              		.cfi_def_cfa_offset 0
 2405 0012 7047     		bx	lr
 2406              		.cfi_endproc
 2407              	.LFE152:
 2409              		.section	.text.HAL_TIM_PWM_MspDeInit,"ax",%progbits
 2410              		.align	1
 2411              		.weak	HAL_TIM_PWM_MspDeInit
 2412              		.syntax unified
 2413              		.thumb
 2414              		.thumb_func
 2415              		.fpu fpv4-sp-d16
 2417              	HAL_TIM_PWM_MspDeInit:
 2418              	.LFB153:
1267:Firmware/Drivers/STM32F4xx_HAL_Driver/Src/stm32f4xx_hal_tim.c **** 
1268:Firmware/Drivers/STM32F4xx_HAL_Driver/Src/stm32f4xx_hal_tim.c **** /**
1269:Firmware/Drivers/STM32F4xx_HAL_Driver/Src/stm32f4xx_hal_tim.c ****   * @brief  DeInitializes TIM PWM MSP.
1270:Firmware/Drivers/STM32F4xx_HAL_Driver/Src/stm32f4xx_hal_tim.c ****   * @param  htim TIM PWM handle
1271:Firmware/Drivers/STM32F4xx_HAL_Driver/Src/stm32f4xx_hal_tim.c ****   * @retval None
1272:Firmware/Drivers/STM32F4xx_HAL_Driver/Src/stm32f4xx_hal_tim.c ****   */
1273:Firmware/Drivers/STM32F4xx_HAL_Driver/Src/stm32f4xx_hal_tim.c **** __weak void HAL_TIM_PWM_MspDeInit(TIM_HandleTypeDef *htim)
1274:Firmware/Drivers/STM32F4xx_HAL_Driver/Src/stm32f4xx_hal_tim.c **** {
 2419              		.loc 1 1274 0
 2420              		.cfi_startproc
 2421              		@ args = 0, pretend = 0, frame = 8
ARM GAS  /tmp/ccGTglLX.s 			page 65


 2422              		@ frame_needed = 1, uses_anonymous_args = 0
 2423              		@ link register save eliminated.
 2424 0000 80B4     		push	{r7}
 2425              	.LCFI124:
 2426              		.cfi_def_cfa_offset 4
 2427              		.cfi_offset 7, -4
 2428 0002 83B0     		sub	sp, sp, #12
 2429              	.LCFI125:
 2430              		.cfi_def_cfa_offset 16
 2431 0004 00AF     		add	r7, sp, #0
 2432              	.LCFI126:
 2433              		.cfi_def_cfa_register 7
 2434 0006 7860     		str	r0, [r7, #4]
1275:Firmware/Drivers/STM32F4xx_HAL_Driver/Src/stm32f4xx_hal_tim.c ****   /* Prevent unused argument(s) compilation warning */
1276:Firmware/Drivers/STM32F4xx_HAL_Driver/Src/stm32f4xx_hal_tim.c ****   UNUSED(htim);
1277:Firmware/Drivers/STM32F4xx_HAL_Driver/Src/stm32f4xx_hal_tim.c **** 
1278:Firmware/Drivers/STM32F4xx_HAL_Driver/Src/stm32f4xx_hal_tim.c ****   /* NOTE : This function should not be modified, when the callback is needed,
1279:Firmware/Drivers/STM32F4xx_HAL_Driver/Src/stm32f4xx_hal_tim.c ****             the HAL_TIM_PWM_MspDeInit could be implemented in the user file
1280:Firmware/Drivers/STM32F4xx_HAL_Driver/Src/stm32f4xx_hal_tim.c ****    */
1281:Firmware/Drivers/STM32F4xx_HAL_Driver/Src/stm32f4xx_hal_tim.c **** }
 2435              		.loc 1 1281 0
 2436 0008 00BF     		nop
 2437 000a 0C37     		adds	r7, r7, #12
 2438              	.LCFI127:
 2439              		.cfi_def_cfa_offset 4
 2440 000c BD46     		mov	sp, r7
 2441              	.LCFI128:
 2442              		.cfi_def_cfa_register 13
 2443              		@ sp needed
 2444 000e 5DF8047B 		ldr	r7, [sp], #4
 2445              	.LCFI129:
 2446              		.cfi_restore 7
 2447              		.cfi_def_cfa_offset 0
 2448 0012 7047     		bx	lr
 2449              		.cfi_endproc
 2450              	.LFE153:
 2452              		.section	.text.HAL_TIM_PWM_Start,"ax",%progbits
 2453              		.align	1
 2454              		.global	HAL_TIM_PWM_Start
 2455              		.syntax unified
 2456              		.thumb
 2457              		.thumb_func
 2458              		.fpu fpv4-sp-d16
 2460              	HAL_TIM_PWM_Start:
 2461              	.LFB154:
1282:Firmware/Drivers/STM32F4xx_HAL_Driver/Src/stm32f4xx_hal_tim.c **** 
1283:Firmware/Drivers/STM32F4xx_HAL_Driver/Src/stm32f4xx_hal_tim.c **** /**
1284:Firmware/Drivers/STM32F4xx_HAL_Driver/Src/stm32f4xx_hal_tim.c ****   * @brief  Starts the PWM signal generation.
1285:Firmware/Drivers/STM32F4xx_HAL_Driver/Src/stm32f4xx_hal_tim.c ****   * @param  htim TIM handle
1286:Firmware/Drivers/STM32F4xx_HAL_Driver/Src/stm32f4xx_hal_tim.c ****   * @param  Channel TIM Channels to be enabled
1287:Firmware/Drivers/STM32F4xx_HAL_Driver/Src/stm32f4xx_hal_tim.c ****   *          This parameter can be one of the following values:
1288:Firmware/Drivers/STM32F4xx_HAL_Driver/Src/stm32f4xx_hal_tim.c ****   *            @arg TIM_CHANNEL_1: TIM Channel 1 selected
1289:Firmware/Drivers/STM32F4xx_HAL_Driver/Src/stm32f4xx_hal_tim.c ****   *            @arg TIM_CHANNEL_2: TIM Channel 2 selected
1290:Firmware/Drivers/STM32F4xx_HAL_Driver/Src/stm32f4xx_hal_tim.c ****   *            @arg TIM_CHANNEL_3: TIM Channel 3 selected
1291:Firmware/Drivers/STM32F4xx_HAL_Driver/Src/stm32f4xx_hal_tim.c ****   *            @arg TIM_CHANNEL_4: TIM Channel 4 selected
1292:Firmware/Drivers/STM32F4xx_HAL_Driver/Src/stm32f4xx_hal_tim.c ****   * @retval HAL status
1293:Firmware/Drivers/STM32F4xx_HAL_Driver/Src/stm32f4xx_hal_tim.c ****   */
ARM GAS  /tmp/ccGTglLX.s 			page 66


1294:Firmware/Drivers/STM32F4xx_HAL_Driver/Src/stm32f4xx_hal_tim.c **** HAL_StatusTypeDef HAL_TIM_PWM_Start(TIM_HandleTypeDef *htim, uint32_t Channel)
1295:Firmware/Drivers/STM32F4xx_HAL_Driver/Src/stm32f4xx_hal_tim.c **** {
 2462              		.loc 1 1295 0
 2463              		.cfi_startproc
 2464              		@ args = 0, pretend = 0, frame = 16
 2465              		@ frame_needed = 1, uses_anonymous_args = 0
 2466 0000 80B5     		push	{r7, lr}
 2467              	.LCFI130:
 2468              		.cfi_def_cfa_offset 8
 2469              		.cfi_offset 7, -8
 2470              		.cfi_offset 14, -4
 2471 0002 84B0     		sub	sp, sp, #16
 2472              	.LCFI131:
 2473              		.cfi_def_cfa_offset 24
 2474 0004 00AF     		add	r7, sp, #0
 2475              	.LCFI132:
 2476              		.cfi_def_cfa_register 7
 2477 0006 7860     		str	r0, [r7, #4]
 2478 0008 3960     		str	r1, [r7]
1296:Firmware/Drivers/STM32F4xx_HAL_Driver/Src/stm32f4xx_hal_tim.c ****   uint32_t tmpsmcr;
1297:Firmware/Drivers/STM32F4xx_HAL_Driver/Src/stm32f4xx_hal_tim.c **** 
1298:Firmware/Drivers/STM32F4xx_HAL_Driver/Src/stm32f4xx_hal_tim.c ****   /* Check the parameters */
1299:Firmware/Drivers/STM32F4xx_HAL_Driver/Src/stm32f4xx_hal_tim.c ****   assert_param(IS_TIM_CCX_INSTANCE(htim->Instance, Channel));
1300:Firmware/Drivers/STM32F4xx_HAL_Driver/Src/stm32f4xx_hal_tim.c **** 
1301:Firmware/Drivers/STM32F4xx_HAL_Driver/Src/stm32f4xx_hal_tim.c ****   /* Enable the Capture compare channel */
1302:Firmware/Drivers/STM32F4xx_HAL_Driver/Src/stm32f4xx_hal_tim.c ****   TIM_CCxChannelCmd(htim->Instance, Channel, TIM_CCx_ENABLE);
 2479              		.loc 1 1302 0
 2480 000a 7B68     		ldr	r3, [r7, #4]
 2481 000c 1B68     		ldr	r3, [r3]
 2482 000e 0122     		movs	r2, #1
 2483 0010 3968     		ldr	r1, [r7]
 2484 0012 1846     		mov	r0, r3
 2485 0014 FFF7FEFF 		bl	TIM_CCxChannelCmd
1303:Firmware/Drivers/STM32F4xx_HAL_Driver/Src/stm32f4xx_hal_tim.c **** 
1304:Firmware/Drivers/STM32F4xx_HAL_Driver/Src/stm32f4xx_hal_tim.c ****   if (IS_TIM_BREAK_INSTANCE(htim->Instance) != RESET)
 2486              		.loc 1 1304 0
 2487 0018 7B68     		ldr	r3, [r7, #4]
 2488 001a 1B68     		ldr	r3, [r3]
 2489 001c 154A     		ldr	r2, .L152
 2490 001e 9342     		cmp	r3, r2
 2491 0020 04D0     		beq	.L146
 2492              		.loc 1 1304 0 is_stmt 0 discriminator 2
 2493 0022 7B68     		ldr	r3, [r7, #4]
 2494 0024 1B68     		ldr	r3, [r3]
 2495 0026 144A     		ldr	r2, .L152+4
 2496 0028 9342     		cmp	r3, r2
 2497 002a 01D1     		bne	.L147
 2498              	.L146:
 2499              		.loc 1 1304 0 discriminator 3
 2500 002c 0123     		movs	r3, #1
 2501 002e 00E0     		b	.L148
 2502              	.L147:
 2503              		.loc 1 1304 0 discriminator 4
 2504 0030 0023     		movs	r3, #0
 2505              	.L148:
 2506              		.loc 1 1304 0 discriminator 6
 2507 0032 002B     		cmp	r3, #0
ARM GAS  /tmp/ccGTglLX.s 			page 67


 2508 0034 07D0     		beq	.L149
1305:Firmware/Drivers/STM32F4xx_HAL_Driver/Src/stm32f4xx_hal_tim.c ****   {
1306:Firmware/Drivers/STM32F4xx_HAL_Driver/Src/stm32f4xx_hal_tim.c ****     /* Enable the main output */
1307:Firmware/Drivers/STM32F4xx_HAL_Driver/Src/stm32f4xx_hal_tim.c ****     __HAL_TIM_MOE_ENABLE(htim);
 2509              		.loc 1 1307 0 is_stmt 1
 2510 0036 7B68     		ldr	r3, [r7, #4]
 2511 0038 1B68     		ldr	r3, [r3]
 2512 003a 5A6C     		ldr	r2, [r3, #68]
 2513 003c 7B68     		ldr	r3, [r7, #4]
 2514 003e 1B68     		ldr	r3, [r3]
 2515 0040 42F40042 		orr	r2, r2, #32768
 2516 0044 5A64     		str	r2, [r3, #68]
 2517              	.L149:
1308:Firmware/Drivers/STM32F4xx_HAL_Driver/Src/stm32f4xx_hal_tim.c ****   }
1309:Firmware/Drivers/STM32F4xx_HAL_Driver/Src/stm32f4xx_hal_tim.c **** 
1310:Firmware/Drivers/STM32F4xx_HAL_Driver/Src/stm32f4xx_hal_tim.c ****   /* Enable the Peripheral, except in trigger mode where enable is automatically done with trigger 
1311:Firmware/Drivers/STM32F4xx_HAL_Driver/Src/stm32f4xx_hal_tim.c ****   tmpsmcr = htim->Instance->SMCR & TIM_SMCR_SMS;
 2518              		.loc 1 1311 0
 2519 0046 7B68     		ldr	r3, [r7, #4]
 2520 0048 1B68     		ldr	r3, [r3]
 2521 004a 9B68     		ldr	r3, [r3, #8]
 2522 004c 03F00703 		and	r3, r3, #7
 2523 0050 FB60     		str	r3, [r7, #12]
1312:Firmware/Drivers/STM32F4xx_HAL_Driver/Src/stm32f4xx_hal_tim.c ****   if (!IS_TIM_SLAVEMODE_TRIGGER_ENABLED(tmpsmcr))
 2524              		.loc 1 1312 0
 2525 0052 FB68     		ldr	r3, [r7, #12]
 2526 0054 062B     		cmp	r3, #6
 2527 0056 07D0     		beq	.L150
1313:Firmware/Drivers/STM32F4xx_HAL_Driver/Src/stm32f4xx_hal_tim.c ****   {
1314:Firmware/Drivers/STM32F4xx_HAL_Driver/Src/stm32f4xx_hal_tim.c ****     __HAL_TIM_ENABLE(htim);
 2528              		.loc 1 1314 0
 2529 0058 7B68     		ldr	r3, [r7, #4]
 2530 005a 1B68     		ldr	r3, [r3]
 2531 005c 1A68     		ldr	r2, [r3]
 2532 005e 7B68     		ldr	r3, [r7, #4]
 2533 0060 1B68     		ldr	r3, [r3]
 2534 0062 42F00102 		orr	r2, r2, #1
 2535 0066 1A60     		str	r2, [r3]
 2536              	.L150:
1315:Firmware/Drivers/STM32F4xx_HAL_Driver/Src/stm32f4xx_hal_tim.c ****   }
1316:Firmware/Drivers/STM32F4xx_HAL_Driver/Src/stm32f4xx_hal_tim.c **** 
1317:Firmware/Drivers/STM32F4xx_HAL_Driver/Src/stm32f4xx_hal_tim.c ****   /* Return function status */
1318:Firmware/Drivers/STM32F4xx_HAL_Driver/Src/stm32f4xx_hal_tim.c ****   return HAL_OK;
 2537              		.loc 1 1318 0
 2538 0068 0023     		movs	r3, #0
1319:Firmware/Drivers/STM32F4xx_HAL_Driver/Src/stm32f4xx_hal_tim.c **** }
 2539              		.loc 1 1319 0
 2540 006a 1846     		mov	r0, r3
 2541 006c 1037     		adds	r7, r7, #16
 2542              	.LCFI133:
 2543              		.cfi_def_cfa_offset 8
 2544 006e BD46     		mov	sp, r7
 2545              	.LCFI134:
 2546              		.cfi_def_cfa_register 13
 2547              		@ sp needed
 2548 0070 80BD     		pop	{r7, pc}
 2549              	.L153:
ARM GAS  /tmp/ccGTglLX.s 			page 68


 2550 0072 00BF     		.align	2
 2551              	.L152:
 2552 0074 00000140 		.word	1073807360
 2553 0078 00040140 		.word	1073808384
 2554              		.cfi_endproc
 2555              	.LFE154:
 2557              		.section	.text.HAL_TIM_PWM_Stop,"ax",%progbits
 2558              		.align	1
 2559              		.global	HAL_TIM_PWM_Stop
 2560              		.syntax unified
 2561              		.thumb
 2562              		.thumb_func
 2563              		.fpu fpv4-sp-d16
 2565              	HAL_TIM_PWM_Stop:
 2566              	.LFB155:
1320:Firmware/Drivers/STM32F4xx_HAL_Driver/Src/stm32f4xx_hal_tim.c **** 
1321:Firmware/Drivers/STM32F4xx_HAL_Driver/Src/stm32f4xx_hal_tim.c **** /**
1322:Firmware/Drivers/STM32F4xx_HAL_Driver/Src/stm32f4xx_hal_tim.c ****   * @brief  Stops the PWM signal generation.
1323:Firmware/Drivers/STM32F4xx_HAL_Driver/Src/stm32f4xx_hal_tim.c ****   * @param  htim TIM PWM handle
1324:Firmware/Drivers/STM32F4xx_HAL_Driver/Src/stm32f4xx_hal_tim.c ****   * @param  Channel TIM Channels to be disabled
1325:Firmware/Drivers/STM32F4xx_HAL_Driver/Src/stm32f4xx_hal_tim.c ****   *          This parameter can be one of the following values:
1326:Firmware/Drivers/STM32F4xx_HAL_Driver/Src/stm32f4xx_hal_tim.c ****   *            @arg TIM_CHANNEL_1: TIM Channel 1 selected
1327:Firmware/Drivers/STM32F4xx_HAL_Driver/Src/stm32f4xx_hal_tim.c ****   *            @arg TIM_CHANNEL_2: TIM Channel 2 selected
1328:Firmware/Drivers/STM32F4xx_HAL_Driver/Src/stm32f4xx_hal_tim.c ****   *            @arg TIM_CHANNEL_3: TIM Channel 3 selected
1329:Firmware/Drivers/STM32F4xx_HAL_Driver/Src/stm32f4xx_hal_tim.c ****   *            @arg TIM_CHANNEL_4: TIM Channel 4 selected
1330:Firmware/Drivers/STM32F4xx_HAL_Driver/Src/stm32f4xx_hal_tim.c ****   * @retval HAL status
1331:Firmware/Drivers/STM32F4xx_HAL_Driver/Src/stm32f4xx_hal_tim.c ****   */
1332:Firmware/Drivers/STM32F4xx_HAL_Driver/Src/stm32f4xx_hal_tim.c **** HAL_StatusTypeDef HAL_TIM_PWM_Stop(TIM_HandleTypeDef *htim, uint32_t Channel)
1333:Firmware/Drivers/STM32F4xx_HAL_Driver/Src/stm32f4xx_hal_tim.c **** {
 2567              		.loc 1 1333 0
 2568              		.cfi_startproc
 2569              		@ args = 0, pretend = 0, frame = 8
 2570              		@ frame_needed = 1, uses_anonymous_args = 0
 2571 0000 80B5     		push	{r7, lr}
 2572              	.LCFI135:
 2573              		.cfi_def_cfa_offset 8
 2574              		.cfi_offset 7, -8
 2575              		.cfi_offset 14, -4
 2576 0002 82B0     		sub	sp, sp, #8
 2577              	.LCFI136:
 2578              		.cfi_def_cfa_offset 16
 2579 0004 00AF     		add	r7, sp, #0
 2580              	.LCFI137:
 2581              		.cfi_def_cfa_register 7
 2582 0006 7860     		str	r0, [r7, #4]
 2583 0008 3960     		str	r1, [r7]
1334:Firmware/Drivers/STM32F4xx_HAL_Driver/Src/stm32f4xx_hal_tim.c ****   /* Check the parameters */
1335:Firmware/Drivers/STM32F4xx_HAL_Driver/Src/stm32f4xx_hal_tim.c ****   assert_param(IS_TIM_CCX_INSTANCE(htim->Instance, Channel));
1336:Firmware/Drivers/STM32F4xx_HAL_Driver/Src/stm32f4xx_hal_tim.c **** 
1337:Firmware/Drivers/STM32F4xx_HAL_Driver/Src/stm32f4xx_hal_tim.c ****   /* Disable the Capture compare channel */
1338:Firmware/Drivers/STM32F4xx_HAL_Driver/Src/stm32f4xx_hal_tim.c ****   TIM_CCxChannelCmd(htim->Instance, Channel, TIM_CCx_DISABLE);
 2584              		.loc 1 1338 0
 2585 000a 7B68     		ldr	r3, [r7, #4]
 2586 000c 1B68     		ldr	r3, [r3]
 2587 000e 0022     		movs	r2, #0
 2588 0010 3968     		ldr	r1, [r7]
 2589 0012 1846     		mov	r0, r3
ARM GAS  /tmp/ccGTglLX.s 			page 69


 2590 0014 FFF7FEFF 		bl	TIM_CCxChannelCmd
1339:Firmware/Drivers/STM32F4xx_HAL_Driver/Src/stm32f4xx_hal_tim.c **** 
1340:Firmware/Drivers/STM32F4xx_HAL_Driver/Src/stm32f4xx_hal_tim.c ****   if (IS_TIM_BREAK_INSTANCE(htim->Instance) != RESET)
 2591              		.loc 1 1340 0
 2592 0018 7B68     		ldr	r3, [r7, #4]
 2593 001a 1B68     		ldr	r3, [r3]
 2594 001c 224A     		ldr	r2, .L161
 2595 001e 9342     		cmp	r3, r2
 2596 0020 04D0     		beq	.L155
 2597              		.loc 1 1340 0 is_stmt 0 discriminator 2
 2598 0022 7B68     		ldr	r3, [r7, #4]
 2599 0024 1B68     		ldr	r3, [r3]
 2600 0026 214A     		ldr	r2, .L161+4
 2601 0028 9342     		cmp	r3, r2
 2602 002a 01D1     		bne	.L156
 2603              	.L155:
 2604              		.loc 1 1340 0 discriminator 3
 2605 002c 0123     		movs	r3, #1
 2606 002e 00E0     		b	.L157
 2607              	.L156:
 2608              		.loc 1 1340 0 discriminator 4
 2609 0030 0023     		movs	r3, #0
 2610              	.L157:
 2611              		.loc 1 1340 0 discriminator 6
 2612 0032 002B     		cmp	r3, #0
 2613 0034 17D0     		beq	.L158
1341:Firmware/Drivers/STM32F4xx_HAL_Driver/Src/stm32f4xx_hal_tim.c ****   {
1342:Firmware/Drivers/STM32F4xx_HAL_Driver/Src/stm32f4xx_hal_tim.c ****     /* Disable the Main Output */
1343:Firmware/Drivers/STM32F4xx_HAL_Driver/Src/stm32f4xx_hal_tim.c ****     __HAL_TIM_MOE_DISABLE(htim);
 2614              		.loc 1 1343 0 is_stmt 1
 2615 0036 7B68     		ldr	r3, [r7, #4]
 2616 0038 1B68     		ldr	r3, [r3]
 2617 003a 1A6A     		ldr	r2, [r3, #32]
 2618 003c 41F21113 		movw	r3, #4369
 2619 0040 1340     		ands	r3, r3, r2
 2620 0042 002B     		cmp	r3, #0
 2621 0044 0FD1     		bne	.L158
 2622              		.loc 1 1343 0 is_stmt 0 discriminator 1
 2623 0046 7B68     		ldr	r3, [r7, #4]
 2624 0048 1B68     		ldr	r3, [r3]
 2625 004a 1A6A     		ldr	r2, [r3, #32]
 2626 004c 40F24443 		movw	r3, #1092
 2627 0050 1340     		ands	r3, r3, r2
 2628 0052 002B     		cmp	r3, #0
 2629 0054 07D1     		bne	.L158
 2630              		.loc 1 1343 0 discriminator 2
 2631 0056 7B68     		ldr	r3, [r7, #4]
 2632 0058 1B68     		ldr	r3, [r3]
 2633 005a 5A6C     		ldr	r2, [r3, #68]
 2634 005c 7B68     		ldr	r3, [r7, #4]
 2635 005e 1B68     		ldr	r3, [r3]
 2636 0060 22F40042 		bic	r2, r2, #32768
 2637 0064 5A64     		str	r2, [r3, #68]
 2638              	.L158:
1344:Firmware/Drivers/STM32F4xx_HAL_Driver/Src/stm32f4xx_hal_tim.c ****   }
1345:Firmware/Drivers/STM32F4xx_HAL_Driver/Src/stm32f4xx_hal_tim.c **** 
1346:Firmware/Drivers/STM32F4xx_HAL_Driver/Src/stm32f4xx_hal_tim.c ****   /* Disable the Peripheral */
ARM GAS  /tmp/ccGTglLX.s 			page 70


1347:Firmware/Drivers/STM32F4xx_HAL_Driver/Src/stm32f4xx_hal_tim.c ****   __HAL_TIM_DISABLE(htim);
 2639              		.loc 1 1347 0 is_stmt 1
 2640 0066 7B68     		ldr	r3, [r7, #4]
 2641 0068 1B68     		ldr	r3, [r3]
 2642 006a 1A6A     		ldr	r2, [r3, #32]
 2643 006c 41F21113 		movw	r3, #4369
 2644 0070 1340     		ands	r3, r3, r2
 2645 0072 002B     		cmp	r3, #0
 2646 0074 0FD1     		bne	.L159
 2647              		.loc 1 1347 0 is_stmt 0 discriminator 1
 2648 0076 7B68     		ldr	r3, [r7, #4]
 2649 0078 1B68     		ldr	r3, [r3]
 2650 007a 1A6A     		ldr	r2, [r3, #32]
 2651 007c 40F24443 		movw	r3, #1092
 2652 0080 1340     		ands	r3, r3, r2
 2653 0082 002B     		cmp	r3, #0
 2654 0084 07D1     		bne	.L159
 2655              		.loc 1 1347 0 discriminator 2
 2656 0086 7B68     		ldr	r3, [r7, #4]
 2657 0088 1B68     		ldr	r3, [r3]
 2658 008a 1A68     		ldr	r2, [r3]
 2659 008c 7B68     		ldr	r3, [r7, #4]
 2660 008e 1B68     		ldr	r3, [r3]
 2661 0090 22F00102 		bic	r2, r2, #1
 2662 0094 1A60     		str	r2, [r3]
 2663              	.L159:
1348:Firmware/Drivers/STM32F4xx_HAL_Driver/Src/stm32f4xx_hal_tim.c **** 
1349:Firmware/Drivers/STM32F4xx_HAL_Driver/Src/stm32f4xx_hal_tim.c ****   /* Change the htim state */
1350:Firmware/Drivers/STM32F4xx_HAL_Driver/Src/stm32f4xx_hal_tim.c ****   htim->State = HAL_TIM_STATE_READY;
 2664              		.loc 1 1350 0 is_stmt 1
 2665 0096 7B68     		ldr	r3, [r7, #4]
 2666 0098 0122     		movs	r2, #1
 2667 009a 83F83D20 		strb	r2, [r3, #61]
1351:Firmware/Drivers/STM32F4xx_HAL_Driver/Src/stm32f4xx_hal_tim.c **** 
1352:Firmware/Drivers/STM32F4xx_HAL_Driver/Src/stm32f4xx_hal_tim.c ****   /* Return function status */
1353:Firmware/Drivers/STM32F4xx_HAL_Driver/Src/stm32f4xx_hal_tim.c ****   return HAL_OK;
 2668              		.loc 1 1353 0
 2669 009e 0023     		movs	r3, #0
1354:Firmware/Drivers/STM32F4xx_HAL_Driver/Src/stm32f4xx_hal_tim.c **** }
 2670              		.loc 1 1354 0
 2671 00a0 1846     		mov	r0, r3
 2672 00a2 0837     		adds	r7, r7, #8
 2673              	.LCFI138:
 2674              		.cfi_def_cfa_offset 8
 2675 00a4 BD46     		mov	sp, r7
 2676              	.LCFI139:
 2677              		.cfi_def_cfa_register 13
 2678              		@ sp needed
 2679 00a6 80BD     		pop	{r7, pc}
 2680              	.L162:
 2681              		.align	2
 2682              	.L161:
 2683 00a8 00000140 		.word	1073807360
 2684 00ac 00040140 		.word	1073808384
 2685              		.cfi_endproc
 2686              	.LFE155:
 2688              		.section	.text.HAL_TIM_PWM_Start_IT,"ax",%progbits
ARM GAS  /tmp/ccGTglLX.s 			page 71


 2689              		.align	1
 2690              		.global	HAL_TIM_PWM_Start_IT
 2691              		.syntax unified
 2692              		.thumb
 2693              		.thumb_func
 2694              		.fpu fpv4-sp-d16
 2696              	HAL_TIM_PWM_Start_IT:
 2697              	.LFB156:
1355:Firmware/Drivers/STM32F4xx_HAL_Driver/Src/stm32f4xx_hal_tim.c **** 
1356:Firmware/Drivers/STM32F4xx_HAL_Driver/Src/stm32f4xx_hal_tim.c **** /**
1357:Firmware/Drivers/STM32F4xx_HAL_Driver/Src/stm32f4xx_hal_tim.c ****   * @brief  Starts the PWM signal generation in interrupt mode.
1358:Firmware/Drivers/STM32F4xx_HAL_Driver/Src/stm32f4xx_hal_tim.c ****   * @param  htim TIM PWM handle
1359:Firmware/Drivers/STM32F4xx_HAL_Driver/Src/stm32f4xx_hal_tim.c ****   * @param  Channel TIM Channel to be enabled
1360:Firmware/Drivers/STM32F4xx_HAL_Driver/Src/stm32f4xx_hal_tim.c ****   *          This parameter can be one of the following values:
1361:Firmware/Drivers/STM32F4xx_HAL_Driver/Src/stm32f4xx_hal_tim.c ****   *            @arg TIM_CHANNEL_1: TIM Channel 1 selected
1362:Firmware/Drivers/STM32F4xx_HAL_Driver/Src/stm32f4xx_hal_tim.c ****   *            @arg TIM_CHANNEL_2: TIM Channel 2 selected
1363:Firmware/Drivers/STM32F4xx_HAL_Driver/Src/stm32f4xx_hal_tim.c ****   *            @arg TIM_CHANNEL_3: TIM Channel 3 selected
1364:Firmware/Drivers/STM32F4xx_HAL_Driver/Src/stm32f4xx_hal_tim.c ****   *            @arg TIM_CHANNEL_4: TIM Channel 4 selected
1365:Firmware/Drivers/STM32F4xx_HAL_Driver/Src/stm32f4xx_hal_tim.c ****   * @retval HAL status
1366:Firmware/Drivers/STM32F4xx_HAL_Driver/Src/stm32f4xx_hal_tim.c ****   */
1367:Firmware/Drivers/STM32F4xx_HAL_Driver/Src/stm32f4xx_hal_tim.c **** HAL_StatusTypeDef HAL_TIM_PWM_Start_IT(TIM_HandleTypeDef *htim, uint32_t Channel)
1368:Firmware/Drivers/STM32F4xx_HAL_Driver/Src/stm32f4xx_hal_tim.c **** {
 2698              		.loc 1 1368 0
 2699              		.cfi_startproc
 2700              		@ args = 0, pretend = 0, frame = 16
 2701              		@ frame_needed = 1, uses_anonymous_args = 0
 2702 0000 80B5     		push	{r7, lr}
 2703              	.LCFI140:
 2704              		.cfi_def_cfa_offset 8
 2705              		.cfi_offset 7, -8
 2706              		.cfi_offset 14, -4
 2707 0002 84B0     		sub	sp, sp, #16
 2708              	.LCFI141:
 2709              		.cfi_def_cfa_offset 24
 2710 0004 00AF     		add	r7, sp, #0
 2711              	.LCFI142:
 2712              		.cfi_def_cfa_register 7
 2713 0006 7860     		str	r0, [r7, #4]
 2714 0008 3960     		str	r1, [r7]
1369:Firmware/Drivers/STM32F4xx_HAL_Driver/Src/stm32f4xx_hal_tim.c ****   uint32_t tmpsmcr;
1370:Firmware/Drivers/STM32F4xx_HAL_Driver/Src/stm32f4xx_hal_tim.c ****   /* Check the parameters */
1371:Firmware/Drivers/STM32F4xx_HAL_Driver/Src/stm32f4xx_hal_tim.c ****   assert_param(IS_TIM_CCX_INSTANCE(htim->Instance, Channel));
1372:Firmware/Drivers/STM32F4xx_HAL_Driver/Src/stm32f4xx_hal_tim.c **** 
1373:Firmware/Drivers/STM32F4xx_HAL_Driver/Src/stm32f4xx_hal_tim.c ****   switch (Channel)
 2715              		.loc 1 1373 0
 2716 000a 3B68     		ldr	r3, [r7]
 2717 000c 0C2B     		cmp	r3, #12
 2718 000e 41D8     		bhi	.L177
 2719 0010 01A2     		adr	r2, .L166
 2720 0012 52F823F0 		ldr	pc, [r2, r3, lsl #2]
 2721 0016 00BF     		.p2align 2
 2722              	.L166:
 2723 0018 4D000000 		.word	.L165+1
 2724 001c 95000000 		.word	.L177+1
 2725 0020 95000000 		.word	.L177+1
 2726 0024 95000000 		.word	.L177+1
 2727 0028 5F000000 		.word	.L167+1
ARM GAS  /tmp/ccGTglLX.s 			page 72


 2728 002c 95000000 		.word	.L177+1
 2729 0030 95000000 		.word	.L177+1
 2730 0034 95000000 		.word	.L177+1
 2731 0038 71000000 		.word	.L168+1
 2732 003c 95000000 		.word	.L177+1
 2733 0040 95000000 		.word	.L177+1
 2734 0044 95000000 		.word	.L177+1
 2735 0048 83000000 		.word	.L169+1
 2736              		.p2align 1
 2737              	.L165:
1374:Firmware/Drivers/STM32F4xx_HAL_Driver/Src/stm32f4xx_hal_tim.c ****   {
1375:Firmware/Drivers/STM32F4xx_HAL_Driver/Src/stm32f4xx_hal_tim.c ****     case TIM_CHANNEL_1:
1376:Firmware/Drivers/STM32F4xx_HAL_Driver/Src/stm32f4xx_hal_tim.c ****     {
1377:Firmware/Drivers/STM32F4xx_HAL_Driver/Src/stm32f4xx_hal_tim.c ****       /* Enable the TIM Capture/Compare 1 interrupt */
1378:Firmware/Drivers/STM32F4xx_HAL_Driver/Src/stm32f4xx_hal_tim.c ****       __HAL_TIM_ENABLE_IT(htim, TIM_IT_CC1);
 2738              		.loc 1 1378 0
 2739 004c 7B68     		ldr	r3, [r7, #4]
 2740 004e 1B68     		ldr	r3, [r3]
 2741 0050 DA68     		ldr	r2, [r3, #12]
 2742 0052 7B68     		ldr	r3, [r7, #4]
 2743 0054 1B68     		ldr	r3, [r3]
 2744 0056 42F00202 		orr	r2, r2, #2
 2745 005a DA60     		str	r2, [r3, #12]
1379:Firmware/Drivers/STM32F4xx_HAL_Driver/Src/stm32f4xx_hal_tim.c ****       break;
 2746              		.loc 1 1379 0
 2747 005c 1BE0     		b	.L170
 2748              	.L167:
1380:Firmware/Drivers/STM32F4xx_HAL_Driver/Src/stm32f4xx_hal_tim.c ****     }
1381:Firmware/Drivers/STM32F4xx_HAL_Driver/Src/stm32f4xx_hal_tim.c **** 
1382:Firmware/Drivers/STM32F4xx_HAL_Driver/Src/stm32f4xx_hal_tim.c ****     case TIM_CHANNEL_2:
1383:Firmware/Drivers/STM32F4xx_HAL_Driver/Src/stm32f4xx_hal_tim.c ****     {
1384:Firmware/Drivers/STM32F4xx_HAL_Driver/Src/stm32f4xx_hal_tim.c ****       /* Enable the TIM Capture/Compare 2 interrupt */
1385:Firmware/Drivers/STM32F4xx_HAL_Driver/Src/stm32f4xx_hal_tim.c ****       __HAL_TIM_ENABLE_IT(htim, TIM_IT_CC2);
 2749              		.loc 1 1385 0
 2750 005e 7B68     		ldr	r3, [r7, #4]
 2751 0060 1B68     		ldr	r3, [r3]
 2752 0062 DA68     		ldr	r2, [r3, #12]
 2753 0064 7B68     		ldr	r3, [r7, #4]
 2754 0066 1B68     		ldr	r3, [r3]
 2755 0068 42F00402 		orr	r2, r2, #4
 2756 006c DA60     		str	r2, [r3, #12]
1386:Firmware/Drivers/STM32F4xx_HAL_Driver/Src/stm32f4xx_hal_tim.c ****       break;
 2757              		.loc 1 1386 0
 2758 006e 12E0     		b	.L170
 2759              	.L168:
1387:Firmware/Drivers/STM32F4xx_HAL_Driver/Src/stm32f4xx_hal_tim.c ****     }
1388:Firmware/Drivers/STM32F4xx_HAL_Driver/Src/stm32f4xx_hal_tim.c **** 
1389:Firmware/Drivers/STM32F4xx_HAL_Driver/Src/stm32f4xx_hal_tim.c ****     case TIM_CHANNEL_3:
1390:Firmware/Drivers/STM32F4xx_HAL_Driver/Src/stm32f4xx_hal_tim.c ****     {
1391:Firmware/Drivers/STM32F4xx_HAL_Driver/Src/stm32f4xx_hal_tim.c ****       /* Enable the TIM Capture/Compare 3 interrupt */
1392:Firmware/Drivers/STM32F4xx_HAL_Driver/Src/stm32f4xx_hal_tim.c ****       __HAL_TIM_ENABLE_IT(htim, TIM_IT_CC3);
 2760              		.loc 1 1392 0
 2761 0070 7B68     		ldr	r3, [r7, #4]
 2762 0072 1B68     		ldr	r3, [r3]
 2763 0074 DA68     		ldr	r2, [r3, #12]
 2764 0076 7B68     		ldr	r3, [r7, #4]
 2765 0078 1B68     		ldr	r3, [r3]
ARM GAS  /tmp/ccGTglLX.s 			page 73


 2766 007a 42F00802 		orr	r2, r2, #8
 2767 007e DA60     		str	r2, [r3, #12]
1393:Firmware/Drivers/STM32F4xx_HAL_Driver/Src/stm32f4xx_hal_tim.c ****       break;
 2768              		.loc 1 1393 0
 2769 0080 09E0     		b	.L170
 2770              	.L169:
1394:Firmware/Drivers/STM32F4xx_HAL_Driver/Src/stm32f4xx_hal_tim.c ****     }
1395:Firmware/Drivers/STM32F4xx_HAL_Driver/Src/stm32f4xx_hal_tim.c **** 
1396:Firmware/Drivers/STM32F4xx_HAL_Driver/Src/stm32f4xx_hal_tim.c ****     case TIM_CHANNEL_4:
1397:Firmware/Drivers/STM32F4xx_HAL_Driver/Src/stm32f4xx_hal_tim.c ****     {
1398:Firmware/Drivers/STM32F4xx_HAL_Driver/Src/stm32f4xx_hal_tim.c ****       /* Enable the TIM Capture/Compare 4 interrupt */
1399:Firmware/Drivers/STM32F4xx_HAL_Driver/Src/stm32f4xx_hal_tim.c ****       __HAL_TIM_ENABLE_IT(htim, TIM_IT_CC4);
 2771              		.loc 1 1399 0
 2772 0082 7B68     		ldr	r3, [r7, #4]
 2773 0084 1B68     		ldr	r3, [r3]
 2774 0086 DA68     		ldr	r2, [r3, #12]
 2775 0088 7B68     		ldr	r3, [r7, #4]
 2776 008a 1B68     		ldr	r3, [r3]
 2777 008c 42F01002 		orr	r2, r2, #16
 2778 0090 DA60     		str	r2, [r3, #12]
1400:Firmware/Drivers/STM32F4xx_HAL_Driver/Src/stm32f4xx_hal_tim.c ****       break;
 2779              		.loc 1 1400 0
 2780 0092 00E0     		b	.L170
 2781              	.L177:
1401:Firmware/Drivers/STM32F4xx_HAL_Driver/Src/stm32f4xx_hal_tim.c ****     }
1402:Firmware/Drivers/STM32F4xx_HAL_Driver/Src/stm32f4xx_hal_tim.c **** 
1403:Firmware/Drivers/STM32F4xx_HAL_Driver/Src/stm32f4xx_hal_tim.c ****     default:
1404:Firmware/Drivers/STM32F4xx_HAL_Driver/Src/stm32f4xx_hal_tim.c ****       break;
 2782              		.loc 1 1404 0
 2783 0094 00BF     		nop
 2784              	.L170:
1405:Firmware/Drivers/STM32F4xx_HAL_Driver/Src/stm32f4xx_hal_tim.c ****   }
1406:Firmware/Drivers/STM32F4xx_HAL_Driver/Src/stm32f4xx_hal_tim.c **** 
1407:Firmware/Drivers/STM32F4xx_HAL_Driver/Src/stm32f4xx_hal_tim.c ****   /* Enable the Capture compare channel */
1408:Firmware/Drivers/STM32F4xx_HAL_Driver/Src/stm32f4xx_hal_tim.c ****   TIM_CCxChannelCmd(htim->Instance, Channel, TIM_CCx_ENABLE);
 2785              		.loc 1 1408 0
 2786 0096 7B68     		ldr	r3, [r7, #4]
 2787 0098 1B68     		ldr	r3, [r3]
 2788 009a 0122     		movs	r2, #1
 2789 009c 3968     		ldr	r1, [r7]
 2790 009e 1846     		mov	r0, r3
 2791 00a0 FFF7FEFF 		bl	TIM_CCxChannelCmd
1409:Firmware/Drivers/STM32F4xx_HAL_Driver/Src/stm32f4xx_hal_tim.c **** 
1410:Firmware/Drivers/STM32F4xx_HAL_Driver/Src/stm32f4xx_hal_tim.c ****   if (IS_TIM_BREAK_INSTANCE(htim->Instance) != RESET)
