ARM GAS  /tmp/ccudD9BL.s 			page 1


   1              		.cpu cortex-m4
   2              		.eabi_attribute 27, 1
   3              		.eabi_attribute 28, 1
   4              		.eabi_attribute 20, 1
   5              		.eabi_attribute 21, 1
   6              		.eabi_attribute 23, 3
   7              		.eabi_attribute 24, 1
   8              		.eabi_attribute 25, 1
   9              		.eabi_attribute 26, 1
  10              		.eabi_attribute 30, 6
  11              		.eabi_attribute 34, 1
  12              		.eabi_attribute 18, 4
  13              		.file	"stm32f4xx_hal_gpio.c"
  14              		.text
  15              	.Ltext0:
  16              		.cfi_sections	.debug_frame
  17              		.section	.text.HAL_GPIO_Init,"ax",%progbits
  18              		.align	1
  19              		.global	HAL_GPIO_Init
  20              		.syntax unified
  21              		.thumb
  22              		.thumb_func
  23              		.fpu fpv4-sp-d16
  25              	HAL_GPIO_Init:
  26              	.LFB130:
  27              		.file 1 "Firmware/Drivers/STM32F4xx_HAL_Driver/Src/stm32f4xx_hal_gpio.c"
   1:Firmware/Drivers/STM32F4xx_HAL_Driver/Src/stm32f4xx_hal_gpio.c **** /**
   2:Firmware/Drivers/STM32F4xx_HAL_Driver/Src/stm32f4xx_hal_gpio.c ****   ******************************************************************************
   3:Firmware/Drivers/STM32F4xx_HAL_Driver/Src/stm32f4xx_hal_gpio.c ****   * @file    stm32f4xx_hal_gpio.c
   4:Firmware/Drivers/STM32F4xx_HAL_Driver/Src/stm32f4xx_hal_gpio.c ****   * @author  MCD Application Team
   5:Firmware/Drivers/STM32F4xx_HAL_Driver/Src/stm32f4xx_hal_gpio.c ****   * @brief   GPIO HAL module driver.
   6:Firmware/Drivers/STM32F4xx_HAL_Driver/Src/stm32f4xx_hal_gpio.c ****   *          This file provides firmware functions to manage the following 
   7:Firmware/Drivers/STM32F4xx_HAL_Driver/Src/stm32f4xx_hal_gpio.c ****   *          functionalities of the General Purpose Input/Output (GPIO) peripheral:
   8:Firmware/Drivers/STM32F4xx_HAL_Driver/Src/stm32f4xx_hal_gpio.c ****   *           + Initialization and de-initialization functions
   9:Firmware/Drivers/STM32F4xx_HAL_Driver/Src/stm32f4xx_hal_gpio.c ****   *           + IO operation functions
  10:Firmware/Drivers/STM32F4xx_HAL_Driver/Src/stm32f4xx_hal_gpio.c ****   *
  11:Firmware/Drivers/STM32F4xx_HAL_Driver/Src/stm32f4xx_hal_gpio.c ****   @verbatim
  12:Firmware/Drivers/STM32F4xx_HAL_Driver/Src/stm32f4xx_hal_gpio.c ****   ==============================================================================
  13:Firmware/Drivers/STM32F4xx_HAL_Driver/Src/stm32f4xx_hal_gpio.c ****                     ##### GPIO Peripheral features #####
  14:Firmware/Drivers/STM32F4xx_HAL_Driver/Src/stm32f4xx_hal_gpio.c ****   ==============================================================================
  15:Firmware/Drivers/STM32F4xx_HAL_Driver/Src/stm32f4xx_hal_gpio.c ****   [..] 
  16:Firmware/Drivers/STM32F4xx_HAL_Driver/Src/stm32f4xx_hal_gpio.c ****   Subject to the specific hardware characteristics of each I/O port listed in the datasheet, each
  17:Firmware/Drivers/STM32F4xx_HAL_Driver/Src/stm32f4xx_hal_gpio.c ****   port bit of the General Purpose IO (GPIO) Ports, can be individually configured by software
  18:Firmware/Drivers/STM32F4xx_HAL_Driver/Src/stm32f4xx_hal_gpio.c ****   in several modes:
  19:Firmware/Drivers/STM32F4xx_HAL_Driver/Src/stm32f4xx_hal_gpio.c ****   (+) Input mode 
  20:Firmware/Drivers/STM32F4xx_HAL_Driver/Src/stm32f4xx_hal_gpio.c ****   (+) Analog mode
  21:Firmware/Drivers/STM32F4xx_HAL_Driver/Src/stm32f4xx_hal_gpio.c ****   (+) Output mode
  22:Firmware/Drivers/STM32F4xx_HAL_Driver/Src/stm32f4xx_hal_gpio.c ****   (+) Alternate function mode
  23:Firmware/Drivers/STM32F4xx_HAL_Driver/Src/stm32f4xx_hal_gpio.c ****   (+) External interrupt/event lines
  24:Firmware/Drivers/STM32F4xx_HAL_Driver/Src/stm32f4xx_hal_gpio.c **** 
  25:Firmware/Drivers/STM32F4xx_HAL_Driver/Src/stm32f4xx_hal_gpio.c ****   [..]  
  26:Firmware/Drivers/STM32F4xx_HAL_Driver/Src/stm32f4xx_hal_gpio.c ****   During and just after reset, the alternate functions and external interrupt  
  27:Firmware/Drivers/STM32F4xx_HAL_Driver/Src/stm32f4xx_hal_gpio.c ****   lines are not active and the I/O ports are configured in input floating mode.
  28:Firmware/Drivers/STM32F4xx_HAL_Driver/Src/stm32f4xx_hal_gpio.c ****   
  29:Firmware/Drivers/STM32F4xx_HAL_Driver/Src/stm32f4xx_hal_gpio.c ****   [..]   
  30:Firmware/Drivers/STM32F4xx_HAL_Driver/Src/stm32f4xx_hal_gpio.c ****   All GPIO pins have weak internal pull-up and pull-down resistors, which can be 
  31:Firmware/Drivers/STM32F4xx_HAL_Driver/Src/stm32f4xx_hal_gpio.c ****   activated or not.
ARM GAS  /tmp/ccudD9BL.s 			page 2


  32:Firmware/Drivers/STM32F4xx_HAL_Driver/Src/stm32f4xx_hal_gpio.c **** 
  33:Firmware/Drivers/STM32F4xx_HAL_Driver/Src/stm32f4xx_hal_gpio.c ****   [..]
  34:Firmware/Drivers/STM32F4xx_HAL_Driver/Src/stm32f4xx_hal_gpio.c ****   In Output or Alternate mode, each IO can be configured on open-drain or push-pull
  35:Firmware/Drivers/STM32F4xx_HAL_Driver/Src/stm32f4xx_hal_gpio.c ****   type and the IO speed can be selected depending on the VDD value.
  36:Firmware/Drivers/STM32F4xx_HAL_Driver/Src/stm32f4xx_hal_gpio.c **** 
  37:Firmware/Drivers/STM32F4xx_HAL_Driver/Src/stm32f4xx_hal_gpio.c ****   [..]  
  38:Firmware/Drivers/STM32F4xx_HAL_Driver/Src/stm32f4xx_hal_gpio.c ****   All ports have external interrupt/event capability. To use external interrupt 
  39:Firmware/Drivers/STM32F4xx_HAL_Driver/Src/stm32f4xx_hal_gpio.c ****   lines, the port must be configured in input mode. All available GPIO pins are 
  40:Firmware/Drivers/STM32F4xx_HAL_Driver/Src/stm32f4xx_hal_gpio.c ****   connected to the 16 external interrupt/event lines from EXTI0 to EXTI15.
  41:Firmware/Drivers/STM32F4xx_HAL_Driver/Src/stm32f4xx_hal_gpio.c ****   
  42:Firmware/Drivers/STM32F4xx_HAL_Driver/Src/stm32f4xx_hal_gpio.c ****   [..]
  43:Firmware/Drivers/STM32F4xx_HAL_Driver/Src/stm32f4xx_hal_gpio.c ****   The external interrupt/event controller consists of up to 23 edge detectors 
  44:Firmware/Drivers/STM32F4xx_HAL_Driver/Src/stm32f4xx_hal_gpio.c ****   (16 lines are connected to GPIO) for generating event/interrupt requests (each 
  45:Firmware/Drivers/STM32F4xx_HAL_Driver/Src/stm32f4xx_hal_gpio.c ****   input line can be independently configured to select the type (interrupt or event) 
  46:Firmware/Drivers/STM32F4xx_HAL_Driver/Src/stm32f4xx_hal_gpio.c ****   and the corresponding trigger event (rising or falling or both). Each line can 
  47:Firmware/Drivers/STM32F4xx_HAL_Driver/Src/stm32f4xx_hal_gpio.c ****   also be masked independently. 
  48:Firmware/Drivers/STM32F4xx_HAL_Driver/Src/stm32f4xx_hal_gpio.c **** 
  49:Firmware/Drivers/STM32F4xx_HAL_Driver/Src/stm32f4xx_hal_gpio.c ****                      ##### How to use this driver #####
  50:Firmware/Drivers/STM32F4xx_HAL_Driver/Src/stm32f4xx_hal_gpio.c ****   ==============================================================================  
  51:Firmware/Drivers/STM32F4xx_HAL_Driver/Src/stm32f4xx_hal_gpio.c ****   [..]
  52:Firmware/Drivers/STM32F4xx_HAL_Driver/Src/stm32f4xx_hal_gpio.c ****     (#) Enable the GPIO AHB clock using the following function: __HAL_RCC_GPIOx_CLK_ENABLE(). 
  53:Firmware/Drivers/STM32F4xx_HAL_Driver/Src/stm32f4xx_hal_gpio.c **** 
  54:Firmware/Drivers/STM32F4xx_HAL_Driver/Src/stm32f4xx_hal_gpio.c ****     (#) Configure the GPIO pin(s) using HAL_GPIO_Init().
  55:Firmware/Drivers/STM32F4xx_HAL_Driver/Src/stm32f4xx_hal_gpio.c ****         (++) Configure the IO mode using "Mode" member from GPIO_InitTypeDef structure
  56:Firmware/Drivers/STM32F4xx_HAL_Driver/Src/stm32f4xx_hal_gpio.c ****         (++) Activate Pull-up, Pull-down resistor using "Pull" member from GPIO_InitTypeDef 
  57:Firmware/Drivers/STM32F4xx_HAL_Driver/Src/stm32f4xx_hal_gpio.c ****              structure.
  58:Firmware/Drivers/STM32F4xx_HAL_Driver/Src/stm32f4xx_hal_gpio.c ****         (++) In case of Output or alternate function mode selection: the speed is 
  59:Firmware/Drivers/STM32F4xx_HAL_Driver/Src/stm32f4xx_hal_gpio.c ****              configured through "Speed" member from GPIO_InitTypeDef structure.
  60:Firmware/Drivers/STM32F4xx_HAL_Driver/Src/stm32f4xx_hal_gpio.c ****         (++) In alternate mode is selection, the alternate function connected to the IO
  61:Firmware/Drivers/STM32F4xx_HAL_Driver/Src/stm32f4xx_hal_gpio.c ****              is configured through "Alternate" member from GPIO_InitTypeDef structure.
  62:Firmware/Drivers/STM32F4xx_HAL_Driver/Src/stm32f4xx_hal_gpio.c ****         (++) Analog mode is required when a pin is to be used as ADC channel 
  63:Firmware/Drivers/STM32F4xx_HAL_Driver/Src/stm32f4xx_hal_gpio.c ****              or DAC output.
  64:Firmware/Drivers/STM32F4xx_HAL_Driver/Src/stm32f4xx_hal_gpio.c ****         (++) In case of external interrupt/event selection the "Mode" member from 
  65:Firmware/Drivers/STM32F4xx_HAL_Driver/Src/stm32f4xx_hal_gpio.c ****              GPIO_InitTypeDef structure select the type (interrupt or event) and 
  66:Firmware/Drivers/STM32F4xx_HAL_Driver/Src/stm32f4xx_hal_gpio.c ****              the corresponding trigger event (rising or falling or both).
  67:Firmware/Drivers/STM32F4xx_HAL_Driver/Src/stm32f4xx_hal_gpio.c **** 
  68:Firmware/Drivers/STM32F4xx_HAL_Driver/Src/stm32f4xx_hal_gpio.c ****     (#) In case of external interrupt/event mode selection, configure NVIC IRQ priority 
  69:Firmware/Drivers/STM32F4xx_HAL_Driver/Src/stm32f4xx_hal_gpio.c ****         mapped to the EXTI line using HAL_NVIC_SetPriority() and enable it using
  70:Firmware/Drivers/STM32F4xx_HAL_Driver/Src/stm32f4xx_hal_gpio.c ****         HAL_NVIC_EnableIRQ().
  71:Firmware/Drivers/STM32F4xx_HAL_Driver/Src/stm32f4xx_hal_gpio.c ****          
  72:Firmware/Drivers/STM32F4xx_HAL_Driver/Src/stm32f4xx_hal_gpio.c ****     (#) To get the level of a pin configured in input mode use HAL_GPIO_ReadPin().
  73:Firmware/Drivers/STM32F4xx_HAL_Driver/Src/stm32f4xx_hal_gpio.c ****             
  74:Firmware/Drivers/STM32F4xx_HAL_Driver/Src/stm32f4xx_hal_gpio.c ****     (#) To set/reset the level of a pin configured in output mode use 
  75:Firmware/Drivers/STM32F4xx_HAL_Driver/Src/stm32f4xx_hal_gpio.c ****         HAL_GPIO_WritePin()/HAL_GPIO_TogglePin().
  76:Firmware/Drivers/STM32F4xx_HAL_Driver/Src/stm32f4xx_hal_gpio.c ****     
  77:Firmware/Drivers/STM32F4xx_HAL_Driver/Src/stm32f4xx_hal_gpio.c ****     (#) To lock pin configuration until next reset use HAL_GPIO_LockPin().
  78:Firmware/Drivers/STM32F4xx_HAL_Driver/Src/stm32f4xx_hal_gpio.c **** 
  79:Firmware/Drivers/STM32F4xx_HAL_Driver/Src/stm32f4xx_hal_gpio.c ****                  
  80:Firmware/Drivers/STM32F4xx_HAL_Driver/Src/stm32f4xx_hal_gpio.c ****     (#) During and just after reset, the alternate functions are not 
  81:Firmware/Drivers/STM32F4xx_HAL_Driver/Src/stm32f4xx_hal_gpio.c ****         active and the GPIO pins are configured in input floating mode (except JTAG
  82:Firmware/Drivers/STM32F4xx_HAL_Driver/Src/stm32f4xx_hal_gpio.c ****         pins).
  83:Firmware/Drivers/STM32F4xx_HAL_Driver/Src/stm32f4xx_hal_gpio.c ****   
  84:Firmware/Drivers/STM32F4xx_HAL_Driver/Src/stm32f4xx_hal_gpio.c ****     (#) The LSE oscillator pins OSC32_IN and OSC32_OUT can be used as general purpose 
  85:Firmware/Drivers/STM32F4xx_HAL_Driver/Src/stm32f4xx_hal_gpio.c ****         (PC14 and PC15, respectively) when the LSE oscillator is off. The LSE has 
  86:Firmware/Drivers/STM32F4xx_HAL_Driver/Src/stm32f4xx_hal_gpio.c ****         priority over the GPIO function.
  87:Firmware/Drivers/STM32F4xx_HAL_Driver/Src/stm32f4xx_hal_gpio.c ****   
  88:Firmware/Drivers/STM32F4xx_HAL_Driver/Src/stm32f4xx_hal_gpio.c ****     (#) The HSE oscillator pins OSC_IN/OSC_OUT can be used as 
ARM GAS  /tmp/ccudD9BL.s 			page 3


  89:Firmware/Drivers/STM32F4xx_HAL_Driver/Src/stm32f4xx_hal_gpio.c ****         general purpose PH0 and PH1, respectively, when the HSE oscillator is off. 
  90:Firmware/Drivers/STM32F4xx_HAL_Driver/Src/stm32f4xx_hal_gpio.c ****         The HSE has priority over the GPIO function.
  91:Firmware/Drivers/STM32F4xx_HAL_Driver/Src/stm32f4xx_hal_gpio.c ****   
  92:Firmware/Drivers/STM32F4xx_HAL_Driver/Src/stm32f4xx_hal_gpio.c ****   @endverbatim
  93:Firmware/Drivers/STM32F4xx_HAL_Driver/Src/stm32f4xx_hal_gpio.c ****   ******************************************************************************
  94:Firmware/Drivers/STM32F4xx_HAL_Driver/Src/stm32f4xx_hal_gpio.c ****   * @attention
  95:Firmware/Drivers/STM32F4xx_HAL_Driver/Src/stm32f4xx_hal_gpio.c ****   *
  96:Firmware/Drivers/STM32F4xx_HAL_Driver/Src/stm32f4xx_hal_gpio.c ****   * <h2><center>&copy; Copyright (c) 2017 STMicroelectronics.
  97:Firmware/Drivers/STM32F4xx_HAL_Driver/Src/stm32f4xx_hal_gpio.c ****   * All rights reserved.</center></h2>
  98:Firmware/Drivers/STM32F4xx_HAL_Driver/Src/stm32f4xx_hal_gpio.c ****   *
  99:Firmware/Drivers/STM32F4xx_HAL_Driver/Src/stm32f4xx_hal_gpio.c ****   * This software component is licensed by ST under BSD 3-Clause license,
 100:Firmware/Drivers/STM32F4xx_HAL_Driver/Src/stm32f4xx_hal_gpio.c ****   * the "License"; You may not use this file except in compliance with the
 101:Firmware/Drivers/STM32F4xx_HAL_Driver/Src/stm32f4xx_hal_gpio.c ****   * License. You may obtain a copy of the License at:
 102:Firmware/Drivers/STM32F4xx_HAL_Driver/Src/stm32f4xx_hal_gpio.c ****   *                        opensource.org/licenses/BSD-3-Clause
 103:Firmware/Drivers/STM32F4xx_HAL_Driver/Src/stm32f4xx_hal_gpio.c ****   *
 104:Firmware/Drivers/STM32F4xx_HAL_Driver/Src/stm32f4xx_hal_gpio.c ****   ******************************************************************************
 105:Firmware/Drivers/STM32F4xx_HAL_Driver/Src/stm32f4xx_hal_gpio.c ****   */ 
 106:Firmware/Drivers/STM32F4xx_HAL_Driver/Src/stm32f4xx_hal_gpio.c **** 
 107:Firmware/Drivers/STM32F4xx_HAL_Driver/Src/stm32f4xx_hal_gpio.c **** /* Includes ------------------------------------------------------------------*/
 108:Firmware/Drivers/STM32F4xx_HAL_Driver/Src/stm32f4xx_hal_gpio.c **** #include "stm32f4xx_hal.h"
 109:Firmware/Drivers/STM32F4xx_HAL_Driver/Src/stm32f4xx_hal_gpio.c **** 
 110:Firmware/Drivers/STM32F4xx_HAL_Driver/Src/stm32f4xx_hal_gpio.c **** /** @addtogroup STM32F4xx_HAL_Driver
 111:Firmware/Drivers/STM32F4xx_HAL_Driver/Src/stm32f4xx_hal_gpio.c ****   * @{
 112:Firmware/Drivers/STM32F4xx_HAL_Driver/Src/stm32f4xx_hal_gpio.c ****   */
 113:Firmware/Drivers/STM32F4xx_HAL_Driver/Src/stm32f4xx_hal_gpio.c **** 
 114:Firmware/Drivers/STM32F4xx_HAL_Driver/Src/stm32f4xx_hal_gpio.c **** /** @defgroup GPIO GPIO
 115:Firmware/Drivers/STM32F4xx_HAL_Driver/Src/stm32f4xx_hal_gpio.c ****   * @brief GPIO HAL module driver
 116:Firmware/Drivers/STM32F4xx_HAL_Driver/Src/stm32f4xx_hal_gpio.c ****   * @{
 117:Firmware/Drivers/STM32F4xx_HAL_Driver/Src/stm32f4xx_hal_gpio.c ****   */
 118:Firmware/Drivers/STM32F4xx_HAL_Driver/Src/stm32f4xx_hal_gpio.c **** 
 119:Firmware/Drivers/STM32F4xx_HAL_Driver/Src/stm32f4xx_hal_gpio.c **** #ifdef HAL_GPIO_MODULE_ENABLED
 120:Firmware/Drivers/STM32F4xx_HAL_Driver/Src/stm32f4xx_hal_gpio.c **** 
 121:Firmware/Drivers/STM32F4xx_HAL_Driver/Src/stm32f4xx_hal_gpio.c **** /* Private typedef -----------------------------------------------------------*/
 122:Firmware/Drivers/STM32F4xx_HAL_Driver/Src/stm32f4xx_hal_gpio.c **** /* Private define ------------------------------------------------------------*/
 123:Firmware/Drivers/STM32F4xx_HAL_Driver/Src/stm32f4xx_hal_gpio.c **** /** @addtogroup GPIO_Private_Constants GPIO Private Constants
 124:Firmware/Drivers/STM32F4xx_HAL_Driver/Src/stm32f4xx_hal_gpio.c ****   * @{
 125:Firmware/Drivers/STM32F4xx_HAL_Driver/Src/stm32f4xx_hal_gpio.c ****   */
 126:Firmware/Drivers/STM32F4xx_HAL_Driver/Src/stm32f4xx_hal_gpio.c **** #define GPIO_MODE             0x00000003U
 127:Firmware/Drivers/STM32F4xx_HAL_Driver/Src/stm32f4xx_hal_gpio.c **** #define EXTI_MODE             0x10000000U
 128:Firmware/Drivers/STM32F4xx_HAL_Driver/Src/stm32f4xx_hal_gpio.c **** #define GPIO_MODE_IT          0x00010000U
 129:Firmware/Drivers/STM32F4xx_HAL_Driver/Src/stm32f4xx_hal_gpio.c **** #define GPIO_MODE_EVT         0x00020000U
 130:Firmware/Drivers/STM32F4xx_HAL_Driver/Src/stm32f4xx_hal_gpio.c **** #define RISING_EDGE           0x00100000U
 131:Firmware/Drivers/STM32F4xx_HAL_Driver/Src/stm32f4xx_hal_gpio.c **** #define FALLING_EDGE          0x00200000U
 132:Firmware/Drivers/STM32F4xx_HAL_Driver/Src/stm32f4xx_hal_gpio.c **** #define GPIO_OUTPUT_TYPE      0x00000010U
 133:Firmware/Drivers/STM32F4xx_HAL_Driver/Src/stm32f4xx_hal_gpio.c **** 
 134:Firmware/Drivers/STM32F4xx_HAL_Driver/Src/stm32f4xx_hal_gpio.c **** #define GPIO_NUMBER           16U
 135:Firmware/Drivers/STM32F4xx_HAL_Driver/Src/stm32f4xx_hal_gpio.c **** /**
 136:Firmware/Drivers/STM32F4xx_HAL_Driver/Src/stm32f4xx_hal_gpio.c ****   * @}
 137:Firmware/Drivers/STM32F4xx_HAL_Driver/Src/stm32f4xx_hal_gpio.c ****   */
 138:Firmware/Drivers/STM32F4xx_HAL_Driver/Src/stm32f4xx_hal_gpio.c **** /* Private macro -------------------------------------------------------------*/
 139:Firmware/Drivers/STM32F4xx_HAL_Driver/Src/stm32f4xx_hal_gpio.c **** /* Private variables ---------------------------------------------------------*/
 140:Firmware/Drivers/STM32F4xx_HAL_Driver/Src/stm32f4xx_hal_gpio.c **** /* Private function prototypes -----------------------------------------------*/
 141:Firmware/Drivers/STM32F4xx_HAL_Driver/Src/stm32f4xx_hal_gpio.c **** /* Private functions ---------------------------------------------------------*/
 142:Firmware/Drivers/STM32F4xx_HAL_Driver/Src/stm32f4xx_hal_gpio.c **** /* Exported functions --------------------------------------------------------*/
 143:Firmware/Drivers/STM32F4xx_HAL_Driver/Src/stm32f4xx_hal_gpio.c **** /** @defgroup GPIO_Exported_Functions GPIO Exported Functions
 144:Firmware/Drivers/STM32F4xx_HAL_Driver/Src/stm32f4xx_hal_gpio.c ****   * @{
 145:Firmware/Drivers/STM32F4xx_HAL_Driver/Src/stm32f4xx_hal_gpio.c ****   */
ARM GAS  /tmp/ccudD9BL.s 			page 4


 146:Firmware/Drivers/STM32F4xx_HAL_Driver/Src/stm32f4xx_hal_gpio.c **** 
 147:Firmware/Drivers/STM32F4xx_HAL_Driver/Src/stm32f4xx_hal_gpio.c **** /** @defgroup GPIO_Exported_Functions_Group1 Initialization and de-initialization functions
 148:Firmware/Drivers/STM32F4xx_HAL_Driver/Src/stm32f4xx_hal_gpio.c ****   *  @brief    Initialization and Configuration functions
 149:Firmware/Drivers/STM32F4xx_HAL_Driver/Src/stm32f4xx_hal_gpio.c ****   *
 150:Firmware/Drivers/STM32F4xx_HAL_Driver/Src/stm32f4xx_hal_gpio.c **** @verbatim    
 151:Firmware/Drivers/STM32F4xx_HAL_Driver/Src/stm32f4xx_hal_gpio.c ****  ===============================================================================
 152:Firmware/Drivers/STM32F4xx_HAL_Driver/Src/stm32f4xx_hal_gpio.c ****               ##### Initialization and de-initialization functions #####
 153:Firmware/Drivers/STM32F4xx_HAL_Driver/Src/stm32f4xx_hal_gpio.c ****  ===============================================================================
 154:Firmware/Drivers/STM32F4xx_HAL_Driver/Src/stm32f4xx_hal_gpio.c ****   [..]
 155:Firmware/Drivers/STM32F4xx_HAL_Driver/Src/stm32f4xx_hal_gpio.c ****     This section provides functions allowing to initialize and de-initialize the GPIOs
 156:Firmware/Drivers/STM32F4xx_HAL_Driver/Src/stm32f4xx_hal_gpio.c ****     to be ready for use.
 157:Firmware/Drivers/STM32F4xx_HAL_Driver/Src/stm32f4xx_hal_gpio.c ****  
 158:Firmware/Drivers/STM32F4xx_HAL_Driver/Src/stm32f4xx_hal_gpio.c **** @endverbatim
 159:Firmware/Drivers/STM32F4xx_HAL_Driver/Src/stm32f4xx_hal_gpio.c ****   * @{
 160:Firmware/Drivers/STM32F4xx_HAL_Driver/Src/stm32f4xx_hal_gpio.c ****   */
 161:Firmware/Drivers/STM32F4xx_HAL_Driver/Src/stm32f4xx_hal_gpio.c **** 
 162:Firmware/Drivers/STM32F4xx_HAL_Driver/Src/stm32f4xx_hal_gpio.c **** 
 163:Firmware/Drivers/STM32F4xx_HAL_Driver/Src/stm32f4xx_hal_gpio.c **** /**
 164:Firmware/Drivers/STM32F4xx_HAL_Driver/Src/stm32f4xx_hal_gpio.c ****   * @brief  Initializes the GPIOx peripheral according to the specified parameters in the GPIO_Init
 165:Firmware/Drivers/STM32F4xx_HAL_Driver/Src/stm32f4xx_hal_gpio.c ****   * @param  GPIOx where x can be (A..K) to select the GPIO peripheral for STM32F429X device or
 166:Firmware/Drivers/STM32F4xx_HAL_Driver/Src/stm32f4xx_hal_gpio.c ****   *                      x can be (A..I) to select the GPIO peripheral for STM32F40XX and STM32F427
 167:Firmware/Drivers/STM32F4xx_HAL_Driver/Src/stm32f4xx_hal_gpio.c ****   * @param  GPIO_Init pointer to a GPIO_InitTypeDef structure that contains
 168:Firmware/Drivers/STM32F4xx_HAL_Driver/Src/stm32f4xx_hal_gpio.c ****   *         the configuration information for the specified GPIO peripheral.
 169:Firmware/Drivers/STM32F4xx_HAL_Driver/Src/stm32f4xx_hal_gpio.c ****   * @retval None
 170:Firmware/Drivers/STM32F4xx_HAL_Driver/Src/stm32f4xx_hal_gpio.c ****   */
 171:Firmware/Drivers/STM32F4xx_HAL_Driver/Src/stm32f4xx_hal_gpio.c **** void HAL_GPIO_Init(GPIO_TypeDef  *GPIOx, GPIO_InitTypeDef *GPIO_Init)
 172:Firmware/Drivers/STM32F4xx_HAL_Driver/Src/stm32f4xx_hal_gpio.c **** {
  28              		.loc 1 172 0
  29              		.cfi_startproc
  30              		@ args = 0, pretend = 0, frame = 32
  31              		@ frame_needed = 1, uses_anonymous_args = 0
  32              		@ link register save eliminated.
  33 0000 80B4     		push	{r7}
  34              	.LCFI0:
  35              		.cfi_def_cfa_offset 4
  36              		.cfi_offset 7, -4
  37 0002 89B0     		sub	sp, sp, #36
  38              	.LCFI1:
  39              		.cfi_def_cfa_offset 40
  40 0004 00AF     		add	r7, sp, #0
  41              	.LCFI2:
  42              		.cfi_def_cfa_register 7
  43 0006 7860     		str	r0, [r7, #4]
  44 0008 3960     		str	r1, [r7]
 173:Firmware/Drivers/STM32F4xx_HAL_Driver/Src/stm32f4xx_hal_gpio.c ****   uint32_t position;
 174:Firmware/Drivers/STM32F4xx_HAL_Driver/Src/stm32f4xx_hal_gpio.c ****   uint32_t ioposition = 0x00U;
  45              		.loc 1 174 0
  46 000a 0023     		movs	r3, #0
  47 000c 7B61     		str	r3, [r7, #20]
 175:Firmware/Drivers/STM32F4xx_HAL_Driver/Src/stm32f4xx_hal_gpio.c ****   uint32_t iocurrent = 0x00U;
  48              		.loc 1 175 0
  49 000e 0023     		movs	r3, #0
  50 0010 3B61     		str	r3, [r7, #16]
 176:Firmware/Drivers/STM32F4xx_HAL_Driver/Src/stm32f4xx_hal_gpio.c ****   uint32_t temp = 0x00U;
  51              		.loc 1 176 0
  52 0012 0023     		movs	r3, #0
  53 0014 BB61     		str	r3, [r7, #24]
ARM GAS  /tmp/ccudD9BL.s 			page 5


 177:Firmware/Drivers/STM32F4xx_HAL_Driver/Src/stm32f4xx_hal_gpio.c **** 
 178:Firmware/Drivers/STM32F4xx_HAL_Driver/Src/stm32f4xx_hal_gpio.c ****   /* Check the parameters */
 179:Firmware/Drivers/STM32F4xx_HAL_Driver/Src/stm32f4xx_hal_gpio.c ****   assert_param(IS_GPIO_ALL_INSTANCE(GPIOx));
 180:Firmware/Drivers/STM32F4xx_HAL_Driver/Src/stm32f4xx_hal_gpio.c ****   assert_param(IS_GPIO_PIN(GPIO_Init->Pin));
 181:Firmware/Drivers/STM32F4xx_HAL_Driver/Src/stm32f4xx_hal_gpio.c ****   assert_param(IS_GPIO_MODE(GPIO_Init->Mode));
 182:Firmware/Drivers/STM32F4xx_HAL_Driver/Src/stm32f4xx_hal_gpio.c ****   assert_param(IS_GPIO_PULL(GPIO_Init->Pull));
 183:Firmware/Drivers/STM32F4xx_HAL_Driver/Src/stm32f4xx_hal_gpio.c **** 
 184:Firmware/Drivers/STM32F4xx_HAL_Driver/Src/stm32f4xx_hal_gpio.c ****   /* Configure the port pins */
 185:Firmware/Drivers/STM32F4xx_HAL_Driver/Src/stm32f4xx_hal_gpio.c ****   for(position = 0U; position < GPIO_NUMBER; position++)
  54              		.loc 1 185 0
  55 0016 0023     		movs	r3, #0
  56 0018 FB61     		str	r3, [r7, #28]
  57 001a 65E1     		b	.L2
  58              	.L26:
 186:Firmware/Drivers/STM32F4xx_HAL_Driver/Src/stm32f4xx_hal_gpio.c ****   {
 187:Firmware/Drivers/STM32F4xx_HAL_Driver/Src/stm32f4xx_hal_gpio.c ****     /* Get the IO position */
 188:Firmware/Drivers/STM32F4xx_HAL_Driver/Src/stm32f4xx_hal_gpio.c ****     ioposition = 0x01U << position;
  59              		.loc 1 188 0
  60 001c 0122     		movs	r2, #1
  61 001e FB69     		ldr	r3, [r7, #28]
  62 0020 02FA03F3 		lsl	r3, r2, r3
  63 0024 7B61     		str	r3, [r7, #20]
 189:Firmware/Drivers/STM32F4xx_HAL_Driver/Src/stm32f4xx_hal_gpio.c ****     /* Get the current IO position */
 190:Firmware/Drivers/STM32F4xx_HAL_Driver/Src/stm32f4xx_hal_gpio.c ****     iocurrent = (uint32_t)(GPIO_Init->Pin) & ioposition;
  64              		.loc 1 190 0
  65 0026 3B68     		ldr	r3, [r7]
  66 0028 1B68     		ldr	r3, [r3]
  67 002a 7A69     		ldr	r2, [r7, #20]
  68 002c 1340     		ands	r3, r3, r2
  69 002e 3B61     		str	r3, [r7, #16]
 191:Firmware/Drivers/STM32F4xx_HAL_Driver/Src/stm32f4xx_hal_gpio.c **** 
 192:Firmware/Drivers/STM32F4xx_HAL_Driver/Src/stm32f4xx_hal_gpio.c ****     if(iocurrent == ioposition)
  70              		.loc 1 192 0
  71 0030 3A69     		ldr	r2, [r7, #16]
  72 0032 7B69     		ldr	r3, [r7, #20]
  73 0034 9A42     		cmp	r2, r3
  74 0036 40F05481 		bne	.L3
 193:Firmware/Drivers/STM32F4xx_HAL_Driver/Src/stm32f4xx_hal_gpio.c ****     {
 194:Firmware/Drivers/STM32F4xx_HAL_Driver/Src/stm32f4xx_hal_gpio.c ****       /*--------------------- GPIO Mode Configuration ------------------------*/
 195:Firmware/Drivers/STM32F4xx_HAL_Driver/Src/stm32f4xx_hal_gpio.c ****       /* In case of Output or Alternate function mode selection */
 196:Firmware/Drivers/STM32F4xx_HAL_Driver/Src/stm32f4xx_hal_gpio.c ****       if((GPIO_Init->Mode == GPIO_MODE_OUTPUT_PP) || (GPIO_Init->Mode == GPIO_MODE_AF_PP) ||
  75              		.loc 1 196 0
  76 003a 3B68     		ldr	r3, [r7]
  77 003c 5B68     		ldr	r3, [r3, #4]
  78 003e 012B     		cmp	r3, #1
  79 0040 0BD0     		beq	.L4
  80              		.loc 1 196 0 is_stmt 0 discriminator 1
  81 0042 3B68     		ldr	r3, [r7]
  82 0044 5B68     		ldr	r3, [r3, #4]
  83 0046 022B     		cmp	r3, #2
  84 0048 07D0     		beq	.L4
 197:Firmware/Drivers/STM32F4xx_HAL_Driver/Src/stm32f4xx_hal_gpio.c ****          (GPIO_Init->Mode == GPIO_MODE_OUTPUT_OD) || (GPIO_Init->Mode == GPIO_MODE_AF_OD))
  85              		.loc 1 197 0 is_stmt 1 discriminator 2
  86 004a 3B68     		ldr	r3, [r7]
  87 004c 5B68     		ldr	r3, [r3, #4]
 196:Firmware/Drivers/STM32F4xx_HAL_Driver/Src/stm32f4xx_hal_gpio.c ****          (GPIO_Init->Mode == GPIO_MODE_OUTPUT_OD) || (GPIO_Init->Mode == GPIO_MODE_AF_OD))
  88              		.loc 1 196 0 discriminator 2
ARM GAS  /tmp/ccudD9BL.s 			page 6


  89 004e 112B     		cmp	r3, #17
  90 0050 03D0     		beq	.L4
  91              		.loc 1 197 0
  92 0052 3B68     		ldr	r3, [r7]
  93 0054 5B68     		ldr	r3, [r3, #4]
  94 0056 122B     		cmp	r3, #18
  95 0058 30D1     		bne	.L5
  96              	.L4:
 198:Firmware/Drivers/STM32F4xx_HAL_Driver/Src/stm32f4xx_hal_gpio.c ****       {
 199:Firmware/Drivers/STM32F4xx_HAL_Driver/Src/stm32f4xx_hal_gpio.c ****         /* Check the Speed parameter */
 200:Firmware/Drivers/STM32F4xx_HAL_Driver/Src/stm32f4xx_hal_gpio.c ****         assert_param(IS_GPIO_SPEED(GPIO_Init->Speed));
 201:Firmware/Drivers/STM32F4xx_HAL_Driver/Src/stm32f4xx_hal_gpio.c ****         /* Configure the IO Speed */
 202:Firmware/Drivers/STM32F4xx_HAL_Driver/Src/stm32f4xx_hal_gpio.c ****         temp = GPIOx->OSPEEDR; 
  97              		.loc 1 202 0
  98 005a 7B68     		ldr	r3, [r7, #4]
  99 005c 9B68     		ldr	r3, [r3, #8]
 100 005e BB61     		str	r3, [r7, #24]
 203:Firmware/Drivers/STM32F4xx_HAL_Driver/Src/stm32f4xx_hal_gpio.c ****         temp &= ~(GPIO_OSPEEDER_OSPEEDR0 << (position * 2U));
 101              		.loc 1 203 0
 102 0060 FB69     		ldr	r3, [r7, #28]
 103 0062 5B00     		lsls	r3, r3, #1
 104 0064 0322     		movs	r2, #3
 105 0066 02FA03F3 		lsl	r3, r2, r3
 106 006a DB43     		mvns	r3, r3
 107 006c BA69     		ldr	r2, [r7, #24]
 108 006e 1340     		ands	r3, r3, r2
 109 0070 BB61     		str	r3, [r7, #24]
 204:Firmware/Drivers/STM32F4xx_HAL_Driver/Src/stm32f4xx_hal_gpio.c ****         temp |= (GPIO_Init->Speed << (position * 2U));
 110              		.loc 1 204 0
 111 0072 3B68     		ldr	r3, [r7]
 112 0074 DA68     		ldr	r2, [r3, #12]
 113 0076 FB69     		ldr	r3, [r7, #28]
 114 0078 5B00     		lsls	r3, r3, #1
 115 007a 02FA03F3 		lsl	r3, r2, r3
 116 007e BA69     		ldr	r2, [r7, #24]
 117 0080 1343     		orrs	r3, r3, r2
 118 0082 BB61     		str	r3, [r7, #24]
 205:Firmware/Drivers/STM32F4xx_HAL_Driver/Src/stm32f4xx_hal_gpio.c ****         GPIOx->OSPEEDR = temp;
 119              		.loc 1 205 0
 120 0084 7B68     		ldr	r3, [r7, #4]
 121 0086 BA69     		ldr	r2, [r7, #24]
 122 0088 9A60     		str	r2, [r3, #8]
 206:Firmware/Drivers/STM32F4xx_HAL_Driver/Src/stm32f4xx_hal_gpio.c **** 
 207:Firmware/Drivers/STM32F4xx_HAL_Driver/Src/stm32f4xx_hal_gpio.c ****         /* Configure the IO Output Type */
 208:Firmware/Drivers/STM32F4xx_HAL_Driver/Src/stm32f4xx_hal_gpio.c ****         temp = GPIOx->OTYPER;
 123              		.loc 1 208 0
 124 008a 7B68     		ldr	r3, [r7, #4]
 125 008c 5B68     		ldr	r3, [r3, #4]
 126 008e BB61     		str	r3, [r7, #24]
 209:Firmware/Drivers/STM32F4xx_HAL_Driver/Src/stm32f4xx_hal_gpio.c ****         temp &= ~(GPIO_OTYPER_OT_0 << position) ;
 127              		.loc 1 209 0
 128 0090 0122     		movs	r2, #1
 129 0092 FB69     		ldr	r3, [r7, #28]
 130 0094 02FA03F3 		lsl	r3, r2, r3
 131 0098 DB43     		mvns	r3, r3
 132 009a BA69     		ldr	r2, [r7, #24]
 133 009c 1340     		ands	r3, r3, r2
ARM GAS  /tmp/ccudD9BL.s 			page 7


 134 009e BB61     		str	r3, [r7, #24]
 210:Firmware/Drivers/STM32F4xx_HAL_Driver/Src/stm32f4xx_hal_gpio.c ****         temp |= (((GPIO_Init->Mode & GPIO_OUTPUT_TYPE) >> 4U) << position);
 135              		.loc 1 210 0
 136 00a0 3B68     		ldr	r3, [r7]
 137 00a2 5B68     		ldr	r3, [r3, #4]
 138 00a4 1B09     		lsrs	r3, r3, #4
 139 00a6 03F00102 		and	r2, r3, #1
 140 00aa FB69     		ldr	r3, [r7, #28]
 141 00ac 02FA03F3 		lsl	r3, r2, r3
 142 00b0 BA69     		ldr	r2, [r7, #24]
 143 00b2 1343     		orrs	r3, r3, r2
 144 00b4 BB61     		str	r3, [r7, #24]
 211:Firmware/Drivers/STM32F4xx_HAL_Driver/Src/stm32f4xx_hal_gpio.c ****         GPIOx->OTYPER = temp;
 145              		.loc 1 211 0
 146 00b6 7B68     		ldr	r3, [r7, #4]
 147 00b8 BA69     		ldr	r2, [r7, #24]
 148 00ba 5A60     		str	r2, [r3, #4]
 149              	.L5:
 212:Firmware/Drivers/STM32F4xx_HAL_Driver/Src/stm32f4xx_hal_gpio.c ****        }
 213:Firmware/Drivers/STM32F4xx_HAL_Driver/Src/stm32f4xx_hal_gpio.c **** 
 214:Firmware/Drivers/STM32F4xx_HAL_Driver/Src/stm32f4xx_hal_gpio.c ****       /* Activate the Pull-up or Pull down resistor for the current IO */
 215:Firmware/Drivers/STM32F4xx_HAL_Driver/Src/stm32f4xx_hal_gpio.c ****       temp = GPIOx->PUPDR;
 150              		.loc 1 215 0
 151 00bc 7B68     		ldr	r3, [r7, #4]
 152 00be DB68     		ldr	r3, [r3, #12]
 153 00c0 BB61     		str	r3, [r7, #24]
 216:Firmware/Drivers/STM32F4xx_HAL_Driver/Src/stm32f4xx_hal_gpio.c ****       temp &= ~(GPIO_PUPDR_PUPDR0 << (position * 2U));
 154              		.loc 1 216 0
 155 00c2 FB69     		ldr	r3, [r7, #28]
 156 00c4 5B00     		lsls	r3, r3, #1
 157 00c6 0322     		movs	r2, #3
 158 00c8 02FA03F3 		lsl	r3, r2, r3
 159 00cc DB43     		mvns	r3, r3
 160 00ce BA69     		ldr	r2, [r7, #24]
 161 00d0 1340     		ands	r3, r3, r2
 162 00d2 BB61     		str	r3, [r7, #24]
 217:Firmware/Drivers/STM32F4xx_HAL_Driver/Src/stm32f4xx_hal_gpio.c ****       temp |= ((GPIO_Init->Pull) << (position * 2U));
 163              		.loc 1 217 0
 164 00d4 3B68     		ldr	r3, [r7]
 165 00d6 9A68     		ldr	r2, [r3, #8]
 166 00d8 FB69     		ldr	r3, [r7, #28]
 167 00da 5B00     		lsls	r3, r3, #1
 168 00dc 02FA03F3 		lsl	r3, r2, r3
 169 00e0 BA69     		ldr	r2, [r7, #24]
 170 00e2 1343     		orrs	r3, r3, r2
 171 00e4 BB61     		str	r3, [r7, #24]
 218:Firmware/Drivers/STM32F4xx_HAL_Driver/Src/stm32f4xx_hal_gpio.c ****       GPIOx->PUPDR = temp;
 172              		.loc 1 218 0
 173 00e6 7B68     		ldr	r3, [r7, #4]
 174 00e8 BA69     		ldr	r2, [r7, #24]
 175 00ea DA60     		str	r2, [r3, #12]
 219:Firmware/Drivers/STM32F4xx_HAL_Driver/Src/stm32f4xx_hal_gpio.c **** 
 220:Firmware/Drivers/STM32F4xx_HAL_Driver/Src/stm32f4xx_hal_gpio.c ****       /* In case of Alternate function mode selection */
 221:Firmware/Drivers/STM32F4xx_HAL_Driver/Src/stm32f4xx_hal_gpio.c ****       if((GPIO_Init->Mode == GPIO_MODE_AF_PP) || (GPIO_Init->Mode == GPIO_MODE_AF_OD))
 176              		.loc 1 221 0
 177 00ec 3B68     		ldr	r3, [r7]
 178 00ee 5B68     		ldr	r3, [r3, #4]
ARM GAS  /tmp/ccudD9BL.s 			page 8


 179 00f0 022B     		cmp	r3, #2
 180 00f2 03D0     		beq	.L6
 181              		.loc 1 221 0 is_stmt 0 discriminator 1
 182 00f4 3B68     		ldr	r3, [r7]
 183 00f6 5B68     		ldr	r3, [r3, #4]
 184 00f8 122B     		cmp	r3, #18
 185 00fa 23D1     		bne	.L7
 186              	.L6:
 222:Firmware/Drivers/STM32F4xx_HAL_Driver/Src/stm32f4xx_hal_gpio.c ****       {
 223:Firmware/Drivers/STM32F4xx_HAL_Driver/Src/stm32f4xx_hal_gpio.c ****         /* Check the Alternate function parameter */
 224:Firmware/Drivers/STM32F4xx_HAL_Driver/Src/stm32f4xx_hal_gpio.c ****         assert_param(IS_GPIO_AF(GPIO_Init->Alternate));
 225:Firmware/Drivers/STM32F4xx_HAL_Driver/Src/stm32f4xx_hal_gpio.c ****         /* Configure Alternate function mapped with the current IO */
 226:Firmware/Drivers/STM32F4xx_HAL_Driver/Src/stm32f4xx_hal_gpio.c ****         temp = GPIOx->AFR[position >> 3U];
 187              		.loc 1 226 0 is_stmt 1
 188 00fc FB69     		ldr	r3, [r7, #28]
 189 00fe DA08     		lsrs	r2, r3, #3
 190 0100 7B68     		ldr	r3, [r7, #4]
 191 0102 0832     		adds	r2, r2, #8
 192 0104 53F82230 		ldr	r3, [r3, r2, lsl #2]
 193 0108 BB61     		str	r3, [r7, #24]
 227:Firmware/Drivers/STM32F4xx_HAL_Driver/Src/stm32f4xx_hal_gpio.c ****         temp &= ~(0xFU << ((uint32_t)(position & 0x07U) * 4U)) ;
 194              		.loc 1 227 0
 195 010a FB69     		ldr	r3, [r7, #28]
 196 010c 03F00703 		and	r3, r3, #7
 197 0110 9B00     		lsls	r3, r3, #2
 198 0112 0F22     		movs	r2, #15
 199 0114 02FA03F3 		lsl	r3, r2, r3
 200 0118 DB43     		mvns	r3, r3
 201 011a BA69     		ldr	r2, [r7, #24]
 202 011c 1340     		ands	r3, r3, r2
 203 011e BB61     		str	r3, [r7, #24]
 228:Firmware/Drivers/STM32F4xx_HAL_Driver/Src/stm32f4xx_hal_gpio.c ****         temp |= ((uint32_t)(GPIO_Init->Alternate) << (((uint32_t)position & 0x07U) * 4U));
 204              		.loc 1 228 0
 205 0120 3B68     		ldr	r3, [r7]
 206 0122 1A69     		ldr	r2, [r3, #16]
 207 0124 FB69     		ldr	r3, [r7, #28]
 208 0126 03F00703 		and	r3, r3, #7
 209 012a 9B00     		lsls	r3, r3, #2
 210 012c 02FA03F3 		lsl	r3, r2, r3
 211 0130 BA69     		ldr	r2, [r7, #24]
 212 0132 1343     		orrs	r3, r3, r2
 213 0134 BB61     		str	r3, [r7, #24]
 229:Firmware/Drivers/STM32F4xx_HAL_Driver/Src/stm32f4xx_hal_gpio.c ****         GPIOx->AFR[position >> 3U] = temp;
 214              		.loc 1 229 0
 215 0136 FB69     		ldr	r3, [r7, #28]
 216 0138 DA08     		lsrs	r2, r3, #3
 217 013a 7B68     		ldr	r3, [r7, #4]
 218 013c 0832     		adds	r2, r2, #8
 219 013e B969     		ldr	r1, [r7, #24]
 220 0140 43F82210 		str	r1, [r3, r2, lsl #2]
 221              	.L7:
 230:Firmware/Drivers/STM32F4xx_HAL_Driver/Src/stm32f4xx_hal_gpio.c ****       }
 231:Firmware/Drivers/STM32F4xx_HAL_Driver/Src/stm32f4xx_hal_gpio.c **** 
 232:Firmware/Drivers/STM32F4xx_HAL_Driver/Src/stm32f4xx_hal_gpio.c ****       /* Configure IO Direction mode (Input, Output, Alternate or Analog) */
 233:Firmware/Drivers/STM32F4xx_HAL_Driver/Src/stm32f4xx_hal_gpio.c ****       temp = GPIOx->MODER;
 222              		.loc 1 233 0
 223 0144 7B68     		ldr	r3, [r7, #4]
ARM GAS  /tmp/ccudD9BL.s 			page 9


 224 0146 1B68     		ldr	r3, [r3]
 225 0148 BB61     		str	r3, [r7, #24]
 234:Firmware/Drivers/STM32F4xx_HAL_Driver/Src/stm32f4xx_hal_gpio.c ****       temp &= ~(GPIO_MODER_MODER0 << (position * 2U));
 226              		.loc 1 234 0
 227 014a FB69     		ldr	r3, [r7, #28]
 228 014c 5B00     		lsls	r3, r3, #1
 229 014e 0322     		movs	r2, #3
 230 0150 02FA03F3 		lsl	r3, r2, r3
 231 0154 DB43     		mvns	r3, r3
 232 0156 BA69     		ldr	r2, [r7, #24]
 233 0158 1340     		ands	r3, r3, r2
 234 015a BB61     		str	r3, [r7, #24]
 235:Firmware/Drivers/STM32F4xx_HAL_Driver/Src/stm32f4xx_hal_gpio.c ****       temp |= ((GPIO_Init->Mode & GPIO_MODE) << (position * 2U));
 235              		.loc 1 235 0
 236 015c 3B68     		ldr	r3, [r7]
 237 015e 5B68     		ldr	r3, [r3, #4]
 238 0160 03F00302 		and	r2, r3, #3
 239 0164 FB69     		ldr	r3, [r7, #28]
 240 0166 5B00     		lsls	r3, r3, #1
 241 0168 02FA03F3 		lsl	r3, r2, r3
 242 016c BA69     		ldr	r2, [r7, #24]
 243 016e 1343     		orrs	r3, r3, r2
 244 0170 BB61     		str	r3, [r7, #24]
 236:Firmware/Drivers/STM32F4xx_HAL_Driver/Src/stm32f4xx_hal_gpio.c ****       GPIOx->MODER = temp;
 245              		.loc 1 236 0
 246 0172 7B68     		ldr	r3, [r7, #4]
 247 0174 BA69     		ldr	r2, [r7, #24]
 248 0176 1A60     		str	r2, [r3]
 237:Firmware/Drivers/STM32F4xx_HAL_Driver/Src/stm32f4xx_hal_gpio.c **** 
 238:Firmware/Drivers/STM32F4xx_HAL_Driver/Src/stm32f4xx_hal_gpio.c ****       /*--------------------- EXTI Mode Configuration ------------------------*/
 239:Firmware/Drivers/STM32F4xx_HAL_Driver/Src/stm32f4xx_hal_gpio.c ****       /* Configure the External Interrupt or event for the current IO */
 240:Firmware/Drivers/STM32F4xx_HAL_Driver/Src/stm32f4xx_hal_gpio.c ****       if((GPIO_Init->Mode & EXTI_MODE) == EXTI_MODE)
 249              		.loc 1 240 0
 250 0178 3B68     		ldr	r3, [r7]
 251 017a 5B68     		ldr	r3, [r3, #4]
 252 017c 03F08053 		and	r3, r3, #268435456
 253 0180 002B     		cmp	r3, #0
 254 0182 00F0AE80 		beq	.L3
 255              	.LBB2:
 241:Firmware/Drivers/STM32F4xx_HAL_Driver/Src/stm32f4xx_hal_gpio.c ****       {
 242:Firmware/Drivers/STM32F4xx_HAL_Driver/Src/stm32f4xx_hal_gpio.c ****         /* Enable SYSCFG Clock */
 243:Firmware/Drivers/STM32F4xx_HAL_Driver/Src/stm32f4xx_hal_gpio.c ****         __HAL_RCC_SYSCFG_CLK_ENABLE();
 256              		.loc 1 243 0
 257 0186 0023     		movs	r3, #0
 258 0188 FB60     		str	r3, [r7, #12]
 259 018a 5C4B     		ldr	r3, .L27
 260 018c 5B6C     		ldr	r3, [r3, #68]
 261 018e 5B4A     		ldr	r2, .L27
 262 0190 43F48043 		orr	r3, r3, #16384
 263 0194 5364     		str	r3, [r2, #68]
 264 0196 594B     		ldr	r3, .L27
 265 0198 5B6C     		ldr	r3, [r3, #68]
 266 019a 03F48043 		and	r3, r3, #16384
 267 019e FB60     		str	r3, [r7, #12]
 268 01a0 FB68     		ldr	r3, [r7, #12]
 269              	.LBE2:
 244:Firmware/Drivers/STM32F4xx_HAL_Driver/Src/stm32f4xx_hal_gpio.c **** 
ARM GAS  /tmp/ccudD9BL.s 			page 10


 245:Firmware/Drivers/STM32F4xx_HAL_Driver/Src/stm32f4xx_hal_gpio.c ****         temp = SYSCFG->EXTICR[position >> 2U];
 270              		.loc 1 245 0
 271 01a2 574A     		ldr	r2, .L27+4
 272 01a4 FB69     		ldr	r3, [r7, #28]
 273 01a6 9B08     		lsrs	r3, r3, #2
 274 01a8 0233     		adds	r3, r3, #2
 275 01aa 52F82330 		ldr	r3, [r2, r3, lsl #2]
 276 01ae BB61     		str	r3, [r7, #24]
 246:Firmware/Drivers/STM32F4xx_HAL_Driver/Src/stm32f4xx_hal_gpio.c ****         temp &= ~(0x0FU << (4U * (position & 0x03U)));
 277              		.loc 1 246 0
 278 01b0 FB69     		ldr	r3, [r7, #28]
 279 01b2 03F00303 		and	r3, r3, #3
 280 01b6 9B00     		lsls	r3, r3, #2
 281 01b8 0F22     		movs	r2, #15
 282 01ba 02FA03F3 		lsl	r3, r2, r3
 283 01be DB43     		mvns	r3, r3
 284 01c0 BA69     		ldr	r2, [r7, #24]
 285 01c2 1340     		ands	r3, r3, r2
 286 01c4 BB61     		str	r3, [r7, #24]
 247:Firmware/Drivers/STM32F4xx_HAL_Driver/Src/stm32f4xx_hal_gpio.c ****         temp |= ((uint32_t)(GPIO_GET_INDEX(GPIOx)) << (4U * (position & 0x03U)));
 287              		.loc 1 247 0
 288 01c6 7B68     		ldr	r3, [r7, #4]
 289 01c8 4E4A     		ldr	r2, .L27+8
 290 01ca 9342     		cmp	r3, r2
 291 01cc 25D0     		beq	.L8
 292              		.loc 1 247 0 is_stmt 0 discriminator 1
 293 01ce 7B68     		ldr	r3, [r7, #4]
 294 01d0 4D4A     		ldr	r2, .L27+12
 295 01d2 9342     		cmp	r3, r2
 296 01d4 1FD0     		beq	.L9
 297              		.loc 1 247 0 discriminator 3
 298 01d6 7B68     		ldr	r3, [r7, #4]
 299 01d8 4C4A     		ldr	r2, .L27+16
 300 01da 9342     		cmp	r3, r2
 301 01dc 19D0     		beq	.L10
 302              		.loc 1 247 0 discriminator 5
 303 01de 7B68     		ldr	r3, [r7, #4]
 304 01e0 4B4A     		ldr	r2, .L27+20
 305 01e2 9342     		cmp	r3, r2
 306 01e4 13D0     		beq	.L11
 307              		.loc 1 247 0 discriminator 7
 308 01e6 7B68     		ldr	r3, [r7, #4]
 309 01e8 4A4A     		ldr	r2, .L27+24
 310 01ea 9342     		cmp	r3, r2
 311 01ec 0DD0     		beq	.L12
 312              		.loc 1 247 0 discriminator 9
 313 01ee 7B68     		ldr	r3, [r7, #4]
 314 01f0 494A     		ldr	r2, .L27+28
 315 01f2 9342     		cmp	r3, r2
 316 01f4 07D0     		beq	.L13
 317              		.loc 1 247 0 discriminator 11
 318 01f6 7B68     		ldr	r3, [r7, #4]
 319 01f8 484A     		ldr	r2, .L27+32
 320 01fa 9342     		cmp	r3, r2
 321 01fc 01D1     		bne	.L14
 322              		.loc 1 247 0 discriminator 13
 323 01fe 0623     		movs	r3, #6
ARM GAS  /tmp/ccudD9BL.s 			page 11


 324 0200 0CE0     		b	.L21
 325              	.L14:
 326              		.loc 1 247 0 discriminator 14
 327 0202 0723     		movs	r3, #7
 328 0204 0AE0     		b	.L21
 329              	.L13:
 330              		.loc 1 247 0 discriminator 12
 331 0206 0523     		movs	r3, #5
 332 0208 08E0     		b	.L21
 333              	.L12:
 334              		.loc 1 247 0 discriminator 10
 335 020a 0423     		movs	r3, #4
 336 020c 06E0     		b	.L21
 337              	.L11:
 338              		.loc 1 247 0 discriminator 8
 339 020e 0323     		movs	r3, #3
 340 0210 04E0     		b	.L21
 341              	.L10:
 342              		.loc 1 247 0 discriminator 6
 343 0212 0223     		movs	r3, #2
 344 0214 02E0     		b	.L21
 345              	.L9:
 346              		.loc 1 247 0 discriminator 4
 347 0216 0123     		movs	r3, #1
 348 0218 00E0     		b	.L21
 349              	.L8:
 350              		.loc 1 247 0 discriminator 2
 351 021a 0023     		movs	r3, #0
 352              	.L21:
 353              		.loc 1 247 0 discriminator 28
 354 021c FA69     		ldr	r2, [r7, #28]
 355 021e 02F00302 		and	r2, r2, #3
 356 0222 9200     		lsls	r2, r2, #2
 357 0224 9340     		lsls	r3, r3, r2
 358 0226 BA69     		ldr	r2, [r7, #24]
 359 0228 1343     		orrs	r3, r3, r2
 360 022a BB61     		str	r3, [r7, #24]
 248:Firmware/Drivers/STM32F4xx_HAL_Driver/Src/stm32f4xx_hal_gpio.c ****         SYSCFG->EXTICR[position >> 2U] = temp;
 361              		.loc 1 248 0 is_stmt 1 discriminator 28
 362 022c 3449     		ldr	r1, .L27+4
 363 022e FB69     		ldr	r3, [r7, #28]
 364 0230 9B08     		lsrs	r3, r3, #2
 365 0232 0233     		adds	r3, r3, #2
 366 0234 BA69     		ldr	r2, [r7, #24]
 367 0236 41F82320 		str	r2, [r1, r3, lsl #2]
 249:Firmware/Drivers/STM32F4xx_HAL_Driver/Src/stm32f4xx_hal_gpio.c **** 
 250:Firmware/Drivers/STM32F4xx_HAL_Driver/Src/stm32f4xx_hal_gpio.c ****         /* Clear EXTI line configuration */
 251:Firmware/Drivers/STM32F4xx_HAL_Driver/Src/stm32f4xx_hal_gpio.c ****         temp = EXTI->IMR;
 368              		.loc 1 251 0 discriminator 28
 369 023a 394B     		ldr	r3, .L27+36
 370 023c 1B68     		ldr	r3, [r3]
 371 023e BB61     		str	r3, [r7, #24]
 252:Firmware/Drivers/STM32F4xx_HAL_Driver/Src/stm32f4xx_hal_gpio.c ****         temp &= ~((uint32_t)iocurrent);
 372              		.loc 1 252 0 discriminator 28
 373 0240 3B69     		ldr	r3, [r7, #16]
 374 0242 DB43     		mvns	r3, r3
 375 0244 BA69     		ldr	r2, [r7, #24]
ARM GAS  /tmp/ccudD9BL.s 			page 12


 376 0246 1340     		ands	r3, r3, r2
 377 0248 BB61     		str	r3, [r7, #24]
 253:Firmware/Drivers/STM32F4xx_HAL_Driver/Src/stm32f4xx_hal_gpio.c ****         if((GPIO_Init->Mode & GPIO_MODE_IT) == GPIO_MODE_IT)
 378              		.loc 1 253 0 discriminator 28
 379 024a 3B68     		ldr	r3, [r7]
 380 024c 5B68     		ldr	r3, [r3, #4]
 381 024e 03F48033 		and	r3, r3, #65536
 382 0252 002B     		cmp	r3, #0
 383 0254 03D0     		beq	.L22
 254:Firmware/Drivers/STM32F4xx_HAL_Driver/Src/stm32f4xx_hal_gpio.c ****         {
 255:Firmware/Drivers/STM32F4xx_HAL_Driver/Src/stm32f4xx_hal_gpio.c ****           temp |= iocurrent;
 384              		.loc 1 255 0
 385 0256 BA69     		ldr	r2, [r7, #24]
 386 0258 3B69     		ldr	r3, [r7, #16]
 387 025a 1343     		orrs	r3, r3, r2
 388 025c BB61     		str	r3, [r7, #24]
 389              	.L22:
 256:Firmware/Drivers/STM32F4xx_HAL_Driver/Src/stm32f4xx_hal_gpio.c ****         }
 257:Firmware/Drivers/STM32F4xx_HAL_Driver/Src/stm32f4xx_hal_gpio.c ****         EXTI->IMR = temp;
 390              		.loc 1 257 0
 391 025e 304A     		ldr	r2, .L27+36
 392 0260 BB69     		ldr	r3, [r7, #24]
 393 0262 1360     		str	r3, [r2]
 258:Firmware/Drivers/STM32F4xx_HAL_Driver/Src/stm32f4xx_hal_gpio.c **** 
 259:Firmware/Drivers/STM32F4xx_HAL_Driver/Src/stm32f4xx_hal_gpio.c ****         temp = EXTI->EMR;
 394              		.loc 1 259 0
 395 0264 2E4B     		ldr	r3, .L27+36
 396 0266 5B68     		ldr	r3, [r3, #4]
 397 0268 BB61     		str	r3, [r7, #24]
 260:Firmware/Drivers/STM32F4xx_HAL_Driver/Src/stm32f4xx_hal_gpio.c ****         temp &= ~((uint32_t)iocurrent);
 398              		.loc 1 260 0
 399 026a 3B69     		ldr	r3, [r7, #16]
 400 026c DB43     		mvns	r3, r3
 401 026e BA69     		ldr	r2, [r7, #24]
 402 0270 1340     		ands	r3, r3, r2
 403 0272 BB61     		str	r3, [r7, #24]
 261:Firmware/Drivers/STM32F4xx_HAL_Driver/Src/stm32f4xx_hal_gpio.c ****         if((GPIO_Init->Mode & GPIO_MODE_EVT) == GPIO_MODE_EVT)
 404              		.loc 1 261 0
 405 0274 3B68     		ldr	r3, [r7]
 406 0276 5B68     		ldr	r3, [r3, #4]
 407 0278 03F40033 		and	r3, r3, #131072
 408 027c 002B     		cmp	r3, #0
 409 027e 03D0     		beq	.L23
 262:Firmware/Drivers/STM32F4xx_HAL_Driver/Src/stm32f4xx_hal_gpio.c ****         {
 263:Firmware/Drivers/STM32F4xx_HAL_Driver/Src/stm32f4xx_hal_gpio.c ****           temp |= iocurrent;
 410              		.loc 1 263 0
 411 0280 BA69     		ldr	r2, [r7, #24]
 412 0282 3B69     		ldr	r3, [r7, #16]
 413 0284 1343     		orrs	r3, r3, r2
 414 0286 BB61     		str	r3, [r7, #24]
 415              	.L23:
 264:Firmware/Drivers/STM32F4xx_HAL_Driver/Src/stm32f4xx_hal_gpio.c ****         }
 265:Firmware/Drivers/STM32F4xx_HAL_Driver/Src/stm32f4xx_hal_gpio.c ****         EXTI->EMR = temp;
 416              		.loc 1 265 0
 417 0288 254A     		ldr	r2, .L27+36
 418 028a BB69     		ldr	r3, [r7, #24]
 419 028c 5360     		str	r3, [r2, #4]
ARM GAS  /tmp/ccudD9BL.s 			page 13


 266:Firmware/Drivers/STM32F4xx_HAL_Driver/Src/stm32f4xx_hal_gpio.c **** 
 267:Firmware/Drivers/STM32F4xx_HAL_Driver/Src/stm32f4xx_hal_gpio.c ****         /* Clear Rising Falling edge configuration */
 268:Firmware/Drivers/STM32F4xx_HAL_Driver/Src/stm32f4xx_hal_gpio.c ****         temp = EXTI->RTSR;
 420              		.loc 1 268 0
 421 028e 244B     		ldr	r3, .L27+36
 422 0290 9B68     		ldr	r3, [r3, #8]
 423 0292 BB61     		str	r3, [r7, #24]
 269:Firmware/Drivers/STM32F4xx_HAL_Driver/Src/stm32f4xx_hal_gpio.c ****         temp &= ~((uint32_t)iocurrent);
 424              		.loc 1 269 0
 425 0294 3B69     		ldr	r3, [r7, #16]
 426 0296 DB43     		mvns	r3, r3
 427 0298 BA69     		ldr	r2, [r7, #24]
 428 029a 1340     		ands	r3, r3, r2
 429 029c BB61     		str	r3, [r7, #24]
 270:Firmware/Drivers/STM32F4xx_HAL_Driver/Src/stm32f4xx_hal_gpio.c ****         if((GPIO_Init->Mode & RISING_EDGE) == RISING_EDGE)
 430              		.loc 1 270 0
 431 029e 3B68     		ldr	r3, [r7]
 432 02a0 5B68     		ldr	r3, [r3, #4]
 433 02a2 03F48013 		and	r3, r3, #1048576
 434 02a6 002B     		cmp	r3, #0
 435 02a8 03D0     		beq	.L24
 271:Firmware/Drivers/STM32F4xx_HAL_Driver/Src/stm32f4xx_hal_gpio.c ****         {
 272:Firmware/Drivers/STM32F4xx_HAL_Driver/Src/stm32f4xx_hal_gpio.c ****           temp |= iocurrent;
 436              		.loc 1 272 0
 437 02aa BA69     		ldr	r2, [r7, #24]
 438 02ac 3B69     		ldr	r3, [r7, #16]
 439 02ae 1343     		orrs	r3, r3, r2
 440 02b0 BB61     		str	r3, [r7, #24]
 441              	.L24:
 273:Firmware/Drivers/STM32F4xx_HAL_Driver/Src/stm32f4xx_hal_gpio.c ****         }
 274:Firmware/Drivers/STM32F4xx_HAL_Driver/Src/stm32f4xx_hal_gpio.c ****         EXTI->RTSR = temp;
 442              		.loc 1 274 0
 443 02b2 1B4A     		ldr	r2, .L27+36
 444 02b4 BB69     		ldr	r3, [r7, #24]
 445 02b6 9360     		str	r3, [r2, #8]
 275:Firmware/Drivers/STM32F4xx_HAL_Driver/Src/stm32f4xx_hal_gpio.c **** 
 276:Firmware/Drivers/STM32F4xx_HAL_Driver/Src/stm32f4xx_hal_gpio.c ****         temp = EXTI->FTSR;
 446              		.loc 1 276 0
 447 02b8 194B     		ldr	r3, .L27+36
 448 02ba DB68     		ldr	r3, [r3, #12]
 449 02bc BB61     		str	r3, [r7, #24]
 277:Firmware/Drivers/STM32F4xx_HAL_Driver/Src/stm32f4xx_hal_gpio.c ****         temp &= ~((uint32_t)iocurrent);
 450              		.loc 1 277 0
 451 02be 3B69     		ldr	r3, [r7, #16]
 452 02c0 DB43     		mvns	r3, r3
 453 02c2 BA69     		ldr	r2, [r7, #24]
 454 02c4 1340     		ands	r3, r3, r2
 455 02c6 BB61     		str	r3, [r7, #24]
 278:Firmware/Drivers/STM32F4xx_HAL_Driver/Src/stm32f4xx_hal_gpio.c ****         if((GPIO_Init->Mode & FALLING_EDGE) == FALLING_EDGE)
 456              		.loc 1 278 0
 457 02c8 3B68     		ldr	r3, [r7]
 458 02ca 5B68     		ldr	r3, [r3, #4]
 459 02cc 03F40013 		and	r3, r3, #2097152
 460 02d0 002B     		cmp	r3, #0
 461 02d2 03D0     		beq	.L25
 279:Firmware/Drivers/STM32F4xx_HAL_Driver/Src/stm32f4xx_hal_gpio.c ****         {
 280:Firmware/Drivers/STM32F4xx_HAL_Driver/Src/stm32f4xx_hal_gpio.c ****           temp |= iocurrent;
ARM GAS  /tmp/ccudD9BL.s 			page 14


 462              		.loc 1 280 0
 463 02d4 BA69     		ldr	r2, [r7, #24]
 464 02d6 3B69     		ldr	r3, [r7, #16]
 465 02d8 1343     		orrs	r3, r3, r2
 466 02da BB61     		str	r3, [r7, #24]
 467              	.L25:
 281:Firmware/Drivers/STM32F4xx_HAL_Driver/Src/stm32f4xx_hal_gpio.c ****         }
 282:Firmware/Drivers/STM32F4xx_HAL_Driver/Src/stm32f4xx_hal_gpio.c ****         EXTI->FTSR = temp;
 468              		.loc 1 282 0
 469 02dc 104A     		ldr	r2, .L27+36
 470 02de BB69     		ldr	r3, [r7, #24]
 471 02e0 D360     		str	r3, [r2, #12]
 472              	.L3:
 185:Firmware/Drivers/STM32F4xx_HAL_Driver/Src/stm32f4xx_hal_gpio.c ****   {
 473              		.loc 1 185 0 discriminator 2
 474 02e2 FB69     		ldr	r3, [r7, #28]
 475 02e4 0133     		adds	r3, r3, #1
 476 02e6 FB61     		str	r3, [r7, #28]
 477              	.L2:
 185:Firmware/Drivers/STM32F4xx_HAL_Driver/Src/stm32f4xx_hal_gpio.c ****   {
 478              		.loc 1 185 0 is_stmt 0 discriminator 1
 479 02e8 FB69     		ldr	r3, [r7, #28]
 480 02ea 0F2B     		cmp	r3, #15
 481 02ec 7FF696AE 		bls	.L26
 283:Firmware/Drivers/STM32F4xx_HAL_Driver/Src/stm32f4xx_hal_gpio.c ****       }
 284:Firmware/Drivers/STM32F4xx_HAL_Driver/Src/stm32f4xx_hal_gpio.c ****     }
 285:Firmware/Drivers/STM32F4xx_HAL_Driver/Src/stm32f4xx_hal_gpio.c ****   }
 286:Firmware/Drivers/STM32F4xx_HAL_Driver/Src/stm32f4xx_hal_gpio.c **** }
 482              		.loc 1 286 0 is_stmt 1
 483 02f0 00BF     		nop
 484 02f2 2437     		adds	r7, r7, #36
 485              	.LCFI3:
 486              		.cfi_def_cfa_offset 4
 487 02f4 BD46     		mov	sp, r7
 488              	.LCFI4:
 489              		.cfi_def_cfa_register 13
 490              		@ sp needed
 491 02f6 5DF8047B 		ldr	r7, [sp], #4
 492              	.LCFI5:
 493              		.cfi_restore 7
 494              		.cfi_def_cfa_offset 0
 495 02fa 7047     		bx	lr
 496              	.L28:
 497              		.align	2
 498              	.L27:
 499 02fc 00380240 		.word	1073887232
 500 0300 00380140 		.word	1073821696
 501 0304 00000240 		.word	1073872896
 502 0308 00040240 		.word	1073873920
 503 030c 00080240 		.word	1073874944
 504 0310 000C0240 		.word	1073875968
 505 0314 00100240 		.word	1073876992
 506 0318 00140240 		.word	1073878016
 507 031c 00180240 		.word	1073879040
 508 0320 003C0140 		.word	1073822720
 509              		.cfi_endproc
 510              	.LFE130:
ARM GAS  /tmp/ccudD9BL.s 			page 15


 512              		.section	.text.HAL_GPIO_DeInit,"ax",%progbits
 513              		.align	1
 514              		.global	HAL_GPIO_DeInit
 515              		.syntax unified
 516              		.thumb
 517              		.thumb_func
 518              		.fpu fpv4-sp-d16
 520              	HAL_GPIO_DeInit:
 521              	.LFB131:
 287:Firmware/Drivers/STM32F4xx_HAL_Driver/Src/stm32f4xx_hal_gpio.c **** 
 288:Firmware/Drivers/STM32F4xx_HAL_Driver/Src/stm32f4xx_hal_gpio.c **** /**
 289:Firmware/Drivers/STM32F4xx_HAL_Driver/Src/stm32f4xx_hal_gpio.c ****   * @brief  De-initializes the GPIOx peripheral registers to their default reset values.
 290:Firmware/Drivers/STM32F4xx_HAL_Driver/Src/stm32f4xx_hal_gpio.c ****   * @param  GPIOx where x can be (A..K) to select the GPIO peripheral for STM32F429X device or
 291:Firmware/Drivers/STM32F4xx_HAL_Driver/Src/stm32f4xx_hal_gpio.c ****   *                      x can be (A..I) to select the GPIO peripheral for STM32F40XX and STM32F427
 292:Firmware/Drivers/STM32F4xx_HAL_Driver/Src/stm32f4xx_hal_gpio.c ****   * @param  GPIO_Pin specifies the port bit to be written.
 293:Firmware/Drivers/STM32F4xx_HAL_Driver/Src/stm32f4xx_hal_gpio.c ****   *          This parameter can be one of GPIO_PIN_x where x can be (0..15).
 294:Firmware/Drivers/STM32F4xx_HAL_Driver/Src/stm32f4xx_hal_gpio.c ****   * @retval None
 295:Firmware/Drivers/STM32F4xx_HAL_Driver/Src/stm32f4xx_hal_gpio.c ****   */
 296:Firmware/Drivers/STM32F4xx_HAL_Driver/Src/stm32f4xx_hal_gpio.c **** void HAL_GPIO_DeInit(GPIO_TypeDef  *GPIOx, uint32_t GPIO_Pin)
 297:Firmware/Drivers/STM32F4xx_HAL_Driver/Src/stm32f4xx_hal_gpio.c **** {
 522              		.loc 1 297 0
 523              		.cfi_startproc
 524              		@ args = 0, pretend = 0, frame = 24
 525              		@ frame_needed = 1, uses_anonymous_args = 0
 526              		@ link register save eliminated.
 527 0000 80B4     		push	{r7}
 528              	.LCFI6:
 529              		.cfi_def_cfa_offset 4
 530              		.cfi_offset 7, -4
 531 0002 87B0     		sub	sp, sp, #28
 532              	.LCFI7:
 533              		.cfi_def_cfa_offset 32
 534 0004 00AF     		add	r7, sp, #0
 535              	.LCFI8:
 536              		.cfi_def_cfa_register 7
 537 0006 7860     		str	r0, [r7, #4]
 538 0008 3960     		str	r1, [r7]
 298:Firmware/Drivers/STM32F4xx_HAL_Driver/Src/stm32f4xx_hal_gpio.c ****   uint32_t position;
 299:Firmware/Drivers/STM32F4xx_HAL_Driver/Src/stm32f4xx_hal_gpio.c ****   uint32_t ioposition = 0x00U;
 539              		.loc 1 299 0
 540 000a 0023     		movs	r3, #0
 541 000c 3B61     		str	r3, [r7, #16]
 300:Firmware/Drivers/STM32F4xx_HAL_Driver/Src/stm32f4xx_hal_gpio.c ****   uint32_t iocurrent = 0x00U;
 542              		.loc 1 300 0
 543 000e 0023     		movs	r3, #0
 544 0010 FB60     		str	r3, [r7, #12]
 301:Firmware/Drivers/STM32F4xx_HAL_Driver/Src/stm32f4xx_hal_gpio.c ****   uint32_t tmp = 0x00U;
 545              		.loc 1 301 0
 546 0012 0023     		movs	r3, #0
 547 0014 BB60     		str	r3, [r7, #8]
 302:Firmware/Drivers/STM32F4xx_HAL_Driver/Src/stm32f4xx_hal_gpio.c **** 
 303:Firmware/Drivers/STM32F4xx_HAL_Driver/Src/stm32f4xx_hal_gpio.c ****   /* Check the parameters */
 304:Firmware/Drivers/STM32F4xx_HAL_Driver/Src/stm32f4xx_hal_gpio.c ****   assert_param(IS_GPIO_ALL_INSTANCE(GPIOx));
 305:Firmware/Drivers/STM32F4xx_HAL_Driver/Src/stm32f4xx_hal_gpio.c ****   
 306:Firmware/Drivers/STM32F4xx_HAL_Driver/Src/stm32f4xx_hal_gpio.c ****   /* Configure the port pins */
 307:Firmware/Drivers/STM32F4xx_HAL_Driver/Src/stm32f4xx_hal_gpio.c ****   for(position = 0U; position < GPIO_NUMBER; position++)
 548              		.loc 1 307 0
ARM GAS  /tmp/ccudD9BL.s 			page 16


 549 0016 0023     		movs	r3, #0
 550 0018 7B61     		str	r3, [r7, #20]
 551 001a C7E0     		b	.L30
 552              	.L47:
 308:Firmware/Drivers/STM32F4xx_HAL_Driver/Src/stm32f4xx_hal_gpio.c ****   {
 309:Firmware/Drivers/STM32F4xx_HAL_Driver/Src/stm32f4xx_hal_gpio.c ****     /* Get the IO position */
 310:Firmware/Drivers/STM32F4xx_HAL_Driver/Src/stm32f4xx_hal_gpio.c ****     ioposition = 0x01U << position;
 553              		.loc 1 310 0
 554 001c 0122     		movs	r2, #1
 555 001e 7B69     		ldr	r3, [r7, #20]
 556 0020 02FA03F3 		lsl	r3, r2, r3
 557 0024 3B61     		str	r3, [r7, #16]
 311:Firmware/Drivers/STM32F4xx_HAL_Driver/Src/stm32f4xx_hal_gpio.c ****     /* Get the current IO position */
 312:Firmware/Drivers/STM32F4xx_HAL_Driver/Src/stm32f4xx_hal_gpio.c ****     iocurrent = (GPIO_Pin) & ioposition;
 558              		.loc 1 312 0
 559 0026 3A68     		ldr	r2, [r7]
 560 0028 3B69     		ldr	r3, [r7, #16]
 561 002a 1340     		ands	r3, r3, r2
 562 002c FB60     		str	r3, [r7, #12]
 313:Firmware/Drivers/STM32F4xx_HAL_Driver/Src/stm32f4xx_hal_gpio.c **** 
 314:Firmware/Drivers/STM32F4xx_HAL_Driver/Src/stm32f4xx_hal_gpio.c ****     if(iocurrent == ioposition)
 563              		.loc 1 314 0
 564 002e FA68     		ldr	r2, [r7, #12]
 565 0030 3B69     		ldr	r3, [r7, #16]
 566 0032 9A42     		cmp	r2, r3
 567 0034 40F0B780 		bne	.L31
 315:Firmware/Drivers/STM32F4xx_HAL_Driver/Src/stm32f4xx_hal_gpio.c ****     {
 316:Firmware/Drivers/STM32F4xx_HAL_Driver/Src/stm32f4xx_hal_gpio.c ****       /*------------------------- EXTI Mode Configuration --------------------*/
 317:Firmware/Drivers/STM32F4xx_HAL_Driver/Src/stm32f4xx_hal_gpio.c ****       tmp = SYSCFG->EXTICR[position >> 2U];
 568              		.loc 1 317 0
 569 0038 614A     		ldr	r2, .L48
 570 003a 7B69     		ldr	r3, [r7, #20]
 571 003c 9B08     		lsrs	r3, r3, #2
 572 003e 0233     		adds	r3, r3, #2
 573 0040 52F82330 		ldr	r3, [r2, r3, lsl #2]
 574 0044 BB60     		str	r3, [r7, #8]
 318:Firmware/Drivers/STM32F4xx_HAL_Driver/Src/stm32f4xx_hal_gpio.c ****       tmp &= (0x0FU << (4U * (position & 0x03U)));
 575              		.loc 1 318 0
 576 0046 7B69     		ldr	r3, [r7, #20]
 577 0048 03F00303 		and	r3, r3, #3
 578 004c 9B00     		lsls	r3, r3, #2
 579 004e 0F22     		movs	r2, #15
 580 0050 02FA03F3 		lsl	r3, r2, r3
 581 0054 BA68     		ldr	r2, [r7, #8]
 582 0056 1340     		ands	r3, r3, r2
 583 0058 BB60     		str	r3, [r7, #8]
 319:Firmware/Drivers/STM32F4xx_HAL_Driver/Src/stm32f4xx_hal_gpio.c ****       if(tmp == ((uint32_t)(GPIO_GET_INDEX(GPIOx)) << (4U * (position & 0x03U))))
 584              		.loc 1 319 0
 585 005a 7B68     		ldr	r3, [r7, #4]
 586 005c 594A     		ldr	r2, .L48+4
 587 005e 9342     		cmp	r3, r2
 588 0060 25D0     		beq	.L32
 589              		.loc 1 319 0 is_stmt 0 discriminator 1
 590 0062 7B68     		ldr	r3, [r7, #4]
 591 0064 584A     		ldr	r2, .L48+8
 592 0066 9342     		cmp	r3, r2
 593 0068 1FD0     		beq	.L33
ARM GAS  /tmp/ccudD9BL.s 			page 17


 594              		.loc 1 319 0 discriminator 3
 595 006a 7B68     		ldr	r3, [r7, #4]
 596 006c 574A     		ldr	r2, .L48+12
 597 006e 9342     		cmp	r3, r2
 598 0070 19D0     		beq	.L34
 599              		.loc 1 319 0 discriminator 5
 600 0072 7B68     		ldr	r3, [r7, #4]
 601 0074 564A     		ldr	r2, .L48+16
 602 0076 9342     		cmp	r3, r2
 603 0078 13D0     		beq	.L35
 604              		.loc 1 319 0 discriminator 7
 605 007a 7B68     		ldr	r3, [r7, #4]
 606 007c 554A     		ldr	r2, .L48+20
 607 007e 9342     		cmp	r3, r2
 608 0080 0DD0     		beq	.L36
 609              		.loc 1 319 0 discriminator 9
 610 0082 7B68     		ldr	r3, [r7, #4]
 611 0084 544A     		ldr	r2, .L48+24
 612 0086 9342     		cmp	r3, r2
 613 0088 07D0     		beq	.L37
 614              		.loc 1 319 0 discriminator 11
 615 008a 7B68     		ldr	r3, [r7, #4]
 616 008c 534A     		ldr	r2, .L48+28
 617 008e 9342     		cmp	r3, r2
 618 0090 01D1     		bne	.L38
 619              		.loc 1 319 0 discriminator 13
 620 0092 0623     		movs	r3, #6
 621 0094 0CE0     		b	.L45
 622              	.L38:
 623              		.loc 1 319 0 discriminator 14
 624 0096 0723     		movs	r3, #7
 625 0098 0AE0     		b	.L45
 626              	.L37:
 627              		.loc 1 319 0 discriminator 12
 628 009a 0523     		movs	r3, #5
 629 009c 08E0     		b	.L45
 630              	.L36:
 631              		.loc 1 319 0 discriminator 10
 632 009e 0423     		movs	r3, #4
 633 00a0 06E0     		b	.L45
 634              	.L35:
 635              		.loc 1 319 0 discriminator 8
 636 00a2 0323     		movs	r3, #3
 637 00a4 04E0     		b	.L45
 638              	.L34:
 639              		.loc 1 319 0 discriminator 6
 640 00a6 0223     		movs	r3, #2
 641 00a8 02E0     		b	.L45
 642              	.L33:
 643              		.loc 1 319 0 discriminator 4
 644 00aa 0123     		movs	r3, #1
 645 00ac 00E0     		b	.L45
 646              	.L32:
 647              		.loc 1 319 0 discriminator 2
 648 00ae 0023     		movs	r3, #0
 649              	.L45:
 650              		.loc 1 319 0 discriminator 28
ARM GAS  /tmp/ccudD9BL.s 			page 18


 651 00b0 7A69     		ldr	r2, [r7, #20]
 652 00b2 02F00302 		and	r2, r2, #3
 653 00b6 9200     		lsls	r2, r2, #2
 654 00b8 9340     		lsls	r3, r3, r2
 655 00ba BA68     		ldr	r2, [r7, #8]
 656 00bc 9A42     		cmp	r2, r3
 657 00be 32D1     		bne	.L46
 320:Firmware/Drivers/STM32F4xx_HAL_Driver/Src/stm32f4xx_hal_gpio.c ****       {
 321:Firmware/Drivers/STM32F4xx_HAL_Driver/Src/stm32f4xx_hal_gpio.c ****         /* Clear EXTI line configuration */
 322:Firmware/Drivers/STM32F4xx_HAL_Driver/Src/stm32f4xx_hal_gpio.c ****         EXTI->IMR &= ~((uint32_t)iocurrent);
 658              		.loc 1 322 0 is_stmt 1
 659 00c0 474B     		ldr	r3, .L48+32
 660 00c2 1A68     		ldr	r2, [r3]
 661 00c4 FB68     		ldr	r3, [r7, #12]
 662 00c6 DB43     		mvns	r3, r3
 663 00c8 4549     		ldr	r1, .L48+32
 664 00ca 1340     		ands	r3, r3, r2
 665 00cc 0B60     		str	r3, [r1]
 323:Firmware/Drivers/STM32F4xx_HAL_Driver/Src/stm32f4xx_hal_gpio.c ****         EXTI->EMR &= ~((uint32_t)iocurrent);
 666              		.loc 1 323 0
 667 00ce 444B     		ldr	r3, .L48+32
 668 00d0 5A68     		ldr	r2, [r3, #4]
 669 00d2 FB68     		ldr	r3, [r7, #12]
 670 00d4 DB43     		mvns	r3, r3
 671 00d6 4249     		ldr	r1, .L48+32
 672 00d8 1340     		ands	r3, r3, r2
 673 00da 4B60     		str	r3, [r1, #4]
 324:Firmware/Drivers/STM32F4xx_HAL_Driver/Src/stm32f4xx_hal_gpio.c ****         
 325:Firmware/Drivers/STM32F4xx_HAL_Driver/Src/stm32f4xx_hal_gpio.c ****         /* Clear Rising Falling edge configuration */
 326:Firmware/Drivers/STM32F4xx_HAL_Driver/Src/stm32f4xx_hal_gpio.c ****         EXTI->RTSR &= ~((uint32_t)iocurrent);
 674              		.loc 1 326 0
 675 00dc 404B     		ldr	r3, .L48+32
 676 00de 9A68     		ldr	r2, [r3, #8]
 677 00e0 FB68     		ldr	r3, [r7, #12]
 678 00e2 DB43     		mvns	r3, r3
 679 00e4 3E49     		ldr	r1, .L48+32
 680 00e6 1340     		ands	r3, r3, r2
 681 00e8 8B60     		str	r3, [r1, #8]
 327:Firmware/Drivers/STM32F4xx_HAL_Driver/Src/stm32f4xx_hal_gpio.c ****         EXTI->FTSR &= ~((uint32_t)iocurrent);
 682              		.loc 1 327 0
 683 00ea 3D4B     		ldr	r3, .L48+32
 684 00ec DA68     		ldr	r2, [r3, #12]
 685 00ee FB68     		ldr	r3, [r7, #12]
 686 00f0 DB43     		mvns	r3, r3
 687 00f2 3B49     		ldr	r1, .L48+32
 688 00f4 1340     		ands	r3, r3, r2
 689 00f6 CB60     		str	r3, [r1, #12]
 328:Firmware/Drivers/STM32F4xx_HAL_Driver/Src/stm32f4xx_hal_gpio.c **** 
 329:Firmware/Drivers/STM32F4xx_HAL_Driver/Src/stm32f4xx_hal_gpio.c ****         /* Configure the External Interrupt or event for the current IO */
 330:Firmware/Drivers/STM32F4xx_HAL_Driver/Src/stm32f4xx_hal_gpio.c ****         tmp = 0x0FU << (4U * (position & 0x03U));
 690              		.loc 1 330 0
 691 00f8 7B69     		ldr	r3, [r7, #20]
 692 00fa 03F00303 		and	r3, r3, #3
 693 00fe 9B00     		lsls	r3, r3, #2
 694 0100 0F22     		movs	r2, #15
 695 0102 02FA03F3 		lsl	r3, r2, r3
 696 0106 BB60     		str	r3, [r7, #8]
ARM GAS  /tmp/ccudD9BL.s 			page 19


 331:Firmware/Drivers/STM32F4xx_HAL_Driver/Src/stm32f4xx_hal_gpio.c ****         SYSCFG->EXTICR[position >> 2U] &= ~tmp;
 697              		.loc 1 331 0
 698 0108 2D4A     		ldr	r2, .L48
 699 010a 7B69     		ldr	r3, [r7, #20]
 700 010c 9B08     		lsrs	r3, r3, #2
 701 010e 0233     		adds	r3, r3, #2
 702 0110 52F82310 		ldr	r1, [r2, r3, lsl #2]
 703 0114 BB68     		ldr	r3, [r7, #8]
 704 0116 DA43     		mvns	r2, r3
 705 0118 2948     		ldr	r0, .L48
 706 011a 7B69     		ldr	r3, [r7, #20]
 707 011c 9B08     		lsrs	r3, r3, #2
 708 011e 0A40     		ands	r2, r2, r1
 709 0120 0233     		adds	r3, r3, #2
 710 0122 40F82320 		str	r2, [r0, r3, lsl #2]
 711              	.L46:
 332:Firmware/Drivers/STM32F4xx_HAL_Driver/Src/stm32f4xx_hal_gpio.c ****       }
 333:Firmware/Drivers/STM32F4xx_HAL_Driver/Src/stm32f4xx_hal_gpio.c **** 
 334:Firmware/Drivers/STM32F4xx_HAL_Driver/Src/stm32f4xx_hal_gpio.c ****       /*------------------------- GPIO Mode Configuration --------------------*/
 335:Firmware/Drivers/STM32F4xx_HAL_Driver/Src/stm32f4xx_hal_gpio.c ****       /* Configure IO Direction in Input Floating Mode */
 336:Firmware/Drivers/STM32F4xx_HAL_Driver/Src/stm32f4xx_hal_gpio.c ****       GPIOx->MODER &= ~(GPIO_MODER_MODER0 << (position * 2U));
 712              		.loc 1 336 0
 713 0126 7B68     		ldr	r3, [r7, #4]
 714 0128 1A68     		ldr	r2, [r3]
 715 012a 7B69     		ldr	r3, [r7, #20]
 716 012c 5B00     		lsls	r3, r3, #1
 717 012e 0321     		movs	r1, #3
 718 0130 01FA03F3 		lsl	r3, r1, r3
 719 0134 DB43     		mvns	r3, r3
 720 0136 1A40     		ands	r2, r2, r3
 721 0138 7B68     		ldr	r3, [r7, #4]
 722 013a 1A60     		str	r2, [r3]
 337:Firmware/Drivers/STM32F4xx_HAL_Driver/Src/stm32f4xx_hal_gpio.c **** 
 338:Firmware/Drivers/STM32F4xx_HAL_Driver/Src/stm32f4xx_hal_gpio.c ****       /* Configure the default Alternate Function in current IO */
 339:Firmware/Drivers/STM32F4xx_HAL_Driver/Src/stm32f4xx_hal_gpio.c ****       GPIOx->AFR[position >> 3U] &= ~(0xFU << ((uint32_t)(position & 0x07U) * 4U)) ;
 723              		.loc 1 339 0
 724 013c 7B69     		ldr	r3, [r7, #20]
 725 013e DA08     		lsrs	r2, r3, #3
 726 0140 7B68     		ldr	r3, [r7, #4]
 727 0142 0832     		adds	r2, r2, #8
 728 0144 53F82210 		ldr	r1, [r3, r2, lsl #2]
 729 0148 7B69     		ldr	r3, [r7, #20]
 730 014a 03F00703 		and	r3, r3, #7
 731 014e 9B00     		lsls	r3, r3, #2
 732 0150 0F22     		movs	r2, #15
 733 0152 02FA03F3 		lsl	r3, r2, r3
 734 0156 DB43     		mvns	r3, r3
 735 0158 7A69     		ldr	r2, [r7, #20]
 736 015a D208     		lsrs	r2, r2, #3
 737 015c 1940     		ands	r1, r1, r3
 738 015e 7B68     		ldr	r3, [r7, #4]
 739 0160 0832     		adds	r2, r2, #8
 740 0162 43F82210 		str	r1, [r3, r2, lsl #2]
 340:Firmware/Drivers/STM32F4xx_HAL_Driver/Src/stm32f4xx_hal_gpio.c **** 
 341:Firmware/Drivers/STM32F4xx_HAL_Driver/Src/stm32f4xx_hal_gpio.c ****       /* Deactivate the Pull-up and Pull-down resistor for the current IO */
 342:Firmware/Drivers/STM32F4xx_HAL_Driver/Src/stm32f4xx_hal_gpio.c ****       GPIOx->PUPDR &= ~(GPIO_PUPDR_PUPDR0 << (position * 2U));
 741              		.loc 1 342 0
ARM GAS  /tmp/ccudD9BL.s 			page 20


 742 0166 7B68     		ldr	r3, [r7, #4]
 743 0168 DA68     		ldr	r2, [r3, #12]
 744 016a 7B69     		ldr	r3, [r7, #20]
 745 016c 5B00     		lsls	r3, r3, #1
 746 016e 0321     		movs	r1, #3
 747 0170 01FA03F3 		lsl	r3, r1, r3
 748 0174 DB43     		mvns	r3, r3
 749 0176 1A40     		ands	r2, r2, r3
 750 0178 7B68     		ldr	r3, [r7, #4]
 751 017a DA60     		str	r2, [r3, #12]
 343:Firmware/Drivers/STM32F4xx_HAL_Driver/Src/stm32f4xx_hal_gpio.c **** 
 344:Firmware/Drivers/STM32F4xx_HAL_Driver/Src/stm32f4xx_hal_gpio.c ****       /* Configure the default value IO Output Type */
 345:Firmware/Drivers/STM32F4xx_HAL_Driver/Src/stm32f4xx_hal_gpio.c ****       GPIOx->OTYPER  &= ~(GPIO_OTYPER_OT_0 << position) ;
 752              		.loc 1 345 0
 753 017c 7B68     		ldr	r3, [r7, #4]
 754 017e 5A68     		ldr	r2, [r3, #4]
 755 0180 0121     		movs	r1, #1
 756 0182 7B69     		ldr	r3, [r7, #20]
 757 0184 01FA03F3 		lsl	r3, r1, r3
 758 0188 DB43     		mvns	r3, r3
 759 018a 1A40     		ands	r2, r2, r3
 760 018c 7B68     		ldr	r3, [r7, #4]
 761 018e 5A60     		str	r2, [r3, #4]
 346:Firmware/Drivers/STM32F4xx_HAL_Driver/Src/stm32f4xx_hal_gpio.c **** 
 347:Firmware/Drivers/STM32F4xx_HAL_Driver/Src/stm32f4xx_hal_gpio.c ****       /* Configure the default value for IO Speed */
 348:Firmware/Drivers/STM32F4xx_HAL_Driver/Src/stm32f4xx_hal_gpio.c ****       GPIOx->OSPEEDR &= ~(GPIO_OSPEEDER_OSPEEDR0 << (position * 2U));
 762              		.loc 1 348 0
 763 0190 7B68     		ldr	r3, [r7, #4]
 764 0192 9A68     		ldr	r2, [r3, #8]
 765 0194 7B69     		ldr	r3, [r7, #20]
 766 0196 5B00     		lsls	r3, r3, #1
 767 0198 0321     		movs	r1, #3
 768 019a 01FA03F3 		lsl	r3, r1, r3
 769 019e DB43     		mvns	r3, r3
 770 01a0 1A40     		ands	r2, r2, r3
 771 01a2 7B68     		ldr	r3, [r7, #4]
 772 01a4 9A60     		str	r2, [r3, #8]
 773              	.L31:
 307:Firmware/Drivers/STM32F4xx_HAL_Driver/Src/stm32f4xx_hal_gpio.c ****   {
 774              		.loc 1 307 0 discriminator 2
 775 01a6 7B69     		ldr	r3, [r7, #20]
 776 01a8 0133     		adds	r3, r3, #1
 777 01aa 7B61     		str	r3, [r7, #20]
 778              	.L30:
 307:Firmware/Drivers/STM32F4xx_HAL_Driver/Src/stm32f4xx_hal_gpio.c ****   {
 779              		.loc 1 307 0 is_stmt 0 discriminator 1
 780 01ac 7B69     		ldr	r3, [r7, #20]
 781 01ae 0F2B     		cmp	r3, #15
 782 01b0 7FF634AF 		bls	.L47
 349:Firmware/Drivers/STM32F4xx_HAL_Driver/Src/stm32f4xx_hal_gpio.c ****     }
 350:Firmware/Drivers/STM32F4xx_HAL_Driver/Src/stm32f4xx_hal_gpio.c ****   }
 351:Firmware/Drivers/STM32F4xx_HAL_Driver/Src/stm32f4xx_hal_gpio.c **** }
 783              		.loc 1 351 0 is_stmt 1
 784 01b4 00BF     		nop
 785 01b6 1C37     		adds	r7, r7, #28
 786              	.LCFI9:
 787              		.cfi_def_cfa_offset 4
ARM GAS  /tmp/ccudD9BL.s 			page 21


 788 01b8 BD46     		mov	sp, r7
 789              	.LCFI10:
 790              		.cfi_def_cfa_register 13
 791              		@ sp needed
 792 01ba 5DF8047B 		ldr	r7, [sp], #4
 793              	.LCFI11:
 794              		.cfi_restore 7
 795              		.cfi_def_cfa_offset 0
 796 01be 7047     		bx	lr
 797              	.L49:
 798              		.align	2
 799              	.L48:
 800 01c0 00380140 		.word	1073821696
 801 01c4 00000240 		.word	1073872896
 802 01c8 00040240 		.word	1073873920
 803 01cc 00080240 		.word	1073874944
 804 01d0 000C0240 		.word	1073875968
 805 01d4 00100240 		.word	1073876992
 806 01d8 00140240 		.word	1073878016
 807 01dc 00180240 		.word	1073879040
 808 01e0 003C0140 		.word	1073822720
 809              		.cfi_endproc
 810              	.LFE131:
 812              		.section	.text.HAL_GPIO_ReadPin,"ax",%progbits
 813              		.align	1
 814              		.global	HAL_GPIO_ReadPin
 815              		.syntax unified
 816              		.thumb
 817              		.thumb_func
 818              		.fpu fpv4-sp-d16
 820              	HAL_GPIO_ReadPin:
 821              	.LFB132:
 352:Firmware/Drivers/STM32F4xx_HAL_Driver/Src/stm32f4xx_hal_gpio.c **** 
 353:Firmware/Drivers/STM32F4xx_HAL_Driver/Src/stm32f4xx_hal_gpio.c **** /**
 354:Firmware/Drivers/STM32F4xx_HAL_Driver/Src/stm32f4xx_hal_gpio.c ****   * @}
 355:Firmware/Drivers/STM32F4xx_HAL_Driver/Src/stm32f4xx_hal_gpio.c ****   */
 356:Firmware/Drivers/STM32F4xx_HAL_Driver/Src/stm32f4xx_hal_gpio.c **** 
 357:Firmware/Drivers/STM32F4xx_HAL_Driver/Src/stm32f4xx_hal_gpio.c **** /** @defgroup GPIO_Exported_Functions_Group2 IO operation functions 
 358:Firmware/Drivers/STM32F4xx_HAL_Driver/Src/stm32f4xx_hal_gpio.c ****   *  @brief   GPIO Read and Write
 359:Firmware/Drivers/STM32F4xx_HAL_Driver/Src/stm32f4xx_hal_gpio.c ****   *
 360:Firmware/Drivers/STM32F4xx_HAL_Driver/Src/stm32f4xx_hal_gpio.c **** @verbatim
 361:Firmware/Drivers/STM32F4xx_HAL_Driver/Src/stm32f4xx_hal_gpio.c ****  ===============================================================================
 362:Firmware/Drivers/STM32F4xx_HAL_Driver/Src/stm32f4xx_hal_gpio.c ****                        ##### IO operation functions #####
 363:Firmware/Drivers/STM32F4xx_HAL_Driver/Src/stm32f4xx_hal_gpio.c ****  ===============================================================================
 364:Firmware/Drivers/STM32F4xx_HAL_Driver/Src/stm32f4xx_hal_gpio.c **** 
 365:Firmware/Drivers/STM32F4xx_HAL_Driver/Src/stm32f4xx_hal_gpio.c **** @endverbatim
 366:Firmware/Drivers/STM32F4xx_HAL_Driver/Src/stm32f4xx_hal_gpio.c ****   * @{
 367:Firmware/Drivers/STM32F4xx_HAL_Driver/Src/stm32f4xx_hal_gpio.c ****   */
 368:Firmware/Drivers/STM32F4xx_HAL_Driver/Src/stm32f4xx_hal_gpio.c **** 
 369:Firmware/Drivers/STM32F4xx_HAL_Driver/Src/stm32f4xx_hal_gpio.c **** /**
 370:Firmware/Drivers/STM32F4xx_HAL_Driver/Src/stm32f4xx_hal_gpio.c ****   * @brief  Reads the specified input port pin.
 371:Firmware/Drivers/STM32F4xx_HAL_Driver/Src/stm32f4xx_hal_gpio.c ****   * @param  GPIOx where x can be (A..K) to select the GPIO peripheral for STM32F429X device or
 372:Firmware/Drivers/STM32F4xx_HAL_Driver/Src/stm32f4xx_hal_gpio.c ****   *                      x can be (A..I) to select the GPIO peripheral for STM32F40XX and STM32F427
 373:Firmware/Drivers/STM32F4xx_HAL_Driver/Src/stm32f4xx_hal_gpio.c ****   * @param  GPIO_Pin specifies the port bit to read.
 374:Firmware/Drivers/STM32F4xx_HAL_Driver/Src/stm32f4xx_hal_gpio.c ****   *         This parameter can be GPIO_PIN_x where x can be (0..15).
 375:Firmware/Drivers/STM32F4xx_HAL_Driver/Src/stm32f4xx_hal_gpio.c ****   * @retval The input port pin value.
 376:Firmware/Drivers/STM32F4xx_HAL_Driver/Src/stm32f4xx_hal_gpio.c ****   */
ARM GAS  /tmp/ccudD9BL.s 			page 22


 377:Firmware/Drivers/STM32F4xx_HAL_Driver/Src/stm32f4xx_hal_gpio.c **** GPIO_PinState HAL_GPIO_ReadPin(GPIO_TypeDef* GPIOx, uint16_t GPIO_Pin)
 378:Firmware/Drivers/STM32F4xx_HAL_Driver/Src/stm32f4xx_hal_gpio.c **** {
 822              		.loc 1 378 0
 823              		.cfi_startproc
 824              		@ args = 0, pretend = 0, frame = 16
 825              		@ frame_needed = 1, uses_anonymous_args = 0
 826              		@ link register save eliminated.
 827 0000 80B4     		push	{r7}
 828              	.LCFI12:
 829              		.cfi_def_cfa_offset 4
 830              		.cfi_offset 7, -4
 831 0002 85B0     		sub	sp, sp, #20
 832              	.LCFI13:
 833              		.cfi_def_cfa_offset 24
 834 0004 00AF     		add	r7, sp, #0
 835              	.LCFI14:
 836              		.cfi_def_cfa_register 7
 837 0006 7860     		str	r0, [r7, #4]
 838 0008 0B46     		mov	r3, r1
 839 000a 7B80     		strh	r3, [r7, #2]	@ movhi
 379:Firmware/Drivers/STM32F4xx_HAL_Driver/Src/stm32f4xx_hal_gpio.c ****   GPIO_PinState bitstatus;
 380:Firmware/Drivers/STM32F4xx_HAL_Driver/Src/stm32f4xx_hal_gpio.c **** 
 381:Firmware/Drivers/STM32F4xx_HAL_Driver/Src/stm32f4xx_hal_gpio.c ****   /* Check the parameters */
 382:Firmware/Drivers/STM32F4xx_HAL_Driver/Src/stm32f4xx_hal_gpio.c ****   assert_param(IS_GPIO_PIN(GPIO_Pin));
 383:Firmware/Drivers/STM32F4xx_HAL_Driver/Src/stm32f4xx_hal_gpio.c **** 
 384:Firmware/Drivers/STM32F4xx_HAL_Driver/Src/stm32f4xx_hal_gpio.c ****   if((GPIOx->IDR & GPIO_Pin) != (uint32_t)GPIO_PIN_RESET)
 840              		.loc 1 384 0
 841 000c 7B68     		ldr	r3, [r7, #4]
 842 000e 1A69     		ldr	r2, [r3, #16]
 843 0010 7B88     		ldrh	r3, [r7, #2]
 844 0012 1340     		ands	r3, r3, r2
 845 0014 002B     		cmp	r3, #0
 846 0016 02D0     		beq	.L51
 385:Firmware/Drivers/STM32F4xx_HAL_Driver/Src/stm32f4xx_hal_gpio.c ****   {
 386:Firmware/Drivers/STM32F4xx_HAL_Driver/Src/stm32f4xx_hal_gpio.c ****     bitstatus = GPIO_PIN_SET;
 847              		.loc 1 386 0
 848 0018 0123     		movs	r3, #1
 849 001a FB73     		strb	r3, [r7, #15]
 850 001c 01E0     		b	.L52
 851              	.L51:
 387:Firmware/Drivers/STM32F4xx_HAL_Driver/Src/stm32f4xx_hal_gpio.c ****   }
 388:Firmware/Drivers/STM32F4xx_HAL_Driver/Src/stm32f4xx_hal_gpio.c ****   else
 389:Firmware/Drivers/STM32F4xx_HAL_Driver/Src/stm32f4xx_hal_gpio.c ****   {
 390:Firmware/Drivers/STM32F4xx_HAL_Driver/Src/stm32f4xx_hal_gpio.c ****     bitstatus = GPIO_PIN_RESET;
 852              		.loc 1 390 0
 853 001e 0023     		movs	r3, #0
 854 0020 FB73     		strb	r3, [r7, #15]
 855              	.L52:
 391:Firmware/Drivers/STM32F4xx_HAL_Driver/Src/stm32f4xx_hal_gpio.c ****   }
 392:Firmware/Drivers/STM32F4xx_HAL_Driver/Src/stm32f4xx_hal_gpio.c ****   return bitstatus;
 856              		.loc 1 392 0
 857 0022 FB7B     		ldrb	r3, [r7, #15]	@ zero_extendqisi2
 393:Firmware/Drivers/STM32F4xx_HAL_Driver/Src/stm32f4xx_hal_gpio.c **** }
 858              		.loc 1 393 0
 859 0024 1846     		mov	r0, r3
 860 0026 1437     		adds	r7, r7, #20
 861              	.LCFI15:
ARM GAS  /tmp/ccudD9BL.s 			page 23


 862              		.cfi_def_cfa_offset 4
 863 0028 BD46     		mov	sp, r7
 864              	.LCFI16:
 865              		.cfi_def_cfa_register 13
 866              		@ sp needed
 867 002a 5DF8047B 		ldr	r7, [sp], #4
 868              	.LCFI17:
 869              		.cfi_restore 7
 870              		.cfi_def_cfa_offset 0
 871 002e 7047     		bx	lr
 872              		.cfi_endproc
 873              	.LFE132:
 875              		.section	.text.HAL_GPIO_WritePin,"ax",%progbits
 876              		.align	1
 877              		.global	HAL_GPIO_WritePin
 878              		.syntax unified
 879              		.thumb
 880              		.thumb_func
 881              		.fpu fpv4-sp-d16
 883              	HAL_GPIO_WritePin:
 884              	.LFB133:
 394:Firmware/Drivers/STM32F4xx_HAL_Driver/Src/stm32f4xx_hal_gpio.c **** 
 395:Firmware/Drivers/STM32F4xx_HAL_Driver/Src/stm32f4xx_hal_gpio.c **** /**
 396:Firmware/Drivers/STM32F4xx_HAL_Driver/Src/stm32f4xx_hal_gpio.c ****   * @brief  Sets or clears the selected data port bit.
 397:Firmware/Drivers/STM32F4xx_HAL_Driver/Src/stm32f4xx_hal_gpio.c ****   *
 398:Firmware/Drivers/STM32F4xx_HAL_Driver/Src/stm32f4xx_hal_gpio.c ****   * @note   This function uses GPIOx_BSRR register to allow atomic read/modify
 399:Firmware/Drivers/STM32F4xx_HAL_Driver/Src/stm32f4xx_hal_gpio.c ****   *         accesses. In this way, there is no risk of an IRQ occurring between
 400:Firmware/Drivers/STM32F4xx_HAL_Driver/Src/stm32f4xx_hal_gpio.c ****   *         the read and the modify access.
 401:Firmware/Drivers/STM32F4xx_HAL_Driver/Src/stm32f4xx_hal_gpio.c ****   *
 402:Firmware/Drivers/STM32F4xx_HAL_Driver/Src/stm32f4xx_hal_gpio.c ****   * @param  GPIOx where x can be (A..K) to select the GPIO peripheral for STM32F429X device or
 403:Firmware/Drivers/STM32F4xx_HAL_Driver/Src/stm32f4xx_hal_gpio.c ****   *                      x can be (A..I) to select the GPIO peripheral for STM32F40XX and STM32F427
 404:Firmware/Drivers/STM32F4xx_HAL_Driver/Src/stm32f4xx_hal_gpio.c ****   * @param  GPIO_Pin specifies the port bit to be written.
 405:Firmware/Drivers/STM32F4xx_HAL_Driver/Src/stm32f4xx_hal_gpio.c ****   *          This parameter can be one of GPIO_PIN_x where x can be (0..15).
 406:Firmware/Drivers/STM32F4xx_HAL_Driver/Src/stm32f4xx_hal_gpio.c ****   * @param  PinState specifies the value to be written to the selected bit.
 407:Firmware/Drivers/STM32F4xx_HAL_Driver/Src/stm32f4xx_hal_gpio.c ****   *          This parameter can be one of the GPIO_PinState enum values:
 408:Firmware/Drivers/STM32F4xx_HAL_Driver/Src/stm32f4xx_hal_gpio.c ****   *            @arg GPIO_PIN_RESET: to clear the port pin
 409:Firmware/Drivers/STM32F4xx_HAL_Driver/Src/stm32f4xx_hal_gpio.c ****   *            @arg GPIO_PIN_SET: to set the port pin
 410:Firmware/Drivers/STM32F4xx_HAL_Driver/Src/stm32f4xx_hal_gpio.c ****   * @retval None
 411:Firmware/Drivers/STM32F4xx_HAL_Driver/Src/stm32f4xx_hal_gpio.c ****   */
 412:Firmware/Drivers/STM32F4xx_HAL_Driver/Src/stm32f4xx_hal_gpio.c **** void HAL_GPIO_WritePin(GPIO_TypeDef* GPIOx, uint16_t GPIO_Pin, GPIO_PinState PinState)
 413:Firmware/Drivers/STM32F4xx_HAL_Driver/Src/stm32f4xx_hal_gpio.c **** {
 885              		.loc 1 413 0
 886              		.cfi_startproc
 887              		@ args = 0, pretend = 0, frame = 8
 888              		@ frame_needed = 1, uses_anonymous_args = 0
 889              		@ link register save eliminated.
 890 0000 80B4     		push	{r7}
 891              	.LCFI18:
 892              		.cfi_def_cfa_offset 4
 893              		.cfi_offset 7, -4
 894 0002 83B0     		sub	sp, sp, #12
 895              	.LCFI19:
 896              		.cfi_def_cfa_offset 16
 897 0004 00AF     		add	r7, sp, #0
 898              	.LCFI20:
 899              		.cfi_def_cfa_register 7
 900 0006 7860     		str	r0, [r7, #4]
ARM GAS  /tmp/ccudD9BL.s 			page 24


 901 0008 0B46     		mov	r3, r1
 902 000a 7B80     		strh	r3, [r7, #2]	@ movhi
 903 000c 1346     		mov	r3, r2
 904 000e 7B70     		strb	r3, [r7, #1]
 414:Firmware/Drivers/STM32F4xx_HAL_Driver/Src/stm32f4xx_hal_gpio.c ****   /* Check the parameters */
 415:Firmware/Drivers/STM32F4xx_HAL_Driver/Src/stm32f4xx_hal_gpio.c ****   assert_param(IS_GPIO_PIN(GPIO_Pin));
 416:Firmware/Drivers/STM32F4xx_HAL_Driver/Src/stm32f4xx_hal_gpio.c ****   assert_param(IS_GPIO_PIN_ACTION(PinState));
 417:Firmware/Drivers/STM32F4xx_HAL_Driver/Src/stm32f4xx_hal_gpio.c **** 
 418:Firmware/Drivers/STM32F4xx_HAL_Driver/Src/stm32f4xx_hal_gpio.c ****   if(PinState != GPIO_PIN_RESET)
 905              		.loc 1 418 0
 906 0010 7B78     		ldrb	r3, [r7, #1]	@ zero_extendqisi2
 907 0012 002B     		cmp	r3, #0
 908 0014 03D0     		beq	.L55
 419:Firmware/Drivers/STM32F4xx_HAL_Driver/Src/stm32f4xx_hal_gpio.c ****   {
 420:Firmware/Drivers/STM32F4xx_HAL_Driver/Src/stm32f4xx_hal_gpio.c ****     GPIOx->BSRR = GPIO_Pin;
 909              		.loc 1 420 0
 910 0016 7A88     		ldrh	r2, [r7, #2]
 911 0018 7B68     		ldr	r3, [r7, #4]
 912 001a 9A61     		str	r2, [r3, #24]
 421:Firmware/Drivers/STM32F4xx_HAL_Driver/Src/stm32f4xx_hal_gpio.c ****   }
 422:Firmware/Drivers/STM32F4xx_HAL_Driver/Src/stm32f4xx_hal_gpio.c ****   else
 423:Firmware/Drivers/STM32F4xx_HAL_Driver/Src/stm32f4xx_hal_gpio.c ****   {
 424:Firmware/Drivers/STM32F4xx_HAL_Driver/Src/stm32f4xx_hal_gpio.c ****     GPIOx->BSRR = (uint32_t)GPIO_Pin << 16U;
 425:Firmware/Drivers/STM32F4xx_HAL_Driver/Src/stm32f4xx_hal_gpio.c ****   }
 426:Firmware/Drivers/STM32F4xx_HAL_Driver/Src/stm32f4xx_hal_gpio.c **** }
 913              		.loc 1 426 0
 914 001c 03E0     		b	.L57
 915              	.L55:
 424:Firmware/Drivers/STM32F4xx_HAL_Driver/Src/stm32f4xx_hal_gpio.c ****   }
 916              		.loc 1 424 0
 917 001e 7B88     		ldrh	r3, [r7, #2]
 918 0020 1A04     		lsls	r2, r3, #16
 919 0022 7B68     		ldr	r3, [r7, #4]
 920 0024 9A61     		str	r2, [r3, #24]
 921              	.L57:
 922              		.loc 1 426 0
 923 0026 00BF     		nop
 924 0028 0C37     		adds	r7, r7, #12
 925              	.LCFI21:
 926              		.cfi_def_cfa_offset 4
 927 002a BD46     		mov	sp, r7
 928              	.LCFI22:
 929              		.cfi_def_cfa_register 13
 930              		@ sp needed
 931 002c 5DF8047B 		ldr	r7, [sp], #4
 932              	.LCFI23:
 933              		.cfi_restore 7
 934              		.cfi_def_cfa_offset 0
 935 0030 7047     		bx	lr
 936              		.cfi_endproc
 937              	.LFE133:
 939              		.section	.text.HAL_GPIO_TogglePin,"ax",%progbits
 940              		.align	1
 941              		.global	HAL_GPIO_TogglePin
 942              		.syntax unified
 943              		.thumb
 944              		.thumb_func
ARM GAS  /tmp/ccudD9BL.s 			page 25


 945              		.fpu fpv4-sp-d16
 947              	HAL_GPIO_TogglePin:
 948              	.LFB134:
 427:Firmware/Drivers/STM32F4xx_HAL_Driver/Src/stm32f4xx_hal_gpio.c **** 
 428:Firmware/Drivers/STM32F4xx_HAL_Driver/Src/stm32f4xx_hal_gpio.c **** /**
 429:Firmware/Drivers/STM32F4xx_HAL_Driver/Src/stm32f4xx_hal_gpio.c ****   * @brief  Toggles the specified GPIO pins.
 430:Firmware/Drivers/STM32F4xx_HAL_Driver/Src/stm32f4xx_hal_gpio.c ****   * @param  GPIOx Where x can be (A..K) to select the GPIO peripheral for STM32F429X device or
 431:Firmware/Drivers/STM32F4xx_HAL_Driver/Src/stm32f4xx_hal_gpio.c ****   *                      x can be (A..I) to select the GPIO peripheral for STM32F40XX and STM32F427
 432:Firmware/Drivers/STM32F4xx_HAL_Driver/Src/stm32f4xx_hal_gpio.c ****   * @param  GPIO_Pin Specifies the pins to be toggled.
 433:Firmware/Drivers/STM32F4xx_HAL_Driver/Src/stm32f4xx_hal_gpio.c ****   * @retval None
 434:Firmware/Drivers/STM32F4xx_HAL_Driver/Src/stm32f4xx_hal_gpio.c ****   */
 435:Firmware/Drivers/STM32F4xx_HAL_Driver/Src/stm32f4xx_hal_gpio.c **** void HAL_GPIO_TogglePin(GPIO_TypeDef* GPIOx, uint16_t GPIO_Pin)
 436:Firmware/Drivers/STM32F4xx_HAL_Driver/Src/stm32f4xx_hal_gpio.c **** {
 949              		.loc 1 436 0
 950              		.cfi_startproc
 951              		@ args = 0, pretend = 0, frame = 8
 952              		@ frame_needed = 1, uses_anonymous_args = 0
 953              		@ link register save eliminated.
 954 0000 80B4     		push	{r7}
 955              	.LCFI24:
 956              		.cfi_def_cfa_offset 4
 957              		.cfi_offset 7, -4
 958 0002 83B0     		sub	sp, sp, #12
 959              	.LCFI25:
 960              		.cfi_def_cfa_offset 16
 961 0004 00AF     		add	r7, sp, #0
 962              	.LCFI26:
 963              		.cfi_def_cfa_register 7
 964 0006 7860     		str	r0, [r7, #4]
 965 0008 0B46     		mov	r3, r1
 966 000a 7B80     		strh	r3, [r7, #2]	@ movhi
 437:Firmware/Drivers/STM32F4xx_HAL_Driver/Src/stm32f4xx_hal_gpio.c ****   /* Check the parameters */
 438:Firmware/Drivers/STM32F4xx_HAL_Driver/Src/stm32f4xx_hal_gpio.c ****   assert_param(IS_GPIO_PIN(GPIO_Pin));
 439:Firmware/Drivers/STM32F4xx_HAL_Driver/Src/stm32f4xx_hal_gpio.c **** 
 440:Firmware/Drivers/STM32F4xx_HAL_Driver/Src/stm32f4xx_hal_gpio.c ****   if ((GPIOx->ODR & GPIO_Pin) == GPIO_Pin)
 967              		.loc 1 440 0
 968 000c 7B68     		ldr	r3, [r7, #4]
 969 000e 5A69     		ldr	r2, [r3, #20]
 970 0010 7B88     		ldrh	r3, [r7, #2]
 971 0012 1A40     		ands	r2, r2, r3
 972 0014 7B88     		ldrh	r3, [r7, #2]
 973 0016 9A42     		cmp	r2, r3
 974 0018 04D1     		bne	.L59
 441:Firmware/Drivers/STM32F4xx_HAL_Driver/Src/stm32f4xx_hal_gpio.c ****   {
 442:Firmware/Drivers/STM32F4xx_HAL_Driver/Src/stm32f4xx_hal_gpio.c ****     GPIOx->BSRR = (uint32_t)GPIO_Pin << GPIO_NUMBER;
 975              		.loc 1 442 0
 976 001a 7B88     		ldrh	r3, [r7, #2]
 977 001c 1A04     		lsls	r2, r3, #16
 978 001e 7B68     		ldr	r3, [r7, #4]
 979 0020 9A61     		str	r2, [r3, #24]
 443:Firmware/Drivers/STM32F4xx_HAL_Driver/Src/stm32f4xx_hal_gpio.c ****   }
 444:Firmware/Drivers/STM32F4xx_HAL_Driver/Src/stm32f4xx_hal_gpio.c ****   else
 445:Firmware/Drivers/STM32F4xx_HAL_Driver/Src/stm32f4xx_hal_gpio.c ****   {
 446:Firmware/Drivers/STM32F4xx_HAL_Driver/Src/stm32f4xx_hal_gpio.c ****     GPIOx->BSRR = GPIO_Pin;
 447:Firmware/Drivers/STM32F4xx_HAL_Driver/Src/stm32f4xx_hal_gpio.c ****   }
 448:Firmware/Drivers/STM32F4xx_HAL_Driver/Src/stm32f4xx_hal_gpio.c **** }
 980              		.loc 1 448 0
ARM GAS  /tmp/ccudD9BL.s 			page 26


 981 0022 02E0     		b	.L61
 982              	.L59:
 446:Firmware/Drivers/STM32F4xx_HAL_Driver/Src/stm32f4xx_hal_gpio.c ****   }
 983              		.loc 1 446 0
 984 0024 7A88     		ldrh	r2, [r7, #2]
 985 0026 7B68     		ldr	r3, [r7, #4]
 986 0028 9A61     		str	r2, [r3, #24]
 987              	.L61:
 988              		.loc 1 448 0
 989 002a 00BF     		nop
 990 002c 0C37     		adds	r7, r7, #12
 991              	.LCFI27:
 992              		.cfi_def_cfa_offset 4
 993 002e BD46     		mov	sp, r7
 994              	.LCFI28:
 995              		.cfi_def_cfa_register 13
 996              		@ sp needed
 997 0030 5DF8047B 		ldr	r7, [sp], #4
 998              	.LCFI29:
 999              		.cfi_restore 7
 1000              		.cfi_def_cfa_offset 0
 1001 0034 7047     		bx	lr
 1002              		.cfi_endproc
 1003              	.LFE134:
 1005              		.section	.text.HAL_GPIO_LockPin,"ax",%progbits
 1006              		.align	1
 1007              		.global	HAL_GPIO_LockPin
 1008              		.syntax unified
 1009              		.thumb
 1010              		.thumb_func
 1011              		.fpu fpv4-sp-d16
 1013              	HAL_GPIO_LockPin:
 1014              	.LFB135:
 449:Firmware/Drivers/STM32F4xx_HAL_Driver/Src/stm32f4xx_hal_gpio.c **** 
 450:Firmware/Drivers/STM32F4xx_HAL_Driver/Src/stm32f4xx_hal_gpio.c **** /**
 451:Firmware/Drivers/STM32F4xx_HAL_Driver/Src/stm32f4xx_hal_gpio.c ****   * @brief  Locks GPIO Pins configuration registers.
 452:Firmware/Drivers/STM32F4xx_HAL_Driver/Src/stm32f4xx_hal_gpio.c ****   * @note   The locked registers are GPIOx_MODER, GPIOx_OTYPER, GPIOx_OSPEEDR,
 453:Firmware/Drivers/STM32F4xx_HAL_Driver/Src/stm32f4xx_hal_gpio.c ****   *         GPIOx_PUPDR, GPIOx_AFRL and GPIOx_AFRH.
 454:Firmware/Drivers/STM32F4xx_HAL_Driver/Src/stm32f4xx_hal_gpio.c ****   * @note   The configuration of the locked GPIO pins can no longer be modified
 455:Firmware/Drivers/STM32F4xx_HAL_Driver/Src/stm32f4xx_hal_gpio.c ****   *         until the next reset.
 456:Firmware/Drivers/STM32F4xx_HAL_Driver/Src/stm32f4xx_hal_gpio.c ****   * @param  GPIOx where x can be (A..F) to select the GPIO peripheral for STM32F4 family
 457:Firmware/Drivers/STM32F4xx_HAL_Driver/Src/stm32f4xx_hal_gpio.c ****   * @param  GPIO_Pin specifies the port bit to be locked.
 458:Firmware/Drivers/STM32F4xx_HAL_Driver/Src/stm32f4xx_hal_gpio.c ****   *         This parameter can be any combination of GPIO_PIN_x where x can be (0..15).
 459:Firmware/Drivers/STM32F4xx_HAL_Driver/Src/stm32f4xx_hal_gpio.c ****   * @retval None
 460:Firmware/Drivers/STM32F4xx_HAL_Driver/Src/stm32f4xx_hal_gpio.c ****   */
 461:Firmware/Drivers/STM32F4xx_HAL_Driver/Src/stm32f4xx_hal_gpio.c **** HAL_StatusTypeDef HAL_GPIO_LockPin(GPIO_TypeDef* GPIOx, uint16_t GPIO_Pin)
 462:Firmware/Drivers/STM32F4xx_HAL_Driver/Src/stm32f4xx_hal_gpio.c **** {
 1015              		.loc 1 462 0
 1016              		.cfi_startproc
 1017              		@ args = 0, pretend = 0, frame = 16
 1018              		@ frame_needed = 1, uses_anonymous_args = 0
 1019              		@ link register save eliminated.
 1020 0000 80B4     		push	{r7}
 1021              	.LCFI30:
 1022              		.cfi_def_cfa_offset 4
 1023              		.cfi_offset 7, -4
 1024 0002 85B0     		sub	sp, sp, #20
ARM GAS  /tmp/ccudD9BL.s 			page 27


 1025              	.LCFI31:
 1026              		.cfi_def_cfa_offset 24
 1027 0004 00AF     		add	r7, sp, #0
 1028              	.LCFI32:
 1029              		.cfi_def_cfa_register 7
 1030 0006 7860     		str	r0, [r7, #4]
 1031 0008 0B46     		mov	r3, r1
 1032 000a 7B80     		strh	r3, [r7, #2]	@ movhi
 463:Firmware/Drivers/STM32F4xx_HAL_Driver/Src/stm32f4xx_hal_gpio.c ****   __IO uint32_t tmp = GPIO_LCKR_LCKK;
 1033              		.loc 1 463 0
 1034 000c 4FF48033 		mov	r3, #65536
 1035 0010 FB60     		str	r3, [r7, #12]
 464:Firmware/Drivers/STM32F4xx_HAL_Driver/Src/stm32f4xx_hal_gpio.c **** 
 465:Firmware/Drivers/STM32F4xx_HAL_Driver/Src/stm32f4xx_hal_gpio.c ****   /* Check the parameters */
 466:Firmware/Drivers/STM32F4xx_HAL_Driver/Src/stm32f4xx_hal_gpio.c ****   assert_param(IS_GPIO_PIN(GPIO_Pin));
 467:Firmware/Drivers/STM32F4xx_HAL_Driver/Src/stm32f4xx_hal_gpio.c **** 
 468:Firmware/Drivers/STM32F4xx_HAL_Driver/Src/stm32f4xx_hal_gpio.c ****   /* Apply lock key write sequence */
 469:Firmware/Drivers/STM32F4xx_HAL_Driver/Src/stm32f4xx_hal_gpio.c ****   tmp |= GPIO_Pin;
 1036              		.loc 1 469 0
 1037 0012 7A88     		ldrh	r2, [r7, #2]
 1038 0014 FB68     		ldr	r3, [r7, #12]
 1039 0016 1343     		orrs	r3, r3, r2
 1040 0018 FB60     		str	r3, [r7, #12]
 470:Firmware/Drivers/STM32F4xx_HAL_Driver/Src/stm32f4xx_hal_gpio.c ****   /* Set LCKx bit(s): LCKK='1' + LCK[15-0] */
 471:Firmware/Drivers/STM32F4xx_HAL_Driver/Src/stm32f4xx_hal_gpio.c ****   GPIOx->LCKR = tmp;
 1041              		.loc 1 471 0
 1042 001a FA68     		ldr	r2, [r7, #12]
 1043 001c 7B68     		ldr	r3, [r7, #4]
 1044 001e DA61     		str	r2, [r3, #28]
 472:Firmware/Drivers/STM32F4xx_HAL_Driver/Src/stm32f4xx_hal_gpio.c ****   /* Reset LCKx bit(s): LCKK='0' + LCK[15-0] */
 473:Firmware/Drivers/STM32F4xx_HAL_Driver/Src/stm32f4xx_hal_gpio.c ****   GPIOx->LCKR = GPIO_Pin;
 1045              		.loc 1 473 0
 1046 0020 7A88     		ldrh	r2, [r7, #2]
 1047 0022 7B68     		ldr	r3, [r7, #4]
 1048 0024 DA61     		str	r2, [r3, #28]
 474:Firmware/Drivers/STM32F4xx_HAL_Driver/Src/stm32f4xx_hal_gpio.c ****   /* Set LCKx bit(s): LCKK='1' + LCK[15-0] */
 475:Firmware/Drivers/STM32F4xx_HAL_Driver/Src/stm32f4xx_hal_gpio.c ****   GPIOx->LCKR = tmp;
 1049              		.loc 1 475 0
 1050 0026 FA68     		ldr	r2, [r7, #12]
 1051 0028 7B68     		ldr	r3, [r7, #4]
 1052 002a DA61     		str	r2, [r3, #28]
 476:Firmware/Drivers/STM32F4xx_HAL_Driver/Src/stm32f4xx_hal_gpio.c ****   /* Read LCKR register. This read is mandatory to complete key lock sequence */
 477:Firmware/Drivers/STM32F4xx_HAL_Driver/Src/stm32f4xx_hal_gpio.c ****   tmp = GPIOx->LCKR;
 1053              		.loc 1 477 0
 1054 002c 7B68     		ldr	r3, [r7, #4]
 1055 002e DB69     		ldr	r3, [r3, #28]
 1056 0030 FB60     		str	r3, [r7, #12]
 478:Firmware/Drivers/STM32F4xx_HAL_Driver/Src/stm32f4xx_hal_gpio.c **** 
 479:Firmware/Drivers/STM32F4xx_HAL_Driver/Src/stm32f4xx_hal_gpio.c ****   /* Read again in order to confirm lock is active */
 480:Firmware/Drivers/STM32F4xx_HAL_Driver/Src/stm32f4xx_hal_gpio.c ****  if((GPIOx->LCKR & GPIO_LCKR_LCKK) != RESET)
 1057              		.loc 1 480 0
 1058 0032 7B68     		ldr	r3, [r7, #4]
 1059 0034 DB69     		ldr	r3, [r3, #28]
 1060 0036 03F48033 		and	r3, r3, #65536
 1061 003a 002B     		cmp	r3, #0
 1062 003c 01D0     		beq	.L63
 481:Firmware/Drivers/STM32F4xx_HAL_Driver/Src/stm32f4xx_hal_gpio.c ****   {
ARM GAS  /tmp/ccudD9BL.s 			page 28


 482:Firmware/Drivers/STM32F4xx_HAL_Driver/Src/stm32f4xx_hal_gpio.c ****     return HAL_OK;
 1063              		.loc 1 482 0
 1064 003e 0023     		movs	r3, #0
 1065 0040 00E0     		b	.L64
 1066              	.L63:
 483:Firmware/Drivers/STM32F4xx_HAL_Driver/Src/stm32f4xx_hal_gpio.c ****   }
 484:Firmware/Drivers/STM32F4xx_HAL_Driver/Src/stm32f4xx_hal_gpio.c ****   else
 485:Firmware/Drivers/STM32F4xx_HAL_Driver/Src/stm32f4xx_hal_gpio.c ****   {
 486:Firmware/Drivers/STM32F4xx_HAL_Driver/Src/stm32f4xx_hal_gpio.c ****     return HAL_ERROR;
 1067              		.loc 1 486 0
 1068 0042 0123     		movs	r3, #1
 1069              	.L64:
 487:Firmware/Drivers/STM32F4xx_HAL_Driver/Src/stm32f4xx_hal_gpio.c ****   }
 488:Firmware/Drivers/STM32F4xx_HAL_Driver/Src/stm32f4xx_hal_gpio.c **** }
 1070              		.loc 1 488 0
 1071 0044 1846     		mov	r0, r3
 1072 0046 1437     		adds	r7, r7, #20
 1073              	.LCFI33:
 1074              		.cfi_def_cfa_offset 4
 1075 0048 BD46     		mov	sp, r7
 1076              	.LCFI34:
 1077              		.cfi_def_cfa_register 13
 1078              		@ sp needed
 1079 004a 5DF8047B 		ldr	r7, [sp], #4
 1080              	.LCFI35:
 1081              		.cfi_restore 7
 1082              		.cfi_def_cfa_offset 0
 1083 004e 7047     		bx	lr
 1084              		.cfi_endproc
 1085              	.LFE135:
 1087              		.section	.text.HAL_GPIO_EXTI_IRQHandler,"ax",%progbits
 1088              		.align	1
 1089              		.global	HAL_GPIO_EXTI_IRQHandler
 1090              		.syntax unified
 1091              		.thumb
 1092              		.thumb_func
 1093              		.fpu fpv4-sp-d16
 1095              	HAL_GPIO_EXTI_IRQHandler:
 1096              	.LFB136:
 489:Firmware/Drivers/STM32F4xx_HAL_Driver/Src/stm32f4xx_hal_gpio.c **** 
 490:Firmware/Drivers/STM32F4xx_HAL_Driver/Src/stm32f4xx_hal_gpio.c **** /**
 491:Firmware/Drivers/STM32F4xx_HAL_Driver/Src/stm32f4xx_hal_gpio.c ****   * @brief  This function handles EXTI interrupt request.
 492:Firmware/Drivers/STM32F4xx_HAL_Driver/Src/stm32f4xx_hal_gpio.c ****   * @param  GPIO_Pin Specifies the pins connected EXTI line
 493:Firmware/Drivers/STM32F4xx_HAL_Driver/Src/stm32f4xx_hal_gpio.c ****   * @retval None
 494:Firmware/Drivers/STM32F4xx_HAL_Driver/Src/stm32f4xx_hal_gpio.c ****   */
 495:Firmware/Drivers/STM32F4xx_HAL_Driver/Src/stm32f4xx_hal_gpio.c **** void HAL_GPIO_EXTI_IRQHandler(uint16_t GPIO_Pin)
 496:Firmware/Drivers/STM32F4xx_HAL_Driver/Src/stm32f4xx_hal_gpio.c **** {
 1097              		.loc 1 496 0
 1098              		.cfi_startproc
 1099              		@ args = 0, pretend = 0, frame = 8
 1100              		@ frame_needed = 1, uses_anonymous_args = 0
 1101 0000 80B5     		push	{r7, lr}
 1102              	.LCFI36:
 1103              		.cfi_def_cfa_offset 8
 1104              		.cfi_offset 7, -8
 1105              		.cfi_offset 14, -4
 1106 0002 82B0     		sub	sp, sp, #8
ARM GAS  /tmp/ccudD9BL.s 			page 29


 1107              	.LCFI37:
 1108              		.cfi_def_cfa_offset 16
 1109 0004 00AF     		add	r7, sp, #0
 1110              	.LCFI38:
 1111              		.cfi_def_cfa_register 7
 1112 0006 0346     		mov	r3, r0
 1113 0008 FB80     		strh	r3, [r7, #6]	@ movhi
 497:Firmware/Drivers/STM32F4xx_HAL_Driver/Src/stm32f4xx_hal_gpio.c ****   /* EXTI line interrupt detected */
 498:Firmware/Drivers/STM32F4xx_HAL_Driver/Src/stm32f4xx_hal_gpio.c ****   if(__HAL_GPIO_EXTI_GET_IT(GPIO_Pin) != RESET)
 1114              		.loc 1 498 0
 1115 000a 084B     		ldr	r3, .L68
 1116 000c 5A69     		ldr	r2, [r3, #20]
 1117 000e FB88     		ldrh	r3, [r7, #6]
 1118 0010 1340     		ands	r3, r3, r2
 1119 0012 002B     		cmp	r3, #0
 1120 0014 06D0     		beq	.L67
 499:Firmware/Drivers/STM32F4xx_HAL_Driver/Src/stm32f4xx_hal_gpio.c ****   {
 500:Firmware/Drivers/STM32F4xx_HAL_Driver/Src/stm32f4xx_hal_gpio.c ****     __HAL_GPIO_EXTI_CLEAR_IT(GPIO_Pin);
 1121              		.loc 1 500 0
 1122 0016 054A     		ldr	r2, .L68
 1123 0018 FB88     		ldrh	r3, [r7, #6]
 1124 001a 5361     		str	r3, [r2, #20]
 501:Firmware/Drivers/STM32F4xx_HAL_Driver/Src/stm32f4xx_hal_gpio.c ****     HAL_GPIO_EXTI_Callback(GPIO_Pin);
 1125              		.loc 1 501 0
 1126 001c FB88     		ldrh	r3, [r7, #6]
 1127 001e 1846     		mov	r0, r3
 1128 0020 FFF7FEFF 		bl	HAL_GPIO_EXTI_Callback
 1129              	.L67:
 502:Firmware/Drivers/STM32F4xx_HAL_Driver/Src/stm32f4xx_hal_gpio.c ****   }
 503:Firmware/Drivers/STM32F4xx_HAL_Driver/Src/stm32f4xx_hal_gpio.c **** }
 1130              		.loc 1 503 0
 1131 0024 00BF     		nop
 1132 0026 0837     		adds	r7, r7, #8
 1133              	.LCFI39:
 1134              		.cfi_def_cfa_offset 8
 1135 0028 BD46     		mov	sp, r7
 1136              	.LCFI40:
 1137              		.cfi_def_cfa_register 13
 1138              		@ sp needed
 1139 002a 80BD     		pop	{r7, pc}
 1140              	.L69:
 1141              		.align	2
 1142              	.L68:
 1143 002c 003C0140 		.word	1073822720
 1144              		.cfi_endproc
 1145              	.LFE136:
 1147              		.section	.text.HAL_GPIO_EXTI_Callback,"ax",%progbits
 1148              		.align	1
 1149              		.weak	HAL_GPIO_EXTI_Callback
 1150              		.syntax unified
 1151              		.thumb
 1152              		.thumb_func
 1153              		.fpu fpv4-sp-d16
 1155              	HAL_GPIO_EXTI_Callback:
 1156              	.LFB137:
 504:Firmware/Drivers/STM32F4xx_HAL_Driver/Src/stm32f4xx_hal_gpio.c **** 
 505:Firmware/Drivers/STM32F4xx_HAL_Driver/Src/stm32f4xx_hal_gpio.c **** /**
ARM GAS  /tmp/ccudD9BL.s 			page 30


 506:Firmware/Drivers/STM32F4xx_HAL_Driver/Src/stm32f4xx_hal_gpio.c ****   * @brief  EXTI line detection callbacks.
 507:Firmware/Drivers/STM32F4xx_HAL_Driver/Src/stm32f4xx_hal_gpio.c ****   * @param  GPIO_Pin Specifies the pins connected EXTI line
 508:Firmware/Drivers/STM32F4xx_HAL_Driver/Src/stm32f4xx_hal_gpio.c ****   * @retval None
 509:Firmware/Drivers/STM32F4xx_HAL_Driver/Src/stm32f4xx_hal_gpio.c ****   */
 510:Firmware/Drivers/STM32F4xx_HAL_Driver/Src/stm32f4xx_hal_gpio.c **** __weak void HAL_GPIO_EXTI_Callback(uint16_t GPIO_Pin)
 511:Firmware/Drivers/STM32F4xx_HAL_Driver/Src/stm32f4xx_hal_gpio.c **** {
 1157              		.loc 1 511 0
 1158              		.cfi_startproc
 1159              		@ args = 0, pretend = 0, frame = 8
 1160              		@ frame_needed = 1, uses_anonymous_args = 0
 1161              		@ link register save eliminated.
 1162 0000 80B4     		push	{r7}
 1163              	.LCFI41:
 1164              		.cfi_def_cfa_offset 4
 1165              		.cfi_offset 7, -4
 1166 0002 83B0     		sub	sp, sp, #12
 1167              	.LCFI42:
 1168              		.cfi_def_cfa_offset 16
 1169 0004 00AF     		add	r7, sp, #0
 1170              	.LCFI43:
 1171              		.cfi_def_cfa_register 7
 1172 0006 0346     		mov	r3, r0
 1173 0008 FB80     		strh	r3, [r7, #6]	@ movhi
 512:Firmware/Drivers/STM32F4xx_HAL_Driver/Src/stm32f4xx_hal_gpio.c ****   /* Prevent unused argument(s) compilation warning */
 513:Firmware/Drivers/STM32F4xx_HAL_Driver/Src/stm32f4xx_hal_gpio.c ****   UNUSED(GPIO_Pin);
 514:Firmware/Drivers/STM32F4xx_HAL_Driver/Src/stm32f4xx_hal_gpio.c ****   /* NOTE: This function Should not be modified, when the callback is needed,
 515:Firmware/Drivers/STM32F4xx_HAL_Driver/Src/stm32f4xx_hal_gpio.c ****            the HAL_GPIO_EXTI_Callback could be implemented in the user file
 516:Firmware/Drivers/STM32F4xx_HAL_Driver/Src/stm32f4xx_hal_gpio.c ****    */
 517:Firmware/Drivers/STM32F4xx_HAL_Driver/Src/stm32f4xx_hal_gpio.c **** }
 1174              		.loc 1 517 0
 1175 000a 00BF     		nop
 1176 000c 0C37     		adds	r7, r7, #12
 1177              	.LCFI44:
 1178              		.cfi_def_cfa_offset 4
 1179 000e BD46     		mov	sp, r7
 1180              	.LCFI45:
 1181              		.cfi_def_cfa_register 13
 1182              		@ sp needed
 1183 0010 5DF8047B 		ldr	r7, [sp], #4
 1184              	.LCFI46:
 1185              		.cfi_restore 7
 1186              		.cfi_def_cfa_offset 0
 1187 0014 7047     		bx	lr
 1188              		.cfi_endproc
 1189              	.LFE137:
 1191              		.text
 1192              	.Letext0:
 1193              		.file 2 "/home/zht/stm32tools/arm-gcc/arm-none-eabi/include/machine/_default_types.h"
 1194              		.file 3 "/home/zht/stm32tools/arm-gcc/arm-none-eabi/include/sys/_stdint.h"
 1195              		.file 4 "Firmware/Drivers/CMSIS/Include/core_cm4.h"
 1196              		.file 5 "Firmware/Drivers/CMSIS/Device/ST/STM32F4xx/Include/system_stm32f4xx.h"
 1197              		.file 6 "Firmware/Drivers/CMSIS/Device/ST/STM32F4xx/Include/stm32f446xx.h"
 1198              		.file 7 "Firmware/Drivers/CMSIS/Device/ST/STM32F4xx/Include/stm32f4xx.h"
 1199              		.file 8 "Firmware/Drivers/STM32F4xx_HAL_Driver/Inc/stm32f4xx_hal_def.h"
 1200              		.file 9 "Firmware/Drivers/STM32F4xx_HAL_Driver/Inc/stm32f4xx_hal_gpio.h"
 1201              		.file 10 "Firmware/Drivers/STM32F4xx_HAL_Driver/Inc/stm32f4xx_hal.h"
ARM GAS  /tmp/ccudD9BL.s 			page 31

