ARM GAS  /tmp/ccL996FO.s 			page 1


   1              		.cpu cortex-m4
   2              		.eabi_attribute 27, 1
   3              		.eabi_attribute 28, 1
   4              		.eabi_attribute 20, 1
   5              		.eabi_attribute 21, 1
   6              		.eabi_attribute 23, 3
   7              		.eabi_attribute 24, 1
   8              		.eabi_attribute 25, 1
   9              		.eabi_attribute 26, 1
  10              		.eabi_attribute 30, 6
  11              		.eabi_attribute 34, 1
  12              		.eabi_attribute 18, 4
  13              		.file	"timers.c"
  14              		.text
  15              	.Ltext0:
  16              		.cfi_sections	.debug_frame
  17              		.section	.bss.xActiveTimerList1,"aw",%nobits
  18              		.align	2
  21              	xActiveTimerList1:
  22 0000 00000000 		.space	20
  22      00000000 
  22      00000000 
  22      00000000 
  22      00000000 
  23              		.section	.bss.xActiveTimerList2,"aw",%nobits
  24              		.align	2
  27              	xActiveTimerList2:
  28 0000 00000000 		.space	20
  28      00000000 
  28      00000000 
  28      00000000 
  28      00000000 
  29              		.section	.bss.pxCurrentTimerList,"aw",%nobits
  30              		.align	2
  33              	pxCurrentTimerList:
  34 0000 00000000 		.space	4
  35              		.section	.bss.pxOverflowTimerList,"aw",%nobits
  36              		.align	2
  39              	pxOverflowTimerList:
  40 0000 00000000 		.space	4
  41              		.section	.bss.xTimerQueue,"aw",%nobits
  42              		.align	2
  45              	xTimerQueue:
  46 0000 00000000 		.space	4
  47              		.section	.bss.xTimerTaskHandle,"aw",%nobits
  48              		.align	2
  51              	xTimerTaskHandle:
  52 0000 00000000 		.space	4
  53              		.section	.rodata
  54              		.align	2
  55              	.LC0:
  56 0000 546D7220 		.ascii	"Tmr Svc\000"
  56      53766300 
  57              		.section	.text.xTimerCreateTimerTask,"ax",%progbits
  58              		.align	1
  59              		.global	xTimerCreateTimerTask
  60              		.syntax unified
ARM GAS  /tmp/ccL996FO.s 			page 2


  61              		.thumb
  62              		.thumb_func
  63              		.fpu fpv4-sp-d16
  65              	xTimerCreateTimerTask:
  66              	.LFB4:
  67              		.file 1 "Firmware/Middlewares/Third_Party/FreeRTOS/Source/timers.c"
   1:Firmware/Middlewares/Third_Party/FreeRTOS/Source/timers.c **** /*
   2:Firmware/Middlewares/Third_Party/FreeRTOS/Source/timers.c ****  * FreeRTOS Kernel V10.0.1
   3:Firmware/Middlewares/Third_Party/FreeRTOS/Source/timers.c ****  * Copyright (C) 2017 Amazon.com, Inc. or its affiliates.  All Rights Reserved.
   4:Firmware/Middlewares/Third_Party/FreeRTOS/Source/timers.c ****  *
   5:Firmware/Middlewares/Third_Party/FreeRTOS/Source/timers.c ****  * Permission is hereby granted, free of charge, to any person obtaining a copy of
   6:Firmware/Middlewares/Third_Party/FreeRTOS/Source/timers.c ****  * this software and associated documentation files (the "Software"), to deal in
   7:Firmware/Middlewares/Third_Party/FreeRTOS/Source/timers.c ****  * the Software without restriction, including without limitation the rights to
   8:Firmware/Middlewares/Third_Party/FreeRTOS/Source/timers.c ****  * use, copy, modify, merge, publish, distribute, sublicense, and/or sell copies of
   9:Firmware/Middlewares/Third_Party/FreeRTOS/Source/timers.c ****  * the Software, and to permit persons to whom the Software is furnished to do so,
  10:Firmware/Middlewares/Third_Party/FreeRTOS/Source/timers.c ****  * subject to the following conditions:
  11:Firmware/Middlewares/Third_Party/FreeRTOS/Source/timers.c ****  *
  12:Firmware/Middlewares/Third_Party/FreeRTOS/Source/timers.c ****  * The above copyright notice and this permission notice shall be included in all
  13:Firmware/Middlewares/Third_Party/FreeRTOS/Source/timers.c ****  * copies or substantial portions of the Software.
  14:Firmware/Middlewares/Third_Party/FreeRTOS/Source/timers.c ****  *
  15:Firmware/Middlewares/Third_Party/FreeRTOS/Source/timers.c ****  * THE SOFTWARE IS PROVIDED "AS IS", WITHOUT WARRANTY OF ANY KIND, EXPRESS OR
  16:Firmware/Middlewares/Third_Party/FreeRTOS/Source/timers.c ****  * IMPLIED, INCLUDING BUT NOT LIMITED TO THE WARRANTIES OF MERCHANTABILITY, FITNESS
  17:Firmware/Middlewares/Third_Party/FreeRTOS/Source/timers.c ****  * FOR A PARTICULAR PURPOSE AND NONINFRINGEMENT. IN NO EVENT SHALL THE AUTHORS OR
  18:Firmware/Middlewares/Third_Party/FreeRTOS/Source/timers.c ****  * COPYRIGHT HOLDERS BE LIABLE FOR ANY CLAIM, DAMAGES OR OTHER LIABILITY, WHETHER
  19:Firmware/Middlewares/Third_Party/FreeRTOS/Source/timers.c ****  * IN AN ACTION OF CONTRACT, TORT OR OTHERWISE, ARISING FROM, OUT OF OR IN
  20:Firmware/Middlewares/Third_Party/FreeRTOS/Source/timers.c ****  * CONNECTION WITH THE SOFTWARE OR THE USE OR OTHER DEALINGS IN THE SOFTWARE.
  21:Firmware/Middlewares/Third_Party/FreeRTOS/Source/timers.c ****  *
  22:Firmware/Middlewares/Third_Party/FreeRTOS/Source/timers.c ****  * http://www.FreeRTOS.org
  23:Firmware/Middlewares/Third_Party/FreeRTOS/Source/timers.c ****  * http://aws.amazon.com/freertos
  24:Firmware/Middlewares/Third_Party/FreeRTOS/Source/timers.c ****  *
  25:Firmware/Middlewares/Third_Party/FreeRTOS/Source/timers.c ****  * 1 tab == 4 spaces!
  26:Firmware/Middlewares/Third_Party/FreeRTOS/Source/timers.c ****  */
  27:Firmware/Middlewares/Third_Party/FreeRTOS/Source/timers.c **** 
  28:Firmware/Middlewares/Third_Party/FreeRTOS/Source/timers.c **** /* Standard includes. */
  29:Firmware/Middlewares/Third_Party/FreeRTOS/Source/timers.c **** #include <stdlib.h>
  30:Firmware/Middlewares/Third_Party/FreeRTOS/Source/timers.c **** 
  31:Firmware/Middlewares/Third_Party/FreeRTOS/Source/timers.c **** /* Defining MPU_WRAPPERS_INCLUDED_FROM_API_FILE prevents task.h from redefining
  32:Firmware/Middlewares/Third_Party/FreeRTOS/Source/timers.c **** all the API functions to use the MPU wrappers.  That should only be done when
  33:Firmware/Middlewares/Third_Party/FreeRTOS/Source/timers.c **** task.h is included from an application file. */
  34:Firmware/Middlewares/Third_Party/FreeRTOS/Source/timers.c **** #define MPU_WRAPPERS_INCLUDED_FROM_API_FILE
  35:Firmware/Middlewares/Third_Party/FreeRTOS/Source/timers.c **** 
  36:Firmware/Middlewares/Third_Party/FreeRTOS/Source/timers.c **** #include "FreeRTOS.h"
  37:Firmware/Middlewares/Third_Party/FreeRTOS/Source/timers.c **** #include "task.h"
  38:Firmware/Middlewares/Third_Party/FreeRTOS/Source/timers.c **** #include "queue.h"
  39:Firmware/Middlewares/Third_Party/FreeRTOS/Source/timers.c **** #include "timers.h"
  40:Firmware/Middlewares/Third_Party/FreeRTOS/Source/timers.c **** 
  41:Firmware/Middlewares/Third_Party/FreeRTOS/Source/timers.c **** #if ( INCLUDE_xTimerPendFunctionCall == 1 ) && ( configUSE_TIMERS == 0 )
  42:Firmware/Middlewares/Third_Party/FreeRTOS/Source/timers.c **** 	#error configUSE_TIMERS must be set to 1 to make the xTimerPendFunctionCall() function available.
  43:Firmware/Middlewares/Third_Party/FreeRTOS/Source/timers.c **** #endif
  44:Firmware/Middlewares/Third_Party/FreeRTOS/Source/timers.c **** 
  45:Firmware/Middlewares/Third_Party/FreeRTOS/Source/timers.c **** /* Lint e961 and e750 are suppressed as a MISRA exception justified because the
  46:Firmware/Middlewares/Third_Party/FreeRTOS/Source/timers.c **** MPU ports require MPU_WRAPPERS_INCLUDED_FROM_API_FILE to be defined for the
  47:Firmware/Middlewares/Third_Party/FreeRTOS/Source/timers.c **** header files above, but not in this file, in order to generate the correct
  48:Firmware/Middlewares/Third_Party/FreeRTOS/Source/timers.c **** privileged Vs unprivileged linkage and placement. */
  49:Firmware/Middlewares/Third_Party/FreeRTOS/Source/timers.c **** #undef MPU_WRAPPERS_INCLUDED_FROM_API_FILE /*lint !e961 !e750. */
  50:Firmware/Middlewares/Third_Party/FreeRTOS/Source/timers.c **** 
  51:Firmware/Middlewares/Third_Party/FreeRTOS/Source/timers.c **** 
ARM GAS  /tmp/ccL996FO.s 			page 3


  52:Firmware/Middlewares/Third_Party/FreeRTOS/Source/timers.c **** /* This entire source file will be skipped if the application is not configured
  53:Firmware/Middlewares/Third_Party/FreeRTOS/Source/timers.c **** to include software timer functionality.  This #if is closed at the very bottom
  54:Firmware/Middlewares/Third_Party/FreeRTOS/Source/timers.c **** of this file.  If you want to include software timer functionality then ensure
  55:Firmware/Middlewares/Third_Party/FreeRTOS/Source/timers.c **** configUSE_TIMERS is set to 1 in FreeRTOSConfig.h. */
  56:Firmware/Middlewares/Third_Party/FreeRTOS/Source/timers.c **** #if ( configUSE_TIMERS == 1 )
  57:Firmware/Middlewares/Third_Party/FreeRTOS/Source/timers.c **** 
  58:Firmware/Middlewares/Third_Party/FreeRTOS/Source/timers.c **** /* Misc definitions. */
  59:Firmware/Middlewares/Third_Party/FreeRTOS/Source/timers.c **** #define tmrNO_DELAY		( TickType_t ) 0U
  60:Firmware/Middlewares/Third_Party/FreeRTOS/Source/timers.c **** 
  61:Firmware/Middlewares/Third_Party/FreeRTOS/Source/timers.c **** /* The name assigned to the timer service task.  This can be overridden by
  62:Firmware/Middlewares/Third_Party/FreeRTOS/Source/timers.c **** defining trmTIMER_SERVICE_TASK_NAME in FreeRTOSConfig.h. */
  63:Firmware/Middlewares/Third_Party/FreeRTOS/Source/timers.c **** #ifndef configTIMER_SERVICE_TASK_NAME
  64:Firmware/Middlewares/Third_Party/FreeRTOS/Source/timers.c **** 	#define configTIMER_SERVICE_TASK_NAME "Tmr Svc"
  65:Firmware/Middlewares/Third_Party/FreeRTOS/Source/timers.c **** #endif
  66:Firmware/Middlewares/Third_Party/FreeRTOS/Source/timers.c **** 
  67:Firmware/Middlewares/Third_Party/FreeRTOS/Source/timers.c **** /* The definition of the timers themselves. */
  68:Firmware/Middlewares/Third_Party/FreeRTOS/Source/timers.c **** typedef struct tmrTimerControl
  69:Firmware/Middlewares/Third_Party/FreeRTOS/Source/timers.c **** {
  70:Firmware/Middlewares/Third_Party/FreeRTOS/Source/timers.c **** 	const char				*pcTimerName;		/*<< Text name.  This is not used by the kernel, it is included simpl
  71:Firmware/Middlewares/Third_Party/FreeRTOS/Source/timers.c **** 	ListItem_t				xTimerListItem;		/*<< Standard linked list item as used by all kernel features for e
  72:Firmware/Middlewares/Third_Party/FreeRTOS/Source/timers.c **** 	TickType_t				xTimerPeriodInTicks;/*<< How quickly and often the timer expires. */
  73:Firmware/Middlewares/Third_Party/FreeRTOS/Source/timers.c **** 	UBaseType_t				uxAutoReload;		/*<< Set to pdTRUE if the timer should be automatically restarted on
  74:Firmware/Middlewares/Third_Party/FreeRTOS/Source/timers.c **** 	void 					*pvTimerID;			/*<< An ID to identify the timer.  This allows the timer to be identified 
  75:Firmware/Middlewares/Third_Party/FreeRTOS/Source/timers.c **** 	TimerCallbackFunction_t	pxCallbackFunction;	/*<< The function that will be called when the timer e
  76:Firmware/Middlewares/Third_Party/FreeRTOS/Source/timers.c **** 	#if( configUSE_TRACE_FACILITY == 1 )
  77:Firmware/Middlewares/Third_Party/FreeRTOS/Source/timers.c **** 		UBaseType_t			uxTimerNumber;		/*<< An ID assigned by trace tools such as FreeRTOS+Trace */
  78:Firmware/Middlewares/Third_Party/FreeRTOS/Source/timers.c **** 	#endif
  79:Firmware/Middlewares/Third_Party/FreeRTOS/Source/timers.c **** 
  80:Firmware/Middlewares/Third_Party/FreeRTOS/Source/timers.c **** 	#if( ( configSUPPORT_STATIC_ALLOCATION == 1 ) && ( configSUPPORT_DYNAMIC_ALLOCATION == 1 ) )
  81:Firmware/Middlewares/Third_Party/FreeRTOS/Source/timers.c **** 		uint8_t 			ucStaticallyAllocated; /*<< Set to pdTRUE if the timer was created statically so no at
  82:Firmware/Middlewares/Third_Party/FreeRTOS/Source/timers.c **** 	#endif
  83:Firmware/Middlewares/Third_Party/FreeRTOS/Source/timers.c **** } xTIMER;
  84:Firmware/Middlewares/Third_Party/FreeRTOS/Source/timers.c **** 
  85:Firmware/Middlewares/Third_Party/FreeRTOS/Source/timers.c **** /* The old xTIMER name is maintained above then typedefed to the new Timer_t
  86:Firmware/Middlewares/Third_Party/FreeRTOS/Source/timers.c **** name below to enable the use of older kernel aware debuggers. */
  87:Firmware/Middlewares/Third_Party/FreeRTOS/Source/timers.c **** typedef xTIMER Timer_t;
  88:Firmware/Middlewares/Third_Party/FreeRTOS/Source/timers.c **** 
  89:Firmware/Middlewares/Third_Party/FreeRTOS/Source/timers.c **** /* The definition of messages that can be sent and received on the timer queue.
  90:Firmware/Middlewares/Third_Party/FreeRTOS/Source/timers.c **** Two types of message can be queued - messages that manipulate a software timer,
  91:Firmware/Middlewares/Third_Party/FreeRTOS/Source/timers.c **** and messages that request the execution of a non-timer related callback.  The
  92:Firmware/Middlewares/Third_Party/FreeRTOS/Source/timers.c **** two message types are defined in two separate structures, xTimerParametersType
  93:Firmware/Middlewares/Third_Party/FreeRTOS/Source/timers.c **** and xCallbackParametersType respectively. */
  94:Firmware/Middlewares/Third_Party/FreeRTOS/Source/timers.c **** typedef struct tmrTimerParameters
  95:Firmware/Middlewares/Third_Party/FreeRTOS/Source/timers.c **** {
  96:Firmware/Middlewares/Third_Party/FreeRTOS/Source/timers.c **** 	TickType_t			xMessageValue;		/*<< An optional value used by a subset of commands, for example, whe
  97:Firmware/Middlewares/Third_Party/FreeRTOS/Source/timers.c **** 	Timer_t *			pxTimer;			/*<< The timer to which the command will be applied. */
  98:Firmware/Middlewares/Third_Party/FreeRTOS/Source/timers.c **** } TimerParameter_t;
  99:Firmware/Middlewares/Third_Party/FreeRTOS/Source/timers.c **** 
 100:Firmware/Middlewares/Third_Party/FreeRTOS/Source/timers.c **** 
 101:Firmware/Middlewares/Third_Party/FreeRTOS/Source/timers.c **** typedef struct tmrCallbackParameters
 102:Firmware/Middlewares/Third_Party/FreeRTOS/Source/timers.c **** {
 103:Firmware/Middlewares/Third_Party/FreeRTOS/Source/timers.c **** 	PendedFunction_t	pxCallbackFunction;	/* << The callback function to execute. */
 104:Firmware/Middlewares/Third_Party/FreeRTOS/Source/timers.c **** 	void *pvParameter1;						/* << The value that will be used as the callback functions first paramet
 105:Firmware/Middlewares/Third_Party/FreeRTOS/Source/timers.c **** 	uint32_t ulParameter2;					/* << The value that will be used as the callback functions second para
 106:Firmware/Middlewares/Third_Party/FreeRTOS/Source/timers.c **** } CallbackParameters_t;
 107:Firmware/Middlewares/Third_Party/FreeRTOS/Source/timers.c **** 
 108:Firmware/Middlewares/Third_Party/FreeRTOS/Source/timers.c **** /* The structure that contains the two message types, along with an identifier
ARM GAS  /tmp/ccL996FO.s 			page 4


 109:Firmware/Middlewares/Third_Party/FreeRTOS/Source/timers.c **** that is used to determine which message type is valid. */
 110:Firmware/Middlewares/Third_Party/FreeRTOS/Source/timers.c **** typedef struct tmrTimerQueueMessage
 111:Firmware/Middlewares/Third_Party/FreeRTOS/Source/timers.c **** {
 112:Firmware/Middlewares/Third_Party/FreeRTOS/Source/timers.c **** 	BaseType_t			xMessageID;			/*<< The command being sent to the timer service task. */
 113:Firmware/Middlewares/Third_Party/FreeRTOS/Source/timers.c **** 	union
 114:Firmware/Middlewares/Third_Party/FreeRTOS/Source/timers.c **** 	{
 115:Firmware/Middlewares/Third_Party/FreeRTOS/Source/timers.c **** 		TimerParameter_t xTimerParameters;
 116:Firmware/Middlewares/Third_Party/FreeRTOS/Source/timers.c **** 
 117:Firmware/Middlewares/Third_Party/FreeRTOS/Source/timers.c **** 		/* Don't include xCallbackParameters if it is not going to be used as
 118:Firmware/Middlewares/Third_Party/FreeRTOS/Source/timers.c **** 		it makes the structure (and therefore the timer queue) larger. */
 119:Firmware/Middlewares/Third_Party/FreeRTOS/Source/timers.c **** 		#if ( INCLUDE_xTimerPendFunctionCall == 1 )
 120:Firmware/Middlewares/Third_Party/FreeRTOS/Source/timers.c **** 			CallbackParameters_t xCallbackParameters;
 121:Firmware/Middlewares/Third_Party/FreeRTOS/Source/timers.c **** 		#endif /* INCLUDE_xTimerPendFunctionCall */
 122:Firmware/Middlewares/Third_Party/FreeRTOS/Source/timers.c **** 	} u;
 123:Firmware/Middlewares/Third_Party/FreeRTOS/Source/timers.c **** } DaemonTaskMessage_t;
 124:Firmware/Middlewares/Third_Party/FreeRTOS/Source/timers.c **** 
 125:Firmware/Middlewares/Third_Party/FreeRTOS/Source/timers.c **** /*lint -save -e956 A manual analysis and inspection has been used to determine
 126:Firmware/Middlewares/Third_Party/FreeRTOS/Source/timers.c **** which static variables must be declared volatile. */
 127:Firmware/Middlewares/Third_Party/FreeRTOS/Source/timers.c **** 
 128:Firmware/Middlewares/Third_Party/FreeRTOS/Source/timers.c **** /* The list in which active timers are stored.  Timers are referenced in expire
 129:Firmware/Middlewares/Third_Party/FreeRTOS/Source/timers.c **** time order, with the nearest expiry time at the front of the list.  Only the
 130:Firmware/Middlewares/Third_Party/FreeRTOS/Source/timers.c **** timer service task is allowed to access these lists. */
 131:Firmware/Middlewares/Third_Party/FreeRTOS/Source/timers.c **** PRIVILEGED_DATA static List_t xActiveTimerList1 = {0};
 132:Firmware/Middlewares/Third_Party/FreeRTOS/Source/timers.c **** PRIVILEGED_DATA static List_t xActiveTimerList2 = {0};
 133:Firmware/Middlewares/Third_Party/FreeRTOS/Source/timers.c **** PRIVILEGED_DATA static List_t *pxCurrentTimerList = NULL;
 134:Firmware/Middlewares/Third_Party/FreeRTOS/Source/timers.c **** PRIVILEGED_DATA static List_t *pxOverflowTimerList = NULL;
 135:Firmware/Middlewares/Third_Party/FreeRTOS/Source/timers.c **** 
 136:Firmware/Middlewares/Third_Party/FreeRTOS/Source/timers.c **** /* A queue that is used to send commands to the timer service task. */
 137:Firmware/Middlewares/Third_Party/FreeRTOS/Source/timers.c **** PRIVILEGED_DATA static QueueHandle_t xTimerQueue = NULL;
 138:Firmware/Middlewares/Third_Party/FreeRTOS/Source/timers.c **** PRIVILEGED_DATA static TaskHandle_t xTimerTaskHandle = NULL;
 139:Firmware/Middlewares/Third_Party/FreeRTOS/Source/timers.c **** 
 140:Firmware/Middlewares/Third_Party/FreeRTOS/Source/timers.c **** /*lint -restore */
 141:Firmware/Middlewares/Third_Party/FreeRTOS/Source/timers.c **** 
 142:Firmware/Middlewares/Third_Party/FreeRTOS/Source/timers.c **** /*-----------------------------------------------------------*/
 143:Firmware/Middlewares/Third_Party/FreeRTOS/Source/timers.c **** 
 144:Firmware/Middlewares/Third_Party/FreeRTOS/Source/timers.c **** #if( configSUPPORT_STATIC_ALLOCATION == 1 )
 145:Firmware/Middlewares/Third_Party/FreeRTOS/Source/timers.c **** 
 146:Firmware/Middlewares/Third_Party/FreeRTOS/Source/timers.c **** 	/* If static allocation is supported then the application must provide the
 147:Firmware/Middlewares/Third_Party/FreeRTOS/Source/timers.c **** 	following callback function - which enables the application to optionally
 148:Firmware/Middlewares/Third_Party/FreeRTOS/Source/timers.c **** 	provide the memory that will be used by the timer task as the task's stack
 149:Firmware/Middlewares/Third_Party/FreeRTOS/Source/timers.c **** 	and TCB. */
 150:Firmware/Middlewares/Third_Party/FreeRTOS/Source/timers.c **** 	extern void vApplicationGetTimerTaskMemory( StaticTask_t **ppxTimerTaskTCBBuffer, StackType_t **pp
 151:Firmware/Middlewares/Third_Party/FreeRTOS/Source/timers.c **** 
 152:Firmware/Middlewares/Third_Party/FreeRTOS/Source/timers.c **** #endif
 153:Firmware/Middlewares/Third_Party/FreeRTOS/Source/timers.c **** 
 154:Firmware/Middlewares/Third_Party/FreeRTOS/Source/timers.c **** /*
 155:Firmware/Middlewares/Third_Party/FreeRTOS/Source/timers.c ****  * Initialise the infrastructure used by the timer service task if it has not
 156:Firmware/Middlewares/Third_Party/FreeRTOS/Source/timers.c ****  * been initialised already.
 157:Firmware/Middlewares/Third_Party/FreeRTOS/Source/timers.c ****  */
 158:Firmware/Middlewares/Third_Party/FreeRTOS/Source/timers.c **** static void prvCheckForValidListAndQueue( void ) PRIVILEGED_FUNCTION;
 159:Firmware/Middlewares/Third_Party/FreeRTOS/Source/timers.c **** 
 160:Firmware/Middlewares/Third_Party/FreeRTOS/Source/timers.c **** /*
 161:Firmware/Middlewares/Third_Party/FreeRTOS/Source/timers.c ****  * The timer service task (daemon).  Timer functionality is controlled by this
 162:Firmware/Middlewares/Third_Party/FreeRTOS/Source/timers.c ****  * task.  Other tasks communicate with the timer service task using the
 163:Firmware/Middlewares/Third_Party/FreeRTOS/Source/timers.c ****  * xTimerQueue queue.
 164:Firmware/Middlewares/Third_Party/FreeRTOS/Source/timers.c ****  */
 165:Firmware/Middlewares/Third_Party/FreeRTOS/Source/timers.c **** static void prvTimerTask( void *pvParameters ) PRIVILEGED_FUNCTION;
ARM GAS  /tmp/ccL996FO.s 			page 5


 166:Firmware/Middlewares/Third_Party/FreeRTOS/Source/timers.c **** 
 167:Firmware/Middlewares/Third_Party/FreeRTOS/Source/timers.c **** /*
 168:Firmware/Middlewares/Third_Party/FreeRTOS/Source/timers.c ****  * Called by the timer service task to interpret and process a command it
 169:Firmware/Middlewares/Third_Party/FreeRTOS/Source/timers.c ****  * received on the timer queue.
 170:Firmware/Middlewares/Third_Party/FreeRTOS/Source/timers.c ****  */
 171:Firmware/Middlewares/Third_Party/FreeRTOS/Source/timers.c **** static void prvProcessReceivedCommands( void ) PRIVILEGED_FUNCTION;
 172:Firmware/Middlewares/Third_Party/FreeRTOS/Source/timers.c **** 
 173:Firmware/Middlewares/Third_Party/FreeRTOS/Source/timers.c **** /*
 174:Firmware/Middlewares/Third_Party/FreeRTOS/Source/timers.c ****  * Insert the timer into either xActiveTimerList1, or xActiveTimerList2,
 175:Firmware/Middlewares/Third_Party/FreeRTOS/Source/timers.c ****  * depending on if the expire time causes a timer counter overflow.
 176:Firmware/Middlewares/Third_Party/FreeRTOS/Source/timers.c ****  */
 177:Firmware/Middlewares/Third_Party/FreeRTOS/Source/timers.c **** static BaseType_t prvInsertTimerInActiveList( Timer_t * const pxTimer, const TickType_t xNextExpiry
 178:Firmware/Middlewares/Third_Party/FreeRTOS/Source/timers.c **** 
 179:Firmware/Middlewares/Third_Party/FreeRTOS/Source/timers.c **** /*
 180:Firmware/Middlewares/Third_Party/FreeRTOS/Source/timers.c ****  * An active timer has reached its expire time.  Reload the timer if it is an
 181:Firmware/Middlewares/Third_Party/FreeRTOS/Source/timers.c ****  * auto reload timer, then call its callback.
 182:Firmware/Middlewares/Third_Party/FreeRTOS/Source/timers.c ****  */
 183:Firmware/Middlewares/Third_Party/FreeRTOS/Source/timers.c **** static void prvProcessExpiredTimer( const TickType_t xNextExpireTime, const TickType_t xTimeNow ) P
 184:Firmware/Middlewares/Third_Party/FreeRTOS/Source/timers.c **** 
 185:Firmware/Middlewares/Third_Party/FreeRTOS/Source/timers.c **** /*
 186:Firmware/Middlewares/Third_Party/FreeRTOS/Source/timers.c ****  * The tick count has overflowed.  Switch the timer lists after ensuring the
 187:Firmware/Middlewares/Third_Party/FreeRTOS/Source/timers.c ****  * current timer list does not still reference some timers.
 188:Firmware/Middlewares/Third_Party/FreeRTOS/Source/timers.c ****  */
 189:Firmware/Middlewares/Third_Party/FreeRTOS/Source/timers.c **** static void prvSwitchTimerLists( void ) PRIVILEGED_FUNCTION;
 190:Firmware/Middlewares/Third_Party/FreeRTOS/Source/timers.c **** 
 191:Firmware/Middlewares/Third_Party/FreeRTOS/Source/timers.c **** /*
 192:Firmware/Middlewares/Third_Party/FreeRTOS/Source/timers.c ****  * Obtain the current tick count, setting *pxTimerListsWereSwitched to pdTRUE
 193:Firmware/Middlewares/Third_Party/FreeRTOS/Source/timers.c ****  * if a tick count overflow occurred since prvSampleTimeNow() was last called.
 194:Firmware/Middlewares/Third_Party/FreeRTOS/Source/timers.c ****  */
 195:Firmware/Middlewares/Third_Party/FreeRTOS/Source/timers.c **** static TickType_t prvSampleTimeNow( BaseType_t * const pxTimerListsWereSwitched ) PRIVILEGED_FUNCTI
 196:Firmware/Middlewares/Third_Party/FreeRTOS/Source/timers.c **** 
 197:Firmware/Middlewares/Third_Party/FreeRTOS/Source/timers.c **** /*
 198:Firmware/Middlewares/Third_Party/FreeRTOS/Source/timers.c ****  * If the timer list contains any active timers then return the expire time of
 199:Firmware/Middlewares/Third_Party/FreeRTOS/Source/timers.c ****  * the timer that will expire first and set *pxListWasEmpty to false.  If the
 200:Firmware/Middlewares/Third_Party/FreeRTOS/Source/timers.c ****  * timer list does not contain any timers then return 0 and set *pxListWasEmpty
 201:Firmware/Middlewares/Third_Party/FreeRTOS/Source/timers.c ****  * to pdTRUE.
 202:Firmware/Middlewares/Third_Party/FreeRTOS/Source/timers.c ****  */
 203:Firmware/Middlewares/Third_Party/FreeRTOS/Source/timers.c **** static TickType_t prvGetNextExpireTime( BaseType_t * const pxListWasEmpty ) PRIVILEGED_FUNCTION;
 204:Firmware/Middlewares/Third_Party/FreeRTOS/Source/timers.c **** 
 205:Firmware/Middlewares/Third_Party/FreeRTOS/Source/timers.c **** /*
 206:Firmware/Middlewares/Third_Party/FreeRTOS/Source/timers.c ****  * If a timer has expired, process it.  Otherwise, block the timer service task
 207:Firmware/Middlewares/Third_Party/FreeRTOS/Source/timers.c ****  * until either a timer does expire or a command is received.
 208:Firmware/Middlewares/Third_Party/FreeRTOS/Source/timers.c ****  */
 209:Firmware/Middlewares/Third_Party/FreeRTOS/Source/timers.c **** static void prvProcessTimerOrBlockTask( const TickType_t xNextExpireTime, BaseType_t xListWasEmpty 
 210:Firmware/Middlewares/Third_Party/FreeRTOS/Source/timers.c **** 
 211:Firmware/Middlewares/Third_Party/FreeRTOS/Source/timers.c **** /*
 212:Firmware/Middlewares/Third_Party/FreeRTOS/Source/timers.c ****  * Called after a Timer_t structure has been allocated either statically or
 213:Firmware/Middlewares/Third_Party/FreeRTOS/Source/timers.c ****  * dynamically to fill in the structure's members.
 214:Firmware/Middlewares/Third_Party/FreeRTOS/Source/timers.c ****  */
 215:Firmware/Middlewares/Third_Party/FreeRTOS/Source/timers.c **** static void prvInitialiseNewTimer(	const char * const pcTimerName,			/*lint !e971 Unqualified char 
 216:Firmware/Middlewares/Third_Party/FreeRTOS/Source/timers.c **** 									const TickType_t xTimerPeriodInTicks,
 217:Firmware/Middlewares/Third_Party/FreeRTOS/Source/timers.c **** 									const UBaseType_t uxAutoReload,
 218:Firmware/Middlewares/Third_Party/FreeRTOS/Source/timers.c **** 									void * const pvTimerID,
 219:Firmware/Middlewares/Third_Party/FreeRTOS/Source/timers.c **** 									TimerCallbackFunction_t pxCallbackFunction,
 220:Firmware/Middlewares/Third_Party/FreeRTOS/Source/timers.c **** 									Timer_t *pxNewTimer ) PRIVILEGED_FUNCTION;
 221:Firmware/Middlewares/Third_Party/FreeRTOS/Source/timers.c **** /*-----------------------------------------------------------*/
 222:Firmware/Middlewares/Third_Party/FreeRTOS/Source/timers.c **** 
ARM GAS  /tmp/ccL996FO.s 			page 6


 223:Firmware/Middlewares/Third_Party/FreeRTOS/Source/timers.c **** BaseType_t xTimerCreateTimerTask( void )
 224:Firmware/Middlewares/Third_Party/FreeRTOS/Source/timers.c **** {
  68              		.loc 1 224 0
  69              		.cfi_startproc
  70              		@ args = 0, pretend = 0, frame = 24
  71              		@ frame_needed = 1, uses_anonymous_args = 0
  72 0000 80B5     		push	{r7, lr}
  73              	.LCFI0:
  74              		.cfi_def_cfa_offset 8
  75              		.cfi_offset 7, -8
  76              		.cfi_offset 14, -4
  77 0002 8AB0     		sub	sp, sp, #40
  78              	.LCFI1:
  79              		.cfi_def_cfa_offset 48
  80 0004 04AF     		add	r7, sp, #16
  81              	.LCFI2:
  82              		.cfi_def_cfa 7, 32
 225:Firmware/Middlewares/Third_Party/FreeRTOS/Source/timers.c **** BaseType_t xReturn = pdFAIL;
  83              		.loc 1 225 0
  84 0006 0023     		movs	r3, #0
  85 0008 7B61     		str	r3, [r7, #20]
 226:Firmware/Middlewares/Third_Party/FreeRTOS/Source/timers.c **** 
 227:Firmware/Middlewares/Third_Party/FreeRTOS/Source/timers.c **** 	/* This function is called when the scheduler is started if
 228:Firmware/Middlewares/Third_Party/FreeRTOS/Source/timers.c **** 	configUSE_TIMERS is set to 1.  Check that the infrastructure used by the
 229:Firmware/Middlewares/Third_Party/FreeRTOS/Source/timers.c **** 	timer service task has been created/initialised.  If timers have already
 230:Firmware/Middlewares/Third_Party/FreeRTOS/Source/timers.c **** 	been created then the initialisation will already have been performed. */
 231:Firmware/Middlewares/Third_Party/FreeRTOS/Source/timers.c **** 	prvCheckForValidListAndQueue();
  86              		.loc 1 231 0
  87 000a FFF7FEFF 		bl	prvCheckForValidListAndQueue
 232:Firmware/Middlewares/Third_Party/FreeRTOS/Source/timers.c **** 
 233:Firmware/Middlewares/Third_Party/FreeRTOS/Source/timers.c **** 	if( xTimerQueue != NULL )
  88              		.loc 1 233 0
  89 000e 1C4B     		ldr	r3, .L7
  90 0010 1B68     		ldr	r3, [r3]
  91 0012 002B     		cmp	r3, #0
  92 0014 21D0     		beq	.L2
  93              	.LBB41:
 234:Firmware/Middlewares/Third_Party/FreeRTOS/Source/timers.c **** 	{
 235:Firmware/Middlewares/Third_Party/FreeRTOS/Source/timers.c **** 		#if( configSUPPORT_STATIC_ALLOCATION == 1 )
 236:Firmware/Middlewares/Third_Party/FreeRTOS/Source/timers.c **** 		{
 237:Firmware/Middlewares/Third_Party/FreeRTOS/Source/timers.c **** 			StaticTask_t *pxTimerTaskTCBBuffer = NULL;
  94              		.loc 1 237 0
  95 0016 0023     		movs	r3, #0
  96 0018 FB60     		str	r3, [r7, #12]
 238:Firmware/Middlewares/Third_Party/FreeRTOS/Source/timers.c **** 			StackType_t *pxTimerTaskStackBuffer = NULL;
  97              		.loc 1 238 0
  98 001a 0023     		movs	r3, #0
  99 001c BB60     		str	r3, [r7, #8]
 239:Firmware/Middlewares/Third_Party/FreeRTOS/Source/timers.c **** 			uint32_t ulTimerTaskStackSize;
 240:Firmware/Middlewares/Third_Party/FreeRTOS/Source/timers.c **** 
 241:Firmware/Middlewares/Third_Party/FreeRTOS/Source/timers.c **** 			vApplicationGetTimerTaskMemory( &pxTimerTaskTCBBuffer, &pxTimerTaskStackBuffer, &ulTimerTaskStac
 100              		.loc 1 241 0
 101 001e 3A1D     		adds	r2, r7, #4
 102 0020 07F10801 		add	r1, r7, #8
 103 0024 07F10C03 		add	r3, r7, #12
 104 0028 1846     		mov	r0, r3
 105 002a FFF7FEFF 		bl	vApplicationGetTimerTaskMemory
ARM GAS  /tmp/ccL996FO.s 			page 7


 242:Firmware/Middlewares/Third_Party/FreeRTOS/Source/timers.c **** 			xTimerTaskHandle = xTaskCreateStatic(	prvTimerTask,
 106              		.loc 1 242 0
 107 002e 7968     		ldr	r1, [r7, #4]
 108 0030 BB68     		ldr	r3, [r7, #8]
 109 0032 FA68     		ldr	r2, [r7, #12]
 110 0034 0292     		str	r2, [sp, #8]
 111 0036 0193     		str	r3, [sp, #4]
 112 0038 0223     		movs	r3, #2
 113 003a 0093     		str	r3, [sp]
 114 003c 0023     		movs	r3, #0
 115 003e 0A46     		mov	r2, r1
 116 0040 1049     		ldr	r1, .L7+4
 117 0042 1148     		ldr	r0, .L7+8
 118 0044 FFF7FEFF 		bl	xTaskCreateStatic
 119 0048 0246     		mov	r2, r0
 120 004a 104B     		ldr	r3, .L7+12
 121 004c 1A60     		str	r2, [r3]
 243:Firmware/Middlewares/Third_Party/FreeRTOS/Source/timers.c **** 													configTIMER_SERVICE_TASK_NAME,
 244:Firmware/Middlewares/Third_Party/FreeRTOS/Source/timers.c **** 													ulTimerTaskStackSize,
 245:Firmware/Middlewares/Third_Party/FreeRTOS/Source/timers.c **** 													NULL,
 246:Firmware/Middlewares/Third_Party/FreeRTOS/Source/timers.c **** 													( ( UBaseType_t ) configTIMER_TASK_PRIORITY ) | portPRIVILEGE_BIT,
 247:Firmware/Middlewares/Third_Party/FreeRTOS/Source/timers.c **** 													pxTimerTaskStackBuffer,
 248:Firmware/Middlewares/Third_Party/FreeRTOS/Source/timers.c **** 													pxTimerTaskTCBBuffer );
 249:Firmware/Middlewares/Third_Party/FreeRTOS/Source/timers.c **** 
 250:Firmware/Middlewares/Third_Party/FreeRTOS/Source/timers.c **** 			if( xTimerTaskHandle != NULL )
 122              		.loc 1 250 0
 123 004e 0F4B     		ldr	r3, .L7+12
 124 0050 1B68     		ldr	r3, [r3]
 125 0052 002B     		cmp	r3, #0
 126 0054 01D0     		beq	.L2
 251:Firmware/Middlewares/Third_Party/FreeRTOS/Source/timers.c **** 			{
 252:Firmware/Middlewares/Third_Party/FreeRTOS/Source/timers.c **** 				xReturn = pdPASS;
 127              		.loc 1 252 0
 128 0056 0123     		movs	r3, #1
 129 0058 7B61     		str	r3, [r7, #20]
 130              	.L2:
 131              	.LBE41:
 253:Firmware/Middlewares/Third_Party/FreeRTOS/Source/timers.c **** 			}
 254:Firmware/Middlewares/Third_Party/FreeRTOS/Source/timers.c **** 		}
 255:Firmware/Middlewares/Third_Party/FreeRTOS/Source/timers.c **** 		#else
 256:Firmware/Middlewares/Third_Party/FreeRTOS/Source/timers.c **** 		{
 257:Firmware/Middlewares/Third_Party/FreeRTOS/Source/timers.c **** 			xReturn = xTaskCreate(	prvTimerTask,
 258:Firmware/Middlewares/Third_Party/FreeRTOS/Source/timers.c **** 									configTIMER_SERVICE_TASK_NAME,
 259:Firmware/Middlewares/Third_Party/FreeRTOS/Source/timers.c **** 									configTIMER_TASK_STACK_DEPTH,
 260:Firmware/Middlewares/Third_Party/FreeRTOS/Source/timers.c **** 									NULL,
 261:Firmware/Middlewares/Third_Party/FreeRTOS/Source/timers.c **** 									( ( UBaseType_t ) configTIMER_TASK_PRIORITY ) | portPRIVILEGE_BIT,
 262:Firmware/Middlewares/Third_Party/FreeRTOS/Source/timers.c **** 									&xTimerTaskHandle );
 263:Firmware/Middlewares/Third_Party/FreeRTOS/Source/timers.c **** 		}
 264:Firmware/Middlewares/Third_Party/FreeRTOS/Source/timers.c **** 		#endif /* configSUPPORT_STATIC_ALLOCATION */
 265:Firmware/Middlewares/Third_Party/FreeRTOS/Source/timers.c **** 	}
 266:Firmware/Middlewares/Third_Party/FreeRTOS/Source/timers.c **** 	else
 267:Firmware/Middlewares/Third_Party/FreeRTOS/Source/timers.c **** 	{
 268:Firmware/Middlewares/Third_Party/FreeRTOS/Source/timers.c **** 		mtCOVERAGE_TEST_MARKER();
 269:Firmware/Middlewares/Third_Party/FreeRTOS/Source/timers.c **** 	}
 270:Firmware/Middlewares/Third_Party/FreeRTOS/Source/timers.c **** 
 271:Firmware/Middlewares/Third_Party/FreeRTOS/Source/timers.c **** 	configASSERT( xReturn );
 132              		.loc 1 271 0
ARM GAS  /tmp/ccL996FO.s 			page 8


 133 005a 7B69     		ldr	r3, [r7, #20]
 134 005c 002B     		cmp	r3, #0
 135 005e 09D1     		bne	.L4
 136              	.LBB42:
 137              	.LBB43:
 138              		.file 2 "Firmware/Middlewares/Third_Party/FreeRTOS/Source/portable/GCC/ARM_CM4F/portmacro.h"
   1:Firmware/Middlewares/Third_Party/FreeRTOS/Source/portable/GCC/ARM_CM4F/portmacro.h **** /*
   2:Firmware/Middlewares/Third_Party/FreeRTOS/Source/portable/GCC/ARM_CM4F/portmacro.h ****  * FreeRTOS Kernel V10.0.1
   3:Firmware/Middlewares/Third_Party/FreeRTOS/Source/portable/GCC/ARM_CM4F/portmacro.h ****  * Copyright (C) 2017 Amazon.com, Inc. or its affiliates.  All Rights Reserved.
   4:Firmware/Middlewares/Third_Party/FreeRTOS/Source/portable/GCC/ARM_CM4F/portmacro.h ****  *
   5:Firmware/Middlewares/Third_Party/FreeRTOS/Source/portable/GCC/ARM_CM4F/portmacro.h ****  * Permission is hereby granted, free of charge, to any person obtaining a copy of
   6:Firmware/Middlewares/Third_Party/FreeRTOS/Source/portable/GCC/ARM_CM4F/portmacro.h ****  * this software and associated documentation files (the "Software"), to deal in
   7:Firmware/Middlewares/Third_Party/FreeRTOS/Source/portable/GCC/ARM_CM4F/portmacro.h ****  * the Software without restriction, including without limitation the rights to
   8:Firmware/Middlewares/Third_Party/FreeRTOS/Source/portable/GCC/ARM_CM4F/portmacro.h ****  * use, copy, modify, merge, publish, distribute, sublicense, and/or sell copies of
   9:Firmware/Middlewares/Third_Party/FreeRTOS/Source/portable/GCC/ARM_CM4F/portmacro.h ****  * the Software, and to permit persons to whom the Software is furnished to do so,
  10:Firmware/Middlewares/Third_Party/FreeRTOS/Source/portable/GCC/ARM_CM4F/portmacro.h ****  * subject to the following conditions:
  11:Firmware/Middlewares/Third_Party/FreeRTOS/Source/portable/GCC/ARM_CM4F/portmacro.h ****  *
  12:Firmware/Middlewares/Third_Party/FreeRTOS/Source/portable/GCC/ARM_CM4F/portmacro.h ****  * The above copyright notice and this permission notice shall be included in all
  13:Firmware/Middlewares/Third_Party/FreeRTOS/Source/portable/GCC/ARM_CM4F/portmacro.h ****  * copies or substantial portions of the Software.
  14:Firmware/Middlewares/Third_Party/FreeRTOS/Source/portable/GCC/ARM_CM4F/portmacro.h ****  *
  15:Firmware/Middlewares/Third_Party/FreeRTOS/Source/portable/GCC/ARM_CM4F/portmacro.h ****  * THE SOFTWARE IS PROVIDED "AS IS", WITHOUT WARRANTY OF ANY KIND, EXPRESS OR
  16:Firmware/Middlewares/Third_Party/FreeRTOS/Source/portable/GCC/ARM_CM4F/portmacro.h ****  * IMPLIED, INCLUDING BUT NOT LIMITED TO THE WARRANTIES OF MERCHANTABILITY, FITNESS
  17:Firmware/Middlewares/Third_Party/FreeRTOS/Source/portable/GCC/ARM_CM4F/portmacro.h ****  * FOR A PARTICULAR PURPOSE AND NONINFRINGEMENT. IN NO EVENT SHALL THE AUTHORS OR
  18:Firmware/Middlewares/Third_Party/FreeRTOS/Source/portable/GCC/ARM_CM4F/portmacro.h ****  * COPYRIGHT HOLDERS BE LIABLE FOR ANY CLAIM, DAMAGES OR OTHER LIABILITY, WHETHER
  19:Firmware/Middlewares/Third_Party/FreeRTOS/Source/portable/GCC/ARM_CM4F/portmacro.h ****  * IN AN ACTION OF CONTRACT, TORT OR OTHERWISE, ARISING FROM, OUT OF OR IN
  20:Firmware/Middlewares/Third_Party/FreeRTOS/Source/portable/GCC/ARM_CM4F/portmacro.h ****  * CONNECTION WITH THE SOFTWARE OR THE USE OR OTHER DEALINGS IN THE SOFTWARE.
  21:Firmware/Middlewares/Third_Party/FreeRTOS/Source/portable/GCC/ARM_CM4F/portmacro.h ****  *
  22:Firmware/Middlewares/Third_Party/FreeRTOS/Source/portable/GCC/ARM_CM4F/portmacro.h ****  * http://www.FreeRTOS.org
  23:Firmware/Middlewares/Third_Party/FreeRTOS/Source/portable/GCC/ARM_CM4F/portmacro.h ****  * http://aws.amazon.com/freertos
  24:Firmware/Middlewares/Third_Party/FreeRTOS/Source/portable/GCC/ARM_CM4F/portmacro.h ****  *
  25:Firmware/Middlewares/Third_Party/FreeRTOS/Source/portable/GCC/ARM_CM4F/portmacro.h ****  * 1 tab == 4 spaces!
  26:Firmware/Middlewares/Third_Party/FreeRTOS/Source/portable/GCC/ARM_CM4F/portmacro.h ****  */
  27:Firmware/Middlewares/Third_Party/FreeRTOS/Source/portable/GCC/ARM_CM4F/portmacro.h **** 
  28:Firmware/Middlewares/Third_Party/FreeRTOS/Source/portable/GCC/ARM_CM4F/portmacro.h **** 
  29:Firmware/Middlewares/Third_Party/FreeRTOS/Source/portable/GCC/ARM_CM4F/portmacro.h **** #ifndef PORTMACRO_H
  30:Firmware/Middlewares/Third_Party/FreeRTOS/Source/portable/GCC/ARM_CM4F/portmacro.h **** #define PORTMACRO_H
  31:Firmware/Middlewares/Third_Party/FreeRTOS/Source/portable/GCC/ARM_CM4F/portmacro.h **** 
  32:Firmware/Middlewares/Third_Party/FreeRTOS/Source/portable/GCC/ARM_CM4F/portmacro.h **** #ifdef __cplusplus
  33:Firmware/Middlewares/Third_Party/FreeRTOS/Source/portable/GCC/ARM_CM4F/portmacro.h **** extern "C" {
  34:Firmware/Middlewares/Third_Party/FreeRTOS/Source/portable/GCC/ARM_CM4F/portmacro.h **** #endif
  35:Firmware/Middlewares/Third_Party/FreeRTOS/Source/portable/GCC/ARM_CM4F/portmacro.h **** 
  36:Firmware/Middlewares/Third_Party/FreeRTOS/Source/portable/GCC/ARM_CM4F/portmacro.h **** /*-----------------------------------------------------------
  37:Firmware/Middlewares/Third_Party/FreeRTOS/Source/portable/GCC/ARM_CM4F/portmacro.h ****  * Port specific definitions.
  38:Firmware/Middlewares/Third_Party/FreeRTOS/Source/portable/GCC/ARM_CM4F/portmacro.h ****  *
  39:Firmware/Middlewares/Third_Party/FreeRTOS/Source/portable/GCC/ARM_CM4F/portmacro.h ****  * The settings in this file configure FreeRTOS correctly for the
  40:Firmware/Middlewares/Third_Party/FreeRTOS/Source/portable/GCC/ARM_CM4F/portmacro.h ****  * given hardware and compiler.
  41:Firmware/Middlewares/Third_Party/FreeRTOS/Source/portable/GCC/ARM_CM4F/portmacro.h ****  *
  42:Firmware/Middlewares/Third_Party/FreeRTOS/Source/portable/GCC/ARM_CM4F/portmacro.h ****  * These settings should not be altered.
  43:Firmware/Middlewares/Third_Party/FreeRTOS/Source/portable/GCC/ARM_CM4F/portmacro.h ****  *-----------------------------------------------------------
  44:Firmware/Middlewares/Third_Party/FreeRTOS/Source/portable/GCC/ARM_CM4F/portmacro.h ****  */
  45:Firmware/Middlewares/Third_Party/FreeRTOS/Source/portable/GCC/ARM_CM4F/portmacro.h **** 
  46:Firmware/Middlewares/Third_Party/FreeRTOS/Source/portable/GCC/ARM_CM4F/portmacro.h **** /* Type definitions. */
  47:Firmware/Middlewares/Third_Party/FreeRTOS/Source/portable/GCC/ARM_CM4F/portmacro.h **** #define portCHAR		char
  48:Firmware/Middlewares/Third_Party/FreeRTOS/Source/portable/GCC/ARM_CM4F/portmacro.h **** #define portFLOAT		float
  49:Firmware/Middlewares/Third_Party/FreeRTOS/Source/portable/GCC/ARM_CM4F/portmacro.h **** #define portDOUBLE		double
  50:Firmware/Middlewares/Third_Party/FreeRTOS/Source/portable/GCC/ARM_CM4F/portmacro.h **** #define portLONG		long
  51:Firmware/Middlewares/Third_Party/FreeRTOS/Source/portable/GCC/ARM_CM4F/portmacro.h **** #define portSHORT		short
ARM GAS  /tmp/ccL996FO.s 			page 9


  52:Firmware/Middlewares/Third_Party/FreeRTOS/Source/portable/GCC/ARM_CM4F/portmacro.h **** #define portSTACK_TYPE	uint32_t
  53:Firmware/Middlewares/Third_Party/FreeRTOS/Source/portable/GCC/ARM_CM4F/portmacro.h **** #define portBASE_TYPE	long
  54:Firmware/Middlewares/Third_Party/FreeRTOS/Source/portable/GCC/ARM_CM4F/portmacro.h **** 
  55:Firmware/Middlewares/Third_Party/FreeRTOS/Source/portable/GCC/ARM_CM4F/portmacro.h **** typedef portSTACK_TYPE StackType_t;
  56:Firmware/Middlewares/Third_Party/FreeRTOS/Source/portable/GCC/ARM_CM4F/portmacro.h **** typedef long BaseType_t;
  57:Firmware/Middlewares/Third_Party/FreeRTOS/Source/portable/GCC/ARM_CM4F/portmacro.h **** typedef unsigned long UBaseType_t;
  58:Firmware/Middlewares/Third_Party/FreeRTOS/Source/portable/GCC/ARM_CM4F/portmacro.h **** 
  59:Firmware/Middlewares/Third_Party/FreeRTOS/Source/portable/GCC/ARM_CM4F/portmacro.h **** #if( configUSE_16_BIT_TICKS == 1 )
  60:Firmware/Middlewares/Third_Party/FreeRTOS/Source/portable/GCC/ARM_CM4F/portmacro.h **** 	typedef uint16_t TickType_t;
  61:Firmware/Middlewares/Third_Party/FreeRTOS/Source/portable/GCC/ARM_CM4F/portmacro.h **** 	#define portMAX_DELAY ( TickType_t ) 0xffff
  62:Firmware/Middlewares/Third_Party/FreeRTOS/Source/portable/GCC/ARM_CM4F/portmacro.h **** #else
  63:Firmware/Middlewares/Third_Party/FreeRTOS/Source/portable/GCC/ARM_CM4F/portmacro.h **** 	typedef uint32_t TickType_t;
  64:Firmware/Middlewares/Third_Party/FreeRTOS/Source/portable/GCC/ARM_CM4F/portmacro.h **** 	#define portMAX_DELAY ( TickType_t ) 0xffffffffUL
  65:Firmware/Middlewares/Third_Party/FreeRTOS/Source/portable/GCC/ARM_CM4F/portmacro.h **** 
  66:Firmware/Middlewares/Third_Party/FreeRTOS/Source/portable/GCC/ARM_CM4F/portmacro.h **** 	/* 32-bit tick type on a 32-bit architecture, so reads of the tick count do
  67:Firmware/Middlewares/Third_Party/FreeRTOS/Source/portable/GCC/ARM_CM4F/portmacro.h **** 	not need to be guarded with a critical section. */
  68:Firmware/Middlewares/Third_Party/FreeRTOS/Source/portable/GCC/ARM_CM4F/portmacro.h **** 	#define portTICK_TYPE_IS_ATOMIC 1
  69:Firmware/Middlewares/Third_Party/FreeRTOS/Source/portable/GCC/ARM_CM4F/portmacro.h **** #endif
  70:Firmware/Middlewares/Third_Party/FreeRTOS/Source/portable/GCC/ARM_CM4F/portmacro.h **** /*-----------------------------------------------------------*/
  71:Firmware/Middlewares/Third_Party/FreeRTOS/Source/portable/GCC/ARM_CM4F/portmacro.h **** 
  72:Firmware/Middlewares/Third_Party/FreeRTOS/Source/portable/GCC/ARM_CM4F/portmacro.h **** /* Architecture specifics. */
  73:Firmware/Middlewares/Third_Party/FreeRTOS/Source/portable/GCC/ARM_CM4F/portmacro.h **** #define portSTACK_GROWTH			( -1 )
  74:Firmware/Middlewares/Third_Party/FreeRTOS/Source/portable/GCC/ARM_CM4F/portmacro.h **** #define portTICK_PERIOD_MS			( ( TickType_t ) 1000 / configTICK_RATE_HZ )
  75:Firmware/Middlewares/Third_Party/FreeRTOS/Source/portable/GCC/ARM_CM4F/portmacro.h **** #define portBYTE_ALIGNMENT			8
  76:Firmware/Middlewares/Third_Party/FreeRTOS/Source/portable/GCC/ARM_CM4F/portmacro.h **** /*-----------------------------------------------------------*/
  77:Firmware/Middlewares/Third_Party/FreeRTOS/Source/portable/GCC/ARM_CM4F/portmacro.h **** 
  78:Firmware/Middlewares/Third_Party/FreeRTOS/Source/portable/GCC/ARM_CM4F/portmacro.h **** /* Scheduler utilities. */
  79:Firmware/Middlewares/Third_Party/FreeRTOS/Source/portable/GCC/ARM_CM4F/portmacro.h **** #define portYIELD() 															\
  80:Firmware/Middlewares/Third_Party/FreeRTOS/Source/portable/GCC/ARM_CM4F/portmacro.h **** {																				\
  81:Firmware/Middlewares/Third_Party/FreeRTOS/Source/portable/GCC/ARM_CM4F/portmacro.h **** 	/* Set a PendSV to request a context switch. */								\
  82:Firmware/Middlewares/Third_Party/FreeRTOS/Source/portable/GCC/ARM_CM4F/portmacro.h **** 	portNVIC_INT_CTRL_REG = portNVIC_PENDSVSET_BIT;								\
  83:Firmware/Middlewares/Third_Party/FreeRTOS/Source/portable/GCC/ARM_CM4F/portmacro.h **** 																				\
  84:Firmware/Middlewares/Third_Party/FreeRTOS/Source/portable/GCC/ARM_CM4F/portmacro.h **** 	/* Barriers are normally not required but do ensure the code is completely	\
  85:Firmware/Middlewares/Third_Party/FreeRTOS/Source/portable/GCC/ARM_CM4F/portmacro.h **** 	within the specified behaviour for the architecture. */						\
  86:Firmware/Middlewares/Third_Party/FreeRTOS/Source/portable/GCC/ARM_CM4F/portmacro.h **** 	__asm volatile( "dsb" ::: "memory" );										\
  87:Firmware/Middlewares/Third_Party/FreeRTOS/Source/portable/GCC/ARM_CM4F/portmacro.h **** 	__asm volatile( "isb" );													\
  88:Firmware/Middlewares/Third_Party/FreeRTOS/Source/portable/GCC/ARM_CM4F/portmacro.h **** }
  89:Firmware/Middlewares/Third_Party/FreeRTOS/Source/portable/GCC/ARM_CM4F/portmacro.h **** 
  90:Firmware/Middlewares/Third_Party/FreeRTOS/Source/portable/GCC/ARM_CM4F/portmacro.h **** #define portNVIC_INT_CTRL_REG		( * ( ( volatile uint32_t * ) 0xe000ed04 ) )
  91:Firmware/Middlewares/Third_Party/FreeRTOS/Source/portable/GCC/ARM_CM4F/portmacro.h **** #define portNVIC_PENDSVSET_BIT		( 1UL << 28UL )
  92:Firmware/Middlewares/Third_Party/FreeRTOS/Source/portable/GCC/ARM_CM4F/portmacro.h **** #define portEND_SWITCHING_ISR( xSwitchRequired ) if( xSwitchRequired != pdFALSE ) portYIELD()
  93:Firmware/Middlewares/Third_Party/FreeRTOS/Source/portable/GCC/ARM_CM4F/portmacro.h **** #define portYIELD_FROM_ISR( x ) portEND_SWITCHING_ISR( x )
  94:Firmware/Middlewares/Third_Party/FreeRTOS/Source/portable/GCC/ARM_CM4F/portmacro.h **** /*-----------------------------------------------------------*/
  95:Firmware/Middlewares/Third_Party/FreeRTOS/Source/portable/GCC/ARM_CM4F/portmacro.h **** 
  96:Firmware/Middlewares/Third_Party/FreeRTOS/Source/portable/GCC/ARM_CM4F/portmacro.h **** /* Critical section management. */
  97:Firmware/Middlewares/Third_Party/FreeRTOS/Source/portable/GCC/ARM_CM4F/portmacro.h **** extern void vPortEnterCritical( void );
  98:Firmware/Middlewares/Third_Party/FreeRTOS/Source/portable/GCC/ARM_CM4F/portmacro.h **** extern void vPortExitCritical( void );
  99:Firmware/Middlewares/Third_Party/FreeRTOS/Source/portable/GCC/ARM_CM4F/portmacro.h **** #define portSET_INTERRUPT_MASK_FROM_ISR()		ulPortRaiseBASEPRI()
 100:Firmware/Middlewares/Third_Party/FreeRTOS/Source/portable/GCC/ARM_CM4F/portmacro.h **** #define portCLEAR_INTERRUPT_MASK_FROM_ISR(x)	vPortSetBASEPRI(x)
 101:Firmware/Middlewares/Third_Party/FreeRTOS/Source/portable/GCC/ARM_CM4F/portmacro.h **** #define portDISABLE_INTERRUPTS()				vPortRaiseBASEPRI()
 102:Firmware/Middlewares/Third_Party/FreeRTOS/Source/portable/GCC/ARM_CM4F/portmacro.h **** #define portENABLE_INTERRUPTS()					vPortSetBASEPRI(0)
 103:Firmware/Middlewares/Third_Party/FreeRTOS/Source/portable/GCC/ARM_CM4F/portmacro.h **** #define portENTER_CRITICAL()					vPortEnterCritical()
 104:Firmware/Middlewares/Third_Party/FreeRTOS/Source/portable/GCC/ARM_CM4F/portmacro.h **** #define portEXIT_CRITICAL()						vPortExitCritical()
 105:Firmware/Middlewares/Third_Party/FreeRTOS/Source/portable/GCC/ARM_CM4F/portmacro.h **** 
 106:Firmware/Middlewares/Third_Party/FreeRTOS/Source/portable/GCC/ARM_CM4F/portmacro.h **** /*-----------------------------------------------------------*/
 107:Firmware/Middlewares/Third_Party/FreeRTOS/Source/portable/GCC/ARM_CM4F/portmacro.h **** 
 108:Firmware/Middlewares/Third_Party/FreeRTOS/Source/portable/GCC/ARM_CM4F/portmacro.h **** /* Task function macros as described on the FreeRTOS.org WEB site.  These are
ARM GAS  /tmp/ccL996FO.s 			page 10


 109:Firmware/Middlewares/Third_Party/FreeRTOS/Source/portable/GCC/ARM_CM4F/portmacro.h **** not necessary for to use this port.  They are defined so the common demo files
 110:Firmware/Middlewares/Third_Party/FreeRTOS/Source/portable/GCC/ARM_CM4F/portmacro.h **** (which build with all the ports) will build. */
 111:Firmware/Middlewares/Third_Party/FreeRTOS/Source/portable/GCC/ARM_CM4F/portmacro.h **** #define portTASK_FUNCTION_PROTO( vFunction, pvParameters ) void vFunction( void *pvParameters )
 112:Firmware/Middlewares/Third_Party/FreeRTOS/Source/portable/GCC/ARM_CM4F/portmacro.h **** #define portTASK_FUNCTION( vFunction, pvParameters ) void vFunction( void *pvParameters )
 113:Firmware/Middlewares/Third_Party/FreeRTOS/Source/portable/GCC/ARM_CM4F/portmacro.h **** /*-----------------------------------------------------------*/
 114:Firmware/Middlewares/Third_Party/FreeRTOS/Source/portable/GCC/ARM_CM4F/portmacro.h **** 
 115:Firmware/Middlewares/Third_Party/FreeRTOS/Source/portable/GCC/ARM_CM4F/portmacro.h **** /* Tickless idle/low power functionality. */
 116:Firmware/Middlewares/Third_Party/FreeRTOS/Source/portable/GCC/ARM_CM4F/portmacro.h **** #ifndef portSUPPRESS_TICKS_AND_SLEEP
 117:Firmware/Middlewares/Third_Party/FreeRTOS/Source/portable/GCC/ARM_CM4F/portmacro.h **** 	extern void vPortSuppressTicksAndSleep( TickType_t xExpectedIdleTime );
 118:Firmware/Middlewares/Third_Party/FreeRTOS/Source/portable/GCC/ARM_CM4F/portmacro.h **** 	#define portSUPPRESS_TICKS_AND_SLEEP( xExpectedIdleTime ) vPortSuppressTicksAndSleep( xExpectedIdl
 119:Firmware/Middlewares/Third_Party/FreeRTOS/Source/portable/GCC/ARM_CM4F/portmacro.h **** #endif
 120:Firmware/Middlewares/Third_Party/FreeRTOS/Source/portable/GCC/ARM_CM4F/portmacro.h **** /*-----------------------------------------------------------*/
 121:Firmware/Middlewares/Third_Party/FreeRTOS/Source/portable/GCC/ARM_CM4F/portmacro.h **** 
 122:Firmware/Middlewares/Third_Party/FreeRTOS/Source/portable/GCC/ARM_CM4F/portmacro.h **** /* Architecture specific optimisations. */
 123:Firmware/Middlewares/Third_Party/FreeRTOS/Source/portable/GCC/ARM_CM4F/portmacro.h **** #ifndef configUSE_PORT_OPTIMISED_TASK_SELECTION
 124:Firmware/Middlewares/Third_Party/FreeRTOS/Source/portable/GCC/ARM_CM4F/portmacro.h **** 	#define configUSE_PORT_OPTIMISED_TASK_SELECTION 1
 125:Firmware/Middlewares/Third_Party/FreeRTOS/Source/portable/GCC/ARM_CM4F/portmacro.h **** #endif
 126:Firmware/Middlewares/Third_Party/FreeRTOS/Source/portable/GCC/ARM_CM4F/portmacro.h **** 
 127:Firmware/Middlewares/Third_Party/FreeRTOS/Source/portable/GCC/ARM_CM4F/portmacro.h **** #if configUSE_PORT_OPTIMISED_TASK_SELECTION == 1
 128:Firmware/Middlewares/Third_Party/FreeRTOS/Source/portable/GCC/ARM_CM4F/portmacro.h **** 
 129:Firmware/Middlewares/Third_Party/FreeRTOS/Source/portable/GCC/ARM_CM4F/portmacro.h **** 	/* Generic helper function. */
 130:Firmware/Middlewares/Third_Party/FreeRTOS/Source/portable/GCC/ARM_CM4F/portmacro.h **** 	__attribute__( ( always_inline ) ) static inline uint8_t ucPortCountLeadingZeros( uint32_t ulBitma
 131:Firmware/Middlewares/Third_Party/FreeRTOS/Source/portable/GCC/ARM_CM4F/portmacro.h **** 	{
 132:Firmware/Middlewares/Third_Party/FreeRTOS/Source/portable/GCC/ARM_CM4F/portmacro.h **** 	uint8_t ucReturn;
 133:Firmware/Middlewares/Third_Party/FreeRTOS/Source/portable/GCC/ARM_CM4F/portmacro.h **** 
 134:Firmware/Middlewares/Third_Party/FreeRTOS/Source/portable/GCC/ARM_CM4F/portmacro.h **** 		__asm volatile ( "clz %0, %1" : "=r" ( ucReturn ) : "r" ( ulBitmap ) : "memory" );
 135:Firmware/Middlewares/Third_Party/FreeRTOS/Source/portable/GCC/ARM_CM4F/portmacro.h **** 		return ucReturn;
 136:Firmware/Middlewares/Third_Party/FreeRTOS/Source/portable/GCC/ARM_CM4F/portmacro.h **** 	}
 137:Firmware/Middlewares/Third_Party/FreeRTOS/Source/portable/GCC/ARM_CM4F/portmacro.h **** 
 138:Firmware/Middlewares/Third_Party/FreeRTOS/Source/portable/GCC/ARM_CM4F/portmacro.h **** 	/* Check the configuration. */
 139:Firmware/Middlewares/Third_Party/FreeRTOS/Source/portable/GCC/ARM_CM4F/portmacro.h **** 	#if( configMAX_PRIORITIES > 32 )
 140:Firmware/Middlewares/Third_Party/FreeRTOS/Source/portable/GCC/ARM_CM4F/portmacro.h **** 		#error configUSE_PORT_OPTIMISED_TASK_SELECTION can only be set to 1 when configMAX_PRIORITIES is 
 141:Firmware/Middlewares/Third_Party/FreeRTOS/Source/portable/GCC/ARM_CM4F/portmacro.h **** 	#endif
 142:Firmware/Middlewares/Third_Party/FreeRTOS/Source/portable/GCC/ARM_CM4F/portmacro.h **** 
 143:Firmware/Middlewares/Third_Party/FreeRTOS/Source/portable/GCC/ARM_CM4F/portmacro.h **** 	/* Store/clear the ready priorities in a bit map. */
 144:Firmware/Middlewares/Third_Party/FreeRTOS/Source/portable/GCC/ARM_CM4F/portmacro.h **** 	#define portRECORD_READY_PRIORITY( uxPriority, uxReadyPriorities ) ( uxReadyPriorities ) |= ( 1UL 
 145:Firmware/Middlewares/Third_Party/FreeRTOS/Source/portable/GCC/ARM_CM4F/portmacro.h **** 	#define portRESET_READY_PRIORITY( uxPriority, uxReadyPriorities ) ( uxReadyPriorities ) &= ~( 1UL 
 146:Firmware/Middlewares/Third_Party/FreeRTOS/Source/portable/GCC/ARM_CM4F/portmacro.h **** 
 147:Firmware/Middlewares/Third_Party/FreeRTOS/Source/portable/GCC/ARM_CM4F/portmacro.h **** 	/*-----------------------------------------------------------*/
 148:Firmware/Middlewares/Third_Party/FreeRTOS/Source/portable/GCC/ARM_CM4F/portmacro.h **** 
 149:Firmware/Middlewares/Third_Party/FreeRTOS/Source/portable/GCC/ARM_CM4F/portmacro.h **** 	#define portGET_HIGHEST_PRIORITY( uxTopPriority, uxReadyPriorities ) uxTopPriority = ( 31UL - ( ui
 150:Firmware/Middlewares/Third_Party/FreeRTOS/Source/portable/GCC/ARM_CM4F/portmacro.h **** 
 151:Firmware/Middlewares/Third_Party/FreeRTOS/Source/portable/GCC/ARM_CM4F/portmacro.h **** #endif /* configUSE_PORT_OPTIMISED_TASK_SELECTION */
 152:Firmware/Middlewares/Third_Party/FreeRTOS/Source/portable/GCC/ARM_CM4F/portmacro.h **** 
 153:Firmware/Middlewares/Third_Party/FreeRTOS/Source/portable/GCC/ARM_CM4F/portmacro.h **** /*-----------------------------------------------------------*/
 154:Firmware/Middlewares/Third_Party/FreeRTOS/Source/portable/GCC/ARM_CM4F/portmacro.h **** 
 155:Firmware/Middlewares/Third_Party/FreeRTOS/Source/portable/GCC/ARM_CM4F/portmacro.h **** #ifdef configASSERT
 156:Firmware/Middlewares/Third_Party/FreeRTOS/Source/portable/GCC/ARM_CM4F/portmacro.h **** 	void vPortValidateInterruptPriority( void );
 157:Firmware/Middlewares/Third_Party/FreeRTOS/Source/portable/GCC/ARM_CM4F/portmacro.h **** 	#define portASSERT_IF_INTERRUPT_PRIORITY_INVALID() 	vPortValidateInterruptPriority()
 158:Firmware/Middlewares/Third_Party/FreeRTOS/Source/portable/GCC/ARM_CM4F/portmacro.h **** #endif
 159:Firmware/Middlewares/Third_Party/FreeRTOS/Source/portable/GCC/ARM_CM4F/portmacro.h **** 
 160:Firmware/Middlewares/Third_Party/FreeRTOS/Source/portable/GCC/ARM_CM4F/portmacro.h **** /* portNOP() is not required by this port. */
 161:Firmware/Middlewares/Third_Party/FreeRTOS/Source/portable/GCC/ARM_CM4F/portmacro.h **** #define portNOP()
 162:Firmware/Middlewares/Third_Party/FreeRTOS/Source/portable/GCC/ARM_CM4F/portmacro.h **** 
 163:Firmware/Middlewares/Third_Party/FreeRTOS/Source/portable/GCC/ARM_CM4F/portmacro.h **** #define portINLINE	__inline
 164:Firmware/Middlewares/Third_Party/FreeRTOS/Source/portable/GCC/ARM_CM4F/portmacro.h **** 
 165:Firmware/Middlewares/Third_Party/FreeRTOS/Source/portable/GCC/ARM_CM4F/portmacro.h **** #ifndef portFORCE_INLINE
ARM GAS  /tmp/ccL996FO.s 			page 11


 166:Firmware/Middlewares/Third_Party/FreeRTOS/Source/portable/GCC/ARM_CM4F/portmacro.h **** 	#define portFORCE_INLINE inline __attribute__(( always_inline))
 167:Firmware/Middlewares/Third_Party/FreeRTOS/Source/portable/GCC/ARM_CM4F/portmacro.h **** #endif
 168:Firmware/Middlewares/Third_Party/FreeRTOS/Source/portable/GCC/ARM_CM4F/portmacro.h **** 
 169:Firmware/Middlewares/Third_Party/FreeRTOS/Source/portable/GCC/ARM_CM4F/portmacro.h **** portFORCE_INLINE static BaseType_t xPortIsInsideInterrupt( void )
 170:Firmware/Middlewares/Third_Party/FreeRTOS/Source/portable/GCC/ARM_CM4F/portmacro.h **** {
 171:Firmware/Middlewares/Third_Party/FreeRTOS/Source/portable/GCC/ARM_CM4F/portmacro.h **** uint32_t ulCurrentInterrupt;
 172:Firmware/Middlewares/Third_Party/FreeRTOS/Source/portable/GCC/ARM_CM4F/portmacro.h **** BaseType_t xReturn;
 173:Firmware/Middlewares/Third_Party/FreeRTOS/Source/portable/GCC/ARM_CM4F/portmacro.h **** 
 174:Firmware/Middlewares/Third_Party/FreeRTOS/Source/portable/GCC/ARM_CM4F/portmacro.h **** 	/* Obtain the number of the currently executing interrupt. */
 175:Firmware/Middlewares/Third_Party/FreeRTOS/Source/portable/GCC/ARM_CM4F/portmacro.h **** 	__asm volatile( "mrs %0, ipsr" : "=r"( ulCurrentInterrupt ) :: "memory" );
 176:Firmware/Middlewares/Third_Party/FreeRTOS/Source/portable/GCC/ARM_CM4F/portmacro.h **** 
 177:Firmware/Middlewares/Third_Party/FreeRTOS/Source/portable/GCC/ARM_CM4F/portmacro.h **** 	if( ulCurrentInterrupt == 0 )
 178:Firmware/Middlewares/Third_Party/FreeRTOS/Source/portable/GCC/ARM_CM4F/portmacro.h **** 	{
 179:Firmware/Middlewares/Third_Party/FreeRTOS/Source/portable/GCC/ARM_CM4F/portmacro.h **** 		xReturn = pdFALSE;
 180:Firmware/Middlewares/Third_Party/FreeRTOS/Source/portable/GCC/ARM_CM4F/portmacro.h **** 	}
 181:Firmware/Middlewares/Third_Party/FreeRTOS/Source/portable/GCC/ARM_CM4F/portmacro.h **** 	else
 182:Firmware/Middlewares/Third_Party/FreeRTOS/Source/portable/GCC/ARM_CM4F/portmacro.h **** 	{
 183:Firmware/Middlewares/Third_Party/FreeRTOS/Source/portable/GCC/ARM_CM4F/portmacro.h **** 		xReturn = pdTRUE;
 184:Firmware/Middlewares/Third_Party/FreeRTOS/Source/portable/GCC/ARM_CM4F/portmacro.h **** 	}
 185:Firmware/Middlewares/Third_Party/FreeRTOS/Source/portable/GCC/ARM_CM4F/portmacro.h **** 
 186:Firmware/Middlewares/Third_Party/FreeRTOS/Source/portable/GCC/ARM_CM4F/portmacro.h **** 	return xReturn;
 187:Firmware/Middlewares/Third_Party/FreeRTOS/Source/portable/GCC/ARM_CM4F/portmacro.h **** }
 188:Firmware/Middlewares/Third_Party/FreeRTOS/Source/portable/GCC/ARM_CM4F/portmacro.h **** 
 189:Firmware/Middlewares/Third_Party/FreeRTOS/Source/portable/GCC/ARM_CM4F/portmacro.h **** /*-----------------------------------------------------------*/
 190:Firmware/Middlewares/Third_Party/FreeRTOS/Source/portable/GCC/ARM_CM4F/portmacro.h **** 
 191:Firmware/Middlewares/Third_Party/FreeRTOS/Source/portable/GCC/ARM_CM4F/portmacro.h **** portFORCE_INLINE static void vPortRaiseBASEPRI( void )
 192:Firmware/Middlewares/Third_Party/FreeRTOS/Source/portable/GCC/ARM_CM4F/portmacro.h **** {
 193:Firmware/Middlewares/Third_Party/FreeRTOS/Source/portable/GCC/ARM_CM4F/portmacro.h **** uint32_t ulNewBASEPRI;
 194:Firmware/Middlewares/Third_Party/FreeRTOS/Source/portable/GCC/ARM_CM4F/portmacro.h **** 
 195:Firmware/Middlewares/Third_Party/FreeRTOS/Source/portable/GCC/ARM_CM4F/portmacro.h **** 	__asm volatile
 139              		.loc 2 195 0 discriminator 1
 140              		.syntax unified
 141              	@ 195 "Firmware/Middlewares/Third_Party/FreeRTOS/Source/portable/GCC/ARM_CM4F/portmacro.h" 1
 142 0060 4FF05003 			mov r3, #80												
 143 0064 83F31188 		msr basepri, r3											
 144 0068 BFF36F8F 		isb														
 145 006c BFF34F8F 		dsb														
 146              	
 147              	@ 0 "" 2
 148              		.thumb
 149              		.syntax unified
 150 0070 3B61     		str	r3, [r7, #16]
 151              	.L5:
 152              	.LBE43:
 153              	.LBE42:
 154              		.loc 1 271 0 discriminator 1
 155 0072 FEE7     		b	.L5
 156              	.L4:
 272:Firmware/Middlewares/Third_Party/FreeRTOS/Source/timers.c **** 	return xReturn;
 157              		.loc 1 272 0
 158 0074 7B69     		ldr	r3, [r7, #20]
 273:Firmware/Middlewares/Third_Party/FreeRTOS/Source/timers.c **** }
 159              		.loc 1 273 0
 160 0076 1846     		mov	r0, r3
 161 0078 1837     		adds	r7, r7, #24
 162              	.LCFI3:
 163              		.cfi_def_cfa_offset 8
ARM GAS  /tmp/ccL996FO.s 			page 12


 164 007a BD46     		mov	sp, r7
 165              	.LCFI4:
 166              		.cfi_def_cfa_register 13
 167              		@ sp needed
 168 007c 80BD     		pop	{r7, pc}
 169              	.L8:
 170 007e 00BF     		.align	2
 171              	.L7:
 172 0080 00000000 		.word	xTimerQueue
 173 0084 00000000 		.word	.LC0
 174 0088 00000000 		.word	prvTimerTask
 175 008c 00000000 		.word	xTimerTaskHandle
 176              		.cfi_endproc
 177              	.LFE4:
 179              		.section	.text.xTimerCreate,"ax",%progbits
 180              		.align	1
 181              		.global	xTimerCreate
 182              		.syntax unified
 183              		.thumb
 184              		.thumb_func
 185              		.fpu fpv4-sp-d16
 187              	xTimerCreate:
 188              	.LFB5:
 274:Firmware/Middlewares/Third_Party/FreeRTOS/Source/timers.c **** /*-----------------------------------------------------------*/
 275:Firmware/Middlewares/Third_Party/FreeRTOS/Source/timers.c **** 
 276:Firmware/Middlewares/Third_Party/FreeRTOS/Source/timers.c **** #if( configSUPPORT_DYNAMIC_ALLOCATION == 1 )
 277:Firmware/Middlewares/Third_Party/FreeRTOS/Source/timers.c **** 
 278:Firmware/Middlewares/Third_Party/FreeRTOS/Source/timers.c **** 	TimerHandle_t xTimerCreate(	const char * const pcTimerName,			/*lint !e971 Unqualified char types 
 279:Firmware/Middlewares/Third_Party/FreeRTOS/Source/timers.c **** 								const TickType_t xTimerPeriodInTicks,
 280:Firmware/Middlewares/Third_Party/FreeRTOS/Source/timers.c **** 								const UBaseType_t uxAutoReload,
 281:Firmware/Middlewares/Third_Party/FreeRTOS/Source/timers.c **** 								void * const pvTimerID,
 282:Firmware/Middlewares/Third_Party/FreeRTOS/Source/timers.c **** 								TimerCallbackFunction_t pxCallbackFunction )
 283:Firmware/Middlewares/Third_Party/FreeRTOS/Source/timers.c **** 	{
 189              		.loc 1 283 0
 190              		.cfi_startproc
 191              		@ args = 4, pretend = 0, frame = 24
 192              		@ frame_needed = 1, uses_anonymous_args = 0
 193 0000 80B5     		push	{r7, lr}
 194              	.LCFI5:
 195              		.cfi_def_cfa_offset 8
 196              		.cfi_offset 7, -8
 197              		.cfi_offset 14, -4
 198 0002 88B0     		sub	sp, sp, #32
 199              	.LCFI6:
 200              		.cfi_def_cfa_offset 40
 201 0004 02AF     		add	r7, sp, #8
 202              	.LCFI7:
 203              		.cfi_def_cfa 7, 32
 204 0006 F860     		str	r0, [r7, #12]
 205 0008 B960     		str	r1, [r7, #8]
 206 000a 7A60     		str	r2, [r7, #4]
 207 000c 3B60     		str	r3, [r7]
 284:Firmware/Middlewares/Third_Party/FreeRTOS/Source/timers.c **** 	Timer_t *pxNewTimer;
 285:Firmware/Middlewares/Third_Party/FreeRTOS/Source/timers.c **** 
 286:Firmware/Middlewares/Third_Party/FreeRTOS/Source/timers.c **** 		pxNewTimer = ( Timer_t * ) pvPortMalloc( sizeof( Timer_t ) );
 208              		.loc 1 286 0
 209 000e 3020     		movs	r0, #48
ARM GAS  /tmp/ccL996FO.s 			page 13


 210 0010 FFF7FEFF 		bl	pvPortMalloc
 211 0014 7861     		str	r0, [r7, #20]
 287:Firmware/Middlewares/Third_Party/FreeRTOS/Source/timers.c **** 
 288:Firmware/Middlewares/Third_Party/FreeRTOS/Source/timers.c **** 		if( pxNewTimer != NULL )
 212              		.loc 1 288 0
 213 0016 7B69     		ldr	r3, [r7, #20]
 214 0018 002B     		cmp	r3, #0
 215 001a 0DD0     		beq	.L10
 289:Firmware/Middlewares/Third_Party/FreeRTOS/Source/timers.c **** 		{
 290:Firmware/Middlewares/Third_Party/FreeRTOS/Source/timers.c **** 			prvInitialiseNewTimer( pcTimerName, xTimerPeriodInTicks, uxAutoReload, pvTimerID, pxCallbackFunc
 216              		.loc 1 290 0
 217 001c 7B69     		ldr	r3, [r7, #20]
 218 001e 0193     		str	r3, [sp, #4]
 219 0020 3B6A     		ldr	r3, [r7, #32]
 220 0022 0093     		str	r3, [sp]
 221 0024 3B68     		ldr	r3, [r7]
 222 0026 7A68     		ldr	r2, [r7, #4]
 223 0028 B968     		ldr	r1, [r7, #8]
 224 002a F868     		ldr	r0, [r7, #12]
 225 002c FFF7FEFF 		bl	prvInitialiseNewTimer
 291:Firmware/Middlewares/Third_Party/FreeRTOS/Source/timers.c **** 
 292:Firmware/Middlewares/Third_Party/FreeRTOS/Source/timers.c **** 			#if( configSUPPORT_STATIC_ALLOCATION == 1 )
 293:Firmware/Middlewares/Third_Party/FreeRTOS/Source/timers.c **** 			{
 294:Firmware/Middlewares/Third_Party/FreeRTOS/Source/timers.c **** 				/* Timers can be created statically or dynamically, so note this
 295:Firmware/Middlewares/Third_Party/FreeRTOS/Source/timers.c **** 				timer was created dynamically in case the timer is later
 296:Firmware/Middlewares/Third_Party/FreeRTOS/Source/timers.c **** 				deleted. */
 297:Firmware/Middlewares/Third_Party/FreeRTOS/Source/timers.c **** 				pxNewTimer->ucStaticallyAllocated = pdFALSE;
 226              		.loc 1 297 0
 227 0030 7B69     		ldr	r3, [r7, #20]
 228 0032 0022     		movs	r2, #0
 229 0034 83F82C20 		strb	r2, [r3, #44]
 230              	.L10:
 298:Firmware/Middlewares/Third_Party/FreeRTOS/Source/timers.c **** 			}
 299:Firmware/Middlewares/Third_Party/FreeRTOS/Source/timers.c **** 			#endif /* configSUPPORT_STATIC_ALLOCATION */
 300:Firmware/Middlewares/Third_Party/FreeRTOS/Source/timers.c **** 		}
 301:Firmware/Middlewares/Third_Party/FreeRTOS/Source/timers.c **** 
 302:Firmware/Middlewares/Third_Party/FreeRTOS/Source/timers.c **** 		return pxNewTimer;
 231              		.loc 1 302 0
 232 0038 7B69     		ldr	r3, [r7, #20]
 303:Firmware/Middlewares/Third_Party/FreeRTOS/Source/timers.c **** 	}
 233              		.loc 1 303 0
 234 003a 1846     		mov	r0, r3
 235 003c 1837     		adds	r7, r7, #24
 236              	.LCFI8:
 237              		.cfi_def_cfa_offset 8
 238 003e BD46     		mov	sp, r7
 239              	.LCFI9:
 240              		.cfi_def_cfa_register 13
 241              		@ sp needed
 242 0040 80BD     		pop	{r7, pc}
 243              		.cfi_endproc
 244              	.LFE5:
 246              		.section	.text.xTimerCreateStatic,"ax",%progbits
 247              		.align	1
 248              		.global	xTimerCreateStatic
 249              		.syntax unified
 250              		.thumb
ARM GAS  /tmp/ccL996FO.s 			page 14


 251              		.thumb_func
 252              		.fpu fpv4-sp-d16
 254              	xTimerCreateStatic:
 255              	.LFB6:
 304:Firmware/Middlewares/Third_Party/FreeRTOS/Source/timers.c **** 
 305:Firmware/Middlewares/Third_Party/FreeRTOS/Source/timers.c **** #endif /* configSUPPORT_STATIC_ALLOCATION */
 306:Firmware/Middlewares/Third_Party/FreeRTOS/Source/timers.c **** /*-----------------------------------------------------------*/
 307:Firmware/Middlewares/Third_Party/FreeRTOS/Source/timers.c **** 
 308:Firmware/Middlewares/Third_Party/FreeRTOS/Source/timers.c **** #if( configSUPPORT_STATIC_ALLOCATION == 1 )
 309:Firmware/Middlewares/Third_Party/FreeRTOS/Source/timers.c **** 
 310:Firmware/Middlewares/Third_Party/FreeRTOS/Source/timers.c **** 	TimerHandle_t xTimerCreateStatic(	const char * const pcTimerName,		/*lint !e971 Unqualified char t
 311:Firmware/Middlewares/Third_Party/FreeRTOS/Source/timers.c **** 										const TickType_t xTimerPeriodInTicks,
 312:Firmware/Middlewares/Third_Party/FreeRTOS/Source/timers.c **** 										const UBaseType_t uxAutoReload,
 313:Firmware/Middlewares/Third_Party/FreeRTOS/Source/timers.c **** 										void * const pvTimerID,
 314:Firmware/Middlewares/Third_Party/FreeRTOS/Source/timers.c **** 										TimerCallbackFunction_t pxCallbackFunction,
 315:Firmware/Middlewares/Third_Party/FreeRTOS/Source/timers.c **** 										StaticTimer_t *pxTimerBuffer )
 316:Firmware/Middlewares/Third_Party/FreeRTOS/Source/timers.c **** 	{
 256              		.loc 1 316 0
 257              		.cfi_startproc
 258              		@ args = 8, pretend = 0, frame = 32
 259              		@ frame_needed = 1, uses_anonymous_args = 0
 260 0000 80B5     		push	{r7, lr}
 261              	.LCFI10:
 262              		.cfi_def_cfa_offset 8
 263              		.cfi_offset 7, -8
 264              		.cfi_offset 14, -4
 265 0002 8AB0     		sub	sp, sp, #40
 266              	.LCFI11:
 267              		.cfi_def_cfa_offset 48
 268 0004 02AF     		add	r7, sp, #8
 269              	.LCFI12:
 270              		.cfi_def_cfa 7, 40
 271 0006 F860     		str	r0, [r7, #12]
 272 0008 B960     		str	r1, [r7, #8]
 273 000a 7A60     		str	r2, [r7, #4]
 274 000c 3B60     		str	r3, [r7]
 275              	.LBB44:
 317:Firmware/Middlewares/Third_Party/FreeRTOS/Source/timers.c **** 	Timer_t *pxNewTimer;
 318:Firmware/Middlewares/Third_Party/FreeRTOS/Source/timers.c **** 
 319:Firmware/Middlewares/Third_Party/FreeRTOS/Source/timers.c **** 		#if( configASSERT_DEFINED == 1 )
 320:Firmware/Middlewares/Third_Party/FreeRTOS/Source/timers.c **** 		{
 321:Firmware/Middlewares/Third_Party/FreeRTOS/Source/timers.c **** 			/* Sanity check that the size of the structure used to declare a
 322:Firmware/Middlewares/Third_Party/FreeRTOS/Source/timers.c **** 			variable of type StaticTimer_t equals the size of the real timer
 323:Firmware/Middlewares/Third_Party/FreeRTOS/Source/timers.c **** 			structure. */
 324:Firmware/Middlewares/Third_Party/FreeRTOS/Source/timers.c **** 			volatile size_t xSize = sizeof( StaticTimer_t );
 276              		.loc 1 324 0
 277 000e 3023     		movs	r3, #48
 278 0010 3B61     		str	r3, [r7, #16]
 325:Firmware/Middlewares/Third_Party/FreeRTOS/Source/timers.c **** 			configASSERT( xSize == sizeof( Timer_t ) );
 279              		.loc 1 325 0
 280 0012 3B69     		ldr	r3, [r7, #16]
 281 0014 302B     		cmp	r3, #48
 282 0016 09D0     		beq	.L13
 283              	.LBB45:
 284              	.LBB46:
 285              		.loc 2 195 0 discriminator 1
 286              		.syntax unified
ARM GAS  /tmp/ccL996FO.s 			page 15


 287              	@ 195 "Firmware/Middlewares/Third_Party/FreeRTOS/Source/portable/GCC/ARM_CM4F/portmacro.h" 1
 288 0018 4FF05003 			mov r3, #80												
 289 001c 83F31188 		msr basepri, r3											
 290 0020 BFF36F8F 		isb														
 291 0024 BFF34F8F 		dsb														
 292              	
 293              	@ 0 "" 2
 294              		.thumb
 295              		.syntax unified
 296 0028 BB61     		str	r3, [r7, #24]
 297              	.L14:
 298              	.LBE46:
 299              	.LBE45:
 300              		.loc 1 325 0 discriminator 1
 301 002a FEE7     		b	.L14
 302              	.L13:
 303              	.LBE44:
 326:Firmware/Middlewares/Third_Party/FreeRTOS/Source/timers.c **** 		}
 327:Firmware/Middlewares/Third_Party/FreeRTOS/Source/timers.c **** 		#endif /* configASSERT_DEFINED */
 328:Firmware/Middlewares/Third_Party/FreeRTOS/Source/timers.c **** 
 329:Firmware/Middlewares/Third_Party/FreeRTOS/Source/timers.c **** 		/* A pointer to a StaticTimer_t structure MUST be provided, use it. */
 330:Firmware/Middlewares/Third_Party/FreeRTOS/Source/timers.c **** 		configASSERT( pxTimerBuffer );
 304              		.loc 1 330 0
 305 002c FB6A     		ldr	r3, [r7, #44]
 306 002e 002B     		cmp	r3, #0
 307 0030 09D1     		bne	.L15
 308              	.LBB47:
 309              	.LBB48:
 310              		.loc 2 195 0 discriminator 1
 311              		.syntax unified
 312              	@ 195 "Firmware/Middlewares/Third_Party/FreeRTOS/Source/portable/GCC/ARM_CM4F/portmacro.h" 1
 313 0032 4FF05003 			mov r3, #80												
 314 0036 83F31188 		msr basepri, r3											
 315 003a BFF36F8F 		isb														
 316 003e BFF34F8F 		dsb														
 317              	
 318              	@ 0 "" 2
 319              		.thumb
 320              		.syntax unified
 321 0042 7B61     		str	r3, [r7, #20]
 322              	.L16:
 323              	.LBE48:
 324              	.LBE47:
 325              		.loc 1 330 0 discriminator 2
 326 0044 FEE7     		b	.L16
 327              	.L15:
 331:Firmware/Middlewares/Third_Party/FreeRTOS/Source/timers.c **** 		pxNewTimer = ( Timer_t * ) pxTimerBuffer; /*lint !e740 Unusual cast is ok as the structures are d
 328              		.loc 1 331 0
 329 0046 FB6A     		ldr	r3, [r7, #44]
 330 0048 FB61     		str	r3, [r7, #28]
 332:Firmware/Middlewares/Third_Party/FreeRTOS/Source/timers.c **** 
 333:Firmware/Middlewares/Third_Party/FreeRTOS/Source/timers.c **** 		if( pxNewTimer != NULL )
 331              		.loc 1 333 0
 332 004a FB69     		ldr	r3, [r7, #28]
 333 004c 002B     		cmp	r3, #0
 334 004e 0DD0     		beq	.L17
 334:Firmware/Middlewares/Third_Party/FreeRTOS/Source/timers.c **** 		{
ARM GAS  /tmp/ccL996FO.s 			page 16


 335:Firmware/Middlewares/Third_Party/FreeRTOS/Source/timers.c **** 			prvInitialiseNewTimer( pcTimerName, xTimerPeriodInTicks, uxAutoReload, pvTimerID, pxCallbackFunc
 335              		.loc 1 335 0
 336 0050 FB69     		ldr	r3, [r7, #28]
 337 0052 0193     		str	r3, [sp, #4]
 338 0054 BB6A     		ldr	r3, [r7, #40]
 339 0056 0093     		str	r3, [sp]
 340 0058 3B68     		ldr	r3, [r7]
 341 005a 7A68     		ldr	r2, [r7, #4]
 342 005c B968     		ldr	r1, [r7, #8]
 343 005e F868     		ldr	r0, [r7, #12]
 344 0060 FFF7FEFF 		bl	prvInitialiseNewTimer
 336:Firmware/Middlewares/Third_Party/FreeRTOS/Source/timers.c **** 
 337:Firmware/Middlewares/Third_Party/FreeRTOS/Source/timers.c **** 			#if( configSUPPORT_DYNAMIC_ALLOCATION == 1 )
 338:Firmware/Middlewares/Third_Party/FreeRTOS/Source/timers.c **** 			{
 339:Firmware/Middlewares/Third_Party/FreeRTOS/Source/timers.c **** 				/* Timers can be created statically or dynamically so note this
 340:Firmware/Middlewares/Third_Party/FreeRTOS/Source/timers.c **** 				timer was created statically in case it is later deleted. */
 341:Firmware/Middlewares/Third_Party/FreeRTOS/Source/timers.c **** 				pxNewTimer->ucStaticallyAllocated = pdTRUE;
 345              		.loc 1 341 0
 346 0064 FB69     		ldr	r3, [r7, #28]
 347 0066 0122     		movs	r2, #1
 348 0068 83F82C20 		strb	r2, [r3, #44]
 349              	.L17:
 342:Firmware/Middlewares/Third_Party/FreeRTOS/Source/timers.c **** 			}
 343:Firmware/Middlewares/Third_Party/FreeRTOS/Source/timers.c **** 			#endif /* configSUPPORT_DYNAMIC_ALLOCATION */
 344:Firmware/Middlewares/Third_Party/FreeRTOS/Source/timers.c **** 		}
 345:Firmware/Middlewares/Third_Party/FreeRTOS/Source/timers.c **** 
 346:Firmware/Middlewares/Third_Party/FreeRTOS/Source/timers.c **** 		return pxNewTimer;
 350              		.loc 1 346 0
 351 006c FB69     		ldr	r3, [r7, #28]
 347:Firmware/Middlewares/Third_Party/FreeRTOS/Source/timers.c **** 	}
 352              		.loc 1 347 0
 353 006e 1846     		mov	r0, r3
 354 0070 2037     		adds	r7, r7, #32
 355              	.LCFI13:
 356              		.cfi_def_cfa_offset 8
 357 0072 BD46     		mov	sp, r7
 358              	.LCFI14:
 359              		.cfi_def_cfa_register 13
 360              		@ sp needed
 361 0074 80BD     		pop	{r7, pc}
 362              		.cfi_endproc
 363              	.LFE6:
 365              		.section	.text.prvInitialiseNewTimer,"ax",%progbits
 366              		.align	1
 367              		.syntax unified
 368              		.thumb
 369              		.thumb_func
 370              		.fpu fpv4-sp-d16
 372              	prvInitialiseNewTimer:
 373              	.LFB7:
 348:Firmware/Middlewares/Third_Party/FreeRTOS/Source/timers.c **** 
 349:Firmware/Middlewares/Third_Party/FreeRTOS/Source/timers.c **** #endif /* configSUPPORT_STATIC_ALLOCATION */
 350:Firmware/Middlewares/Third_Party/FreeRTOS/Source/timers.c **** /*-----------------------------------------------------------*/
 351:Firmware/Middlewares/Third_Party/FreeRTOS/Source/timers.c **** 
 352:Firmware/Middlewares/Third_Party/FreeRTOS/Source/timers.c **** static void prvInitialiseNewTimer(	const char * const pcTimerName,			/*lint !e971 Unqualified char 
 353:Firmware/Middlewares/Third_Party/FreeRTOS/Source/timers.c **** 									const TickType_t xTimerPeriodInTicks,
 354:Firmware/Middlewares/Third_Party/FreeRTOS/Source/timers.c **** 									const UBaseType_t uxAutoReload,
ARM GAS  /tmp/ccL996FO.s 			page 17


 355:Firmware/Middlewares/Third_Party/FreeRTOS/Source/timers.c **** 									void * const pvTimerID,
 356:Firmware/Middlewares/Third_Party/FreeRTOS/Source/timers.c **** 									TimerCallbackFunction_t pxCallbackFunction,
 357:Firmware/Middlewares/Third_Party/FreeRTOS/Source/timers.c **** 									Timer_t *pxNewTimer )
 358:Firmware/Middlewares/Third_Party/FreeRTOS/Source/timers.c **** {
 374              		.loc 1 358 0
 375              		.cfi_startproc
 376              		@ args = 8, pretend = 0, frame = 24
 377              		@ frame_needed = 1, uses_anonymous_args = 0
 378 0000 80B5     		push	{r7, lr}
 379              	.LCFI15:
 380              		.cfi_def_cfa_offset 8
 381              		.cfi_offset 7, -8
 382              		.cfi_offset 14, -4
 383 0002 86B0     		sub	sp, sp, #24
 384              	.LCFI16:
 385              		.cfi_def_cfa_offset 32
 386 0004 00AF     		add	r7, sp, #0
 387              	.LCFI17:
 388              		.cfi_def_cfa_register 7
 389 0006 F860     		str	r0, [r7, #12]
 390 0008 B960     		str	r1, [r7, #8]
 391 000a 7A60     		str	r2, [r7, #4]
 392 000c 3B60     		str	r3, [r7]
 359:Firmware/Middlewares/Third_Party/FreeRTOS/Source/timers.c **** 	/* 0 is not a valid value for xTimerPeriodInTicks. */
 360:Firmware/Middlewares/Third_Party/FreeRTOS/Source/timers.c **** 	configASSERT( ( xTimerPeriodInTicks > 0 ) );
 393              		.loc 1 360 0
 394 000e BB68     		ldr	r3, [r7, #8]
 395 0010 002B     		cmp	r3, #0
 396 0012 09D1     		bne	.L20
 397              	.LBB49:
 398              	.LBB50:
 399              		.loc 2 195 0 discriminator 1
 400              		.syntax unified
 401              	@ 195 "Firmware/Middlewares/Third_Party/FreeRTOS/Source/portable/GCC/ARM_CM4F/portmacro.h" 1
 402 0014 4FF05003 			mov r3, #80												
 403 0018 83F31188 		msr basepri, r3											
 404 001c BFF36F8F 		isb														
 405 0020 BFF34F8F 		dsb														
 406              	
 407              	@ 0 "" 2
 408              		.thumb
 409              		.syntax unified
 410 0024 7B61     		str	r3, [r7, #20]
 411              	.L21:
 412              	.LBE50:
 413              	.LBE49:
 414              		.loc 1 360 0 discriminator 1
 415 0026 FEE7     		b	.L21
 416              	.L20:
 361:Firmware/Middlewares/Third_Party/FreeRTOS/Source/timers.c **** 
 362:Firmware/Middlewares/Third_Party/FreeRTOS/Source/timers.c **** 	if( pxNewTimer != NULL )
 417              		.loc 1 362 0
 418 0028 7B6A     		ldr	r3, [r7, #36]
 419 002a 002B     		cmp	r3, #0
 420 002c 15D0     		beq	.L23
 363:Firmware/Middlewares/Third_Party/FreeRTOS/Source/timers.c **** 	{
 364:Firmware/Middlewares/Third_Party/FreeRTOS/Source/timers.c **** 		/* Ensure the infrastructure used by the timer service task has been
ARM GAS  /tmp/ccL996FO.s 			page 18


 365:Firmware/Middlewares/Third_Party/FreeRTOS/Source/timers.c **** 		created/initialised. */
 366:Firmware/Middlewares/Third_Party/FreeRTOS/Source/timers.c **** 		prvCheckForValidListAndQueue();
 421              		.loc 1 366 0
 422 002e FFF7FEFF 		bl	prvCheckForValidListAndQueue
 367:Firmware/Middlewares/Third_Party/FreeRTOS/Source/timers.c **** 
 368:Firmware/Middlewares/Third_Party/FreeRTOS/Source/timers.c **** 		/* Initialise the timer structure members using the function
 369:Firmware/Middlewares/Third_Party/FreeRTOS/Source/timers.c **** 		parameters. */
 370:Firmware/Middlewares/Third_Party/FreeRTOS/Source/timers.c **** 		pxNewTimer->pcTimerName = pcTimerName;
 423              		.loc 1 370 0
 424 0032 7B6A     		ldr	r3, [r7, #36]
 425 0034 FA68     		ldr	r2, [r7, #12]
 426 0036 1A60     		str	r2, [r3]
 371:Firmware/Middlewares/Third_Party/FreeRTOS/Source/timers.c **** 		pxNewTimer->xTimerPeriodInTicks = xTimerPeriodInTicks;
 427              		.loc 1 371 0
 428 0038 7B6A     		ldr	r3, [r7, #36]
 429 003a BA68     		ldr	r2, [r7, #8]
 430 003c 9A61     		str	r2, [r3, #24]
 372:Firmware/Middlewares/Third_Party/FreeRTOS/Source/timers.c **** 		pxNewTimer->uxAutoReload = uxAutoReload;
 431              		.loc 1 372 0
 432 003e 7B6A     		ldr	r3, [r7, #36]
 433 0040 7A68     		ldr	r2, [r7, #4]
 434 0042 DA61     		str	r2, [r3, #28]
 373:Firmware/Middlewares/Third_Party/FreeRTOS/Source/timers.c **** 		pxNewTimer->pvTimerID = pvTimerID;
 435              		.loc 1 373 0
 436 0044 7B6A     		ldr	r3, [r7, #36]
 437 0046 3A68     		ldr	r2, [r7]
 438 0048 1A62     		str	r2, [r3, #32]
 374:Firmware/Middlewares/Third_Party/FreeRTOS/Source/timers.c **** 		pxNewTimer->pxCallbackFunction = pxCallbackFunction;
 439              		.loc 1 374 0
 440 004a 7B6A     		ldr	r3, [r7, #36]
 441 004c 3A6A     		ldr	r2, [r7, #32]
 442 004e 5A62     		str	r2, [r3, #36]
 375:Firmware/Middlewares/Third_Party/FreeRTOS/Source/timers.c **** 		vListInitialiseItem( &( pxNewTimer->xTimerListItem ) );
 443              		.loc 1 375 0
 444 0050 7B6A     		ldr	r3, [r7, #36]
 445 0052 0433     		adds	r3, r3, #4
 446 0054 1846     		mov	r0, r3
 447 0056 FFF7FEFF 		bl	vListInitialiseItem
 448              	.L23:
 376:Firmware/Middlewares/Third_Party/FreeRTOS/Source/timers.c **** 		traceTIMER_CREATE( pxNewTimer );
 377:Firmware/Middlewares/Third_Party/FreeRTOS/Source/timers.c **** 	}
 378:Firmware/Middlewares/Third_Party/FreeRTOS/Source/timers.c **** }
 449              		.loc 1 378 0
 450 005a 00BF     		nop
 451 005c 1837     		adds	r7, r7, #24
 452              	.LCFI18:
 453              		.cfi_def_cfa_offset 8
 454 005e BD46     		mov	sp, r7
 455              	.LCFI19:
 456              		.cfi_def_cfa_register 13
 457              		@ sp needed
 458 0060 80BD     		pop	{r7, pc}
 459              		.cfi_endproc
 460              	.LFE7:
 462              		.section	.text.xTimerGenericCommand,"ax",%progbits
 463              		.align	1
 464              		.global	xTimerGenericCommand
ARM GAS  /tmp/ccL996FO.s 			page 19


 465              		.syntax unified
 466              		.thumb
 467              		.thumb_func
 468              		.fpu fpv4-sp-d16
 470              	xTimerGenericCommand:
 471              	.LFB8:
 379:Firmware/Middlewares/Third_Party/FreeRTOS/Source/timers.c **** /*-----------------------------------------------------------*/
 380:Firmware/Middlewares/Third_Party/FreeRTOS/Source/timers.c **** 
 381:Firmware/Middlewares/Third_Party/FreeRTOS/Source/timers.c **** BaseType_t xTimerGenericCommand( TimerHandle_t xTimer, const BaseType_t xCommandID, const TickType_
 382:Firmware/Middlewares/Third_Party/FreeRTOS/Source/timers.c **** {
 472              		.loc 1 382 0
 473              		.cfi_startproc
 474              		@ args = 4, pretend = 0, frame = 40
 475              		@ frame_needed = 1, uses_anonymous_args = 0
 476 0000 80B5     		push	{r7, lr}
 477              	.LCFI20:
 478              		.cfi_def_cfa_offset 8
 479              		.cfi_offset 7, -8
 480              		.cfi_offset 14, -4
 481 0002 8AB0     		sub	sp, sp, #40
 482              	.LCFI21:
 483              		.cfi_def_cfa_offset 48
 484 0004 00AF     		add	r7, sp, #0
 485              	.LCFI22:
 486              		.cfi_def_cfa_register 7
 487 0006 F860     		str	r0, [r7, #12]
 488 0008 B960     		str	r1, [r7, #8]
 489 000a 7A60     		str	r2, [r7, #4]
 490 000c 3B60     		str	r3, [r7]
 383:Firmware/Middlewares/Third_Party/FreeRTOS/Source/timers.c **** BaseType_t xReturn = pdFAIL;
 491              		.loc 1 383 0
 492 000e 0023     		movs	r3, #0
 493 0010 7B62     		str	r3, [r7, #36]
 384:Firmware/Middlewares/Third_Party/FreeRTOS/Source/timers.c **** DaemonTaskMessage_t xMessage;
 385:Firmware/Middlewares/Third_Party/FreeRTOS/Source/timers.c **** 
 386:Firmware/Middlewares/Third_Party/FreeRTOS/Source/timers.c **** 	configASSERT( xTimer );
 494              		.loc 1 386 0
 495 0012 FB68     		ldr	r3, [r7, #12]
 496 0014 002B     		cmp	r3, #0
 497 0016 09D1     		bne	.L25
 498              	.LBB51:
 499              	.LBB52:
 500              		.loc 2 195 0 discriminator 1
 501              		.syntax unified
 502              	@ 195 "Firmware/Middlewares/Third_Party/FreeRTOS/Source/portable/GCC/ARM_CM4F/portmacro.h" 1
 503 0018 4FF05003 			mov r3, #80												
 504 001c 83F31188 		msr basepri, r3											
 505 0020 BFF36F8F 		isb														
 506 0024 BFF34F8F 		dsb														
 507              	
 508              	@ 0 "" 2
 509              		.thumb
 510              		.syntax unified
 511 0028 3B62     		str	r3, [r7, #32]
 512              	.L26:
 513              	.LBE52:
 514              	.LBE51:
ARM GAS  /tmp/ccL996FO.s 			page 20


 515              		.loc 1 386 0 discriminator 1
 516 002a FEE7     		b	.L26
 517              	.L25:
 387:Firmware/Middlewares/Third_Party/FreeRTOS/Source/timers.c **** 
 388:Firmware/Middlewares/Third_Party/FreeRTOS/Source/timers.c **** 	/* Send a message to the timer service task to perform a particular action
 389:Firmware/Middlewares/Third_Party/FreeRTOS/Source/timers.c **** 	on a particular timer definition. */
 390:Firmware/Middlewares/Third_Party/FreeRTOS/Source/timers.c **** 	if( xTimerQueue != NULL )
 518              		.loc 1 390 0
 519 002c 194B     		ldr	r3, .L33
 520 002e 1B68     		ldr	r3, [r3]
 521 0030 002B     		cmp	r3, #0
 522 0032 2AD0     		beq	.L27
 391:Firmware/Middlewares/Third_Party/FreeRTOS/Source/timers.c **** 	{
 392:Firmware/Middlewares/Third_Party/FreeRTOS/Source/timers.c **** 		/* Send a command to the timer service task to start the xTimer timer. */
 393:Firmware/Middlewares/Third_Party/FreeRTOS/Source/timers.c **** 		xMessage.xMessageID = xCommandID;
 523              		.loc 1 393 0
 524 0034 BB68     		ldr	r3, [r7, #8]
 525 0036 3B61     		str	r3, [r7, #16]
 394:Firmware/Middlewares/Third_Party/FreeRTOS/Source/timers.c **** 		xMessage.u.xTimerParameters.xMessageValue = xOptionalValue;
 526              		.loc 1 394 0
 527 0038 7B68     		ldr	r3, [r7, #4]
 528 003a 7B61     		str	r3, [r7, #20]
 395:Firmware/Middlewares/Third_Party/FreeRTOS/Source/timers.c **** 		xMessage.u.xTimerParameters.pxTimer = ( Timer_t * ) xTimer;
 529              		.loc 1 395 0
 530 003c FB68     		ldr	r3, [r7, #12]
 531 003e BB61     		str	r3, [r7, #24]
 396:Firmware/Middlewares/Third_Party/FreeRTOS/Source/timers.c **** 
 397:Firmware/Middlewares/Third_Party/FreeRTOS/Source/timers.c **** 		if( xCommandID < tmrFIRST_FROM_ISR_COMMAND )
 532              		.loc 1 397 0
 533 0040 BB68     		ldr	r3, [r7, #8]
 534 0042 052B     		cmp	r3, #5
 535 0044 18DC     		bgt	.L28
 398:Firmware/Middlewares/Third_Party/FreeRTOS/Source/timers.c **** 		{
 399:Firmware/Middlewares/Third_Party/FreeRTOS/Source/timers.c **** 			if( xTaskGetSchedulerState() == taskSCHEDULER_RUNNING )
 536              		.loc 1 399 0
 537 0046 FFF7FEFF 		bl	xTaskGetSchedulerState
 538 004a 0346     		mov	r3, r0
 539 004c 022B     		cmp	r3, #2
 540 004e 09D1     		bne	.L29
 400:Firmware/Middlewares/Third_Party/FreeRTOS/Source/timers.c **** 			{
 401:Firmware/Middlewares/Third_Party/FreeRTOS/Source/timers.c **** 				xReturn = xQueueSendToBack( xTimerQueue, &xMessage, xTicksToWait );
 541              		.loc 1 401 0
 542 0050 104B     		ldr	r3, .L33
 543 0052 1868     		ldr	r0, [r3]
 544 0054 07F11001 		add	r1, r7, #16
 545 0058 0023     		movs	r3, #0
 546 005a 3A6B     		ldr	r2, [r7, #48]
 547 005c FFF7FEFF 		bl	xQueueGenericSend
 548 0060 7862     		str	r0, [r7, #36]
 549 0062 12E0     		b	.L27
 550              	.L29:
 402:Firmware/Middlewares/Third_Party/FreeRTOS/Source/timers.c **** 			}
 403:Firmware/Middlewares/Third_Party/FreeRTOS/Source/timers.c **** 			else
 404:Firmware/Middlewares/Third_Party/FreeRTOS/Source/timers.c **** 			{
 405:Firmware/Middlewares/Third_Party/FreeRTOS/Source/timers.c **** 				xReturn = xQueueSendToBack( xTimerQueue, &xMessage, tmrNO_DELAY );
 551              		.loc 1 405 0
 552 0064 0B4B     		ldr	r3, .L33
ARM GAS  /tmp/ccL996FO.s 			page 21


 553 0066 1868     		ldr	r0, [r3]
 554 0068 07F11001 		add	r1, r7, #16
 555 006c 0023     		movs	r3, #0
 556 006e 0022     		movs	r2, #0
 557 0070 FFF7FEFF 		bl	xQueueGenericSend
 558 0074 7862     		str	r0, [r7, #36]
 559 0076 08E0     		b	.L27
 560              	.L28:
 406:Firmware/Middlewares/Third_Party/FreeRTOS/Source/timers.c **** 			}
 407:Firmware/Middlewares/Third_Party/FreeRTOS/Source/timers.c **** 		}
 408:Firmware/Middlewares/Third_Party/FreeRTOS/Source/timers.c **** 		else
 409:Firmware/Middlewares/Third_Party/FreeRTOS/Source/timers.c **** 		{
 410:Firmware/Middlewares/Third_Party/FreeRTOS/Source/timers.c **** 			xReturn = xQueueSendToBackFromISR( xTimerQueue, &xMessage, pxHigherPriorityTaskWoken );
 561              		.loc 1 410 0
 562 0078 064B     		ldr	r3, .L33
 563 007a 1868     		ldr	r0, [r3]
 564 007c 07F11001 		add	r1, r7, #16
 565 0080 0023     		movs	r3, #0
 566 0082 3A68     		ldr	r2, [r7]
 567 0084 FFF7FEFF 		bl	xQueueGenericSendFromISR
 568 0088 7862     		str	r0, [r7, #36]
 569              	.L27:
 411:Firmware/Middlewares/Third_Party/FreeRTOS/Source/timers.c **** 		}
 412:Firmware/Middlewares/Third_Party/FreeRTOS/Source/timers.c **** 
 413:Firmware/Middlewares/Third_Party/FreeRTOS/Source/timers.c **** 		traceTIMER_COMMAND_SEND( xTimer, xCommandID, xOptionalValue, xReturn );
 414:Firmware/Middlewares/Third_Party/FreeRTOS/Source/timers.c **** 	}
 415:Firmware/Middlewares/Third_Party/FreeRTOS/Source/timers.c **** 	else
 416:Firmware/Middlewares/Third_Party/FreeRTOS/Source/timers.c **** 	{
 417:Firmware/Middlewares/Third_Party/FreeRTOS/Source/timers.c **** 		mtCOVERAGE_TEST_MARKER();
 418:Firmware/Middlewares/Third_Party/FreeRTOS/Source/timers.c **** 	}
 419:Firmware/Middlewares/Third_Party/FreeRTOS/Source/timers.c **** 
 420:Firmware/Middlewares/Third_Party/FreeRTOS/Source/timers.c **** 	return xReturn;
 570              		.loc 1 420 0
 571 008a 7B6A     		ldr	r3, [r7, #36]
 421:Firmware/Middlewares/Third_Party/FreeRTOS/Source/timers.c **** }
 572              		.loc 1 421 0
 573 008c 1846     		mov	r0, r3
 574 008e 2837     		adds	r7, r7, #40
 575              	.LCFI23:
 576              		.cfi_def_cfa_offset 8
 577 0090 BD46     		mov	sp, r7
 578              	.LCFI24:
 579              		.cfi_def_cfa_register 13
 580              		@ sp needed
 581 0092 80BD     		pop	{r7, pc}
 582              	.L34:
 583              		.align	2
 584              	.L33:
 585 0094 00000000 		.word	xTimerQueue
 586              		.cfi_endproc
 587              	.LFE8:
 589              		.section	.text.xTimerGetTimerDaemonTaskHandle,"ax",%progbits
 590              		.align	1
 591              		.global	xTimerGetTimerDaemonTaskHandle
 592              		.syntax unified
 593              		.thumb
 594              		.thumb_func
ARM GAS  /tmp/ccL996FO.s 			page 22


 595              		.fpu fpv4-sp-d16
 597              	xTimerGetTimerDaemonTaskHandle:
 598              	.LFB9:
 422:Firmware/Middlewares/Third_Party/FreeRTOS/Source/timers.c **** /*-----------------------------------------------------------*/
 423:Firmware/Middlewares/Third_Party/FreeRTOS/Source/timers.c **** 
 424:Firmware/Middlewares/Third_Party/FreeRTOS/Source/timers.c **** TaskHandle_t xTimerGetTimerDaemonTaskHandle( void )
 425:Firmware/Middlewares/Third_Party/FreeRTOS/Source/timers.c **** {
 599              		.loc 1 425 0
 600              		.cfi_startproc
 601              		@ args = 0, pretend = 0, frame = 8
 602              		@ frame_needed = 1, uses_anonymous_args = 0
 603              		@ link register save eliminated.
 604 0000 80B4     		push	{r7}
 605              	.LCFI25:
 606              		.cfi_def_cfa_offset 4
 607              		.cfi_offset 7, -4
 608 0002 83B0     		sub	sp, sp, #12
 609              	.LCFI26:
 610              		.cfi_def_cfa_offset 16
 611 0004 00AF     		add	r7, sp, #0
 612              	.LCFI27:
 613              		.cfi_def_cfa_register 7
 426:Firmware/Middlewares/Third_Party/FreeRTOS/Source/timers.c **** 	/* If xTimerGetTimerDaemonTaskHandle() is called before the scheduler has been
 427:Firmware/Middlewares/Third_Party/FreeRTOS/Source/timers.c **** 	started, then xTimerTaskHandle will be NULL. */
 428:Firmware/Middlewares/Third_Party/FreeRTOS/Source/timers.c **** 	configASSERT( ( xTimerTaskHandle != NULL ) );
 614              		.loc 1 428 0
 615 0006 0B4B     		ldr	r3, .L39
 616 0008 1B68     		ldr	r3, [r3]
 617 000a 002B     		cmp	r3, #0
 618 000c 09D1     		bne	.L36
 619              	.LBB53:
 620              	.LBB54:
 621              		.loc 2 195 0 discriminator 1
 622              		.syntax unified
 623              	@ 195 "Firmware/Middlewares/Third_Party/FreeRTOS/Source/portable/GCC/ARM_CM4F/portmacro.h" 1
 624 000e 4FF05003 			mov r3, #80												
 625 0012 83F31188 		msr basepri, r3											
 626 0016 BFF36F8F 		isb														
 627 001a BFF34F8F 		dsb														
 628              	
 629              	@ 0 "" 2
 630              		.thumb
 631              		.syntax unified
 632 001e 7B60     		str	r3, [r7, #4]
 633              	.L37:
 634              	.LBE54:
 635              	.LBE53:
 636              		.loc 1 428 0 discriminator 1
 637 0020 FEE7     		b	.L37
 638              	.L36:
 429:Firmware/Middlewares/Third_Party/FreeRTOS/Source/timers.c **** 	return xTimerTaskHandle;
 639              		.loc 1 429 0
 640 0022 044B     		ldr	r3, .L39
 641 0024 1B68     		ldr	r3, [r3]
 430:Firmware/Middlewares/Third_Party/FreeRTOS/Source/timers.c **** }
 642              		.loc 1 430 0
 643 0026 1846     		mov	r0, r3
ARM GAS  /tmp/ccL996FO.s 			page 23


 644 0028 0C37     		adds	r7, r7, #12
 645              	.LCFI28:
 646              		.cfi_def_cfa_offset 4
 647 002a BD46     		mov	sp, r7
 648              	.LCFI29:
 649              		.cfi_def_cfa_register 13
 650              		@ sp needed
 651 002c 5DF8047B 		ldr	r7, [sp], #4
 652              	.LCFI30:
 653              		.cfi_restore 7
 654              		.cfi_def_cfa_offset 0
 655 0030 7047     		bx	lr
 656              	.L40:
 657 0032 00BF     		.align	2
 658              	.L39:
 659 0034 00000000 		.word	xTimerTaskHandle
 660              		.cfi_endproc
 661              	.LFE9:
 663              		.section	.text.xTimerGetPeriod,"ax",%progbits
 664              		.align	1
 665              		.global	xTimerGetPeriod
 666              		.syntax unified
 667              		.thumb
 668              		.thumb_func
 669              		.fpu fpv4-sp-d16
 671              	xTimerGetPeriod:
 672              	.LFB10:
 431:Firmware/Middlewares/Third_Party/FreeRTOS/Source/timers.c **** /*-----------------------------------------------------------*/
 432:Firmware/Middlewares/Third_Party/FreeRTOS/Source/timers.c **** 
 433:Firmware/Middlewares/Third_Party/FreeRTOS/Source/timers.c **** TickType_t xTimerGetPeriod( TimerHandle_t xTimer )
 434:Firmware/Middlewares/Third_Party/FreeRTOS/Source/timers.c **** {
 673              		.loc 1 434 0
 674              		.cfi_startproc
 675              		@ args = 0, pretend = 0, frame = 16
 676              		@ frame_needed = 1, uses_anonymous_args = 0
 677              		@ link register save eliminated.
 678 0000 80B4     		push	{r7}
 679              	.LCFI31:
 680              		.cfi_def_cfa_offset 4
 681              		.cfi_offset 7, -4
 682 0002 85B0     		sub	sp, sp, #20
 683              	.LCFI32:
 684              		.cfi_def_cfa_offset 24
 685 0004 00AF     		add	r7, sp, #0
 686              	.LCFI33:
 687              		.cfi_def_cfa_register 7
 688 0006 7860     		str	r0, [r7, #4]
 435:Firmware/Middlewares/Third_Party/FreeRTOS/Source/timers.c **** Timer_t *pxTimer = ( Timer_t * ) xTimer;
 689              		.loc 1 435 0
 690 0008 7B68     		ldr	r3, [r7, #4]
 691 000a FB60     		str	r3, [r7, #12]
 436:Firmware/Middlewares/Third_Party/FreeRTOS/Source/timers.c **** 
 437:Firmware/Middlewares/Third_Party/FreeRTOS/Source/timers.c **** 	configASSERT( xTimer );
 692              		.loc 1 437 0
 693 000c 7B68     		ldr	r3, [r7, #4]
 694 000e 002B     		cmp	r3, #0
 695 0010 09D1     		bne	.L42
ARM GAS  /tmp/ccL996FO.s 			page 24


 696              	.LBB55:
 697              	.LBB56:
 698              		.loc 2 195 0 discriminator 1
 699              		.syntax unified
 700              	@ 195 "Firmware/Middlewares/Third_Party/FreeRTOS/Source/portable/GCC/ARM_CM4F/portmacro.h" 1
 701 0012 4FF05003 			mov r3, #80												
 702 0016 83F31188 		msr basepri, r3											
 703 001a BFF36F8F 		isb														
 704 001e BFF34F8F 		dsb														
 705              	
 706              	@ 0 "" 2
 707              		.thumb
 708              		.syntax unified
 709 0022 BB60     		str	r3, [r7, #8]
 710              	.L43:
 711              	.LBE56:
 712              	.LBE55:
 713              		.loc 1 437 0 discriminator 1
 714 0024 FEE7     		b	.L43
 715              	.L42:
 438:Firmware/Middlewares/Third_Party/FreeRTOS/Source/timers.c **** 	return pxTimer->xTimerPeriodInTicks;
 716              		.loc 1 438 0
 717 0026 FB68     		ldr	r3, [r7, #12]
 718 0028 9B69     		ldr	r3, [r3, #24]
 439:Firmware/Middlewares/Third_Party/FreeRTOS/Source/timers.c **** }
 719              		.loc 1 439 0
 720 002a 1846     		mov	r0, r3
 721 002c 1437     		adds	r7, r7, #20
 722              	.LCFI34:
 723              		.cfi_def_cfa_offset 4
 724 002e BD46     		mov	sp, r7
 725              	.LCFI35:
 726              		.cfi_def_cfa_register 13
 727              		@ sp needed
 728 0030 5DF8047B 		ldr	r7, [sp], #4
 729              	.LCFI36:
 730              		.cfi_restore 7
 731              		.cfi_def_cfa_offset 0
 732 0034 7047     		bx	lr
 733              		.cfi_endproc
 734              	.LFE10:
 736              		.section	.text.xTimerGetExpiryTime,"ax",%progbits
 737              		.align	1
 738              		.global	xTimerGetExpiryTime
 739              		.syntax unified
 740              		.thumb
 741              		.thumb_func
 742              		.fpu fpv4-sp-d16
 744              	xTimerGetExpiryTime:
 745              	.LFB11:
 440:Firmware/Middlewares/Third_Party/FreeRTOS/Source/timers.c **** /*-----------------------------------------------------------*/
 441:Firmware/Middlewares/Third_Party/FreeRTOS/Source/timers.c **** 
 442:Firmware/Middlewares/Third_Party/FreeRTOS/Source/timers.c **** TickType_t xTimerGetExpiryTime( TimerHandle_t xTimer )
 443:Firmware/Middlewares/Third_Party/FreeRTOS/Source/timers.c **** {
 746              		.loc 1 443 0
 747              		.cfi_startproc
 748              		@ args = 0, pretend = 0, frame = 24
ARM GAS  /tmp/ccL996FO.s 			page 25


 749              		@ frame_needed = 1, uses_anonymous_args = 0
 750              		@ link register save eliminated.
 751 0000 80B4     		push	{r7}
 752              	.LCFI37:
 753              		.cfi_def_cfa_offset 4
 754              		.cfi_offset 7, -4
 755 0002 87B0     		sub	sp, sp, #28
 756              	.LCFI38:
 757              		.cfi_def_cfa_offset 32
 758 0004 00AF     		add	r7, sp, #0
 759              	.LCFI39:
 760              		.cfi_def_cfa_register 7
 761 0006 7860     		str	r0, [r7, #4]
 444:Firmware/Middlewares/Third_Party/FreeRTOS/Source/timers.c **** Timer_t * pxTimer = ( Timer_t * ) xTimer;
 762              		.loc 1 444 0
 763 0008 7B68     		ldr	r3, [r7, #4]
 764 000a 7B61     		str	r3, [r7, #20]
 445:Firmware/Middlewares/Third_Party/FreeRTOS/Source/timers.c **** TickType_t xReturn;
 446:Firmware/Middlewares/Third_Party/FreeRTOS/Source/timers.c **** 
 447:Firmware/Middlewares/Third_Party/FreeRTOS/Source/timers.c **** 	configASSERT( xTimer );
 765              		.loc 1 447 0
 766 000c 7B68     		ldr	r3, [r7, #4]
 767 000e 002B     		cmp	r3, #0
 768 0010 09D1     		bne	.L46
 769              	.LBB57:
 770              	.LBB58:
 771              		.loc 2 195 0 discriminator 1
 772              		.syntax unified
 773              	@ 195 "Firmware/Middlewares/Third_Party/FreeRTOS/Source/portable/GCC/ARM_CM4F/portmacro.h" 1
 774 0012 4FF05003 			mov r3, #80												
 775 0016 83F31188 		msr basepri, r3											
 776 001a BFF36F8F 		isb														
 777 001e BFF34F8F 		dsb														
 778              	
 779              	@ 0 "" 2
 780              		.thumb
 781              		.syntax unified
 782 0022 FB60     		str	r3, [r7, #12]
 783              	.L47:
 784              	.LBE58:
 785              	.LBE57:
 786              		.loc 1 447 0 discriminator 1
 787 0024 FEE7     		b	.L47
 788              	.L46:
 448:Firmware/Middlewares/Third_Party/FreeRTOS/Source/timers.c **** 	xReturn = listGET_LIST_ITEM_VALUE( &( pxTimer->xTimerListItem ) );
 789              		.loc 1 448 0
 790 0026 7B69     		ldr	r3, [r7, #20]
 791 0028 5B68     		ldr	r3, [r3, #4]
 792 002a 3B61     		str	r3, [r7, #16]
 449:Firmware/Middlewares/Third_Party/FreeRTOS/Source/timers.c **** 	return xReturn;
 793              		.loc 1 449 0
 794 002c 3B69     		ldr	r3, [r7, #16]
 450:Firmware/Middlewares/Third_Party/FreeRTOS/Source/timers.c **** }
 795              		.loc 1 450 0
 796 002e 1846     		mov	r0, r3
 797 0030 1C37     		adds	r7, r7, #28
 798              	.LCFI40:
ARM GAS  /tmp/ccL996FO.s 			page 26


 799              		.cfi_def_cfa_offset 4
 800 0032 BD46     		mov	sp, r7
 801              	.LCFI41:
 802              		.cfi_def_cfa_register 13
 803              		@ sp needed
 804 0034 5DF8047B 		ldr	r7, [sp], #4
 805              	.LCFI42:
 806              		.cfi_restore 7
 807              		.cfi_def_cfa_offset 0
 808 0038 7047     		bx	lr
 809              		.cfi_endproc
 810              	.LFE11:
 812              		.section	.text.pcTimerGetName,"ax",%progbits
 813              		.align	1
 814              		.global	pcTimerGetName
 815              		.syntax unified
 816              		.thumb
 817              		.thumb_func
 818              		.fpu fpv4-sp-d16
 820              	pcTimerGetName:
 821              	.LFB12:
 451:Firmware/Middlewares/Third_Party/FreeRTOS/Source/timers.c **** /*-----------------------------------------------------------*/
 452:Firmware/Middlewares/Third_Party/FreeRTOS/Source/timers.c **** 
 453:Firmware/Middlewares/Third_Party/FreeRTOS/Source/timers.c **** const char * pcTimerGetName( TimerHandle_t xTimer ) /*lint !e971 Unqualified char types are allowed
 454:Firmware/Middlewares/Third_Party/FreeRTOS/Source/timers.c **** {
 822              		.loc 1 454 0
 823              		.cfi_startproc
 824              		@ args = 0, pretend = 0, frame = 16
 825              		@ frame_needed = 1, uses_anonymous_args = 0
 826              		@ link register save eliminated.
 827 0000 80B4     		push	{r7}
 828              	.LCFI43:
 829              		.cfi_def_cfa_offset 4
 830              		.cfi_offset 7, -4
 831 0002 85B0     		sub	sp, sp, #20
 832              	.LCFI44:
 833              		.cfi_def_cfa_offset 24
 834 0004 00AF     		add	r7, sp, #0
 835              	.LCFI45:
 836              		.cfi_def_cfa_register 7
 837 0006 7860     		str	r0, [r7, #4]
 455:Firmware/Middlewares/Third_Party/FreeRTOS/Source/timers.c **** Timer_t *pxTimer = ( Timer_t * ) xTimer;
 838              		.loc 1 455 0
 839 0008 7B68     		ldr	r3, [r7, #4]
 840 000a FB60     		str	r3, [r7, #12]
 456:Firmware/Middlewares/Third_Party/FreeRTOS/Source/timers.c **** 
 457:Firmware/Middlewares/Third_Party/FreeRTOS/Source/timers.c **** 	configASSERT( xTimer );
 841              		.loc 1 457 0
 842 000c 7B68     		ldr	r3, [r7, #4]
 843 000e 002B     		cmp	r3, #0
 844 0010 09D1     		bne	.L50
 845              	.LBB59:
 846              	.LBB60:
 847              		.loc 2 195 0 discriminator 1
 848              		.syntax unified
 849              	@ 195 "Firmware/Middlewares/Third_Party/FreeRTOS/Source/portable/GCC/ARM_CM4F/portmacro.h" 1
 850 0012 4FF05003 			mov r3, #80												
ARM GAS  /tmp/ccL996FO.s 			page 27


 851 0016 83F31188 		msr basepri, r3											
 852 001a BFF36F8F 		isb														
 853 001e BFF34F8F 		dsb														
 854              	
 855              	@ 0 "" 2
 856              		.thumb
 857              		.syntax unified
 858 0022 BB60     		str	r3, [r7, #8]
 859              	.L51:
 860              	.LBE60:
 861              	.LBE59:
 862              		.loc 1 457 0 discriminator 1
 863 0024 FEE7     		b	.L51
 864              	.L50:
 458:Firmware/Middlewares/Third_Party/FreeRTOS/Source/timers.c **** 	return pxTimer->pcTimerName;
 865              		.loc 1 458 0
 866 0026 FB68     		ldr	r3, [r7, #12]
 867 0028 1B68     		ldr	r3, [r3]
 459:Firmware/Middlewares/Third_Party/FreeRTOS/Source/timers.c **** }
 868              		.loc 1 459 0
 869 002a 1846     		mov	r0, r3
 870 002c 1437     		adds	r7, r7, #20
 871              	.LCFI46:
 872              		.cfi_def_cfa_offset 4
 873 002e BD46     		mov	sp, r7
 874              	.LCFI47:
 875              		.cfi_def_cfa_register 13
 876              		@ sp needed
 877 0030 5DF8047B 		ldr	r7, [sp], #4
 878              	.LCFI48:
 879              		.cfi_restore 7
 880              		.cfi_def_cfa_offset 0
 881 0034 7047     		bx	lr
 882              		.cfi_endproc
 883              	.LFE12:
 885              		.section	.text.prvProcessExpiredTimer,"ax",%progbits
 886              		.align	1
 887              		.syntax unified
 888              		.thumb
 889              		.thumb_func
 890              		.fpu fpv4-sp-d16
 892              	prvProcessExpiredTimer:
 893              	.LFB13:
 460:Firmware/Middlewares/Third_Party/FreeRTOS/Source/timers.c **** /*-----------------------------------------------------------*/
 461:Firmware/Middlewares/Third_Party/FreeRTOS/Source/timers.c **** 
 462:Firmware/Middlewares/Third_Party/FreeRTOS/Source/timers.c **** static void prvProcessExpiredTimer( const TickType_t xNextExpireTime, const TickType_t xTimeNow )
 463:Firmware/Middlewares/Third_Party/FreeRTOS/Source/timers.c **** {
 894              		.loc 1 463 0
 895              		.cfi_startproc
 896              		@ args = 0, pretend = 0, frame = 24
 897              		@ frame_needed = 1, uses_anonymous_args = 0
 898 0000 80B5     		push	{r7, lr}
 899              	.LCFI49:
 900              		.cfi_def_cfa_offset 8
 901              		.cfi_offset 7, -8
 902              		.cfi_offset 14, -4
 903 0002 88B0     		sub	sp, sp, #32
ARM GAS  /tmp/ccL996FO.s 			page 28


 904              	.LCFI50:
 905              		.cfi_def_cfa_offset 40
 906 0004 02AF     		add	r7, sp, #8
 907              	.LCFI51:
 908              		.cfi_def_cfa 7, 32
 909 0006 7860     		str	r0, [r7, #4]
 910 0008 3960     		str	r1, [r7]
 464:Firmware/Middlewares/Third_Party/FreeRTOS/Source/timers.c **** BaseType_t xResult;
 465:Firmware/Middlewares/Third_Party/FreeRTOS/Source/timers.c **** Timer_t * const pxTimer = ( Timer_t * ) listGET_OWNER_OF_HEAD_ENTRY( pxCurrentTimerList );
 911              		.loc 1 465 0
 912 000a 1C4B     		ldr	r3, .L56
 913 000c 1B68     		ldr	r3, [r3]
 914 000e DB68     		ldr	r3, [r3, #12]
 915 0010 DB68     		ldr	r3, [r3, #12]
 916 0012 7B61     		str	r3, [r7, #20]
 466:Firmware/Middlewares/Third_Party/FreeRTOS/Source/timers.c **** 
 467:Firmware/Middlewares/Third_Party/FreeRTOS/Source/timers.c **** 	/* Remove the timer from the list of active timers.  A check has already
 468:Firmware/Middlewares/Third_Party/FreeRTOS/Source/timers.c **** 	been performed to ensure the list is not empty. */
 469:Firmware/Middlewares/Third_Party/FreeRTOS/Source/timers.c **** 	( void ) uxListRemove( &( pxTimer->xTimerListItem ) );
 917              		.loc 1 469 0
 918 0014 7B69     		ldr	r3, [r7, #20]
 919 0016 0433     		adds	r3, r3, #4
 920 0018 1846     		mov	r0, r3
 921 001a FFF7FEFF 		bl	uxListRemove
 470:Firmware/Middlewares/Third_Party/FreeRTOS/Source/timers.c **** 	traceTIMER_EXPIRED( pxTimer );
 471:Firmware/Middlewares/Third_Party/FreeRTOS/Source/timers.c **** 
 472:Firmware/Middlewares/Third_Party/FreeRTOS/Source/timers.c **** 	/* If the timer is an auto reload timer then calculate the next
 473:Firmware/Middlewares/Third_Party/FreeRTOS/Source/timers.c **** 	expiry time and re-insert the timer in the list of active timers. */
 474:Firmware/Middlewares/Third_Party/FreeRTOS/Source/timers.c **** 	if( pxTimer->uxAutoReload == ( UBaseType_t ) pdTRUE )
 922              		.loc 1 474 0
 923 001e 7B69     		ldr	r3, [r7, #20]
 924 0020 DB69     		ldr	r3, [r3, #28]
 925 0022 012B     		cmp	r3, #1
 926 0024 21D1     		bne	.L54
 475:Firmware/Middlewares/Third_Party/FreeRTOS/Source/timers.c **** 	{
 476:Firmware/Middlewares/Third_Party/FreeRTOS/Source/timers.c **** 		/* The timer is inserted into a list using a time relative to anything
 477:Firmware/Middlewares/Third_Party/FreeRTOS/Source/timers.c **** 		other than the current time.  It will therefore be inserted into the
 478:Firmware/Middlewares/Third_Party/FreeRTOS/Source/timers.c **** 		correct list relative to the time this task thinks it is now. */
 479:Firmware/Middlewares/Third_Party/FreeRTOS/Source/timers.c **** 		if( prvInsertTimerInActiveList( pxTimer, ( xNextExpireTime + pxTimer->xTimerPeriodInTicks ), xTim
 927              		.loc 1 479 0
 928 0026 7B69     		ldr	r3, [r7, #20]
 929 0028 9A69     		ldr	r2, [r3, #24]
 930 002a 7B68     		ldr	r3, [r7, #4]
 931 002c D118     		adds	r1, r2, r3
 932 002e 7B68     		ldr	r3, [r7, #4]
 933 0030 3A68     		ldr	r2, [r7]
 934 0032 7869     		ldr	r0, [r7, #20]
 935 0034 FFF7FEFF 		bl	prvInsertTimerInActiveList
 936 0038 0346     		mov	r3, r0
 937 003a 002B     		cmp	r3, #0
 938 003c 15D0     		beq	.L54
 480:Firmware/Middlewares/Third_Party/FreeRTOS/Source/timers.c **** 		{
 481:Firmware/Middlewares/Third_Party/FreeRTOS/Source/timers.c **** 			/* The timer expired before it was added to the active timer
 482:Firmware/Middlewares/Third_Party/FreeRTOS/Source/timers.c **** 			list.  Reload it now.  */
 483:Firmware/Middlewares/Third_Party/FreeRTOS/Source/timers.c **** 			xResult = xTimerGenericCommand( pxTimer, tmrCOMMAND_START_DONT_TRACE, xNextExpireTime, NULL, tmr
 939              		.loc 1 483 0
 940 003e 0023     		movs	r3, #0
ARM GAS  /tmp/ccL996FO.s 			page 29


 941 0040 0093     		str	r3, [sp]
 942 0042 0023     		movs	r3, #0
 943 0044 7A68     		ldr	r2, [r7, #4]
 944 0046 0021     		movs	r1, #0
 945 0048 7869     		ldr	r0, [r7, #20]
 946 004a FFF7FEFF 		bl	xTimerGenericCommand
 947 004e 3861     		str	r0, [r7, #16]
 484:Firmware/Middlewares/Third_Party/FreeRTOS/Source/timers.c **** 			configASSERT( xResult );
 948              		.loc 1 484 0
 949 0050 3B69     		ldr	r3, [r7, #16]
 950 0052 002B     		cmp	r3, #0
 951 0054 09D1     		bne	.L54
 952              	.LBB61:
 953              	.LBB62:
 954              		.loc 2 195 0 discriminator 1
 955              		.syntax unified
 956              	@ 195 "Firmware/Middlewares/Third_Party/FreeRTOS/Source/portable/GCC/ARM_CM4F/portmacro.h" 1
 957 0056 4FF05003 			mov r3, #80												
 958 005a 83F31188 		msr basepri, r3											
 959 005e BFF36F8F 		isb														
 960 0062 BFF34F8F 		dsb														
 961              	
 962              	@ 0 "" 2
 963              		.thumb
 964              		.syntax unified
 965 0066 FB60     		str	r3, [r7, #12]
 966              	.L55:
 967              	.LBE62:
 968              	.LBE61:
 969              		.loc 1 484 0 discriminator 1
 970 0068 FEE7     		b	.L55
 971              	.L54:
 485:Firmware/Middlewares/Third_Party/FreeRTOS/Source/timers.c **** 			( void ) xResult;
 486:Firmware/Middlewares/Third_Party/FreeRTOS/Source/timers.c **** 		}
 487:Firmware/Middlewares/Third_Party/FreeRTOS/Source/timers.c **** 		else
 488:Firmware/Middlewares/Third_Party/FreeRTOS/Source/timers.c **** 		{
 489:Firmware/Middlewares/Third_Party/FreeRTOS/Source/timers.c **** 			mtCOVERAGE_TEST_MARKER();
 490:Firmware/Middlewares/Third_Party/FreeRTOS/Source/timers.c **** 		}
 491:Firmware/Middlewares/Third_Party/FreeRTOS/Source/timers.c **** 	}
 492:Firmware/Middlewares/Third_Party/FreeRTOS/Source/timers.c **** 	else
 493:Firmware/Middlewares/Third_Party/FreeRTOS/Source/timers.c **** 	{
 494:Firmware/Middlewares/Third_Party/FreeRTOS/Source/timers.c **** 		mtCOVERAGE_TEST_MARKER();
 495:Firmware/Middlewares/Third_Party/FreeRTOS/Source/timers.c **** 	}
 496:Firmware/Middlewares/Third_Party/FreeRTOS/Source/timers.c **** 
 497:Firmware/Middlewares/Third_Party/FreeRTOS/Source/timers.c **** 	/* Call the timer callback. */
 498:Firmware/Middlewares/Third_Party/FreeRTOS/Source/timers.c **** 	pxTimer->pxCallbackFunction( ( TimerHandle_t ) pxTimer );
 972              		.loc 1 498 0
 973 006a 7B69     		ldr	r3, [r7, #20]
 974 006c 5B6A     		ldr	r3, [r3, #36]
 975 006e 7869     		ldr	r0, [r7, #20]
 976 0070 9847     		blx	r3
 977              	.LVL0:
 499:Firmware/Middlewares/Third_Party/FreeRTOS/Source/timers.c **** }
 978              		.loc 1 499 0
 979 0072 00BF     		nop
 980 0074 1837     		adds	r7, r7, #24
 981              	.LCFI52:
ARM GAS  /tmp/ccL996FO.s 			page 30


 982              		.cfi_def_cfa_offset 8
 983 0076 BD46     		mov	sp, r7
 984              	.LCFI53:
 985              		.cfi_def_cfa_register 13
 986              		@ sp needed
 987 0078 80BD     		pop	{r7, pc}
 988              	.L57:
 989 007a 00BF     		.align	2
 990              	.L56:
 991 007c 00000000 		.word	pxCurrentTimerList
 992              		.cfi_endproc
 993              	.LFE13:
 995              		.section	.text.prvTimerTask,"ax",%progbits
 996              		.align	1
 997              		.syntax unified
 998              		.thumb
 999              		.thumb_func
 1000              		.fpu fpv4-sp-d16
 1002              	prvTimerTask:
 1003              	.LFB14:
 500:Firmware/Middlewares/Third_Party/FreeRTOS/Source/timers.c **** /*-----------------------------------------------------------*/
 501:Firmware/Middlewares/Third_Party/FreeRTOS/Source/timers.c **** 
 502:Firmware/Middlewares/Third_Party/FreeRTOS/Source/timers.c **** static void prvTimerTask( void *pvParameters )
 503:Firmware/Middlewares/Third_Party/FreeRTOS/Source/timers.c **** {
 1004              		.loc 1 503 0
 1005              		.cfi_startproc
 1006              		@ args = 0, pretend = 0, frame = 16
 1007              		@ frame_needed = 1, uses_anonymous_args = 0
 1008 0000 80B5     		push	{r7, lr}
 1009              	.LCFI54:
 1010              		.cfi_def_cfa_offset 8
 1011              		.cfi_offset 7, -8
 1012              		.cfi_offset 14, -4
 1013 0002 84B0     		sub	sp, sp, #16
 1014              	.LCFI55:
 1015              		.cfi_def_cfa_offset 24
 1016 0004 00AF     		add	r7, sp, #0
 1017              	.LCFI56:
 1018              		.cfi_def_cfa_register 7
 1019 0006 7860     		str	r0, [r7, #4]
 1020              	.L59:
 504:Firmware/Middlewares/Third_Party/FreeRTOS/Source/timers.c **** TickType_t xNextExpireTime;
 505:Firmware/Middlewares/Third_Party/FreeRTOS/Source/timers.c **** BaseType_t xListWasEmpty;
 506:Firmware/Middlewares/Third_Party/FreeRTOS/Source/timers.c **** 
 507:Firmware/Middlewares/Third_Party/FreeRTOS/Source/timers.c **** 	/* Just to avoid compiler warnings. */
 508:Firmware/Middlewares/Third_Party/FreeRTOS/Source/timers.c **** 	( void ) pvParameters;
 509:Firmware/Middlewares/Third_Party/FreeRTOS/Source/timers.c **** 
 510:Firmware/Middlewares/Third_Party/FreeRTOS/Source/timers.c **** 	#if( configUSE_DAEMON_TASK_STARTUP_HOOK == 1 )
 511:Firmware/Middlewares/Third_Party/FreeRTOS/Source/timers.c **** 	{
 512:Firmware/Middlewares/Third_Party/FreeRTOS/Source/timers.c **** 		extern void vApplicationDaemonTaskStartupHook( void );
 513:Firmware/Middlewares/Third_Party/FreeRTOS/Source/timers.c **** 
 514:Firmware/Middlewares/Third_Party/FreeRTOS/Source/timers.c **** 		/* Allow the application writer to execute some code in the context of
 515:Firmware/Middlewares/Third_Party/FreeRTOS/Source/timers.c **** 		this task at the point the task starts executing.  This is useful if the
 516:Firmware/Middlewares/Third_Party/FreeRTOS/Source/timers.c **** 		application includes initialisation code that would benefit from
 517:Firmware/Middlewares/Third_Party/FreeRTOS/Source/timers.c **** 		executing after the scheduler has been started. */
 518:Firmware/Middlewares/Third_Party/FreeRTOS/Source/timers.c **** 		vApplicationDaemonTaskStartupHook();
 519:Firmware/Middlewares/Third_Party/FreeRTOS/Source/timers.c **** 	}
ARM GAS  /tmp/ccL996FO.s 			page 31


 520:Firmware/Middlewares/Third_Party/FreeRTOS/Source/timers.c **** 	#endif /* configUSE_DAEMON_TASK_STARTUP_HOOK */
 521:Firmware/Middlewares/Third_Party/FreeRTOS/Source/timers.c **** 
 522:Firmware/Middlewares/Third_Party/FreeRTOS/Source/timers.c **** 	for( ;; )
 523:Firmware/Middlewares/Third_Party/FreeRTOS/Source/timers.c **** 	{
 524:Firmware/Middlewares/Third_Party/FreeRTOS/Source/timers.c **** 		/* Query the timers list to see if it contains any timers, and if so,
 525:Firmware/Middlewares/Third_Party/FreeRTOS/Source/timers.c **** 		obtain the time at which the next timer will expire. */
 526:Firmware/Middlewares/Third_Party/FreeRTOS/Source/timers.c **** 		xNextExpireTime = prvGetNextExpireTime( &xListWasEmpty );
 1021              		.loc 1 526 0 discriminator 1
 1022 0008 07F10803 		add	r3, r7, #8
 1023 000c 1846     		mov	r0, r3
 1024 000e FFF7FEFF 		bl	prvGetNextExpireTime
 1025 0012 F860     		str	r0, [r7, #12]
 527:Firmware/Middlewares/Third_Party/FreeRTOS/Source/timers.c **** 
 528:Firmware/Middlewares/Third_Party/FreeRTOS/Source/timers.c **** 		/* If a timer has expired, process it.  Otherwise, block this task
 529:Firmware/Middlewares/Third_Party/FreeRTOS/Source/timers.c **** 		until either a timer does expire, or a command is received. */
 530:Firmware/Middlewares/Third_Party/FreeRTOS/Source/timers.c **** 		prvProcessTimerOrBlockTask( xNextExpireTime, xListWasEmpty );
 1026              		.loc 1 530 0 discriminator 1
 1027 0014 BB68     		ldr	r3, [r7, #8]
 1028 0016 1946     		mov	r1, r3
 1029 0018 F868     		ldr	r0, [r7, #12]
 1030 001a FFF7FEFF 		bl	prvProcessTimerOrBlockTask
 531:Firmware/Middlewares/Third_Party/FreeRTOS/Source/timers.c **** 
 532:Firmware/Middlewares/Third_Party/FreeRTOS/Source/timers.c **** 		/* Empty the command queue. */
 533:Firmware/Middlewares/Third_Party/FreeRTOS/Source/timers.c **** 		prvProcessReceivedCommands();
 1031              		.loc 1 533 0 discriminator 1
 1032 001e FFF7FEFF 		bl	prvProcessReceivedCommands
 526:Firmware/Middlewares/Third_Party/FreeRTOS/Source/timers.c **** 
 1033              		.loc 1 526 0 discriminator 1
 1034 0022 F1E7     		b	.L59
 1035              		.cfi_endproc
 1036              	.LFE14:
 1038              		.section	.text.prvProcessTimerOrBlockTask,"ax",%progbits
 1039              		.align	1
 1040              		.syntax unified
 1041              		.thumb
 1042              		.thumb_func
 1043              		.fpu fpv4-sp-d16
 1045              	prvProcessTimerOrBlockTask:
 1046              	.LFB15:
 534:Firmware/Middlewares/Third_Party/FreeRTOS/Source/timers.c **** 	}
 535:Firmware/Middlewares/Third_Party/FreeRTOS/Source/timers.c **** }
 536:Firmware/Middlewares/Third_Party/FreeRTOS/Source/timers.c **** /*-----------------------------------------------------------*/
 537:Firmware/Middlewares/Third_Party/FreeRTOS/Source/timers.c **** 
 538:Firmware/Middlewares/Third_Party/FreeRTOS/Source/timers.c **** static void prvProcessTimerOrBlockTask( const TickType_t xNextExpireTime, BaseType_t xListWasEmpty 
 539:Firmware/Middlewares/Third_Party/FreeRTOS/Source/timers.c **** {
 1047              		.loc 1 539 0
 1048              		.cfi_startproc
 1049              		@ args = 0, pretend = 0, frame = 16
 1050              		@ frame_needed = 1, uses_anonymous_args = 0
 1051 0000 80B5     		push	{r7, lr}
 1052              	.LCFI57:
 1053              		.cfi_def_cfa_offset 8
 1054              		.cfi_offset 7, -8
 1055              		.cfi_offset 14, -4
 1056 0002 84B0     		sub	sp, sp, #16
 1057              	.LCFI58:
 1058              		.cfi_def_cfa_offset 24
ARM GAS  /tmp/ccL996FO.s 			page 32


 1059 0004 00AF     		add	r7, sp, #0
 1060              	.LCFI59:
 1061              		.cfi_def_cfa_register 7
 1062 0006 7860     		str	r0, [r7, #4]
 1063 0008 3960     		str	r1, [r7]
 540:Firmware/Middlewares/Third_Party/FreeRTOS/Source/timers.c **** TickType_t xTimeNow;
 541:Firmware/Middlewares/Third_Party/FreeRTOS/Source/timers.c **** BaseType_t xTimerListsWereSwitched;
 542:Firmware/Middlewares/Third_Party/FreeRTOS/Source/timers.c **** 
 543:Firmware/Middlewares/Third_Party/FreeRTOS/Source/timers.c **** 	vTaskSuspendAll();
 1064              		.loc 1 543 0
 1065 000a FFF7FEFF 		bl	vTaskSuspendAll
 544:Firmware/Middlewares/Third_Party/FreeRTOS/Source/timers.c **** 	{
 545:Firmware/Middlewares/Third_Party/FreeRTOS/Source/timers.c **** 		/* Obtain the time now to make an assessment as to whether the timer
 546:Firmware/Middlewares/Third_Party/FreeRTOS/Source/timers.c **** 		has expired or not.  If obtaining the time causes the lists to switch
 547:Firmware/Middlewares/Third_Party/FreeRTOS/Source/timers.c **** 		then don't process this timer as any timers that remained in the list
 548:Firmware/Middlewares/Third_Party/FreeRTOS/Source/timers.c **** 		when the lists were switched will have been processed within the
 549:Firmware/Middlewares/Third_Party/FreeRTOS/Source/timers.c **** 		prvSampleTimeNow() function. */
 550:Firmware/Middlewares/Third_Party/FreeRTOS/Source/timers.c **** 		xTimeNow = prvSampleTimeNow( &xTimerListsWereSwitched );
 1066              		.loc 1 550 0
 1067 000e 07F10803 		add	r3, r7, #8
 1068 0012 1846     		mov	r0, r3
 1069 0014 FFF7FEFF 		bl	prvSampleTimeNow
 1070 0018 F860     		str	r0, [r7, #12]
 551:Firmware/Middlewares/Third_Party/FreeRTOS/Source/timers.c **** 		if( xTimerListsWereSwitched == pdFALSE )
 1071              		.loc 1 551 0
 1072 001a BB68     		ldr	r3, [r7, #8]
 1073 001c 002B     		cmp	r3, #0
 1074 001e 30D1     		bne	.L61
 552:Firmware/Middlewares/Third_Party/FreeRTOS/Source/timers.c **** 		{
 553:Firmware/Middlewares/Third_Party/FreeRTOS/Source/timers.c **** 			/* The tick count has not overflowed, has the timer expired? */
 554:Firmware/Middlewares/Third_Party/FreeRTOS/Source/timers.c **** 			if( ( xListWasEmpty == pdFALSE ) && ( xNextExpireTime <= xTimeNow ) )
 1075              		.loc 1 554 0
 1076 0020 3B68     		ldr	r3, [r7]
 1077 0022 002B     		cmp	r3, #0
 1078 0024 0AD1     		bne	.L62
 1079              		.loc 1 554 0 is_stmt 0 discriminator 1
 1080 0026 7A68     		ldr	r2, [r7, #4]
 1081 0028 FB68     		ldr	r3, [r7, #12]
 1082 002a 9A42     		cmp	r2, r3
 1083 002c 06D8     		bhi	.L62
 555:Firmware/Middlewares/Third_Party/FreeRTOS/Source/timers.c **** 			{
 556:Firmware/Middlewares/Third_Party/FreeRTOS/Source/timers.c **** 				( void ) xTaskResumeAll();
 1084              		.loc 1 556 0 is_stmt 1
 1085 002e FFF7FEFF 		bl	xTaskResumeAll
 557:Firmware/Middlewares/Third_Party/FreeRTOS/Source/timers.c **** 				prvProcessExpiredTimer( xNextExpireTime, xTimeNow );
 1086              		.loc 1 557 0
 1087 0032 F968     		ldr	r1, [r7, #12]
 1088 0034 7868     		ldr	r0, [r7, #4]
 1089 0036 FFF7FEFF 		bl	prvProcessExpiredTimer
 558:Firmware/Middlewares/Third_Party/FreeRTOS/Source/timers.c **** 			}
 559:Firmware/Middlewares/Third_Party/FreeRTOS/Source/timers.c **** 			else
 560:Firmware/Middlewares/Third_Party/FreeRTOS/Source/timers.c **** 			{
 561:Firmware/Middlewares/Third_Party/FreeRTOS/Source/timers.c **** 				/* The tick count has not overflowed, and the next expire
 562:Firmware/Middlewares/Third_Party/FreeRTOS/Source/timers.c **** 				time has not been reached yet.  This task should therefore
 563:Firmware/Middlewares/Third_Party/FreeRTOS/Source/timers.c **** 				block to wait for the next expire time or a command to be
 564:Firmware/Middlewares/Third_Party/FreeRTOS/Source/timers.c **** 				received - whichever comes first.  The following line cannot
 565:Firmware/Middlewares/Third_Party/FreeRTOS/Source/timers.c **** 				be reached unless xNextExpireTime > xTimeNow, except in the
ARM GAS  /tmp/ccL996FO.s 			page 33


 566:Firmware/Middlewares/Third_Party/FreeRTOS/Source/timers.c **** 				case when the current timer list is empty. */
 567:Firmware/Middlewares/Third_Party/FreeRTOS/Source/timers.c **** 				if( xListWasEmpty != pdFALSE )
 568:Firmware/Middlewares/Third_Party/FreeRTOS/Source/timers.c **** 				{
 569:Firmware/Middlewares/Third_Party/FreeRTOS/Source/timers.c **** 					/* The current timer list is empty - is the overflow list
 570:Firmware/Middlewares/Third_Party/FreeRTOS/Source/timers.c **** 					also empty? */
 571:Firmware/Middlewares/Third_Party/FreeRTOS/Source/timers.c **** 					xListWasEmpty = listLIST_IS_EMPTY( pxOverflowTimerList );
 572:Firmware/Middlewares/Third_Party/FreeRTOS/Source/timers.c **** 				}
 573:Firmware/Middlewares/Third_Party/FreeRTOS/Source/timers.c **** 
 574:Firmware/Middlewares/Third_Party/FreeRTOS/Source/timers.c **** 				vQueueWaitForMessageRestricted( xTimerQueue, ( xNextExpireTime - xTimeNow ), xListWasEmpty );
 575:Firmware/Middlewares/Third_Party/FreeRTOS/Source/timers.c **** 
 576:Firmware/Middlewares/Third_Party/FreeRTOS/Source/timers.c **** 				if( xTaskResumeAll() == pdFALSE )
 577:Firmware/Middlewares/Third_Party/FreeRTOS/Source/timers.c **** 				{
 578:Firmware/Middlewares/Third_Party/FreeRTOS/Source/timers.c **** 					/* Yield to wait for either a command to arrive, or the
 579:Firmware/Middlewares/Third_Party/FreeRTOS/Source/timers.c **** 					block time to expire.  If a command arrived between the
 580:Firmware/Middlewares/Third_Party/FreeRTOS/Source/timers.c **** 					critical section being exited and this yield then the yield
 581:Firmware/Middlewares/Third_Party/FreeRTOS/Source/timers.c **** 					will not cause the task to block. */
 582:Firmware/Middlewares/Third_Party/FreeRTOS/Source/timers.c **** 					portYIELD_WITHIN_API();
 583:Firmware/Middlewares/Third_Party/FreeRTOS/Source/timers.c **** 				}
 584:Firmware/Middlewares/Third_Party/FreeRTOS/Source/timers.c **** 				else
 585:Firmware/Middlewares/Third_Party/FreeRTOS/Source/timers.c **** 				{
 586:Firmware/Middlewares/Third_Party/FreeRTOS/Source/timers.c **** 					mtCOVERAGE_TEST_MARKER();
 587:Firmware/Middlewares/Third_Party/FreeRTOS/Source/timers.c **** 				}
 588:Firmware/Middlewares/Third_Party/FreeRTOS/Source/timers.c **** 			}
 589:Firmware/Middlewares/Third_Party/FreeRTOS/Source/timers.c **** 		}
 590:Firmware/Middlewares/Third_Party/FreeRTOS/Source/timers.c **** 		else
 591:Firmware/Middlewares/Third_Party/FreeRTOS/Source/timers.c **** 		{
 592:Firmware/Middlewares/Third_Party/FreeRTOS/Source/timers.c **** 			( void ) xTaskResumeAll();
 593:Firmware/Middlewares/Third_Party/FreeRTOS/Source/timers.c **** 		}
 594:Firmware/Middlewares/Third_Party/FreeRTOS/Source/timers.c **** 	}
 595:Firmware/Middlewares/Third_Party/FreeRTOS/Source/timers.c **** }
 1090              		.loc 1 595 0
 1091 003a 24E0     		b	.L66
 1092              	.L62:
 567:Firmware/Middlewares/Third_Party/FreeRTOS/Source/timers.c **** 				{
 1093              		.loc 1 567 0
 1094 003c 3B68     		ldr	r3, [r7]
 1095 003e 002B     		cmp	r3, #0
 1096 0040 08D0     		beq	.L64
 571:Firmware/Middlewares/Third_Party/FreeRTOS/Source/timers.c **** 				}
 1097              		.loc 1 571 0
 1098 0042 134B     		ldr	r3, .L67
 1099 0044 1B68     		ldr	r3, [r3]
 1100 0046 1B68     		ldr	r3, [r3]
 1101 0048 002B     		cmp	r3, #0
 1102 004a 0CBF     		ite	eq
 1103 004c 0123     		moveq	r3, #1
 1104 004e 0023     		movne	r3, #0
 1105 0050 DBB2     		uxtb	r3, r3
 1106 0052 3B60     		str	r3, [r7]
 1107              	.L64:
 574:Firmware/Middlewares/Third_Party/FreeRTOS/Source/timers.c **** 
 1108              		.loc 1 574 0
 1109 0054 0F4B     		ldr	r3, .L67+4
 1110 0056 1868     		ldr	r0, [r3]
 1111 0058 7A68     		ldr	r2, [r7, #4]
 1112 005a FB68     		ldr	r3, [r7, #12]
 1113 005c D31A     		subs	r3, r2, r3
ARM GAS  /tmp/ccL996FO.s 			page 34


 1114 005e 3A68     		ldr	r2, [r7]
 1115 0060 1946     		mov	r1, r3
 1116 0062 FFF7FEFF 		bl	vQueueWaitForMessageRestricted
 576:Firmware/Middlewares/Third_Party/FreeRTOS/Source/timers.c **** 				{
 1117              		.loc 1 576 0
 1118 0066 FFF7FEFF 		bl	xTaskResumeAll
 1119 006a 0346     		mov	r3, r0
 1120 006c 002B     		cmp	r3, #0
 1121 006e 0AD1     		bne	.L66
 582:Firmware/Middlewares/Third_Party/FreeRTOS/Source/timers.c **** 				}
 1122              		.loc 1 582 0
 1123 0070 094B     		ldr	r3, .L67+8
 1124 0072 4FF08052 		mov	r2, #268435456
 1125 0076 1A60     		str	r2, [r3]
 1126              		.syntax unified
 1127              	@ 582 "Firmware/Middlewares/Third_Party/FreeRTOS/Source/timers.c" 1
 1128 0078 BFF34F8F 		dsb
 1129              	@ 0 "" 2
 1130              	@ 582 "Firmware/Middlewares/Third_Party/FreeRTOS/Source/timers.c" 1
 1131 007c BFF36F8F 		isb
 1132              	@ 0 "" 2
 1133              		.loc 1 595 0
 1134              		.thumb
 1135              		.syntax unified
 1136 0080 01E0     		b	.L66
 1137              	.L61:
 592:Firmware/Middlewares/Third_Party/FreeRTOS/Source/timers.c **** 		}
 1138              		.loc 1 592 0
 1139 0082 FFF7FEFF 		bl	xTaskResumeAll
 1140              	.L66:
 1141              		.loc 1 595 0
 1142 0086 00BF     		nop
 1143 0088 1037     		adds	r7, r7, #16
 1144              	.LCFI60:
 1145              		.cfi_def_cfa_offset 8
 1146 008a BD46     		mov	sp, r7
 1147              	.LCFI61:
 1148              		.cfi_def_cfa_register 13
 1149              		@ sp needed
 1150 008c 80BD     		pop	{r7, pc}
 1151              	.L68:
 1152 008e 00BF     		.align	2
 1153              	.L67:
 1154 0090 00000000 		.word	pxOverflowTimerList
 1155 0094 00000000 		.word	xTimerQueue
 1156 0098 04ED00E0 		.word	-536810236
 1157              		.cfi_endproc
 1158              	.LFE15:
 1160              		.section	.text.prvGetNextExpireTime,"ax",%progbits
 1161              		.align	1
 1162              		.syntax unified
 1163              		.thumb
 1164              		.thumb_func
 1165              		.fpu fpv4-sp-d16
 1167              	prvGetNextExpireTime:
 1168              	.LFB16:
 596:Firmware/Middlewares/Third_Party/FreeRTOS/Source/timers.c **** /*-----------------------------------------------------------*/
ARM GAS  /tmp/ccL996FO.s 			page 35


 597:Firmware/Middlewares/Third_Party/FreeRTOS/Source/timers.c **** 
 598:Firmware/Middlewares/Third_Party/FreeRTOS/Source/timers.c **** static TickType_t prvGetNextExpireTime( BaseType_t * const pxListWasEmpty )
 599:Firmware/Middlewares/Third_Party/FreeRTOS/Source/timers.c **** {
 1169              		.loc 1 599 0
 1170              		.cfi_startproc
 1171              		@ args = 0, pretend = 0, frame = 16
 1172              		@ frame_needed = 1, uses_anonymous_args = 0
 1173              		@ link register save eliminated.
 1174 0000 80B4     		push	{r7}
 1175              	.LCFI62:
 1176              		.cfi_def_cfa_offset 4
 1177              		.cfi_offset 7, -4
 1178 0002 85B0     		sub	sp, sp, #20
 1179              	.LCFI63:
 1180              		.cfi_def_cfa_offset 24
 1181 0004 00AF     		add	r7, sp, #0
 1182              	.LCFI64:
 1183              		.cfi_def_cfa_register 7
 1184 0006 7860     		str	r0, [r7, #4]
 600:Firmware/Middlewares/Third_Party/FreeRTOS/Source/timers.c **** TickType_t xNextExpireTime;
 601:Firmware/Middlewares/Third_Party/FreeRTOS/Source/timers.c **** 
 602:Firmware/Middlewares/Third_Party/FreeRTOS/Source/timers.c **** 	/* Timers are listed in expiry time order, with the head of the list
 603:Firmware/Middlewares/Third_Party/FreeRTOS/Source/timers.c **** 	referencing the task that will expire first.  Obtain the time at which
 604:Firmware/Middlewares/Third_Party/FreeRTOS/Source/timers.c **** 	the timer with the nearest expiry time will expire.  If there are no
 605:Firmware/Middlewares/Third_Party/FreeRTOS/Source/timers.c **** 	active timers then just set the next expire time to 0.  That will cause
 606:Firmware/Middlewares/Third_Party/FreeRTOS/Source/timers.c **** 	this task to unblock when the tick count overflows, at which point the
 607:Firmware/Middlewares/Third_Party/FreeRTOS/Source/timers.c **** 	timer lists will be switched and the next expiry time can be
 608:Firmware/Middlewares/Third_Party/FreeRTOS/Source/timers.c **** 	re-assessed.  */
 609:Firmware/Middlewares/Third_Party/FreeRTOS/Source/timers.c **** 	*pxListWasEmpty = listLIST_IS_EMPTY( pxCurrentTimerList );
 1185              		.loc 1 609 0
 1186 0008 0E4B     		ldr	r3, .L73
 1187 000a 1B68     		ldr	r3, [r3]
 1188 000c 1B68     		ldr	r3, [r3]
 1189 000e 002B     		cmp	r3, #0
 1190 0010 0CBF     		ite	eq
 1191 0012 0123     		moveq	r3, #1
 1192 0014 0023     		movne	r3, #0
 1193 0016 DBB2     		uxtb	r3, r3
 1194 0018 1A46     		mov	r2, r3
 1195 001a 7B68     		ldr	r3, [r7, #4]
 1196 001c 1A60     		str	r2, [r3]
 610:Firmware/Middlewares/Third_Party/FreeRTOS/Source/timers.c **** 	if( *pxListWasEmpty == pdFALSE )
 1197              		.loc 1 610 0
 1198 001e 7B68     		ldr	r3, [r7, #4]
 1199 0020 1B68     		ldr	r3, [r3]
 1200 0022 002B     		cmp	r3, #0
 1201 0024 05D1     		bne	.L70
 611:Firmware/Middlewares/Third_Party/FreeRTOS/Source/timers.c **** 	{
 612:Firmware/Middlewares/Third_Party/FreeRTOS/Source/timers.c **** 		xNextExpireTime = listGET_ITEM_VALUE_OF_HEAD_ENTRY( pxCurrentTimerList );
 1202              		.loc 1 612 0
 1203 0026 074B     		ldr	r3, .L73
 1204 0028 1B68     		ldr	r3, [r3]
 1205 002a DB68     		ldr	r3, [r3, #12]
 1206 002c 1B68     		ldr	r3, [r3]
 1207 002e FB60     		str	r3, [r7, #12]
 1208 0030 01E0     		b	.L71
 1209              	.L70:
ARM GAS  /tmp/ccL996FO.s 			page 36


 613:Firmware/Middlewares/Third_Party/FreeRTOS/Source/timers.c **** 	}
 614:Firmware/Middlewares/Third_Party/FreeRTOS/Source/timers.c **** 	else
 615:Firmware/Middlewares/Third_Party/FreeRTOS/Source/timers.c **** 	{
 616:Firmware/Middlewares/Third_Party/FreeRTOS/Source/timers.c **** 		/* Ensure the task unblocks when the tick count rolls over. */
 617:Firmware/Middlewares/Third_Party/FreeRTOS/Source/timers.c **** 		xNextExpireTime = ( TickType_t ) 0U;
 1210              		.loc 1 617 0
 1211 0032 0023     		movs	r3, #0
 1212 0034 FB60     		str	r3, [r7, #12]
 1213              	.L71:
 618:Firmware/Middlewares/Third_Party/FreeRTOS/Source/timers.c **** 	}
 619:Firmware/Middlewares/Third_Party/FreeRTOS/Source/timers.c **** 
 620:Firmware/Middlewares/Third_Party/FreeRTOS/Source/timers.c **** 	return xNextExpireTime;
 1214              		.loc 1 620 0
 1215 0036 FB68     		ldr	r3, [r7, #12]
 621:Firmware/Middlewares/Third_Party/FreeRTOS/Source/timers.c **** }
 1216              		.loc 1 621 0
 1217 0038 1846     		mov	r0, r3
 1218 003a 1437     		adds	r7, r7, #20
 1219              	.LCFI65:
 1220              		.cfi_def_cfa_offset 4
 1221 003c BD46     		mov	sp, r7
 1222              	.LCFI66:
 1223              		.cfi_def_cfa_register 13
 1224              		@ sp needed
 1225 003e 5DF8047B 		ldr	r7, [sp], #4
 1226              	.LCFI67:
 1227              		.cfi_restore 7
 1228              		.cfi_def_cfa_offset 0
 1229 0042 7047     		bx	lr
 1230              	.L74:
 1231              		.align	2
 1232              	.L73:
 1233 0044 00000000 		.word	pxCurrentTimerList
 1234              		.cfi_endproc
 1235              	.LFE16:
 1237              		.section	.text.prvSampleTimeNow,"ax",%progbits
 1238              		.align	1
 1239              		.syntax unified
 1240              		.thumb
 1241              		.thumb_func
 1242              		.fpu fpv4-sp-d16
 1244              	prvSampleTimeNow:
 1245              	.LFB17:
 622:Firmware/Middlewares/Third_Party/FreeRTOS/Source/timers.c **** /*-----------------------------------------------------------*/
 623:Firmware/Middlewares/Third_Party/FreeRTOS/Source/timers.c **** 
 624:Firmware/Middlewares/Third_Party/FreeRTOS/Source/timers.c **** static TickType_t prvSampleTimeNow( BaseType_t * const pxTimerListsWereSwitched )
 625:Firmware/Middlewares/Third_Party/FreeRTOS/Source/timers.c **** {
 1246              		.loc 1 625 0
 1247              		.cfi_startproc
 1248              		@ args = 0, pretend = 0, frame = 16
 1249              		@ frame_needed = 1, uses_anonymous_args = 0
 1250 0000 80B5     		push	{r7, lr}
 1251              	.LCFI68:
 1252              		.cfi_def_cfa_offset 8
 1253              		.cfi_offset 7, -8
 1254              		.cfi_offset 14, -4
 1255 0002 84B0     		sub	sp, sp, #16
ARM GAS  /tmp/ccL996FO.s 			page 37


 1256              	.LCFI69:
 1257              		.cfi_def_cfa_offset 24
 1258 0004 00AF     		add	r7, sp, #0
 1259              	.LCFI70:
 1260              		.cfi_def_cfa_register 7
 1261 0006 7860     		str	r0, [r7, #4]
 626:Firmware/Middlewares/Third_Party/FreeRTOS/Source/timers.c **** TickType_t xTimeNow;
 627:Firmware/Middlewares/Third_Party/FreeRTOS/Source/timers.c **** PRIVILEGED_DATA static TickType_t xLastTime = ( TickType_t ) 0U; /*lint !e956 Variable is only acce
 628:Firmware/Middlewares/Third_Party/FreeRTOS/Source/timers.c **** 
 629:Firmware/Middlewares/Third_Party/FreeRTOS/Source/timers.c **** 	xTimeNow = xTaskGetTickCount();
 1262              		.loc 1 629 0
 1263 0008 FFF7FEFF 		bl	xTaskGetTickCount
 1264 000c F860     		str	r0, [r7, #12]
 630:Firmware/Middlewares/Third_Party/FreeRTOS/Source/timers.c **** 
 631:Firmware/Middlewares/Third_Party/FreeRTOS/Source/timers.c **** 	if( xTimeNow < xLastTime )
 1265              		.loc 1 631 0
 1266 000e 0B4B     		ldr	r3, .L79
 1267 0010 1B68     		ldr	r3, [r3]
 1268 0012 FA68     		ldr	r2, [r7, #12]
 1269 0014 9A42     		cmp	r2, r3
 1270 0016 05D2     		bcs	.L76
 632:Firmware/Middlewares/Third_Party/FreeRTOS/Source/timers.c **** 	{
 633:Firmware/Middlewares/Third_Party/FreeRTOS/Source/timers.c **** 		prvSwitchTimerLists();
 1271              		.loc 1 633 0
 1272 0018 FFF7FEFF 		bl	prvSwitchTimerLists
 634:Firmware/Middlewares/Third_Party/FreeRTOS/Source/timers.c **** 		*pxTimerListsWereSwitched = pdTRUE;
 1273              		.loc 1 634 0
 1274 001c 7B68     		ldr	r3, [r7, #4]
 1275 001e 0122     		movs	r2, #1
 1276 0020 1A60     		str	r2, [r3]
 1277 0022 02E0     		b	.L77
 1278              	.L76:
 635:Firmware/Middlewares/Third_Party/FreeRTOS/Source/timers.c **** 	}
 636:Firmware/Middlewares/Third_Party/FreeRTOS/Source/timers.c **** 	else
 637:Firmware/Middlewares/Third_Party/FreeRTOS/Source/timers.c **** 	{
 638:Firmware/Middlewares/Third_Party/FreeRTOS/Source/timers.c **** 		*pxTimerListsWereSwitched = pdFALSE;
 1279              		.loc 1 638 0
 1280 0024 7B68     		ldr	r3, [r7, #4]
 1281 0026 0022     		movs	r2, #0
 1282 0028 1A60     		str	r2, [r3]
 1283              	.L77:
 639:Firmware/Middlewares/Third_Party/FreeRTOS/Source/timers.c **** 	}
 640:Firmware/Middlewares/Third_Party/FreeRTOS/Source/timers.c **** 
 641:Firmware/Middlewares/Third_Party/FreeRTOS/Source/timers.c **** 	xLastTime = xTimeNow;
 1284              		.loc 1 641 0
 1285 002a 044A     		ldr	r2, .L79
 1286 002c FB68     		ldr	r3, [r7, #12]
 1287 002e 1360     		str	r3, [r2]
 642:Firmware/Middlewares/Third_Party/FreeRTOS/Source/timers.c **** 
 643:Firmware/Middlewares/Third_Party/FreeRTOS/Source/timers.c **** 	return xTimeNow;
 1288              		.loc 1 643 0
 1289 0030 FB68     		ldr	r3, [r7, #12]
 644:Firmware/Middlewares/Third_Party/FreeRTOS/Source/timers.c **** }
 1290              		.loc 1 644 0
 1291 0032 1846     		mov	r0, r3
 1292 0034 1037     		adds	r7, r7, #16
 1293              	.LCFI71:
ARM GAS  /tmp/ccL996FO.s 			page 38


 1294              		.cfi_def_cfa_offset 8
 1295 0036 BD46     		mov	sp, r7
 1296              	.LCFI72:
 1297              		.cfi_def_cfa_register 13
 1298              		@ sp needed
 1299 0038 80BD     		pop	{r7, pc}
 1300              	.L80:
 1301 003a 00BF     		.align	2
 1302              	.L79:
 1303 003c 00000000 		.word	xLastTime.6740
 1304              		.cfi_endproc
 1305              	.LFE17:
 1307              		.section	.text.prvInsertTimerInActiveList,"ax",%progbits
 1308              		.align	1
 1309              		.syntax unified
 1310              		.thumb
 1311              		.thumb_func
 1312              		.fpu fpv4-sp-d16
 1314              	prvInsertTimerInActiveList:
 1315              	.LFB18:
 645:Firmware/Middlewares/Third_Party/FreeRTOS/Source/timers.c **** /*-----------------------------------------------------------*/
 646:Firmware/Middlewares/Third_Party/FreeRTOS/Source/timers.c **** 
 647:Firmware/Middlewares/Third_Party/FreeRTOS/Source/timers.c **** static BaseType_t prvInsertTimerInActiveList( Timer_t * const pxTimer, const TickType_t xNextExpiry
 648:Firmware/Middlewares/Third_Party/FreeRTOS/Source/timers.c **** {
 1316              		.loc 1 648 0
 1317              		.cfi_startproc
 1318              		@ args = 0, pretend = 0, frame = 24
 1319              		@ frame_needed = 1, uses_anonymous_args = 0
 1320 0000 80B5     		push	{r7, lr}
 1321              	.LCFI73:
 1322              		.cfi_def_cfa_offset 8
 1323              		.cfi_offset 7, -8
 1324              		.cfi_offset 14, -4
 1325 0002 86B0     		sub	sp, sp, #24
 1326              	.LCFI74:
 1327              		.cfi_def_cfa_offset 32
 1328 0004 00AF     		add	r7, sp, #0
 1329              	.LCFI75:
 1330              		.cfi_def_cfa_register 7
 1331 0006 F860     		str	r0, [r7, #12]
 1332 0008 B960     		str	r1, [r7, #8]
 1333 000a 7A60     		str	r2, [r7, #4]
 1334 000c 3B60     		str	r3, [r7]
 649:Firmware/Middlewares/Third_Party/FreeRTOS/Source/timers.c **** BaseType_t xProcessTimerNow = pdFALSE;
 1335              		.loc 1 649 0
 1336 000e 0023     		movs	r3, #0
 1337 0010 7B61     		str	r3, [r7, #20]
 650:Firmware/Middlewares/Third_Party/FreeRTOS/Source/timers.c **** 
 651:Firmware/Middlewares/Third_Party/FreeRTOS/Source/timers.c **** 	listSET_LIST_ITEM_VALUE( &( pxTimer->xTimerListItem ), xNextExpiryTime );
 1338              		.loc 1 651 0
 1339 0012 FB68     		ldr	r3, [r7, #12]
 1340 0014 BA68     		ldr	r2, [r7, #8]
 1341 0016 5A60     		str	r2, [r3, #4]
 652:Firmware/Middlewares/Third_Party/FreeRTOS/Source/timers.c **** 	listSET_LIST_ITEM_OWNER( &( pxTimer->xTimerListItem ), pxTimer );
 1342              		.loc 1 652 0
 1343 0018 FB68     		ldr	r3, [r7, #12]
 1344 001a FA68     		ldr	r2, [r7, #12]
ARM GAS  /tmp/ccL996FO.s 			page 39


 1345 001c 1A61     		str	r2, [r3, #16]
 653:Firmware/Middlewares/Third_Party/FreeRTOS/Source/timers.c **** 
 654:Firmware/Middlewares/Third_Party/FreeRTOS/Source/timers.c **** 	if( xNextExpiryTime <= xTimeNow )
 1346              		.loc 1 654 0
 1347 001e BA68     		ldr	r2, [r7, #8]
 1348 0020 7B68     		ldr	r3, [r7, #4]
 1349 0022 9A42     		cmp	r2, r3
 1350 0024 12D8     		bhi	.L82
 655:Firmware/Middlewares/Third_Party/FreeRTOS/Source/timers.c **** 	{
 656:Firmware/Middlewares/Third_Party/FreeRTOS/Source/timers.c **** 		/* Has the expiry time elapsed between the command to start/reset a
 657:Firmware/Middlewares/Third_Party/FreeRTOS/Source/timers.c **** 		timer was issued, and the time the command was processed? */
 658:Firmware/Middlewares/Third_Party/FreeRTOS/Source/timers.c **** 		if( ( ( TickType_t ) ( xTimeNow - xCommandTime ) ) >= pxTimer->xTimerPeriodInTicks ) /*lint !e961
 1351              		.loc 1 658 0
 1352 0026 7A68     		ldr	r2, [r7, #4]
 1353 0028 3B68     		ldr	r3, [r7]
 1354 002a D21A     		subs	r2, r2, r3
 1355 002c FB68     		ldr	r3, [r7, #12]
 1356 002e 9B69     		ldr	r3, [r3, #24]
 1357 0030 9A42     		cmp	r2, r3
 1358 0032 02D3     		bcc	.L83
 659:Firmware/Middlewares/Third_Party/FreeRTOS/Source/timers.c **** 		{
 660:Firmware/Middlewares/Third_Party/FreeRTOS/Source/timers.c **** 			/* The time between a command being issued and the command being
 661:Firmware/Middlewares/Third_Party/FreeRTOS/Source/timers.c **** 			processed actually exceeds the timers period.  */
 662:Firmware/Middlewares/Third_Party/FreeRTOS/Source/timers.c **** 			xProcessTimerNow = pdTRUE;
 1359              		.loc 1 662 0
 1360 0034 0123     		movs	r3, #1
 1361 0036 7B61     		str	r3, [r7, #20]
 1362 0038 1BE0     		b	.L85
 1363              	.L83:
 663:Firmware/Middlewares/Third_Party/FreeRTOS/Source/timers.c **** 		}
 664:Firmware/Middlewares/Third_Party/FreeRTOS/Source/timers.c **** 		else
 665:Firmware/Middlewares/Third_Party/FreeRTOS/Source/timers.c **** 		{
 666:Firmware/Middlewares/Third_Party/FreeRTOS/Source/timers.c **** 			vListInsert( pxOverflowTimerList, &( pxTimer->xTimerListItem ) );
 1364              		.loc 1 666 0
 1365 003a 104B     		ldr	r3, .L88
 1366 003c 1A68     		ldr	r2, [r3]
 1367 003e FB68     		ldr	r3, [r7, #12]
 1368 0040 0433     		adds	r3, r3, #4
 1369 0042 1946     		mov	r1, r3
 1370 0044 1046     		mov	r0, r2
 1371 0046 FFF7FEFF 		bl	vListInsert
 1372 004a 12E0     		b	.L85
 1373              	.L82:
 667:Firmware/Middlewares/Third_Party/FreeRTOS/Source/timers.c **** 		}
 668:Firmware/Middlewares/Third_Party/FreeRTOS/Source/timers.c **** 	}
 669:Firmware/Middlewares/Third_Party/FreeRTOS/Source/timers.c **** 	else
 670:Firmware/Middlewares/Third_Party/FreeRTOS/Source/timers.c **** 	{
 671:Firmware/Middlewares/Third_Party/FreeRTOS/Source/timers.c **** 		if( ( xTimeNow < xCommandTime ) && ( xNextExpiryTime >= xCommandTime ) )
 1374              		.loc 1 671 0
 1375 004c 7A68     		ldr	r2, [r7, #4]
 1376 004e 3B68     		ldr	r3, [r7]
 1377 0050 9A42     		cmp	r2, r3
 1378 0052 06D2     		bcs	.L86
 1379              		.loc 1 671 0 is_stmt 0 discriminator 1
 1380 0054 BA68     		ldr	r2, [r7, #8]
 1381 0056 3B68     		ldr	r3, [r7]
 1382 0058 9A42     		cmp	r2, r3
ARM GAS  /tmp/ccL996FO.s 			page 40


 1383 005a 02D3     		bcc	.L86
 672:Firmware/Middlewares/Third_Party/FreeRTOS/Source/timers.c **** 		{
 673:Firmware/Middlewares/Third_Party/FreeRTOS/Source/timers.c **** 			/* If, since the command was issued, the tick count has overflowed
 674:Firmware/Middlewares/Third_Party/FreeRTOS/Source/timers.c **** 			but the expiry time has not, then the timer must have already passed
 675:Firmware/Middlewares/Third_Party/FreeRTOS/Source/timers.c **** 			its expiry time and should be processed immediately. */
 676:Firmware/Middlewares/Third_Party/FreeRTOS/Source/timers.c **** 			xProcessTimerNow = pdTRUE;
 1384              		.loc 1 676 0 is_stmt 1
 1385 005c 0123     		movs	r3, #1
 1386 005e 7B61     		str	r3, [r7, #20]
 1387 0060 07E0     		b	.L85
 1388              	.L86:
 677:Firmware/Middlewares/Third_Party/FreeRTOS/Source/timers.c **** 		}
 678:Firmware/Middlewares/Third_Party/FreeRTOS/Source/timers.c **** 		else
 679:Firmware/Middlewares/Third_Party/FreeRTOS/Source/timers.c **** 		{
 680:Firmware/Middlewares/Third_Party/FreeRTOS/Source/timers.c **** 			vListInsert( pxCurrentTimerList, &( pxTimer->xTimerListItem ) );
 1389              		.loc 1 680 0
 1390 0062 074B     		ldr	r3, .L88+4
 1391 0064 1A68     		ldr	r2, [r3]
 1392 0066 FB68     		ldr	r3, [r7, #12]
 1393 0068 0433     		adds	r3, r3, #4
 1394 006a 1946     		mov	r1, r3
 1395 006c 1046     		mov	r0, r2
 1396 006e FFF7FEFF 		bl	vListInsert
 1397              	.L85:
 681:Firmware/Middlewares/Third_Party/FreeRTOS/Source/timers.c **** 		}
 682:Firmware/Middlewares/Third_Party/FreeRTOS/Source/timers.c **** 	}
 683:Firmware/Middlewares/Third_Party/FreeRTOS/Source/timers.c **** 
 684:Firmware/Middlewares/Third_Party/FreeRTOS/Source/timers.c **** 	return xProcessTimerNow;
 1398              		.loc 1 684 0
 1399 0072 7B69     		ldr	r3, [r7, #20]
 685:Firmware/Middlewares/Third_Party/FreeRTOS/Source/timers.c **** }
 1400              		.loc 1 685 0
 1401 0074 1846     		mov	r0, r3
 1402 0076 1837     		adds	r7, r7, #24
 1403              	.LCFI76:
 1404              		.cfi_def_cfa_offset 8
 1405 0078 BD46     		mov	sp, r7
 1406              	.LCFI77:
 1407              		.cfi_def_cfa_register 13
 1408              		@ sp needed
 1409 007a 80BD     		pop	{r7, pc}
 1410              	.L89:
 1411              		.align	2
 1412              	.L88:
 1413 007c 00000000 		.word	pxOverflowTimerList
 1414 0080 00000000 		.word	pxCurrentTimerList
 1415              		.cfi_endproc
 1416              	.LFE18:
 1418              		.section	.text.prvProcessReceivedCommands,"ax",%progbits
 1419              		.align	1
 1420              		.syntax unified
 1421              		.thumb
 1422              		.thumb_func
 1423              		.fpu fpv4-sp-d16
 1425              	prvProcessReceivedCommands:
 1426              	.LFB19:
 686:Firmware/Middlewares/Third_Party/FreeRTOS/Source/timers.c **** /*-----------------------------------------------------------*/
ARM GAS  /tmp/ccL996FO.s 			page 41


 687:Firmware/Middlewares/Third_Party/FreeRTOS/Source/timers.c **** 
 688:Firmware/Middlewares/Third_Party/FreeRTOS/Source/timers.c **** static void	prvProcessReceivedCommands( void )
 689:Firmware/Middlewares/Third_Party/FreeRTOS/Source/timers.c **** {
 1427              		.loc 1 689 0
 1428              		.cfi_startproc
 1429              		@ args = 0, pretend = 0, frame = 48
 1430              		@ frame_needed = 1, uses_anonymous_args = 0
 1431 0000 80B5     		push	{r7, lr}
 1432              	.LCFI78:
 1433              		.cfi_def_cfa_offset 8
 1434              		.cfi_offset 7, -8
 1435              		.cfi_offset 14, -4
 1436 0002 8EB0     		sub	sp, sp, #56
 1437              	.LCFI79:
 1438              		.cfi_def_cfa_offset 64
 1439 0004 02AF     		add	r7, sp, #8
 1440              	.LCFI80:
 1441              		.cfi_def_cfa 7, 56
 690:Firmware/Middlewares/Third_Party/FreeRTOS/Source/timers.c **** DaemonTaskMessage_t xMessage;
 691:Firmware/Middlewares/Third_Party/FreeRTOS/Source/timers.c **** Timer_t *pxTimer;
 692:Firmware/Middlewares/Third_Party/FreeRTOS/Source/timers.c **** BaseType_t xTimerListsWereSwitched, xResult;
 693:Firmware/Middlewares/Third_Party/FreeRTOS/Source/timers.c **** TickType_t xTimeNow;
 694:Firmware/Middlewares/Third_Party/FreeRTOS/Source/timers.c **** 
 695:Firmware/Middlewares/Third_Party/FreeRTOS/Source/timers.c **** 	while( xQueueReceive( xTimerQueue, &xMessage, tmrNO_DELAY ) != pdFAIL ) /*lint !e603 xMessage does
 1442              		.loc 1 695 0
 1443 0006 99E0     		b	.L91
 1444              	.L107:
 696:Firmware/Middlewares/Third_Party/FreeRTOS/Source/timers.c **** 	{
 697:Firmware/Middlewares/Third_Party/FreeRTOS/Source/timers.c **** 		#if ( INCLUDE_xTimerPendFunctionCall == 1 )
 698:Firmware/Middlewares/Third_Party/FreeRTOS/Source/timers.c **** 		{
 699:Firmware/Middlewares/Third_Party/FreeRTOS/Source/timers.c **** 			/* Negative commands are pended function calls rather than timer
 700:Firmware/Middlewares/Third_Party/FreeRTOS/Source/timers.c **** 			commands. */
 701:Firmware/Middlewares/Third_Party/FreeRTOS/Source/timers.c **** 			if( xMessage.xMessageID < ( BaseType_t ) 0 )
 1445              		.loc 1 701 0
 1446 0008 7B68     		ldr	r3, [r7, #4]
 1447 000a 002B     		cmp	r3, #0
 1448 000c 17DA     		bge	.L92
 1449              	.LBB63:
 702:Firmware/Middlewares/Third_Party/FreeRTOS/Source/timers.c **** 			{
 703:Firmware/Middlewares/Third_Party/FreeRTOS/Source/timers.c **** 				const CallbackParameters_t * const pxCallback = &( xMessage.u.xCallbackParameters );
 1450              		.loc 1 703 0
 1451 000e 3B1D     		adds	r3, r7, #4
 1452 0010 0433     		adds	r3, r3, #4
 1453 0012 FB62     		str	r3, [r7, #44]
 704:Firmware/Middlewares/Third_Party/FreeRTOS/Source/timers.c **** 
 705:Firmware/Middlewares/Third_Party/FreeRTOS/Source/timers.c **** 				/* The timer uses the xCallbackParameters member to request a
 706:Firmware/Middlewares/Third_Party/FreeRTOS/Source/timers.c **** 				callback be executed.  Check the callback is not NULL. */
 707:Firmware/Middlewares/Third_Party/FreeRTOS/Source/timers.c **** 				configASSERT( pxCallback );
 1454              		.loc 1 707 0
 1455 0014 FB6A     		ldr	r3, [r7, #44]
 1456 0016 002B     		cmp	r3, #0
 1457 0018 09D1     		bne	.L93
 1458              	.LBB64:
 1459              	.LBB65:
 1460              		.loc 2 195 0 discriminator 1
 1461              		.syntax unified
 1462              	@ 195 "Firmware/Middlewares/Third_Party/FreeRTOS/Source/portable/GCC/ARM_CM4F/portmacro.h" 1
ARM GAS  /tmp/ccL996FO.s 			page 42


 1463 001a 4FF05003 			mov r3, #80												
 1464 001e 83F31188 		msr basepri, r3											
 1465 0022 BFF36F8F 		isb														
 1466 0026 BFF34F8F 		dsb														
 1467              	
 1468              	@ 0 "" 2
 1469              		.thumb
 1470              		.syntax unified
 1471 002a FB61     		str	r3, [r7, #28]
 1472              	.L94:
 1473              	.LBE65:
 1474              	.LBE64:
 1475              		.loc 1 707 0 discriminator 1
 1476 002c FEE7     		b	.L94
 1477              	.L93:
 708:Firmware/Middlewares/Third_Party/FreeRTOS/Source/timers.c **** 
 709:Firmware/Middlewares/Third_Party/FreeRTOS/Source/timers.c **** 				/* Call the function. */
 710:Firmware/Middlewares/Third_Party/FreeRTOS/Source/timers.c **** 				pxCallback->pxCallbackFunction( pxCallback->pvParameter1, pxCallback->ulParameter2 );
 1478              		.loc 1 710 0
 1479 002e FB6A     		ldr	r3, [r7, #44]
 1480 0030 1B68     		ldr	r3, [r3]
 1481 0032 FA6A     		ldr	r2, [r7, #44]
 1482 0034 5068     		ldr	r0, [r2, #4]
 1483 0036 FA6A     		ldr	r2, [r7, #44]
 1484 0038 9268     		ldr	r2, [r2, #8]
 1485 003a 1146     		mov	r1, r2
 1486 003c 9847     		blx	r3
 1487              	.LVL1:
 1488              	.L92:
 1489              	.LBE63:
 711:Firmware/Middlewares/Third_Party/FreeRTOS/Source/timers.c **** 			}
 712:Firmware/Middlewares/Third_Party/FreeRTOS/Source/timers.c **** 			else
 713:Firmware/Middlewares/Third_Party/FreeRTOS/Source/timers.c **** 			{
 714:Firmware/Middlewares/Third_Party/FreeRTOS/Source/timers.c **** 				mtCOVERAGE_TEST_MARKER();
 715:Firmware/Middlewares/Third_Party/FreeRTOS/Source/timers.c **** 			}
 716:Firmware/Middlewares/Third_Party/FreeRTOS/Source/timers.c **** 		}
 717:Firmware/Middlewares/Third_Party/FreeRTOS/Source/timers.c **** 		#endif /* INCLUDE_xTimerPendFunctionCall */
 718:Firmware/Middlewares/Third_Party/FreeRTOS/Source/timers.c **** 
 719:Firmware/Middlewares/Third_Party/FreeRTOS/Source/timers.c **** 		/* Commands that are positive are timer commands rather than pended
 720:Firmware/Middlewares/Third_Party/FreeRTOS/Source/timers.c **** 		function calls. */
 721:Firmware/Middlewares/Third_Party/FreeRTOS/Source/timers.c **** 		if( xMessage.xMessageID >= ( BaseType_t ) 0 )
 1490              		.loc 1 721 0
 1491 003e 7B68     		ldr	r3, [r7, #4]
 1492 0040 002B     		cmp	r3, #0
 1493 0042 7ADB     		blt	.L108
 722:Firmware/Middlewares/Third_Party/FreeRTOS/Source/timers.c **** 		{
 723:Firmware/Middlewares/Third_Party/FreeRTOS/Source/timers.c **** 			/* The messages uses the xTimerParameters member to work on a
 724:Firmware/Middlewares/Third_Party/FreeRTOS/Source/timers.c **** 			software timer. */
 725:Firmware/Middlewares/Third_Party/FreeRTOS/Source/timers.c **** 			pxTimer = xMessage.u.xTimerParameters.pxTimer;
 1494              		.loc 1 725 0
 1495 0044 FB68     		ldr	r3, [r7, #12]
 1496 0046 BB62     		str	r3, [r7, #40]
 726:Firmware/Middlewares/Third_Party/FreeRTOS/Source/timers.c **** 
 727:Firmware/Middlewares/Third_Party/FreeRTOS/Source/timers.c **** 			if( listIS_CONTAINED_WITHIN( NULL, &( pxTimer->xTimerListItem ) ) == pdFALSE ) /*lint !e961. The
 1497              		.loc 1 727 0
 1498 0048 BB6A     		ldr	r3, [r7, #40]
 1499 004a 5B69     		ldr	r3, [r3, #20]
ARM GAS  /tmp/ccL996FO.s 			page 43


 1500 004c 002B     		cmp	r3, #0
 1501 004e 04D0     		beq	.L95
 728:Firmware/Middlewares/Third_Party/FreeRTOS/Source/timers.c **** 			{
 729:Firmware/Middlewares/Third_Party/FreeRTOS/Source/timers.c **** 				/* The timer is in a list, remove it. */
 730:Firmware/Middlewares/Third_Party/FreeRTOS/Source/timers.c **** 				( void ) uxListRemove( &( pxTimer->xTimerListItem ) );
 1502              		.loc 1 730 0
 1503 0050 BB6A     		ldr	r3, [r7, #40]
 1504 0052 0433     		adds	r3, r3, #4
 1505 0054 1846     		mov	r0, r3
 1506 0056 FFF7FEFF 		bl	uxListRemove
 1507              	.L95:
 731:Firmware/Middlewares/Third_Party/FreeRTOS/Source/timers.c **** 			}
 732:Firmware/Middlewares/Third_Party/FreeRTOS/Source/timers.c **** 			else
 733:Firmware/Middlewares/Third_Party/FreeRTOS/Source/timers.c **** 			{
 734:Firmware/Middlewares/Third_Party/FreeRTOS/Source/timers.c **** 				mtCOVERAGE_TEST_MARKER();
 735:Firmware/Middlewares/Third_Party/FreeRTOS/Source/timers.c **** 			}
 736:Firmware/Middlewares/Third_Party/FreeRTOS/Source/timers.c **** 
 737:Firmware/Middlewares/Third_Party/FreeRTOS/Source/timers.c **** 			traceTIMER_COMMAND_RECEIVED( pxTimer, xMessage.xMessageID, xMessage.u.xTimerParameters.xMessageV
 738:Firmware/Middlewares/Third_Party/FreeRTOS/Source/timers.c **** 
 739:Firmware/Middlewares/Third_Party/FreeRTOS/Source/timers.c **** 			/* In this case the xTimerListsWereSwitched parameter is not used, but
 740:Firmware/Middlewares/Third_Party/FreeRTOS/Source/timers.c **** 			it must be present in the function call.  prvSampleTimeNow() must be
 741:Firmware/Middlewares/Third_Party/FreeRTOS/Source/timers.c **** 			called after the message is received from xTimerQueue so there is no
 742:Firmware/Middlewares/Third_Party/FreeRTOS/Source/timers.c **** 			possibility of a higher priority task adding a message to the message
 743:Firmware/Middlewares/Third_Party/FreeRTOS/Source/timers.c **** 			queue with a time that is ahead of the timer daemon task (because it
 744:Firmware/Middlewares/Third_Party/FreeRTOS/Source/timers.c **** 			pre-empted the timer daemon task after the xTimeNow value was set). */
 745:Firmware/Middlewares/Third_Party/FreeRTOS/Source/timers.c **** 			xTimeNow = prvSampleTimeNow( &xTimerListsWereSwitched );
 1508              		.loc 1 745 0
 1509 005a 3B46     		mov	r3, r7
 1510 005c 1846     		mov	r0, r3
 1511 005e FFF7FEFF 		bl	prvSampleTimeNow
 1512 0062 7862     		str	r0, [r7, #36]
 746:Firmware/Middlewares/Third_Party/FreeRTOS/Source/timers.c **** 
 747:Firmware/Middlewares/Third_Party/FreeRTOS/Source/timers.c **** 			switch( xMessage.xMessageID )
 1513              		.loc 1 747 0
 1514 0064 7B68     		ldr	r3, [r7, #4]
 1515 0066 092B     		cmp	r3, #9
 1516 0068 68D8     		bhi	.L91
 1517 006a 01A2     		adr	r2, .L98
 1518 006c 52F823F0 		ldr	pc, [r2, r3, lsl #2]
 1519              		.p2align 2
 1520              	.L98:
 1521 0070 99000000 		.word	.L97+1
 1522 0074 99000000 		.word	.L97+1
 1523 0078 99000000 		.word	.L97+1
 1524 007c 3D010000 		.word	.L91+1
 1525 0080 F3000000 		.word	.L100+1
 1526 0084 29010000 		.word	.L101+1
 1527 0088 99000000 		.word	.L97+1
 1528 008c 99000000 		.word	.L97+1
 1529 0090 3D010000 		.word	.L91+1
 1530 0094 F3000000 		.word	.L100+1
 1531              		.p2align 1
 1532              	.L97:
 748:Firmware/Middlewares/Third_Party/FreeRTOS/Source/timers.c **** 			{
 749:Firmware/Middlewares/Third_Party/FreeRTOS/Source/timers.c **** 				case tmrCOMMAND_START :
 750:Firmware/Middlewares/Third_Party/FreeRTOS/Source/timers.c **** 			    case tmrCOMMAND_START_FROM_ISR :
 751:Firmware/Middlewares/Third_Party/FreeRTOS/Source/timers.c **** 			    case tmrCOMMAND_RESET :
ARM GAS  /tmp/ccL996FO.s 			page 44


 752:Firmware/Middlewares/Third_Party/FreeRTOS/Source/timers.c **** 			    case tmrCOMMAND_RESET_FROM_ISR :
 753:Firmware/Middlewares/Third_Party/FreeRTOS/Source/timers.c **** 				case tmrCOMMAND_START_DONT_TRACE :
 754:Firmware/Middlewares/Third_Party/FreeRTOS/Source/timers.c **** 					/* Start or restart a timer. */
 755:Firmware/Middlewares/Third_Party/FreeRTOS/Source/timers.c **** 					if( prvInsertTimerInActiveList( pxTimer,  xMessage.u.xTimerParameters.xMessageValue + pxTimer-
 1533              		.loc 1 755 0
 1534 0098 BA68     		ldr	r2, [r7, #8]
 1535 009a BB6A     		ldr	r3, [r7, #40]
 1536 009c 9B69     		ldr	r3, [r3, #24]
 1537 009e D118     		adds	r1, r2, r3
 1538 00a0 BB68     		ldr	r3, [r7, #8]
 1539 00a2 7A6A     		ldr	r2, [r7, #36]
 1540 00a4 B86A     		ldr	r0, [r7, #40]
 1541 00a6 FFF7FEFF 		bl	prvInsertTimerInActiveList
 1542 00aa 0346     		mov	r3, r0
 1543 00ac 002B     		cmp	r3, #0
 1544 00ae 45D0     		beq	.L91
 756:Firmware/Middlewares/Third_Party/FreeRTOS/Source/timers.c **** 					{
 757:Firmware/Middlewares/Third_Party/FreeRTOS/Source/timers.c **** 						/* The timer expired before it was added to the active
 758:Firmware/Middlewares/Third_Party/FreeRTOS/Source/timers.c **** 						timer list.  Process it now. */
 759:Firmware/Middlewares/Third_Party/FreeRTOS/Source/timers.c **** 						pxTimer->pxCallbackFunction( ( TimerHandle_t ) pxTimer );
 1545              		.loc 1 759 0
 1546 00b0 BB6A     		ldr	r3, [r7, #40]
 1547 00b2 5B6A     		ldr	r3, [r3, #36]
 1548 00b4 B86A     		ldr	r0, [r7, #40]
 1549 00b6 9847     		blx	r3
 1550              	.LVL2:
 760:Firmware/Middlewares/Third_Party/FreeRTOS/Source/timers.c **** 						traceTIMER_EXPIRED( pxTimer );
 761:Firmware/Middlewares/Third_Party/FreeRTOS/Source/timers.c **** 
 762:Firmware/Middlewares/Third_Party/FreeRTOS/Source/timers.c **** 						if( pxTimer->uxAutoReload == ( UBaseType_t ) pdTRUE )
 1551              		.loc 1 762 0
 1552 00b8 BB6A     		ldr	r3, [r7, #40]
 1553 00ba DB69     		ldr	r3, [r3, #28]
 1554 00bc 012B     		cmp	r3, #1
 1555 00be 3DD1     		bne	.L91
 763:Firmware/Middlewares/Third_Party/FreeRTOS/Source/timers.c **** 						{
 764:Firmware/Middlewares/Third_Party/FreeRTOS/Source/timers.c **** 							xResult = xTimerGenericCommand( pxTimer, tmrCOMMAND_START_DONT_TRACE, xMessage.u.xTimerParam
 1556              		.loc 1 764 0
 1557 00c0 BA68     		ldr	r2, [r7, #8]
 1558 00c2 BB6A     		ldr	r3, [r7, #40]
 1559 00c4 9B69     		ldr	r3, [r3, #24]
 1560 00c6 1A44     		add	r2, r2, r3
 1561 00c8 0023     		movs	r3, #0
 1562 00ca 0093     		str	r3, [sp]
 1563 00cc 0023     		movs	r3, #0
 1564 00ce 0021     		movs	r1, #0
 1565 00d0 B86A     		ldr	r0, [r7, #40]
 1566 00d2 FFF7FEFF 		bl	xTimerGenericCommand
 1567 00d6 3862     		str	r0, [r7, #32]
 765:Firmware/Middlewares/Third_Party/FreeRTOS/Source/timers.c **** 							configASSERT( xResult );
 1568              		.loc 1 765 0
 1569 00d8 3B6A     		ldr	r3, [r7, #32]
 1570 00da 002B     		cmp	r3, #0
 1571 00dc 2ED1     		bne	.L91
 1572              	.LBB66:
 1573              	.LBB67:
 1574              		.loc 2 195 0 discriminator 1
 1575              		.syntax unified
ARM GAS  /tmp/ccL996FO.s 			page 45


 1576              	@ 195 "Firmware/Middlewares/Third_Party/FreeRTOS/Source/portable/GCC/ARM_CM4F/portmacro.h" 1
 1577 00de 4FF05003 			mov r3, #80												
 1578 00e2 83F31188 		msr basepri, r3											
 1579 00e6 BFF36F8F 		isb														
 1580 00ea BFF34F8F 		dsb														
 1581              	
 1582              	@ 0 "" 2
 1583              		.thumb
 1584              		.syntax unified
 1585 00ee BB61     		str	r3, [r7, #24]
 1586              	.L103:
 1587              	.LBE67:
 1588              	.LBE66:
 1589              		.loc 1 765 0 discriminator 2
 1590 00f0 FEE7     		b	.L103
 1591              	.L100:
 766:Firmware/Middlewares/Third_Party/FreeRTOS/Source/timers.c **** 							( void ) xResult;
 767:Firmware/Middlewares/Third_Party/FreeRTOS/Source/timers.c **** 						}
 768:Firmware/Middlewares/Third_Party/FreeRTOS/Source/timers.c **** 						else
 769:Firmware/Middlewares/Third_Party/FreeRTOS/Source/timers.c **** 						{
 770:Firmware/Middlewares/Third_Party/FreeRTOS/Source/timers.c **** 							mtCOVERAGE_TEST_MARKER();
 771:Firmware/Middlewares/Third_Party/FreeRTOS/Source/timers.c **** 						}
 772:Firmware/Middlewares/Third_Party/FreeRTOS/Source/timers.c **** 					}
 773:Firmware/Middlewares/Third_Party/FreeRTOS/Source/timers.c **** 					else
 774:Firmware/Middlewares/Third_Party/FreeRTOS/Source/timers.c **** 					{
 775:Firmware/Middlewares/Third_Party/FreeRTOS/Source/timers.c **** 						mtCOVERAGE_TEST_MARKER();
 776:Firmware/Middlewares/Third_Party/FreeRTOS/Source/timers.c **** 					}
 777:Firmware/Middlewares/Third_Party/FreeRTOS/Source/timers.c **** 					break;
 778:Firmware/Middlewares/Third_Party/FreeRTOS/Source/timers.c **** 
 779:Firmware/Middlewares/Third_Party/FreeRTOS/Source/timers.c **** 				case tmrCOMMAND_STOP :
 780:Firmware/Middlewares/Third_Party/FreeRTOS/Source/timers.c **** 				case tmrCOMMAND_STOP_FROM_ISR :
 781:Firmware/Middlewares/Third_Party/FreeRTOS/Source/timers.c **** 					/* The timer has already been removed from the active list.
 782:Firmware/Middlewares/Third_Party/FreeRTOS/Source/timers.c **** 					There is nothing to do here. */
 783:Firmware/Middlewares/Third_Party/FreeRTOS/Source/timers.c **** 					break;
 784:Firmware/Middlewares/Third_Party/FreeRTOS/Source/timers.c **** 
 785:Firmware/Middlewares/Third_Party/FreeRTOS/Source/timers.c **** 				case tmrCOMMAND_CHANGE_PERIOD :
 786:Firmware/Middlewares/Third_Party/FreeRTOS/Source/timers.c **** 				case tmrCOMMAND_CHANGE_PERIOD_FROM_ISR :
 787:Firmware/Middlewares/Third_Party/FreeRTOS/Source/timers.c **** 					pxTimer->xTimerPeriodInTicks = xMessage.u.xTimerParameters.xMessageValue;
 1592              		.loc 1 787 0
 1593 00f2 BA68     		ldr	r2, [r7, #8]
 1594 00f4 BB6A     		ldr	r3, [r7, #40]
 1595 00f6 9A61     		str	r2, [r3, #24]
 788:Firmware/Middlewares/Third_Party/FreeRTOS/Source/timers.c **** 					configASSERT( ( pxTimer->xTimerPeriodInTicks > 0 ) );
 1596              		.loc 1 788 0
 1597 00f8 BB6A     		ldr	r3, [r7, #40]
 1598 00fa 9B69     		ldr	r3, [r3, #24]
 1599 00fc 002B     		cmp	r3, #0
 1600 00fe 09D1     		bne	.L104
 1601              	.LBB68:
 1602              	.LBB69:
 1603              		.loc 2 195 0 discriminator 1
 1604              		.syntax unified
 1605              	@ 195 "Firmware/Middlewares/Third_Party/FreeRTOS/Source/portable/GCC/ARM_CM4F/portmacro.h" 1
 1606 0100 4FF05003 			mov r3, #80												
 1607 0104 83F31188 		msr basepri, r3											
 1608 0108 BFF36F8F 		isb														
 1609 010c BFF34F8F 		dsb														
ARM GAS  /tmp/ccL996FO.s 			page 46


 1610              	
 1611              	@ 0 "" 2
 1612              		.thumb
 1613              		.syntax unified
 1614 0110 7B61     		str	r3, [r7, #20]
 1615              	.L105:
 1616              	.LBE69:
 1617              	.LBE68:
 1618              		.loc 1 788 0 discriminator 5
 1619 0112 FEE7     		b	.L105
 1620              	.L104:
 789:Firmware/Middlewares/Third_Party/FreeRTOS/Source/timers.c **** 
 790:Firmware/Middlewares/Third_Party/FreeRTOS/Source/timers.c **** 					/* The new period does not really have a reference, and can
 791:Firmware/Middlewares/Third_Party/FreeRTOS/Source/timers.c **** 					be longer or shorter than the old one.  The command time is
 792:Firmware/Middlewares/Third_Party/FreeRTOS/Source/timers.c **** 					therefore set to the current time, and as the period cannot
 793:Firmware/Middlewares/Third_Party/FreeRTOS/Source/timers.c **** 					be zero the next expiry time can only be in the future,
 794:Firmware/Middlewares/Third_Party/FreeRTOS/Source/timers.c **** 					meaning (unlike for the xTimerStart() case above) there is
 795:Firmware/Middlewares/Third_Party/FreeRTOS/Source/timers.c **** 					no fail case that needs to be handled here. */
 796:Firmware/Middlewares/Third_Party/FreeRTOS/Source/timers.c **** 					( void ) prvInsertTimerInActiveList( pxTimer, ( xTimeNow + pxTimer->xTimerPeriodInTicks ), xTi
 1621              		.loc 1 796 0
 1622 0114 BB6A     		ldr	r3, [r7, #40]
 1623 0116 9A69     		ldr	r2, [r3, #24]
 1624 0118 7B6A     		ldr	r3, [r7, #36]
 1625 011a D118     		adds	r1, r2, r3
 1626 011c 7B6A     		ldr	r3, [r7, #36]
 1627 011e 7A6A     		ldr	r2, [r7, #36]
 1628 0120 B86A     		ldr	r0, [r7, #40]
 1629 0122 FFF7FEFF 		bl	prvInsertTimerInActiveList
 797:Firmware/Middlewares/Third_Party/FreeRTOS/Source/timers.c **** 					break;
 1630              		.loc 1 797 0
 1631 0126 09E0     		b	.L91
 1632              	.L101:
 798:Firmware/Middlewares/Third_Party/FreeRTOS/Source/timers.c **** 
 799:Firmware/Middlewares/Third_Party/FreeRTOS/Source/timers.c **** 				case tmrCOMMAND_DELETE :
 800:Firmware/Middlewares/Third_Party/FreeRTOS/Source/timers.c **** 					/* The timer has already been removed from the active list,
 801:Firmware/Middlewares/Third_Party/FreeRTOS/Source/timers.c **** 					just free up the memory if the memory was dynamically
 802:Firmware/Middlewares/Third_Party/FreeRTOS/Source/timers.c **** 					allocated. */
 803:Firmware/Middlewares/Third_Party/FreeRTOS/Source/timers.c **** 					#if( ( configSUPPORT_DYNAMIC_ALLOCATION == 1 ) && ( configSUPPORT_STATIC_ALLOCATION == 0 ) )
 804:Firmware/Middlewares/Third_Party/FreeRTOS/Source/timers.c **** 					{
 805:Firmware/Middlewares/Third_Party/FreeRTOS/Source/timers.c **** 						/* The timer can only have been allocated dynamically -
 806:Firmware/Middlewares/Third_Party/FreeRTOS/Source/timers.c **** 						free it again. */
 807:Firmware/Middlewares/Third_Party/FreeRTOS/Source/timers.c **** 						vPortFree( pxTimer );
 808:Firmware/Middlewares/Third_Party/FreeRTOS/Source/timers.c **** 					}
 809:Firmware/Middlewares/Third_Party/FreeRTOS/Source/timers.c **** 					#elif( ( configSUPPORT_DYNAMIC_ALLOCATION == 1 ) && ( configSUPPORT_STATIC_ALLOCATION == 1 ) )
 810:Firmware/Middlewares/Third_Party/FreeRTOS/Source/timers.c **** 					{
 811:Firmware/Middlewares/Third_Party/FreeRTOS/Source/timers.c **** 						/* The timer could have been allocated statically or
 812:Firmware/Middlewares/Third_Party/FreeRTOS/Source/timers.c **** 						dynamically, so check before attempting to free the
 813:Firmware/Middlewares/Third_Party/FreeRTOS/Source/timers.c **** 						memory. */
 814:Firmware/Middlewares/Third_Party/FreeRTOS/Source/timers.c **** 						if( pxTimer->ucStaticallyAllocated == ( uint8_t ) pdFALSE )
 1633              		.loc 1 814 0
 1634 0128 BB6A     		ldr	r3, [r7, #40]
 1635 012a 93F82C30 		ldrb	r3, [r3, #44]	@ zero_extendqisi2
 1636 012e 002B     		cmp	r3, #0
 1637 0130 04D1     		bne	.L91
 815:Firmware/Middlewares/Third_Party/FreeRTOS/Source/timers.c **** 						{
 816:Firmware/Middlewares/Third_Party/FreeRTOS/Source/timers.c **** 							vPortFree( pxTimer );
 1638              		.loc 1 816 0
ARM GAS  /tmp/ccL996FO.s 			page 47


 1639 0132 B86A     		ldr	r0, [r7, #40]
 1640 0134 FFF7FEFF 		bl	vPortFree
 817:Firmware/Middlewares/Third_Party/FreeRTOS/Source/timers.c **** 						}
 818:Firmware/Middlewares/Third_Party/FreeRTOS/Source/timers.c **** 						else
 819:Firmware/Middlewares/Third_Party/FreeRTOS/Source/timers.c **** 						{
 820:Firmware/Middlewares/Third_Party/FreeRTOS/Source/timers.c **** 							mtCOVERAGE_TEST_MARKER();
 821:Firmware/Middlewares/Third_Party/FreeRTOS/Source/timers.c **** 						}
 822:Firmware/Middlewares/Third_Party/FreeRTOS/Source/timers.c **** 					}
 823:Firmware/Middlewares/Third_Party/FreeRTOS/Source/timers.c **** 					#endif /* configSUPPORT_DYNAMIC_ALLOCATION */
 824:Firmware/Middlewares/Third_Party/FreeRTOS/Source/timers.c **** 					break;
 1641              		.loc 1 824 0
 1642 0138 00E0     		b	.L91
 1643              	.L108:
 825:Firmware/Middlewares/Third_Party/FreeRTOS/Source/timers.c **** 
 826:Firmware/Middlewares/Third_Party/FreeRTOS/Source/timers.c **** 				default	:
 827:Firmware/Middlewares/Third_Party/FreeRTOS/Source/timers.c **** 					/* Don't expect to get here. */
 828:Firmware/Middlewares/Third_Party/FreeRTOS/Source/timers.c **** 					break;
 829:Firmware/Middlewares/Third_Party/FreeRTOS/Source/timers.c **** 			}
 830:Firmware/Middlewares/Third_Party/FreeRTOS/Source/timers.c **** 		}
 1644              		.loc 1 830 0
 1645 013a 00BF     		nop
 1646              	.L91:
 695:Firmware/Middlewares/Third_Party/FreeRTOS/Source/timers.c **** 	{
 1647              		.loc 1 695 0
 1648 013c 074B     		ldr	r3, .L109
 1649 013e 1B68     		ldr	r3, [r3]
 1650 0140 391D     		adds	r1, r7, #4
 1651 0142 0022     		movs	r2, #0
 1652 0144 1846     		mov	r0, r3
 1653 0146 FFF7FEFF 		bl	xQueueReceive
 1654 014a 0346     		mov	r3, r0
 1655 014c 002B     		cmp	r3, #0
 1656 014e 7FF45BAF 		bne	.L107
 831:Firmware/Middlewares/Third_Party/FreeRTOS/Source/timers.c **** 	}
 832:Firmware/Middlewares/Third_Party/FreeRTOS/Source/timers.c **** }
 1657              		.loc 1 832 0
 1658 0152 00BF     		nop
 1659 0154 3037     		adds	r7, r7, #48
 1660              	.LCFI81:
 1661              		.cfi_def_cfa_offset 8
 1662 0156 BD46     		mov	sp, r7
 1663              	.LCFI82:
 1664              		.cfi_def_cfa_register 13
 1665              		@ sp needed
 1666 0158 80BD     		pop	{r7, pc}
 1667              	.L110:
 1668 015a 00BF     		.align	2
 1669              	.L109:
 1670 015c 00000000 		.word	xTimerQueue
 1671              		.cfi_endproc
 1672              	.LFE19:
 1674              		.section	.text.prvSwitchTimerLists,"ax",%progbits
 1675              		.align	1
 1676              		.syntax unified
 1677              		.thumb
 1678              		.thumb_func
 1679              		.fpu fpv4-sp-d16
ARM GAS  /tmp/ccL996FO.s 			page 48


 1681              	prvSwitchTimerLists:
 1682              	.LFB20:
 833:Firmware/Middlewares/Third_Party/FreeRTOS/Source/timers.c **** /*-----------------------------------------------------------*/
 834:Firmware/Middlewares/Third_Party/FreeRTOS/Source/timers.c **** 
 835:Firmware/Middlewares/Third_Party/FreeRTOS/Source/timers.c **** static void prvSwitchTimerLists( void )
 836:Firmware/Middlewares/Third_Party/FreeRTOS/Source/timers.c **** {
 1683              		.loc 1 836 0
 1684              		.cfi_startproc
 1685              		@ args = 0, pretend = 0, frame = 24
 1686              		@ frame_needed = 1, uses_anonymous_args = 0
 1687 0000 80B5     		push	{r7, lr}
 1688              	.LCFI83:
 1689              		.cfi_def_cfa_offset 8
 1690              		.cfi_offset 7, -8
 1691              		.cfi_offset 14, -4
 1692 0002 88B0     		sub	sp, sp, #32
 1693              	.LCFI84:
 1694              		.cfi_def_cfa_offset 40
 1695 0004 02AF     		add	r7, sp, #8
 1696              	.LCFI85:
 1697              		.cfi_def_cfa 7, 32
 837:Firmware/Middlewares/Third_Party/FreeRTOS/Source/timers.c **** TickType_t xNextExpireTime, xReloadTime;
 838:Firmware/Middlewares/Third_Party/FreeRTOS/Source/timers.c **** List_t *pxTemp;
 839:Firmware/Middlewares/Third_Party/FreeRTOS/Source/timers.c **** Timer_t *pxTimer;
 840:Firmware/Middlewares/Third_Party/FreeRTOS/Source/timers.c **** BaseType_t xResult;
 841:Firmware/Middlewares/Third_Party/FreeRTOS/Source/timers.c **** 
 842:Firmware/Middlewares/Third_Party/FreeRTOS/Source/timers.c **** 	/* The tick count has overflowed.  The timer lists must be switched.
 843:Firmware/Middlewares/Third_Party/FreeRTOS/Source/timers.c **** 	If there are any timers still referenced from the current timer list
 844:Firmware/Middlewares/Third_Party/FreeRTOS/Source/timers.c **** 	then they must have expired and should be processed before the lists
 845:Firmware/Middlewares/Third_Party/FreeRTOS/Source/timers.c **** 	are switched. */
 846:Firmware/Middlewares/Third_Party/FreeRTOS/Source/timers.c **** 	while( listLIST_IS_EMPTY( pxCurrentTimerList ) == pdFALSE )
 1698              		.loc 1 846 0
 1699 0006 44E0     		b	.L112
 1700              	.L115:
 847:Firmware/Middlewares/Third_Party/FreeRTOS/Source/timers.c **** 	{
 848:Firmware/Middlewares/Third_Party/FreeRTOS/Source/timers.c **** 		xNextExpireTime = listGET_ITEM_VALUE_OF_HEAD_ENTRY( pxCurrentTimerList );
 1701              		.loc 1 848 0
 1702 0008 2B4B     		ldr	r3, .L116
 1703 000a 1B68     		ldr	r3, [r3]
 1704 000c DB68     		ldr	r3, [r3, #12]
 1705 000e 1B68     		ldr	r3, [r3]
 1706 0010 3B61     		str	r3, [r7, #16]
 849:Firmware/Middlewares/Third_Party/FreeRTOS/Source/timers.c **** 
 850:Firmware/Middlewares/Third_Party/FreeRTOS/Source/timers.c **** 		/* Remove the timer from the list. */
 851:Firmware/Middlewares/Third_Party/FreeRTOS/Source/timers.c **** 		pxTimer = ( Timer_t * ) listGET_OWNER_OF_HEAD_ENTRY( pxCurrentTimerList );
 1707              		.loc 1 851 0
 1708 0012 294B     		ldr	r3, .L116
 1709 0014 1B68     		ldr	r3, [r3]
 1710 0016 DB68     		ldr	r3, [r3, #12]
 1711 0018 DB68     		ldr	r3, [r3, #12]
 1712 001a FB60     		str	r3, [r7, #12]
 852:Firmware/Middlewares/Third_Party/FreeRTOS/Source/timers.c **** 		( void ) uxListRemove( &( pxTimer->xTimerListItem ) );
 1713              		.loc 1 852 0
 1714 001c FB68     		ldr	r3, [r7, #12]
 1715 001e 0433     		adds	r3, r3, #4
 1716 0020 1846     		mov	r0, r3
 1717 0022 FFF7FEFF 		bl	uxListRemove
ARM GAS  /tmp/ccL996FO.s 			page 49


 853:Firmware/Middlewares/Third_Party/FreeRTOS/Source/timers.c **** 		traceTIMER_EXPIRED( pxTimer );
 854:Firmware/Middlewares/Third_Party/FreeRTOS/Source/timers.c **** 
 855:Firmware/Middlewares/Third_Party/FreeRTOS/Source/timers.c **** 		/* Execute its callback, then send a command to restart the timer if
 856:Firmware/Middlewares/Third_Party/FreeRTOS/Source/timers.c **** 		it is an auto-reload timer.  It cannot be restarted here as the lists
 857:Firmware/Middlewares/Third_Party/FreeRTOS/Source/timers.c **** 		have not yet been switched. */
 858:Firmware/Middlewares/Third_Party/FreeRTOS/Source/timers.c **** 		pxTimer->pxCallbackFunction( ( TimerHandle_t ) pxTimer );
 1718              		.loc 1 858 0
 1719 0026 FB68     		ldr	r3, [r7, #12]
 1720 0028 5B6A     		ldr	r3, [r3, #36]
 1721 002a F868     		ldr	r0, [r7, #12]
 1722 002c 9847     		blx	r3
 1723              	.LVL3:
 859:Firmware/Middlewares/Third_Party/FreeRTOS/Source/timers.c **** 
 860:Firmware/Middlewares/Third_Party/FreeRTOS/Source/timers.c **** 		if( pxTimer->uxAutoReload == ( UBaseType_t ) pdTRUE )
 1724              		.loc 1 860 0
 1725 002e FB68     		ldr	r3, [r7, #12]
 1726 0030 DB69     		ldr	r3, [r3, #28]
 1727 0032 012B     		cmp	r3, #1
 1728 0034 2DD1     		bne	.L112
 861:Firmware/Middlewares/Third_Party/FreeRTOS/Source/timers.c **** 		{
 862:Firmware/Middlewares/Third_Party/FreeRTOS/Source/timers.c **** 			/* Calculate the reload value, and if the reload value results in
 863:Firmware/Middlewares/Third_Party/FreeRTOS/Source/timers.c **** 			the timer going into the same timer list then it has already expired
 864:Firmware/Middlewares/Third_Party/FreeRTOS/Source/timers.c **** 			and the timer should be re-inserted into the current list so it is
 865:Firmware/Middlewares/Third_Party/FreeRTOS/Source/timers.c **** 			processed again within this loop.  Otherwise a command should be sent
 866:Firmware/Middlewares/Third_Party/FreeRTOS/Source/timers.c **** 			to restart the timer to ensure it is only inserted into a list after
 867:Firmware/Middlewares/Third_Party/FreeRTOS/Source/timers.c **** 			the lists have been swapped. */
 868:Firmware/Middlewares/Third_Party/FreeRTOS/Source/timers.c **** 			xReloadTime = ( xNextExpireTime + pxTimer->xTimerPeriodInTicks );
 1729              		.loc 1 868 0
 1730 0036 FB68     		ldr	r3, [r7, #12]
 1731 0038 9B69     		ldr	r3, [r3, #24]
 1732 003a 3A69     		ldr	r2, [r7, #16]
 1733 003c 1344     		add	r3, r3, r2
 1734 003e BB60     		str	r3, [r7, #8]
 869:Firmware/Middlewares/Third_Party/FreeRTOS/Source/timers.c **** 			if( xReloadTime > xNextExpireTime )
 1735              		.loc 1 869 0
 1736 0040 BA68     		ldr	r2, [r7, #8]
 1737 0042 3B69     		ldr	r3, [r7, #16]
 1738 0044 9A42     		cmp	r2, r3
 1739 0046 0ED9     		bls	.L113
 870:Firmware/Middlewares/Third_Party/FreeRTOS/Source/timers.c **** 			{
 871:Firmware/Middlewares/Third_Party/FreeRTOS/Source/timers.c **** 				listSET_LIST_ITEM_VALUE( &( pxTimer->xTimerListItem ), xReloadTime );
 1740              		.loc 1 871 0
 1741 0048 FB68     		ldr	r3, [r7, #12]
 1742 004a BA68     		ldr	r2, [r7, #8]
 1743 004c 5A60     		str	r2, [r3, #4]
 872:Firmware/Middlewares/Third_Party/FreeRTOS/Source/timers.c **** 				listSET_LIST_ITEM_OWNER( &( pxTimer->xTimerListItem ), pxTimer );
 1744              		.loc 1 872 0
 1745 004e FB68     		ldr	r3, [r7, #12]
 1746 0050 FA68     		ldr	r2, [r7, #12]
 1747 0052 1A61     		str	r2, [r3, #16]
 873:Firmware/Middlewares/Third_Party/FreeRTOS/Source/timers.c **** 				vListInsert( pxCurrentTimerList, &( pxTimer->xTimerListItem ) );
 1748              		.loc 1 873 0
 1749 0054 184B     		ldr	r3, .L116
 1750 0056 1A68     		ldr	r2, [r3]
 1751 0058 FB68     		ldr	r3, [r7, #12]
 1752 005a 0433     		adds	r3, r3, #4
 1753 005c 1946     		mov	r1, r3
ARM GAS  /tmp/ccL996FO.s 			page 50


 1754 005e 1046     		mov	r0, r2
 1755 0060 FFF7FEFF 		bl	vListInsert
 1756 0064 15E0     		b	.L112
 1757              	.L113:
 874:Firmware/Middlewares/Third_Party/FreeRTOS/Source/timers.c **** 			}
 875:Firmware/Middlewares/Third_Party/FreeRTOS/Source/timers.c **** 			else
 876:Firmware/Middlewares/Third_Party/FreeRTOS/Source/timers.c **** 			{
 877:Firmware/Middlewares/Third_Party/FreeRTOS/Source/timers.c **** 				xResult = xTimerGenericCommand( pxTimer, tmrCOMMAND_START_DONT_TRACE, xNextExpireTime, NULL, tm
 1758              		.loc 1 877 0
 1759 0066 0023     		movs	r3, #0
 1760 0068 0093     		str	r3, [sp]
 1761 006a 0023     		movs	r3, #0
 1762 006c 3A69     		ldr	r2, [r7, #16]
 1763 006e 0021     		movs	r1, #0
 1764 0070 F868     		ldr	r0, [r7, #12]
 1765 0072 FFF7FEFF 		bl	xTimerGenericCommand
 1766 0076 7860     		str	r0, [r7, #4]
 878:Firmware/Middlewares/Third_Party/FreeRTOS/Source/timers.c **** 				configASSERT( xResult );
 1767              		.loc 1 878 0
 1768 0078 7B68     		ldr	r3, [r7, #4]
 1769 007a 002B     		cmp	r3, #0
 1770 007c 09D1     		bne	.L112
 1771              	.LBB70:
 1772              	.LBB71:
 1773              		.loc 2 195 0 discriminator 1
 1774              		.syntax unified
 1775              	@ 195 "Firmware/Middlewares/Third_Party/FreeRTOS/Source/portable/GCC/ARM_CM4F/portmacro.h" 1
 1776 007e 4FF05003 			mov r3, #80												
 1777 0082 83F31188 		msr basepri, r3											
 1778 0086 BFF36F8F 		isb														
 1779 008a BFF34F8F 		dsb														
 1780              	
 1781              	@ 0 "" 2
 1782              		.thumb
 1783              		.syntax unified
 1784 008e 3B60     		str	r3, [r7]
 1785              	.L114:
 1786              	.LBE71:
 1787              	.LBE70:
 1788              		.loc 1 878 0 discriminator 1
 1789 0090 FEE7     		b	.L114
 1790              	.L112:
 846:Firmware/Middlewares/Third_Party/FreeRTOS/Source/timers.c **** 	{
 1791              		.loc 1 846 0
 1792 0092 094B     		ldr	r3, .L116
 1793 0094 1B68     		ldr	r3, [r3]
 1794 0096 1B68     		ldr	r3, [r3]
 1795 0098 002B     		cmp	r3, #0
 1796 009a B5D1     		bne	.L115
 879:Firmware/Middlewares/Third_Party/FreeRTOS/Source/timers.c **** 				( void ) xResult;
 880:Firmware/Middlewares/Third_Party/FreeRTOS/Source/timers.c **** 			}
 881:Firmware/Middlewares/Third_Party/FreeRTOS/Source/timers.c **** 		}
 882:Firmware/Middlewares/Third_Party/FreeRTOS/Source/timers.c **** 		else
 883:Firmware/Middlewares/Third_Party/FreeRTOS/Source/timers.c **** 		{
 884:Firmware/Middlewares/Third_Party/FreeRTOS/Source/timers.c **** 			mtCOVERAGE_TEST_MARKER();
 885:Firmware/Middlewares/Third_Party/FreeRTOS/Source/timers.c **** 		}
 886:Firmware/Middlewares/Third_Party/FreeRTOS/Source/timers.c **** 	}
ARM GAS  /tmp/ccL996FO.s 			page 51


 887:Firmware/Middlewares/Third_Party/FreeRTOS/Source/timers.c **** 
 888:Firmware/Middlewares/Third_Party/FreeRTOS/Source/timers.c **** 	pxTemp = pxCurrentTimerList;
 1797              		.loc 1 888 0
 1798 009c 064B     		ldr	r3, .L116
 1799 009e 1B68     		ldr	r3, [r3]
 1800 00a0 7B61     		str	r3, [r7, #20]
 889:Firmware/Middlewares/Third_Party/FreeRTOS/Source/timers.c **** 	pxCurrentTimerList = pxOverflowTimerList;
 1801              		.loc 1 889 0
 1802 00a2 064B     		ldr	r3, .L116+4
 1803 00a4 1B68     		ldr	r3, [r3]
 1804 00a6 044A     		ldr	r2, .L116
 1805 00a8 1360     		str	r3, [r2]
 890:Firmware/Middlewares/Third_Party/FreeRTOS/Source/timers.c **** 	pxOverflowTimerList = pxTemp;
 1806              		.loc 1 890 0
 1807 00aa 044A     		ldr	r2, .L116+4
 1808 00ac 7B69     		ldr	r3, [r7, #20]
 1809 00ae 1360     		str	r3, [r2]
 891:Firmware/Middlewares/Third_Party/FreeRTOS/Source/timers.c **** }
 1810              		.loc 1 891 0
 1811 00b0 00BF     		nop
 1812 00b2 1837     		adds	r7, r7, #24
 1813              	.LCFI86:
 1814              		.cfi_def_cfa_offset 8
 1815 00b4 BD46     		mov	sp, r7
 1816              	.LCFI87:
 1817              		.cfi_def_cfa_register 13
 1818              		@ sp needed
 1819 00b6 80BD     		pop	{r7, pc}
 1820              	.L117:
 1821              		.align	2
 1822              	.L116:
 1823 00b8 00000000 		.word	pxCurrentTimerList
 1824 00bc 00000000 		.word	pxOverflowTimerList
 1825              		.cfi_endproc
 1826              	.LFE20:
 1828              		.section	.rodata
 1829              		.align	2
 1830              	.LC1:
 1831 0008 546D7251 		.ascii	"TmrQ\000"
 1831      00
 1832              		.section	.text.prvCheckForValidListAndQueue,"ax",%progbits
 1833              		.align	1
 1834              		.syntax unified
 1835              		.thumb
 1836              		.thumb_func
 1837              		.fpu fpv4-sp-d16
 1839              	prvCheckForValidListAndQueue:
 1840              	.LFB21:
 892:Firmware/Middlewares/Third_Party/FreeRTOS/Source/timers.c **** /*-----------------------------------------------------------*/
 893:Firmware/Middlewares/Third_Party/FreeRTOS/Source/timers.c **** 
 894:Firmware/Middlewares/Third_Party/FreeRTOS/Source/timers.c **** static void prvCheckForValidListAndQueue( void )
 895:Firmware/Middlewares/Third_Party/FreeRTOS/Source/timers.c **** {
 1841              		.loc 1 895 0
 1842              		.cfi_startproc
 1843              		@ args = 0, pretend = 0, frame = 0
 1844              		@ frame_needed = 1, uses_anonymous_args = 0
 1845 0000 80B5     		push	{r7, lr}
ARM GAS  /tmp/ccL996FO.s 			page 52


 1846              	.LCFI88:
 1847              		.cfi_def_cfa_offset 8
 1848              		.cfi_offset 7, -8
 1849              		.cfi_offset 14, -4
 1850 0002 82B0     		sub	sp, sp, #8
 1851              	.LCFI89:
 1852              		.cfi_def_cfa_offset 16
 1853 0004 02AF     		add	r7, sp, #8
 1854              	.LCFI90:
 1855              		.cfi_def_cfa 7, 8
 896:Firmware/Middlewares/Third_Party/FreeRTOS/Source/timers.c **** 	/* Check that the list from which active timers are referenced, and the
 897:Firmware/Middlewares/Third_Party/FreeRTOS/Source/timers.c **** 	queue used to communicate with the timer service, have been
 898:Firmware/Middlewares/Third_Party/FreeRTOS/Source/timers.c **** 	initialised. */
 899:Firmware/Middlewares/Third_Party/FreeRTOS/Source/timers.c **** 	taskENTER_CRITICAL();
 1856              		.loc 1 899 0
 1857 0006 FFF7FEFF 		bl	vPortEnterCritical
 900:Firmware/Middlewares/Third_Party/FreeRTOS/Source/timers.c **** 	{
 901:Firmware/Middlewares/Third_Party/FreeRTOS/Source/timers.c **** 		if( xTimerQueue == NULL )
 1858              		.loc 1 901 0
 1859 000a 154B     		ldr	r3, .L120
 1860 000c 1B68     		ldr	r3, [r3]
 1861 000e 002B     		cmp	r3, #0
 1862 0010 20D1     		bne	.L119
 902:Firmware/Middlewares/Third_Party/FreeRTOS/Source/timers.c **** 		{
 903:Firmware/Middlewares/Third_Party/FreeRTOS/Source/timers.c **** 			vListInitialise( &xActiveTimerList1 );
 1863              		.loc 1 903 0
 1864 0012 1448     		ldr	r0, .L120+4
 1865 0014 FFF7FEFF 		bl	vListInitialise
 904:Firmware/Middlewares/Third_Party/FreeRTOS/Source/timers.c **** 			vListInitialise( &xActiveTimerList2 );
 1866              		.loc 1 904 0
 1867 0018 1348     		ldr	r0, .L120+8
 1868 001a FFF7FEFF 		bl	vListInitialise
 905:Firmware/Middlewares/Third_Party/FreeRTOS/Source/timers.c **** 			pxCurrentTimerList = &xActiveTimerList1;
 1869              		.loc 1 905 0
 1870 001e 134B     		ldr	r3, .L120+12
 1871 0020 104A     		ldr	r2, .L120+4
 1872 0022 1A60     		str	r2, [r3]
 906:Firmware/Middlewares/Third_Party/FreeRTOS/Source/timers.c **** 			pxOverflowTimerList = &xActiveTimerList2;
 1873              		.loc 1 906 0
 1874 0024 124B     		ldr	r3, .L120+16
 1875 0026 104A     		ldr	r2, .L120+8
 1876 0028 1A60     		str	r2, [r3]
 1877              	.LBB72:
 907:Firmware/Middlewares/Third_Party/FreeRTOS/Source/timers.c **** 
 908:Firmware/Middlewares/Third_Party/FreeRTOS/Source/timers.c **** 			#if( configSUPPORT_STATIC_ALLOCATION == 1 )
 909:Firmware/Middlewares/Third_Party/FreeRTOS/Source/timers.c **** 			{
 910:Firmware/Middlewares/Third_Party/FreeRTOS/Source/timers.c **** 				/* The timer queue is allocated statically in case
 911:Firmware/Middlewares/Third_Party/FreeRTOS/Source/timers.c **** 				configSUPPORT_DYNAMIC_ALLOCATION is 0. */
 912:Firmware/Middlewares/Third_Party/FreeRTOS/Source/timers.c **** 				static StaticQueue_t xStaticTimerQueue; /*lint !e956 Ok to declare in this manner to prevent ad
 913:Firmware/Middlewares/Third_Party/FreeRTOS/Source/timers.c **** 				static uint8_t ucStaticTimerQueueStorage[ ( size_t ) configTIMER_QUEUE_LENGTH * sizeof( DaemonT
 914:Firmware/Middlewares/Third_Party/FreeRTOS/Source/timers.c **** 
 915:Firmware/Middlewares/Third_Party/FreeRTOS/Source/timers.c **** 				xTimerQueue = xQueueCreateStatic( ( UBaseType_t ) configTIMER_QUEUE_LENGTH, ( UBaseType_t ) siz
 1878              		.loc 1 915 0
 1879 002a 0023     		movs	r3, #0
 1880 002c 0093     		str	r3, [sp]
 1881 002e 114B     		ldr	r3, .L120+20
 1882 0030 114A     		ldr	r2, .L120+24
ARM GAS  /tmp/ccL996FO.s 			page 53


 1883 0032 1021     		movs	r1, #16
 1884 0034 0A20     		movs	r0, #10
 1885 0036 FFF7FEFF 		bl	xQueueGenericCreateStatic
 1886 003a 0246     		mov	r2, r0
 1887 003c 084B     		ldr	r3, .L120
 1888 003e 1A60     		str	r2, [r3]
 1889              	.LBE72:
 916:Firmware/Middlewares/Third_Party/FreeRTOS/Source/timers.c **** 			}
 917:Firmware/Middlewares/Third_Party/FreeRTOS/Source/timers.c **** 			#else
 918:Firmware/Middlewares/Third_Party/FreeRTOS/Source/timers.c **** 			{
 919:Firmware/Middlewares/Third_Party/FreeRTOS/Source/timers.c **** 				xTimerQueue = xQueueCreate( ( UBaseType_t ) configTIMER_QUEUE_LENGTH, sizeof( DaemonTaskMessage
 920:Firmware/Middlewares/Third_Party/FreeRTOS/Source/timers.c **** 			}
 921:Firmware/Middlewares/Third_Party/FreeRTOS/Source/timers.c **** 			#endif
 922:Firmware/Middlewares/Third_Party/FreeRTOS/Source/timers.c **** 
 923:Firmware/Middlewares/Third_Party/FreeRTOS/Source/timers.c **** 			#if ( configQUEUE_REGISTRY_SIZE > 0 )
 924:Firmware/Middlewares/Third_Party/FreeRTOS/Source/timers.c **** 			{
 925:Firmware/Middlewares/Third_Party/FreeRTOS/Source/timers.c **** 				if( xTimerQueue != NULL )
 1890              		.loc 1 925 0
 1891 0040 074B     		ldr	r3, .L120
 1892 0042 1B68     		ldr	r3, [r3]
 1893 0044 002B     		cmp	r3, #0
 1894 0046 05D0     		beq	.L119
 926:Firmware/Middlewares/Third_Party/FreeRTOS/Source/timers.c **** 				{
 927:Firmware/Middlewares/Third_Party/FreeRTOS/Source/timers.c **** 					vQueueAddToRegistry( xTimerQueue, "TmrQ" );
 1895              		.loc 1 927 0
 1896 0048 054B     		ldr	r3, .L120
 1897 004a 1B68     		ldr	r3, [r3]
 1898 004c 0B49     		ldr	r1, .L120+28
 1899 004e 1846     		mov	r0, r3
 1900 0050 FFF7FEFF 		bl	vQueueAddToRegistry
 1901              	.L119:
 928:Firmware/Middlewares/Third_Party/FreeRTOS/Source/timers.c **** 				}
 929:Firmware/Middlewares/Third_Party/FreeRTOS/Source/timers.c **** 				else
 930:Firmware/Middlewares/Third_Party/FreeRTOS/Source/timers.c **** 				{
 931:Firmware/Middlewares/Third_Party/FreeRTOS/Source/timers.c **** 					mtCOVERAGE_TEST_MARKER();
 932:Firmware/Middlewares/Third_Party/FreeRTOS/Source/timers.c **** 				}
 933:Firmware/Middlewares/Third_Party/FreeRTOS/Source/timers.c **** 			}
 934:Firmware/Middlewares/Third_Party/FreeRTOS/Source/timers.c **** 			#endif /* configQUEUE_REGISTRY_SIZE */
 935:Firmware/Middlewares/Third_Party/FreeRTOS/Source/timers.c **** 		}
 936:Firmware/Middlewares/Third_Party/FreeRTOS/Source/timers.c **** 		else
 937:Firmware/Middlewares/Third_Party/FreeRTOS/Source/timers.c **** 		{
 938:Firmware/Middlewares/Third_Party/FreeRTOS/Source/timers.c **** 			mtCOVERAGE_TEST_MARKER();
 939:Firmware/Middlewares/Third_Party/FreeRTOS/Source/timers.c **** 		}
 940:Firmware/Middlewares/Third_Party/FreeRTOS/Source/timers.c **** 	}
 941:Firmware/Middlewares/Third_Party/FreeRTOS/Source/timers.c **** 	taskEXIT_CRITICAL();
 1902              		.loc 1 941 0
 1903 0054 FFF7FEFF 		bl	vPortExitCritical
 942:Firmware/Middlewares/Third_Party/FreeRTOS/Source/timers.c **** }
 1904              		.loc 1 942 0
 1905 0058 00BF     		nop
 1906 005a BD46     		mov	sp, r7
 1907              	.LCFI91:
 1908              		.cfi_def_cfa_register 13
 1909              		@ sp needed
 1910 005c 80BD     		pop	{r7, pc}
 1911              	.L121:
 1912 005e 00BF     		.align	2
ARM GAS  /tmp/ccL996FO.s 			page 54


 1913              	.L120:
 1914 0060 00000000 		.word	xTimerQueue
 1915 0064 00000000 		.word	xActiveTimerList1
 1916 0068 00000000 		.word	xActiveTimerList2
 1917 006c 00000000 		.word	pxCurrentTimerList
 1918 0070 00000000 		.word	pxOverflowTimerList
 1919 0074 00000000 		.word	xStaticTimerQueue.6790
 1920 0078 00000000 		.word	ucStaticTimerQueueStorage.6791
 1921 007c 08000000 		.word	.LC1
 1922              		.cfi_endproc
 1923              	.LFE21:
 1925              		.section	.text.xTimerIsTimerActive,"ax",%progbits
 1926              		.align	1
 1927              		.global	xTimerIsTimerActive
 1928              		.syntax unified
 1929              		.thumb
 1930              		.thumb_func
 1931              		.fpu fpv4-sp-d16
 1933              	xTimerIsTimerActive:
 1934              	.LFB22:
 943:Firmware/Middlewares/Third_Party/FreeRTOS/Source/timers.c **** /*-----------------------------------------------------------*/
 944:Firmware/Middlewares/Third_Party/FreeRTOS/Source/timers.c **** 
 945:Firmware/Middlewares/Third_Party/FreeRTOS/Source/timers.c **** BaseType_t xTimerIsTimerActive( TimerHandle_t xTimer )
 946:Firmware/Middlewares/Third_Party/FreeRTOS/Source/timers.c **** {
 1935              		.loc 1 946 0
 1936              		.cfi_startproc
 1937              		@ args = 0, pretend = 0, frame = 24
 1938              		@ frame_needed = 1, uses_anonymous_args = 0
 1939 0000 80B5     		push	{r7, lr}
 1940              	.LCFI92:
 1941              		.cfi_def_cfa_offset 8
 1942              		.cfi_offset 7, -8
 1943              		.cfi_offset 14, -4
 1944 0002 86B0     		sub	sp, sp, #24
 1945              	.LCFI93:
 1946              		.cfi_def_cfa_offset 32
 1947 0004 00AF     		add	r7, sp, #0
 1948              	.LCFI94:
 1949              		.cfi_def_cfa_register 7
 1950 0006 7860     		str	r0, [r7, #4]
 947:Firmware/Middlewares/Third_Party/FreeRTOS/Source/timers.c **** BaseType_t xTimerIsInActiveList;
 948:Firmware/Middlewares/Third_Party/FreeRTOS/Source/timers.c **** Timer_t *pxTimer = ( Timer_t * ) xTimer;
 1951              		.loc 1 948 0
 1952 0008 7B68     		ldr	r3, [r7, #4]
 1953 000a 7B61     		str	r3, [r7, #20]
 949:Firmware/Middlewares/Third_Party/FreeRTOS/Source/timers.c **** 
 950:Firmware/Middlewares/Third_Party/FreeRTOS/Source/timers.c **** 	configASSERT( xTimer );
 1954              		.loc 1 950 0
 1955 000c 7B68     		ldr	r3, [r7, #4]
 1956 000e 002B     		cmp	r3, #0
 1957 0010 09D1     		bne	.L123
 1958              	.LBB73:
 1959              	.LBB74:
 1960              		.loc 2 195 0 discriminator 1
 1961              		.syntax unified
 1962              	@ 195 "Firmware/Middlewares/Third_Party/FreeRTOS/Source/portable/GCC/ARM_CM4F/portmacro.h" 1
 1963 0012 4FF05003 			mov r3, #80												
ARM GAS  /tmp/ccL996FO.s 			page 55


 1964 0016 83F31188 		msr basepri, r3											
 1965 001a BFF36F8F 		isb														
 1966 001e BFF34F8F 		dsb														
 1967              	
 1968              	@ 0 "" 2
 1969              		.thumb
 1970              		.syntax unified
 1971 0022 FB60     		str	r3, [r7, #12]
 1972              	.L124:
 1973              	.LBE74:
 1974              	.LBE73:
 1975              		.loc 1 950 0 discriminator 1
 1976 0024 FEE7     		b	.L124
 1977              	.L123:
 951:Firmware/Middlewares/Third_Party/FreeRTOS/Source/timers.c **** 
 952:Firmware/Middlewares/Third_Party/FreeRTOS/Source/timers.c **** 	/* Is the timer in the list of active timers? */
 953:Firmware/Middlewares/Third_Party/FreeRTOS/Source/timers.c **** 	taskENTER_CRITICAL();
 1978              		.loc 1 953 0
 1979 0026 FFF7FEFF 		bl	vPortEnterCritical
 954:Firmware/Middlewares/Third_Party/FreeRTOS/Source/timers.c **** 	{
 955:Firmware/Middlewares/Third_Party/FreeRTOS/Source/timers.c **** 		/* Checking to see if it is in the NULL list in effect checks to see if
 956:Firmware/Middlewares/Third_Party/FreeRTOS/Source/timers.c **** 		it is referenced from either the current or the overflow timer lists in
 957:Firmware/Middlewares/Third_Party/FreeRTOS/Source/timers.c **** 		one go, but the logic has to be reversed, hence the '!'. */
 958:Firmware/Middlewares/Third_Party/FreeRTOS/Source/timers.c **** 		xTimerIsInActiveList = ( BaseType_t ) !( listIS_CONTAINED_WITHIN( NULL, &( pxTimer->xTimerListIte
 1980              		.loc 1 958 0
 1981 002a 7B69     		ldr	r3, [r7, #20]
 1982 002c 5B69     		ldr	r3, [r3, #20]
 1983 002e 002B     		cmp	r3, #0
 1984 0030 14BF     		ite	ne
 1985 0032 0123     		movne	r3, #1
 1986 0034 0023     		moveq	r3, #0
 1987 0036 DBB2     		uxtb	r3, r3
 1988 0038 3B61     		str	r3, [r7, #16]
 959:Firmware/Middlewares/Third_Party/FreeRTOS/Source/timers.c **** 	}
 960:Firmware/Middlewares/Third_Party/FreeRTOS/Source/timers.c **** 	taskEXIT_CRITICAL();
 1989              		.loc 1 960 0
 1990 003a FFF7FEFF 		bl	vPortExitCritical
 961:Firmware/Middlewares/Third_Party/FreeRTOS/Source/timers.c **** 
 962:Firmware/Middlewares/Third_Party/FreeRTOS/Source/timers.c **** 	return xTimerIsInActiveList;
 1991              		.loc 1 962 0
 1992 003e 3B69     		ldr	r3, [r7, #16]
 963:Firmware/Middlewares/Third_Party/FreeRTOS/Source/timers.c **** } /*lint !e818 Can't be pointer to const due to the typedef. */
 1993              		.loc 1 963 0
 1994 0040 1846     		mov	r0, r3
 1995 0042 1837     		adds	r7, r7, #24
 1996              	.LCFI95:
 1997              		.cfi_def_cfa_offset 8
 1998 0044 BD46     		mov	sp, r7
 1999              	.LCFI96:
 2000              		.cfi_def_cfa_register 13
 2001              		@ sp needed
 2002 0046 80BD     		pop	{r7, pc}
 2003              		.cfi_endproc
 2004              	.LFE22:
 2006              		.section	.text.pvTimerGetTimerID,"ax",%progbits
 2007              		.align	1
 2008              		.global	pvTimerGetTimerID
ARM GAS  /tmp/ccL996FO.s 			page 56


 2009              		.syntax unified
 2010              		.thumb
 2011              		.thumb_func
 2012              		.fpu fpv4-sp-d16
 2014              	pvTimerGetTimerID:
 2015              	.LFB23:
 964:Firmware/Middlewares/Third_Party/FreeRTOS/Source/timers.c **** /*-----------------------------------------------------------*/
 965:Firmware/Middlewares/Third_Party/FreeRTOS/Source/timers.c **** 
 966:Firmware/Middlewares/Third_Party/FreeRTOS/Source/timers.c **** void *pvTimerGetTimerID( const TimerHandle_t xTimer )
 967:Firmware/Middlewares/Third_Party/FreeRTOS/Source/timers.c **** {
 2016              		.loc 1 967 0
 2017              		.cfi_startproc
 2018              		@ args = 0, pretend = 0, frame = 24
 2019              		@ frame_needed = 1, uses_anonymous_args = 0
 2020 0000 80B5     		push	{r7, lr}
 2021              	.LCFI97:
 2022              		.cfi_def_cfa_offset 8
 2023              		.cfi_offset 7, -8
 2024              		.cfi_offset 14, -4
 2025 0002 86B0     		sub	sp, sp, #24
 2026              	.LCFI98:
 2027              		.cfi_def_cfa_offset 32
 2028 0004 00AF     		add	r7, sp, #0
 2029              	.LCFI99:
 2030              		.cfi_def_cfa_register 7
 2031 0006 7860     		str	r0, [r7, #4]
 968:Firmware/Middlewares/Third_Party/FreeRTOS/Source/timers.c **** Timer_t * const pxTimer = ( Timer_t * ) xTimer;
 2032              		.loc 1 968 0
 2033 0008 7B68     		ldr	r3, [r7, #4]
 2034 000a 7B61     		str	r3, [r7, #20]
 969:Firmware/Middlewares/Third_Party/FreeRTOS/Source/timers.c **** void *pvReturn;
 970:Firmware/Middlewares/Third_Party/FreeRTOS/Source/timers.c **** 
 971:Firmware/Middlewares/Third_Party/FreeRTOS/Source/timers.c **** 	configASSERT( xTimer );
 2035              		.loc 1 971 0
 2036 000c 7B68     		ldr	r3, [r7, #4]
 2037 000e 002B     		cmp	r3, #0
 2038 0010 09D1     		bne	.L127
 2039              	.LBB75:
 2040              	.LBB76:
 2041              		.loc 2 195 0 discriminator 1
 2042              		.syntax unified
 2043              	@ 195 "Firmware/Middlewares/Third_Party/FreeRTOS/Source/portable/GCC/ARM_CM4F/portmacro.h" 1
 2044 0012 4FF05003 			mov r3, #80												
 2045 0016 83F31188 		msr basepri, r3											
 2046 001a BFF36F8F 		isb														
 2047 001e BFF34F8F 		dsb														
 2048              	
 2049              	@ 0 "" 2
 2050              		.thumb
 2051              		.syntax unified
 2052 0022 FB60     		str	r3, [r7, #12]
 2053              	.L128:
 2054              	.LBE76:
 2055              	.LBE75:
 2056              		.loc 1 971 0 discriminator 1
 2057 0024 FEE7     		b	.L128
 2058              	.L127:
ARM GAS  /tmp/ccL996FO.s 			page 57


 972:Firmware/Middlewares/Third_Party/FreeRTOS/Source/timers.c **** 
 973:Firmware/Middlewares/Third_Party/FreeRTOS/Source/timers.c **** 	taskENTER_CRITICAL();
 2059              		.loc 1 973 0
 2060 0026 FFF7FEFF 		bl	vPortEnterCritical
 974:Firmware/Middlewares/Third_Party/FreeRTOS/Source/timers.c **** 	{
 975:Firmware/Middlewares/Third_Party/FreeRTOS/Source/timers.c **** 		pvReturn = pxTimer->pvTimerID;
 2061              		.loc 1 975 0
 2062 002a 7B69     		ldr	r3, [r7, #20]
 2063 002c 1B6A     		ldr	r3, [r3, #32]
 2064 002e 3B61     		str	r3, [r7, #16]
 976:Firmware/Middlewares/Third_Party/FreeRTOS/Source/timers.c **** 	}
 977:Firmware/Middlewares/Third_Party/FreeRTOS/Source/timers.c **** 	taskEXIT_CRITICAL();
 2065              		.loc 1 977 0
 2066 0030 FFF7FEFF 		bl	vPortExitCritical
 978:Firmware/Middlewares/Third_Party/FreeRTOS/Source/timers.c **** 
 979:Firmware/Middlewares/Third_Party/FreeRTOS/Source/timers.c **** 	return pvReturn;
 2067              		.loc 1 979 0
 2068 0034 3B69     		ldr	r3, [r7, #16]
 980:Firmware/Middlewares/Third_Party/FreeRTOS/Source/timers.c **** }
 2069              		.loc 1 980 0
 2070 0036 1846     		mov	r0, r3
 2071 0038 1837     		adds	r7, r7, #24
 2072              	.LCFI100:
 2073              		.cfi_def_cfa_offset 8
 2074 003a BD46     		mov	sp, r7
 2075              	.LCFI101:
 2076              		.cfi_def_cfa_register 13
 2077              		@ sp needed
 2078 003c 80BD     		pop	{r7, pc}
 2079              		.cfi_endproc
 2080              	.LFE23:
 2082              		.section	.text.vTimerSetTimerID,"ax",%progbits
 2083              		.align	1
 2084              		.global	vTimerSetTimerID
 2085              		.syntax unified
 2086              		.thumb
 2087              		.thumb_func
 2088              		.fpu fpv4-sp-d16
 2090              	vTimerSetTimerID:
 2091              	.LFB24:
 981:Firmware/Middlewares/Third_Party/FreeRTOS/Source/timers.c **** /*-----------------------------------------------------------*/
 982:Firmware/Middlewares/Third_Party/FreeRTOS/Source/timers.c **** 
 983:Firmware/Middlewares/Third_Party/FreeRTOS/Source/timers.c **** void vTimerSetTimerID( TimerHandle_t xTimer, void *pvNewID )
 984:Firmware/Middlewares/Third_Party/FreeRTOS/Source/timers.c **** {
 2092              		.loc 1 984 0
 2093              		.cfi_startproc
 2094              		@ args = 0, pretend = 0, frame = 16
 2095              		@ frame_needed = 1, uses_anonymous_args = 0
 2096 0000 80B5     		push	{r7, lr}
 2097              	.LCFI102:
 2098              		.cfi_def_cfa_offset 8
 2099              		.cfi_offset 7, -8
 2100              		.cfi_offset 14, -4
 2101 0002 84B0     		sub	sp, sp, #16
 2102              	.LCFI103:
 2103              		.cfi_def_cfa_offset 24
 2104 0004 00AF     		add	r7, sp, #0
ARM GAS  /tmp/ccL996FO.s 			page 58


 2105              	.LCFI104:
 2106              		.cfi_def_cfa_register 7
 2107 0006 7860     		str	r0, [r7, #4]
 2108 0008 3960     		str	r1, [r7]
 985:Firmware/Middlewares/Third_Party/FreeRTOS/Source/timers.c **** Timer_t * const pxTimer = ( Timer_t * ) xTimer;
 2109              		.loc 1 985 0
 2110 000a 7B68     		ldr	r3, [r7, #4]
 2111 000c FB60     		str	r3, [r7, #12]
 986:Firmware/Middlewares/Third_Party/FreeRTOS/Source/timers.c **** 
 987:Firmware/Middlewares/Third_Party/FreeRTOS/Source/timers.c **** 	configASSERT( xTimer );
 2112              		.loc 1 987 0
 2113 000e 7B68     		ldr	r3, [r7, #4]
 2114 0010 002B     		cmp	r3, #0
 2115 0012 09D1     		bne	.L131
 2116              	.LBB77:
 2117              	.LBB78:
 2118              		.loc 2 195 0 discriminator 1
 2119              		.syntax unified
 2120              	@ 195 "Firmware/Middlewares/Third_Party/FreeRTOS/Source/portable/GCC/ARM_CM4F/portmacro.h" 1
 2121 0014 4FF05003 			mov r3, #80												
 2122 0018 83F31188 		msr basepri, r3											
 2123 001c BFF36F8F 		isb														
 2124 0020 BFF34F8F 		dsb														
 2125              	
 2126              	@ 0 "" 2
 2127              		.thumb
 2128              		.syntax unified
 2129 0024 BB60     		str	r3, [r7, #8]
 2130              	.L132:
 2131              	.LBE78:
 2132              	.LBE77:
 2133              		.loc 1 987 0 discriminator 1
 2134 0026 FEE7     		b	.L132
 2135              	.L131:
 988:Firmware/Middlewares/Third_Party/FreeRTOS/Source/timers.c **** 
 989:Firmware/Middlewares/Third_Party/FreeRTOS/Source/timers.c **** 	taskENTER_CRITICAL();
 2136              		.loc 1 989 0
 2137 0028 FFF7FEFF 		bl	vPortEnterCritical
 990:Firmware/Middlewares/Third_Party/FreeRTOS/Source/timers.c **** 	{
 991:Firmware/Middlewares/Third_Party/FreeRTOS/Source/timers.c **** 		pxTimer->pvTimerID = pvNewID;
 2138              		.loc 1 991 0
 2139 002c FB68     		ldr	r3, [r7, #12]
 2140 002e 3A68     		ldr	r2, [r7]
 2141 0030 1A62     		str	r2, [r3, #32]
 992:Firmware/Middlewares/Third_Party/FreeRTOS/Source/timers.c **** 	}
 993:Firmware/Middlewares/Third_Party/FreeRTOS/Source/timers.c **** 	taskEXIT_CRITICAL();
 2142              		.loc 1 993 0
 2143 0032 FFF7FEFF 		bl	vPortExitCritical
 994:Firmware/Middlewares/Third_Party/FreeRTOS/Source/timers.c **** }
 2144              		.loc 1 994 0
 2145 0036 00BF     		nop
 2146 0038 1037     		adds	r7, r7, #16
 2147              	.LCFI105:
 2148              		.cfi_def_cfa_offset 8
 2149 003a BD46     		mov	sp, r7
 2150              	.LCFI106:
 2151              		.cfi_def_cfa_register 13
ARM GAS  /tmp/ccL996FO.s 			page 59


 2152              		@ sp needed
 2153 003c 80BD     		pop	{r7, pc}
 2154              		.cfi_endproc
 2155              	.LFE24:
 2157              		.section	.text.xTimerPendFunctionCallFromISR,"ax",%progbits
 2158              		.align	1
 2159              		.global	xTimerPendFunctionCallFromISR
 2160              		.syntax unified
 2161              		.thumb
 2162              		.thumb_func
 2163              		.fpu fpv4-sp-d16
 2165              	xTimerPendFunctionCallFromISR:
 2166              	.LFB25:
 995:Firmware/Middlewares/Third_Party/FreeRTOS/Source/timers.c **** /*-----------------------------------------------------------*/
 996:Firmware/Middlewares/Third_Party/FreeRTOS/Source/timers.c **** 
 997:Firmware/Middlewares/Third_Party/FreeRTOS/Source/timers.c **** #if( INCLUDE_xTimerPendFunctionCall == 1 )
 998:Firmware/Middlewares/Third_Party/FreeRTOS/Source/timers.c **** 
 999:Firmware/Middlewares/Third_Party/FreeRTOS/Source/timers.c **** 	BaseType_t xTimerPendFunctionCallFromISR( PendedFunction_t xFunctionToPend, void *pvParameter1, ui
1000:Firmware/Middlewares/Third_Party/FreeRTOS/Source/timers.c **** 	{
 2167              		.loc 1 1000 0
 2168              		.cfi_startproc
 2169              		@ args = 0, pretend = 0, frame = 40
 2170              		@ frame_needed = 1, uses_anonymous_args = 0
 2171 0000 80B5     		push	{r7, lr}
 2172              	.LCFI107:
 2173              		.cfi_def_cfa_offset 8
 2174              		.cfi_offset 7, -8
 2175              		.cfi_offset 14, -4
 2176 0002 8AB0     		sub	sp, sp, #40
 2177              	.LCFI108:
 2178              		.cfi_def_cfa_offset 48
 2179 0004 00AF     		add	r7, sp, #0
 2180              	.LCFI109:
 2181              		.cfi_def_cfa_register 7
 2182 0006 F860     		str	r0, [r7, #12]
 2183 0008 B960     		str	r1, [r7, #8]
 2184 000a 7A60     		str	r2, [r7, #4]
 2185 000c 3B60     		str	r3, [r7]
1001:Firmware/Middlewares/Third_Party/FreeRTOS/Source/timers.c **** 	DaemonTaskMessage_t xMessage;
1002:Firmware/Middlewares/Third_Party/FreeRTOS/Source/timers.c **** 	BaseType_t xReturn;
1003:Firmware/Middlewares/Third_Party/FreeRTOS/Source/timers.c **** 
1004:Firmware/Middlewares/Third_Party/FreeRTOS/Source/timers.c **** 		/* Complete the message with the function parameters and post it to the
1005:Firmware/Middlewares/Third_Party/FreeRTOS/Source/timers.c **** 		daemon task. */
1006:Firmware/Middlewares/Third_Party/FreeRTOS/Source/timers.c **** 		xMessage.xMessageID = tmrCOMMAND_EXECUTE_CALLBACK_FROM_ISR;
 2186              		.loc 1 1006 0
 2187 000e 6FF00103 		mvn	r3, #1
 2188 0012 7B61     		str	r3, [r7, #20]
1007:Firmware/Middlewares/Third_Party/FreeRTOS/Source/timers.c **** 		xMessage.u.xCallbackParameters.pxCallbackFunction = xFunctionToPend;
 2189              		.loc 1 1007 0
 2190 0014 FB68     		ldr	r3, [r7, #12]
 2191 0016 BB61     		str	r3, [r7, #24]
1008:Firmware/Middlewares/Third_Party/FreeRTOS/Source/timers.c **** 		xMessage.u.xCallbackParameters.pvParameter1 = pvParameter1;
 2192              		.loc 1 1008 0
 2193 0018 BB68     		ldr	r3, [r7, #8]
 2194 001a FB61     		str	r3, [r7, #28]
1009:Firmware/Middlewares/Third_Party/FreeRTOS/Source/timers.c **** 		xMessage.u.xCallbackParameters.ulParameter2 = ulParameter2;
 2195              		.loc 1 1009 0
ARM GAS  /tmp/ccL996FO.s 			page 60


 2196 001c 7B68     		ldr	r3, [r7, #4]
 2197 001e 3B62     		str	r3, [r7, #32]
1010:Firmware/Middlewares/Third_Party/FreeRTOS/Source/timers.c **** 
1011:Firmware/Middlewares/Third_Party/FreeRTOS/Source/timers.c **** 		xReturn = xQueueSendFromISR( xTimerQueue, &xMessage, pxHigherPriorityTaskWoken );
 2198              		.loc 1 1011 0
 2199 0020 064B     		ldr	r3, .L135
 2200 0022 1868     		ldr	r0, [r3]
 2201 0024 07F11401 		add	r1, r7, #20
 2202 0028 0023     		movs	r3, #0
 2203 002a 3A68     		ldr	r2, [r7]
 2204 002c FFF7FEFF 		bl	xQueueGenericSendFromISR
 2205 0030 7862     		str	r0, [r7, #36]
1012:Firmware/Middlewares/Third_Party/FreeRTOS/Source/timers.c **** 
1013:Firmware/Middlewares/Third_Party/FreeRTOS/Source/timers.c **** 		tracePEND_FUNC_CALL_FROM_ISR( xFunctionToPend, pvParameter1, ulParameter2, xReturn );
1014:Firmware/Middlewares/Third_Party/FreeRTOS/Source/timers.c **** 
1015:Firmware/Middlewares/Third_Party/FreeRTOS/Source/timers.c **** 		return xReturn;
 2206              		.loc 1 1015 0
 2207 0032 7B6A     		ldr	r3, [r7, #36]
1016:Firmware/Middlewares/Third_Party/FreeRTOS/Source/timers.c **** 	}
 2208              		.loc 1 1016 0
 2209 0034 1846     		mov	r0, r3
 2210 0036 2837     		adds	r7, r7, #40
 2211              	.LCFI110:
 2212              		.cfi_def_cfa_offset 8
 2213 0038 BD46     		mov	sp, r7
 2214              	.LCFI111:
 2215              		.cfi_def_cfa_register 13
 2216              		@ sp needed
 2217 003a 80BD     		pop	{r7, pc}
 2218              	.L136:
 2219              		.align	2
 2220              	.L135:
 2221 003c 00000000 		.word	xTimerQueue
 2222              		.cfi_endproc
 2223              	.LFE25:
 2225              		.section	.text.xTimerPendFunctionCall,"ax",%progbits
 2226              		.align	1
 2227              		.global	xTimerPendFunctionCall
 2228              		.syntax unified
 2229              		.thumb
 2230              		.thumb_func
 2231              		.fpu fpv4-sp-d16
 2233              	xTimerPendFunctionCall:
 2234              	.LFB26:
1017:Firmware/Middlewares/Third_Party/FreeRTOS/Source/timers.c **** 
1018:Firmware/Middlewares/Third_Party/FreeRTOS/Source/timers.c **** #endif /* INCLUDE_xTimerPendFunctionCall */
1019:Firmware/Middlewares/Third_Party/FreeRTOS/Source/timers.c **** /*-----------------------------------------------------------*/
1020:Firmware/Middlewares/Third_Party/FreeRTOS/Source/timers.c **** 
1021:Firmware/Middlewares/Third_Party/FreeRTOS/Source/timers.c **** #if( INCLUDE_xTimerPendFunctionCall == 1 )
1022:Firmware/Middlewares/Third_Party/FreeRTOS/Source/timers.c **** 
1023:Firmware/Middlewares/Third_Party/FreeRTOS/Source/timers.c **** 	BaseType_t xTimerPendFunctionCall( PendedFunction_t xFunctionToPend, void *pvParameter1, uint32_t 
1024:Firmware/Middlewares/Third_Party/FreeRTOS/Source/timers.c **** 	{
 2235              		.loc 1 1024 0
 2236              		.cfi_startproc
 2237              		@ args = 0, pretend = 0, frame = 40
 2238              		@ frame_needed = 1, uses_anonymous_args = 0
 2239 0000 80B5     		push	{r7, lr}
ARM GAS  /tmp/ccL996FO.s 			page 61


 2240              	.LCFI112:
 2241              		.cfi_def_cfa_offset 8
 2242              		.cfi_offset 7, -8
 2243              		.cfi_offset 14, -4
 2244 0002 8AB0     		sub	sp, sp, #40
 2245              	.LCFI113:
 2246              		.cfi_def_cfa_offset 48
 2247 0004 00AF     		add	r7, sp, #0
 2248              	.LCFI114:
 2249              		.cfi_def_cfa_register 7
 2250 0006 F860     		str	r0, [r7, #12]
 2251 0008 B960     		str	r1, [r7, #8]
 2252 000a 7A60     		str	r2, [r7, #4]
 2253 000c 3B60     		str	r3, [r7]
1025:Firmware/Middlewares/Third_Party/FreeRTOS/Source/timers.c **** 	DaemonTaskMessage_t xMessage;
1026:Firmware/Middlewares/Third_Party/FreeRTOS/Source/timers.c **** 	BaseType_t xReturn;
1027:Firmware/Middlewares/Third_Party/FreeRTOS/Source/timers.c **** 
1028:Firmware/Middlewares/Third_Party/FreeRTOS/Source/timers.c **** 		/* This function can only be called after a timer has been created or
1029:Firmware/Middlewares/Third_Party/FreeRTOS/Source/timers.c **** 		after the scheduler has been started because, until then, the timer
1030:Firmware/Middlewares/Third_Party/FreeRTOS/Source/timers.c **** 		queue does not exist. */
1031:Firmware/Middlewares/Third_Party/FreeRTOS/Source/timers.c **** 		configASSERT( xTimerQueue );
 2254              		.loc 1 1031 0
 2255 000e 124B     		ldr	r3, .L141
 2256 0010 1B68     		ldr	r3, [r3]
 2257 0012 002B     		cmp	r3, #0
 2258 0014 09D1     		bne	.L138
 2259              	.LBB79:
 2260              	.LBB80:
 2261              		.loc 2 195 0 discriminator 1
 2262              		.syntax unified
 2263              	@ 195 "Firmware/Middlewares/Third_Party/FreeRTOS/Source/portable/GCC/ARM_CM4F/portmacro.h" 1
 2264 0016 4FF05003 			mov r3, #80												
 2265 001a 83F31188 		msr basepri, r3											
 2266 001e BFF36F8F 		isb														
 2267 0022 BFF34F8F 		dsb														
 2268              	
 2269              	@ 0 "" 2
 2270              		.thumb
 2271              		.syntax unified
 2272 0026 3B62     		str	r3, [r7, #32]
 2273              	.L139:
 2274              	.LBE80:
 2275              	.LBE79:
 2276              		.loc 1 1031 0 discriminator 1
 2277 0028 FEE7     		b	.L139
 2278              	.L138:
1032:Firmware/Middlewares/Third_Party/FreeRTOS/Source/timers.c **** 
1033:Firmware/Middlewares/Third_Party/FreeRTOS/Source/timers.c **** 		/* Complete the message with the function parameters and post it to the
1034:Firmware/Middlewares/Third_Party/FreeRTOS/Source/timers.c **** 		daemon task. */
1035:Firmware/Middlewares/Third_Party/FreeRTOS/Source/timers.c **** 		xMessage.xMessageID = tmrCOMMAND_EXECUTE_CALLBACK;
 2279              		.loc 1 1035 0
 2280 002a 4FF0FF33 		mov	r3, #-1
 2281 002e 3B61     		str	r3, [r7, #16]
1036:Firmware/Middlewares/Third_Party/FreeRTOS/Source/timers.c **** 		xMessage.u.xCallbackParameters.pxCallbackFunction = xFunctionToPend;
 2282              		.loc 1 1036 0
 2283 0030 FB68     		ldr	r3, [r7, #12]
 2284 0032 7B61     		str	r3, [r7, #20]
ARM GAS  /tmp/ccL996FO.s 			page 62


1037:Firmware/Middlewares/Third_Party/FreeRTOS/Source/timers.c **** 		xMessage.u.xCallbackParameters.pvParameter1 = pvParameter1;
 2285              		.loc 1 1037 0
 2286 0034 BB68     		ldr	r3, [r7, #8]
 2287 0036 BB61     		str	r3, [r7, #24]
1038:Firmware/Middlewares/Third_Party/FreeRTOS/Source/timers.c **** 		xMessage.u.xCallbackParameters.ulParameter2 = ulParameter2;
 2288              		.loc 1 1038 0
 2289 0038 7B68     		ldr	r3, [r7, #4]
 2290 003a FB61     		str	r3, [r7, #28]
1039:Firmware/Middlewares/Third_Party/FreeRTOS/Source/timers.c **** 
1040:Firmware/Middlewares/Third_Party/FreeRTOS/Source/timers.c **** 		xReturn = xQueueSendToBack( xTimerQueue, &xMessage, xTicksToWait );
 2291              		.loc 1 1040 0
 2292 003c 064B     		ldr	r3, .L141
 2293 003e 1868     		ldr	r0, [r3]
 2294 0040 07F11001 		add	r1, r7, #16
 2295 0044 0023     		movs	r3, #0
 2296 0046 3A68     		ldr	r2, [r7]
 2297 0048 FFF7FEFF 		bl	xQueueGenericSend
 2298 004c 7862     		str	r0, [r7, #36]
1041:Firmware/Middlewares/Third_Party/FreeRTOS/Source/timers.c **** 
1042:Firmware/Middlewares/Third_Party/FreeRTOS/Source/timers.c **** 		tracePEND_FUNC_CALL( xFunctionToPend, pvParameter1, ulParameter2, xReturn );
1043:Firmware/Middlewares/Third_Party/FreeRTOS/Source/timers.c **** 
1044:Firmware/Middlewares/Third_Party/FreeRTOS/Source/timers.c **** 		return xReturn;
 2299              		.loc 1 1044 0
 2300 004e 7B6A     		ldr	r3, [r7, #36]
1045:Firmware/Middlewares/Third_Party/FreeRTOS/Source/timers.c **** 	}
 2301              		.loc 1 1045 0
 2302 0050 1846     		mov	r0, r3
 2303 0052 2837     		adds	r7, r7, #40
 2304              	.LCFI115:
 2305              		.cfi_def_cfa_offset 8
 2306 0054 BD46     		mov	sp, r7
 2307              	.LCFI116:
 2308              		.cfi_def_cfa_register 13
 2309              		@ sp needed
 2310 0056 80BD     		pop	{r7, pc}
 2311              	.L142:
 2312              		.align	2
 2313              	.L141:
 2314 0058 00000000 		.word	xTimerQueue
 2315              		.cfi_endproc
 2316              	.LFE26:
 2318              		.section	.text.uxTimerGetTimerNumber,"ax",%progbits
 2319              		.align	1
 2320              		.global	uxTimerGetTimerNumber
 2321              		.syntax unified
 2322              		.thumb
 2323              		.thumb_func
 2324              		.fpu fpv4-sp-d16
 2326              	uxTimerGetTimerNumber:
 2327              	.LFB27:
1046:Firmware/Middlewares/Third_Party/FreeRTOS/Source/timers.c **** 
1047:Firmware/Middlewares/Third_Party/FreeRTOS/Source/timers.c **** #endif /* INCLUDE_xTimerPendFunctionCall */
1048:Firmware/Middlewares/Third_Party/FreeRTOS/Source/timers.c **** /*-----------------------------------------------------------*/
1049:Firmware/Middlewares/Third_Party/FreeRTOS/Source/timers.c **** 
1050:Firmware/Middlewares/Third_Party/FreeRTOS/Source/timers.c **** #if ( configUSE_TRACE_FACILITY == 1 )
1051:Firmware/Middlewares/Third_Party/FreeRTOS/Source/timers.c **** 
1052:Firmware/Middlewares/Third_Party/FreeRTOS/Source/timers.c **** 	UBaseType_t uxTimerGetTimerNumber( TimerHandle_t xTimer )
ARM GAS  /tmp/ccL996FO.s 			page 63


1053:Firmware/Middlewares/Third_Party/FreeRTOS/Source/timers.c **** 	{
 2328              		.loc 1 1053 0
 2329              		.cfi_startproc
 2330              		@ args = 0, pretend = 0, frame = 8
 2331              		@ frame_needed = 1, uses_anonymous_args = 0
 2332              		@ link register save eliminated.
 2333 0000 80B4     		push	{r7}
 2334              	.LCFI117:
 2335              		.cfi_def_cfa_offset 4
 2336              		.cfi_offset 7, -4
 2337 0002 83B0     		sub	sp, sp, #12
 2338              	.LCFI118:
 2339              		.cfi_def_cfa_offset 16
 2340 0004 00AF     		add	r7, sp, #0
 2341              	.LCFI119:
 2342              		.cfi_def_cfa_register 7
 2343 0006 7860     		str	r0, [r7, #4]
1054:Firmware/Middlewares/Third_Party/FreeRTOS/Source/timers.c **** 		return ( ( Timer_t * ) xTimer )->uxTimerNumber;
 2344              		.loc 1 1054 0
 2345 0008 7B68     		ldr	r3, [r7, #4]
 2346 000a 9B6A     		ldr	r3, [r3, #40]
1055:Firmware/Middlewares/Third_Party/FreeRTOS/Source/timers.c **** 	}
 2347              		.loc 1 1055 0
 2348 000c 1846     		mov	r0, r3
 2349 000e 0C37     		adds	r7, r7, #12
 2350              	.LCFI120:
 2351              		.cfi_def_cfa_offset 4
 2352 0010 BD46     		mov	sp, r7
 2353              	.LCFI121:
 2354              		.cfi_def_cfa_register 13
 2355              		@ sp needed
 2356 0012 5DF8047B 		ldr	r7, [sp], #4
 2357              	.LCFI122:
 2358              		.cfi_restore 7
 2359              		.cfi_def_cfa_offset 0
 2360 0016 7047     		bx	lr
 2361              		.cfi_endproc
 2362              	.LFE27:
 2364              		.section	.text.vTimerSetTimerNumber,"ax",%progbits
 2365              		.align	1
 2366              		.global	vTimerSetTimerNumber
 2367              		.syntax unified
 2368              		.thumb
 2369              		.thumb_func
 2370              		.fpu fpv4-sp-d16
 2372              	vTimerSetTimerNumber:
 2373              	.LFB28:
1056:Firmware/Middlewares/Third_Party/FreeRTOS/Source/timers.c **** 
1057:Firmware/Middlewares/Third_Party/FreeRTOS/Source/timers.c **** #endif /* configUSE_TRACE_FACILITY */
1058:Firmware/Middlewares/Third_Party/FreeRTOS/Source/timers.c **** /*-----------------------------------------------------------*/
1059:Firmware/Middlewares/Third_Party/FreeRTOS/Source/timers.c **** 
1060:Firmware/Middlewares/Third_Party/FreeRTOS/Source/timers.c **** #if ( configUSE_TRACE_FACILITY == 1 )
1061:Firmware/Middlewares/Third_Party/FreeRTOS/Source/timers.c **** 
1062:Firmware/Middlewares/Third_Party/FreeRTOS/Source/timers.c **** 	void vTimerSetTimerNumber( TimerHandle_t xTimer, UBaseType_t uxTimerNumber )
1063:Firmware/Middlewares/Third_Party/FreeRTOS/Source/timers.c **** 	{
 2374              		.loc 1 1063 0
 2375              		.cfi_startproc
ARM GAS  /tmp/ccL996FO.s 			page 64


 2376              		@ args = 0, pretend = 0, frame = 8
 2377              		@ frame_needed = 1, uses_anonymous_args = 0
 2378              		@ link register save eliminated.
 2379 0000 80B4     		push	{r7}
 2380              	.LCFI123:
 2381              		.cfi_def_cfa_offset 4
 2382              		.cfi_offset 7, -4
 2383 0002 83B0     		sub	sp, sp, #12
 2384              	.LCFI124:
 2385              		.cfi_def_cfa_offset 16
 2386 0004 00AF     		add	r7, sp, #0
 2387              	.LCFI125:
 2388              		.cfi_def_cfa_register 7
 2389 0006 7860     		str	r0, [r7, #4]
 2390 0008 3960     		str	r1, [r7]
1064:Firmware/Middlewares/Third_Party/FreeRTOS/Source/timers.c **** 		( ( Timer_t * ) xTimer )->uxTimerNumber = uxTimerNumber;
 2391              		.loc 1 1064 0
 2392 000a 7B68     		ldr	r3, [r7, #4]
 2393 000c 3A68     		ldr	r2, [r7]
 2394 000e 9A62     		str	r2, [r3, #40]
1065:Firmware/Middlewares/Third_Party/FreeRTOS/Source/timers.c **** 	}
 2395              		.loc 1 1065 0
 2396 0010 00BF     		nop
 2397 0012 0C37     		adds	r7, r7, #12
 2398              	.LCFI126:
 2399              		.cfi_def_cfa_offset 4
 2400 0014 BD46     		mov	sp, r7
 2401              	.LCFI127:
 2402              		.cfi_def_cfa_register 13
 2403              		@ sp needed
 2404 0016 5DF8047B 		ldr	r7, [sp], #4
 2405              	.LCFI128:
 2406              		.cfi_restore 7
 2407              		.cfi_def_cfa_offset 0
 2408 001a 7047     		bx	lr
 2409              		.cfi_endproc
 2410              	.LFE28:
 2412              		.section	.bss.xLastTime.6740,"aw",%nobits
 2413              		.align	2
 2416              	xLastTime.6740:
 2417 0000 00000000 		.space	4
 2418              		.section	.bss.ucStaticTimerQueueStorage.6791,"aw",%nobits
 2419              		.align	2
 2422              	ucStaticTimerQueueStorage.6791:
 2423 0000 00000000 		.space	160
 2423      00000000 
 2423      00000000 
 2423      00000000 
 2423      00000000 
 2424              		.section	.bss.xStaticTimerQueue.6790,"aw",%nobits
 2425              		.align	2
 2428              	xStaticTimerQueue.6790:
 2429 0000 00000000 		.space	80
 2429      00000000 
 2429      00000000 
 2429      00000000 
 2429      00000000 
ARM GAS  /tmp/ccL996FO.s 			page 65


 2430              		.text
 2431              	.Letext0:
 2432              		.file 3 "/home/zht/stm32tools/arm-gcc/lib/gcc/arm-none-eabi/7.3.1/include/stddef.h"
 2433              		.file 4 "/home/zht/stm32tools/arm-gcc/arm-none-eabi/include/machine/_default_types.h"
 2434              		.file 5 "/home/zht/stm32tools/arm-gcc/arm-none-eabi/include/sys/lock.h"
 2435              		.file 6 "/home/zht/stm32tools/arm-gcc/arm-none-eabi/include/sys/_types.h"
 2436              		.file 7 "/home/zht/stm32tools/arm-gcc/arm-none-eabi/include/sys/reent.h"
 2437              		.file 8 "/home/zht/stm32tools/arm-gcc/arm-none-eabi/include/stdlib.h"
 2438              		.file 9 "/home/zht/stm32tools/arm-gcc/arm-none-eabi/include/sys/_stdint.h"
 2439              		.file 10 "Firmware/Core/Inc/FreeRTOSConfig.h"
 2440              		.file 11 "Firmware/Middlewares/Third_Party/FreeRTOS/Source/include/FreeRTOS.h"
 2441              		.file 12 "Firmware/Middlewares/Third_Party/FreeRTOS/Source/include/list.h"
 2442              		.file 13 "Firmware/Middlewares/Third_Party/FreeRTOS/Source/include/task.h"
 2443              		.file 14 "Firmware/Middlewares/Third_Party/FreeRTOS/Source/include/queue.h"
 2444              		.file 15 "Firmware/Middlewares/Third_Party/FreeRTOS/Source/include/timers.h"
ARM GAS  /tmp/ccL996FO.s 			page 66

